MODULE mac x86_64 76EB8CB6BF593BDABF2BF21B161611B90 CFNetwork
PUBLIC 1300 0 _GLOBAL__sub_I_NSURLProtectionSpace.mm
PUBLIC 1329 0 _GLOBAL__sub_I_HTTP2Connection.cpp
PUBLIC 133d 0 _GLOBAL__sub_I_SocketStream.cpp
PUBLIC 1351 0 _GLOBAL__sub_I_StrictSecurityPolicy.cpp
PUBLIC 14ef 0 +[NSURLRequest setDefaultTimeoutInterval:]
PUBLIC 152b 0 +[NSURLCache sharedURLCache]
PUBLIC 1634 0 SharedCacheLock()
PUBLIC 166c 0 ___Z15SharedCacheLockv_block_invoke
PUBLIC 16bc 0 _CFURLCacheGetSharedCache
PUBLIC 16c9 0 -[NSURLCache init]
PUBLIC 16e8 0 -[NSURLCache initWithMemoryCapacity:diskCapacity:diskPath:]
PUBLIC 184e 0 __59-[NSURLCache initWithMemoryCapacity:diskCapacity:diskPath:]_block_invoke
PUBLIC 1859 0 CFURLCacheCreate
PUBLIC 1869 0 CFURLCacheInit()
PUBLIC 18a6 0 _URLCacheRegisterClass()
PUBLIC 18bf 0 __CreatePathToCacheDirectory(__CFString const*, bool)
PUBLIC 1c3c 0 __CreateAndReturnPathToCacheFileOnFileSystem(__CFString const*, __CFString const*)
PUBLIC 1d14 0 CoreLockable::CoreLockable(unsigned char)
PUBLIC 1d34 0 _CoreLockable::_CoreLockable(unsigned char)
PUBLIC 1dd4 0 __CFURLCache::ConvertCFStrPathToCStr()
PUBLIC 1e3c 0 __CFURLCache::createNSURLStorageClient(__CFString const*, long, std::__1::shared_ptr<__CFURLCache>)
PUBLIC 2020 0 -[NSURLStorage_CacheClient .cxx_construct]
PUBLIC 203c 0 -[NSURLStorage_CacheClient initWithCache:]
PUBLIC 2384 0 GetSandboxFileExtensionForPath(char const*)
PUBLIC 242c 0 __CFURLCache::setNSURLStorageClient(NSURLStorage_CacheClient*)
PUBLIC 24b3 0 ___ZN12__CFURLCache21CheckForCacheCacheUseEv_block_invoke
PUBLIC 2517 0 -[NSURLCache setMemoryCapacity:]
PUBLIC 2542 0 CFURLCacheSetMemoryCapacity
PUBLIC 25e5 0 IsCFURLCache(void const*)
PUBLIC 2628 0 -[NSURLCache setDiskCapacity:]
PUBLIC 2653 0 CFURLCacheSetDiskCapacity
PUBLIC 26b8 0 __CFURLCache::SetDiskCapacity(long)
PUBLIC 2838 0 -[NSURLStorage_CacheClient setMaxSize:]
PUBLIC 2897 0 -[NSURLStorage_CacheClient ensureNetworkStorageDaemonConnection]
PUBLIC 2900 0 -[NSURLStorage_CacheClient networkStorageConnectionInterrupted]
PUBLIC 2913 0 -[NSURLCache _diskCacheDefaultPath]
PUBLIC 2925 0 -[NSURLCache _cacheDirectory]
PUBLIC 2967 0 -[NSURLCache _CFURLCache]
PUBLIC 298d 0 _CFURLCacheCopyCacheDirectory
PUBLIC 29d6 0 CFURLCacheSetSharedURLCache
PUBLIC 2a27 0 -[NSURLCache memoryCapacity]
PUBLIC 2a50 0 CFURLCacheMemoryCapacity
PUBLIC 2ab1 0 -[NSURLCache diskCapacity]
PUBLIC 2adb 0 CFURLCacheDiskCapacity
PUBLIC 2b3c 0 _CFNetworkCopyATSContext
PUBLIC 2b46 0 StrictSecurityPolicy::CopyATSState()
PUBLIC 2b86 0 StrictSecurityPolicy::InitializeProcessGlobalATSState()
PUBLIC 2e96 0 StrictSecurityPolicy::CreateBinaryDataFromPropertyList(void const*)
PUBLIC 2eea 0 +[NSHTTPCookieStorage sharedHTTPCookieStorage]
PUBLIC 2f6e 0 +[NSHTTPCookieStorage _sharedCookieStorageLock]
PUBLIC 2f9a 0 __47+[NSHTTPCookieStorage _sharedCookieStorageLock]_block_invoke
PUBLIC 2feb 0 __46+[NSHTTPCookieStorage sharedHTTPCookieStorage]_block_invoke
PUBLIC 30ac 0 _CFHTTPCookieStorageGetDefault
PUBLIC 30d2 0 _CFHTTPCookieStorageCopySharedHTTPCookieStorage
PUBLIC 30f2 0 ___ZL33_CFHTTPCookieStorageCreateDefaultPK13__CFAllocator_block_invoke
PUBLIC 32d0 0 shouldUseGlobalCookieStorage()
PUBLIC 3336 0 cfTypeCreateMutableDictionary(__CFAllocator const*, ...)
PUBLIC 33d4 0 cfTypeCreateMutableDictionaryWithArgs(__CFAllocator const*, __va_list_tag*)
PUBLIC 3510 0 _CFHTTPCookieStorageCreateWithProperties_possiblyFromCache(__CFAllocator const*, __CFDictionary const*, unsigned char)
PUBLIC 3908 0 AutoDict::AutoDict(__CFAllocator const*)
PUBLIC 3942 0 AutoDict::getMutableDict()
PUBLIC 39a8 0 AutoScalar::AutoScalar(__CFAllocator const*, int)
PUBLIC 39b2 0 AutoScalar::AutoScalar(__CFAllocator const*, int)
PUBLIC 3a0a 0 AutoCountable::AutoCountable(__CFAllocator const*)
PUBLIC 3a3b 0 copyInternedInt(int)
PUBLIC 3a8e 0 AutoScalar::~AutoScalar()
PUBLIC 3a98 0 AutoScalar::~AutoScalar()
PUBLIC 3ac8 0 AutoCountable::~AutoCountable()
PUBLIC 3ae8 0 AutoDict::copyDictAndSetEmpty()
PUBLIC 3b9f 0 cacheOrCreate(__CFDictionary const*, PrivateHTTPCookieStorage* (*)(__CFDictionary const*), unsigned char)
PUBLIC 3dd4 0 _createByIdentifier(__CFDictionary const*)
PUBLIC 4056 0 ___ZL21isPrivilegedBootstrapv_block_invoke
PUBLIC 40b0 0 CFAllocatedObject::operator new(unsigned long, __CFAllocator const*)
PUBLIC 40de 0 ExternalCookieStorage::ExternalCookieStorage()
PUBLIC 413a 0 ExternalStorage::ExternalStorage()
PUBLIC 4158 0 PrivateHTTPCookieStorage::PrivateHTTPCookieStorage(unsigned char)
PUBLIC 41c0 0 CFAllocatedReferenceCountedObject::CFAllocatedReferenceCountedObject(__CFAllocator const*)
PUBLIC 4204 0 ExternalCookieStorage::initialize(__CFString const*, unsigned char)
PUBLIC 4324 0 ExternalStorage::initialize(__CFString const*, unsigned char, dispatch_queue_s*)
PUBLIC 4406 0 ExternalCookieStorage::es_retain()
PUBLIC 4416 0 CFAllocatedReferenceCountedObject::retain() const
PUBLIC 4420 0 ExternalStorage::establishConnection(void (unsigned char) block_pointer)
PUBLIC 47ac 0 DiagnosticLogging::userDiagnosticLevel()
PUBLIC 4de8 0 std::__1::basic_filebuf<char, std::__1::char_traits<char> >::basic_filebuf()
PUBLIC 4edc 0 std::__1::basic_filebuf<char, std::__1::char_traits<char> >::setbuf(char*, long)
PUBLIC 4ff0 0 std::__1::basic_ifstream<char, std::__1::char_traits<char> >::open(char const*, unsigned int)
PUBLIC 502c 0 std::__1::basic_filebuf<char, std::__1::char_traits<char> >::open(char const*, unsigned int)
PUBLIC 51b8 0 std::__1::basic_filebuf<char, std::__1::char_traits<char> >::close()
PUBLIC 5208 0 std::__1::basic_filebuf<char, std::__1::char_traits<char> >::~basic_filebuf()
PUBLIC 5260 0 _CFStringGetOrCreateCString
PUBLIC 535e 0 ExternalCookieStorage::checkinMessage()
PUBLIC 536b 0 ___ZN15ExternalStorage19establishConnectionEU13block_pointerFvhE_block_invoke_2
PUBLIC 53de 0 ___ZN15ExternalStorage10initializeEPK10__CFStringhP16dispatch_queue_s_block_invoke
PUBLIC 5416 0 ExternalCookieStorage::es_release()
PUBLIC 5426 0 ExternalStorageCache::ExternalStorageCache(__CFAllocator const*, __CFString const*)
PUBLIC 5430 0 CFAllocatedReferenceCountedObject::release() const
PUBLIC 5452 0 ExternalStorageCache::ExternalStorageCache(__CFAllocator const*, __CFString const*)
PUBLIC 54b4 0 newCaseInsensitiveCStringToRetainableMutableDictionary(__CFAllocator const*)
PUBLIC 54ce 0 Crumbery::Class()
PUBLIC 54fa 0 ___ZN8Crumbery5ClassEv_block_invoke
PUBLIC 552a 0 CFClass::CFClass(char const*)
PUBLIC 5534 0 CFClass::CFClass(char const*)
PUBLIC 55ba 0 CFObject::Allocate(unsigned long, CFClass const&, __CFAllocator const*)
PUBLIC 5604 0 Crumbery::Crumbery(__CFString const*, unsigned int, unsigned char, unsigned int)
PUBLIC 57dc 0 CFObject::CFObject()
PUBLIC 57ec 0 Crumbery::getSeed() const
PUBLIC 5808 0 CFAllocatedReferenceCountedObject::_retainable_retain(__CFAllocator const*, void const*)
PUBLIC 5824 0 HTTPCookieStorage::Class()
PUBLIC 5850 0 ___ZN17HTTPCookieStorage5ClassEv_block_invoke
PUBLIC 5880 0 non-virtual thunk to ExternalCookieStorage::attachedClientLocked()
PUBLIC 58ce 0 ExternalStorage::withConnectionAsync(void (_xpc_connection_s*) block_pointer)
PUBLIC 593a 0 AutoDict::~AutoDict()
PUBLIC 5945 0 ___ZN15ExternalStorage19withConnectionAsyncEU13block_pointerFvP17_xpc_connection_sE_block_invoke
PUBLIC 5976 0 AutoDict::~AutoDict()
PUBLIC 59bd 0 -[NSHTTPCookieStorage _initWithCFHTTPCookieStorage:]
PUBLIC 5a37 0 ___ZN21ExternalCookieStorage20attachedClientLockedEv_block_invoke
PUBLIC 5a4b 0 -[NSHTTPCookieStorageInternal initInternalWithCFStorage:]
PUBLIC 5b50 0 CFHTTPCookieStorageCreateInMemory
PUBLIC 5bca 0 MemoryCookieStorage::MemoryCookieStorage(unsigned char)
PUBLIC 5bd4 0 MemoryCookieStorage::MemoryCookieStorage(unsigned char)
PUBLIC 5c27 0 operator new(unsigned long, __CFAllocator const*)
PUBLIC 5c54 0 MemoryCookies::MemoryCookies(__CFAllocator const*)
PUBLIC 5ca1 0 newCaseInsensitiveCStringToCFTypeMutableDictionary(__CFAllocator const*)
PUBLIC 5cbc 0 PrivateHTTPCookieStorage::attachedClientLocked()
PUBLIC 5cc2 0 -[NSHTTPCookieStorageInternal registerForPostingNotificationsWithContext:]
PUBLIC 5daa 0 CFHTTPCookieStorageAddObserver
PUBLIC 5dca 0 _initObserverLock()
PUBLIC 5e30 0 SourceContext::retain(void const*)
PUBLIC 5e50 0 HTTPCookieStorage::addObserver(__CFRunLoopSource*)
PUBLIC 5e93 0 cfTypeCreateArray(__CFAllocator const*, ...)
PUBLIC 5fec 0 CFClass::EqualObj(void const*, void const*)
PUBLIC 6014 0 CFObject::equals(CFObject const&) const
PUBLIC 6020 0 +[NSURLConnection(Loader) resourceLoaderRunLoop]
PUBLIC 604c 0 __48+[NSURLConnection(Loader) resourceLoaderRunLoop]_block_invoke
PUBLIC 6074 0 HTTPProtocolSSLSupport::bindToKeychainOnInitialization()
PUBLIC 608d 0 CFHTTPCookieStorageScheduleWithRunLoop
PUBLIC 60c8 0 HTTPCookieStorage::scheduleWithRunLoop(__CFRunLoop*, __CFString const*)
PUBLIC 61e2 0 -[NSHTTPCookieStorage _cookieStorage]
PUBLIC 6220 0 CFHTTPCookieStorageCreateIdentifyingData
PUBLIC 627a 0 HTTPCookieStorage::createArchive(__CFAllocator const*)
PUBLIC 6383 0 ___ZN21ExternalCookieStorage27getCookieAcceptPolicyLockedEU13block_pointerFviE_block_invoke
PUBLIC 6482 0 ExternalStorageCache::checkForCleanedCrumbery()
PUBLIC 64b2 0 ExternalStorageCache::checkForCleanedCrumberyLocked()
PUBLIC 64ee 0 ___ZN21ExternalCookieStorage27getCookieAcceptPolicyLockedEU13block_pointerFviE_block_invoke_2
PUBLIC 6558 0 ExternalStorage::successfulReply(void*)
PUBLIC 6590 0 AutoArray::getEmptyArray()
PUBLIC 65d8 0 non-virtual thunk to ExternalCookieStorage::addToArchiveInternalLocked(__CFArray*)
PUBLIC 65ee 0 PrivateHTTPCookieStorage::addIdentifierToArchiveInternalLocked(__CFArray*, __CFString const*, __CFString const*, unsigned char)
PUBLIC 66a0 0 CFURLProtocolRegisterImplementation
PUBLIC 6806 0 +[NSURLProtocol registerClass:]
PUBLIC 6840 0 +[NSURLSession sharedSession]
PUBLIC 686c 0 __29+[NSURLSession sharedSession]_block_invoke
PUBLIC 68c9 0 +[NSURLSessionConfiguration sessionConfigurationForSharedSession]
PUBLIC 691a 0 __65+[NSURLSessionConfiguration sessionConfigurationForSharedSession]_block_invoke
PUBLIC 6958 0 -[__NSCFURLSessionConfiguration initWithDisposition:]
PUBLIC 6c4c 0 -[NSURLSessionConfiguration initWithDisposition:]
PUBLIC 6c7c 0 globalConnectionCacheLimits()
PUBLIC 6cab 0 ___ZL19mutableGlobalLimitsv_block_invoke
PUBLIC 6ce3 0 -[__NSCFURLSessionConfiguration setDisposition:]
PUBLIC 6cf4 0 __CFNSecuritySocketLevelProtocol
PUBLIC 6cff 0 +[NSURLSessionConfiguration _defaultProtocolClasses]
PUBLIC 6db8 0 -[__NSCFURLSessionConfiguration copyWithZone:]
PUBLIC 786a 0 -[__NSCFURLSessionConfiguration disposition]
PUBLIC 787b 0 -[__NSCFURLSessionConfiguration allowsCellularAccess]
PUBLIC 788e 0 -[__NSCFURLSessionConfiguration setAllowsCellularAccess:]
PUBLIC 78a1 0 -[__NSCFURLSessionConfiguration isDiscretionary]
PUBLIC 78b4 0 -[__NSCFURLSessionConfiguration setDiscretionary:]
PUBLIC 78c4 0 -[__NSCFURLSessionConfiguration sharedContainerIdentifier]
PUBLIC 78da 0 -[__NSCFURLSessionConfiguration setSharedContainerIdentifier:]
PUBLIC 78ed 0 -[__NSCFURLSessionConfiguration HTTPShouldUsePipelining]
PUBLIC 7900 0 -[__NSCFURLSessionConfiguration setHTTPShouldUsePipelining:]
PUBLIC 7910 0 -[__NSCFURLSessionConfiguration HTTPShouldSetCookies]
PUBLIC 7923 0 -[__NSCFURLSessionConfiguration setHTTPShouldSetCookies:]
PUBLIC 7934 0 -[__NSCFURLSessionConfiguration _requiresPowerPluggedIn]
PUBLIC 7947 0 -[__NSCFURLSessionConfiguration set_requiresPowerPluggedIn:]
PUBLIC 7957 0 -[__NSCFURLSessionConfiguration _allowsExpensiveAccess]
PUBLIC 796a 0 -[__NSCFURLSessionConfiguration set_allowsExpensiveAccess:]
PUBLIC 797a 0 -[__NSCFURLSessionConfiguration _allowsPowerNapScheduling]
PUBLIC 798d 0 -[__NSCFURLSessionConfiguration set_allowsPowerNapScheduling:]
PUBLIC 79a0 0 -[__NSCFURLSessionConfiguration _sessionSendsLaunchOnDemandEvents]
PUBLIC 79b3 0 -[__NSCFURLSessionConfiguration set_sessionSendsLaunchOnDemandEvents:]
PUBLIC 79c3 0 -[__NSCFURLSessionConfiguration _collectsTimingData]
PUBLIC 79d6 0 -[__NSCFURLSessionConfiguration set_collectsTimingData:]
PUBLIC 79e6 0 -[__NSCFURLSessionConfiguration _timingDataOptions]
PUBLIC 79f7 0 -[__NSCFURLSessionConfiguration set_timingDataOptions:]
PUBLIC 7a08 0 -[__NSCFURLSessionConfiguration _shouldSkipPreferredClientCertificateLookup]
PUBLIC 7a1b 0 -[__NSCFURLSessionConfiguration set_shouldSkipPreferredClientCertificateLookup:]
PUBLIC 7a2c 0 -[__NSCFURLSessionConfiguration _allowsRetryForBackgroundDataTasks]
PUBLIC 7a3f 0 -[__NSCFURLSessionConfiguration set_allowsRetryForBackgroundDataTasks:]
PUBLIC 7a51 0 -[__NSCFURLSessionConfiguration _respectsAllowsCellularAccessForDiscretionaryTasks]
PUBLIC 7a64 0 -[__NSCFURLSessionConfiguration set_respectsAllowsCellularAccessForDiscretionaryTasks:]
PUBLIC 7a76 0 -[__NSCFURLSessionConfiguration _infersDiscretionaryFromOriginatingClient]
PUBLIC 7a89 0 -[__NSCFURLSessionConfiguration set_infersDiscretionaryFromOriginatingClient:]
PUBLIC 7a9b 0 -[__NSCFURLSessionConfiguration isBackgroundSession]
PUBLIC 7aae 0 -[__NSCFURLSessionConfiguration setBackgroundSession:]
PUBLIC 7abe 0 -[__NSCFURLSessionConfiguration skip_download_unlink]
PUBLIC 7ad1 0 -[__NSCFURLSessionConfiguration setSkip_download_unlink:]
PUBLIC 7ae1 0 -[__NSCFURLSessionConfiguration _requiresClientToOpenFiles]
PUBLIC 7af4 0 -[__NSCFURLSessionConfiguration set_requiresClientToOpenFiles:]
PUBLIC 7b07 0 -[__NSCFURLSessionConfiguration _forcesNewConnections]
PUBLIC 7b1a 0 -[__NSCFURLSessionConfiguration set_forcesNewConnections:]
PUBLIC 7b2d 0 -[__NSCFURLSessionConfiguration _supportsAVAssetDownloads]
PUBLIC 7b40 0 -[__NSCFURLSessionConfiguration set_supportsAVAssetDownloads:]
PUBLIC 7b50 0 -[__NSCFURLSessionConfiguration _isProxySession]
PUBLIC 7b63 0 -[__NSCFURLSessionConfiguration set_proxySession:]
PUBLIC 7b75 0 -[__NSCFURLSessionConfiguration _preventsIdleSleep]
PUBLIC 7b88 0 -[__NSCFURLSessionConfiguration set_preventsIdleSleep:]
PUBLIC 7b98 0 -[__NSCFURLSessionConfiguration _usePipeliningHeuristics]
PUBLIC 7bab 0 -[__NSCFURLSessionConfiguration set_usePipeliningHeuristics:]
PUBLIC 7bbd 0 -[__NSCFURLSessionConfiguration TLSMinimumSupportedProtocol]
PUBLIC 7bcd 0 -[__NSCFURLSessionConfiguration setTLSMinimumSupportedProtocol:]
PUBLIC 7bdd 0 -[__NSCFURLSessionConfiguration TLSMaximumSupportedProtocol]
PUBLIC 7bed 0 -[__NSCFURLSessionConfiguration setTLSMaximumSupportedProtocol:]
PUBLIC 7c00 0 -[__NSCFURLSessionConfiguration identifier]
PUBLIC 7c16 0 -[__NSCFURLSessionConfiguration setIdentifier:]
PUBLIC 7c27 0 -[__NSCFURLSessionConfiguration requestCachePolicy]
PUBLIC 7c38 0 -[__NSCFURLSessionConfiguration setRequestCachePolicy:]
PUBLIC 7c49 0 -[__NSCFURLSessionConfiguration timeoutIntervalForRequest]
PUBLIC 7c5f 0 -[__NSCFURLSessionConfiguration setTimeoutIntervalForRequest:]
PUBLIC 7c75 0 -[__NSCFURLSessionConfiguration timeoutIntervalForResource]
PUBLIC 7c8b 0 -[__NSCFURLSessionConfiguration setTimeoutIntervalForResource:]
PUBLIC 7ca1 0 -[__NSCFURLSessionConfiguration networkServiceType]
PUBLIC 7cb2 0 -[__NSCFURLSessionConfiguration setNetworkServiceType:]
PUBLIC 7cc6 0 -[__NSCFURLSessionConfiguration connectionProxyDictionary]
PUBLIC 7cdc 0 -[__NSCFURLSessionConfiguration setConnectionProxyDictionary:]
PUBLIC 7cef 0 -[__NSCFURLSessionConfiguration HTTPCookieAcceptPolicy]
PUBLIC 7d00 0 -[__NSCFURLSessionConfiguration setHTTPCookieAcceptPolicy:]
PUBLIC 7d11 0 -[__NSCFURLSessionConfiguration HTTPAdditionalHeaders]
PUBLIC 7d27 0 -[__NSCFURLSessionConfiguration setHTTPAdditionalHeaders:]
PUBLIC 7d38 0 -[__NSCFURLSessionConfiguration HTTPMaximumConnectionsPerHost]
PUBLIC 7d49 0 -[__NSCFURLSessionConfiguration setHTTPMaximumConnectionsPerHost:]
PUBLIC 7d5a 0 -[__NSCFURLSessionConfiguration shouldUseExtendedBackgroundIdleMode]
PUBLIC 7d6d 0 -[__NSCFURLSessionConfiguration setShouldUseExtendedBackgroundIdleMode:]
PUBLIC 7d7d 0 -[__NSCFURLSessionConfiguration protocolClasses]
PUBLIC 7d93 0 -[__NSCFURLSessionConfiguration setProtocolClasses:]
PUBLIC 7da7 0 -[__NSCFURLSessionConfiguration _directoryForDownloadedFiles]
PUBLIC 7dbd 0 -[__NSCFURLSessionConfiguration set_directoryForDownloadedFiles:]
PUBLIC 7dce 0 -[__NSCFURLSessionConfiguration _sourceApplicationBundleIdentifier]
PUBLIC 7de4 0 -[__NSCFURLSessionConfiguration set_sourceApplicationBundleIdentifier:]
PUBLIC 7df5 0 -[__NSCFURLSessionConfiguration _sourceApplicationSecondaryIdentifier]
PUBLIC 7e0b 0 -[__NSCFURLSessionConfiguration set_sourceApplicationSecondaryIdentifier:]
PUBLIC 7e1c 0 -[__NSCFURLSessionConfiguration _sourceApplicationAuditTokenData]
PUBLIC 7e32 0 -[__NSCFURLSessionConfiguration set_sourceApplicationAuditTokenData:]
PUBLIC 7e43 0 -[__NSCFURLSessionConfiguration _TCPAdaptiveReadTimeout]
PUBLIC 7e54 0 -[__NSCFURLSessionConfiguration set_TCPAdaptiveReadTimeout:]
PUBLIC 7e65 0 -[__NSCFURLSessionConfiguration _TCPAdaptiveWriteTimeout]
PUBLIC 7e76 0 -[__NSCFURLSessionConfiguration set_TCPAdaptiveWriteTimeout:]
PUBLIC 7e87 0 -[__NSCFURLSessionConfiguration _ledBellyServiceIdentifier]
PUBLIC 7e9d 0 -[__NSCFURLSessionConfiguration set_ledBellyServiceIdentifier:]
PUBLIC 7eb0 0 -[__NSCFURLSessionConfiguration _connectionCachePurgeTimeout]
PUBLIC 7ec6 0 -[__NSCFURLSessionConfiguration set_connectionCachePurgeTimeout:]
PUBLIC 7edc 0 -[__NSCFURLSessionConfiguration _connectionCacheCellPurgeTimeout]
PUBLIC 7ef2 0 -[__NSCFURLSessionConfiguration set_connectionCacheCellPurgeTimeout:]
PUBLIC 7f09 0 -[__NSCFURLSessionConfiguration _connectionPoolName]
PUBLIC 7f1f 0 -[__NSCFURLSessionConfiguration set_connectionPoolName:]
PUBLIC 7f30 0 -[__NSCFURLSessionConfiguration pipeliningHighWatermark]
PUBLIC 7f41 0 -[__NSCFURLSessionConfiguration setPipeliningHighWatermark:]
PUBLIC 7f52 0 -[__NSCFURLSessionConfiguration pipeliningLowWatermark]
PUBLIC 7f63 0 -[__NSCFURLSessionConfiguration setPipeliningLowWatermark:]
PUBLIC 7f74 0 -[__NSCFURLSessionConfiguration numPriorityLevels]
PUBLIC 7f85 0 -[__NSCFURLSessionConfiguration setNumPriorityLevels:]
PUBLIC 7f96 0 -[__NSCFURLSessionConfiguration numFastLanes]
PUBLIC 7fa7 0 -[__NSCFURLSessionConfiguration setNumFastLanes:]
PUBLIC 7fb8 0 -[__NSCFURLSessionConfiguration minimumFastLanePriority]
PUBLIC 7fc9 0 -[__NSCFURLSessionConfiguration setMinimumFastLanePriority:]
PUBLIC 7fdc 0 -[__NSCFURLSessionConfiguration _tcpConnectionPoolName]
PUBLIC 7ff2 0 -[__NSCFURLSessionConfiguration set_tcpConnectionPoolName:]
PUBLIC 8006 0 -[__NSCFURLSessionConfiguration _socketStreamProperties]
PUBLIC 801c 0 -[__NSCFURLSessionConfiguration set_socketStreamProperties:]
PUBLIC 802f 0 -[__NSCFURLSessionConfiguration _contentDispHeadEncFallback]
PUBLIC 8045 0 -[__NSCFURLSessionConfiguration set_contentDispHeadEncFallback:]
PUBLIC 8059 0 -[__NSCFURLSessionConfiguration _preventsIdleSleepOnceConnected]
PUBLIC 806c 0 -[__NSCFURLSessionConfiguration set_preventsIdleSleepOnceConnected:]
PUBLIC 807c 0 -[__NSCFURLSessionConfiguration _overridesBackgroundSessionAutoRedirect]
PUBLIC 808f 0 -[__NSCFURLSessionConfiguration set_overridesBackgroundSessionAutoRedirect:]
PUBLIC 809f 0 -[__NSCFURLSessionConfiguration _performsEVCertCheck]
PUBLIC 80b2 0 -[__NSCFURLSessionConfiguration set_performsEVCertCheck:]
PUBLIC 80c2 0 -[__NSCFURLSessionConfiguration _appleIDContext]
PUBLIC 80d8 0 -[__NSCFURLSessionConfiguration set_appleIDContext:]
PUBLIC 80eb 0 -[__NSCFURLSessionConfiguration _authenticatorStatusCodes]
PUBLIC 8101 0 -[__NSCFURLSessionConfiguration set_authenticatorStatusCodes:]
PUBLIC 8115 0 -[__NSCFURLSessionConfiguration _atsContext]
PUBLIC 812b 0 -[__NSCFURLSessionConfiguration set_atsContext:]
PUBLIC 813f 0 -[__NSCFURLSessionConfiguration _allowsMultipathTCP]
PUBLIC 8152 0 -[__NSCFURLSessionConfiguration set_allowsMultipathTCP:]
PUBLIC 8162 0 -[__NSCFURLSessionConfiguration _allowsResponseMonitoringDuringBodyTranmission]
PUBLIC 8175 0 -[__NSCFURLSessionConfiguration set_allowsResponseMonitoringDuringBodyTranmission:]
PUBLIC 8185 0 -[__NSCFURLSessionConfiguration _allowsIndefiniteConnections]
PUBLIC 8198 0 -[__NSCFURLSessionConfiguration set_allowsIndefiniteConnections:]
PUBLIC 81ab 0 -[__NSCFURLSessionConfiguration _allowsTCPFastOpen]
PUBLIC 81be 0 -[__NSCFURLSessionConfiguration set_allowsTCPFastOpen:]
PUBLIC 81ce 0 -[__NSCFURLSessionConfiguration _allowsTLSSessionTickets]
PUBLIC 81e1 0 -[__NSCFURLSessionConfiguration set_allowsTLSSessionTickets:]
PUBLIC 81f3 0 -[__NSCFURLSessionConfiguration _companionAppBundleIdentifier]
PUBLIC 8209 0 -[__NSCFURLSessionConfiguration set_companionAppBundleIdentifier:]
PUBLIC 821a 0 -[__NSCFURLSessionConfiguration _watchAppBundleIdentifier]
PUBLIC 8230 0 -[__NSCFURLSessionConfiguration set_watchAppBundleIdentifier:]
PUBLIC 8241 0 -[__NSCFURLSessionConfiguration _watchExtensionBundleIdentifier]
PUBLIC 8257 0 -[__NSCFURLSessionConfiguration set_watchExtensionBundleIdentifier:]
PUBLIC 8268 0 -[__NSCFURLSessionConfiguration _forcedNetworkServiceType]
PUBLIC 8279 0 -[__NSCFURLSessionConfiguration set_forcedNetworkServiceType:]
PUBLIC 828a 0 -[__NSCFURLSessionConfiguration _overriddenDelegateOptions]
PUBLIC 82a0 0 -[__NSCFURLSessionConfiguration set_overriddenDelegateOptions:]
PUBLIC 82b1 0 +[NSURLSession sessionWithConfiguration:]
PUBLIC 82cf 0 +[NSURLSession sessionWithConfiguration:delegate:delegateQueue:]
PUBLIC 8508 0 __64+[NSURLSession sessionWithConfiguration:delegate:delegateQueue:]_block_invoke
PUBLIC 852a 0 -[__NSURLSessionLocal initWithConfiguration:delegate:delegateQueue:]
PUBLIC 867d 0 -[__NSCFURLSession initWithConfiguration:delegate:delegateQueue:]
PUBLIC 88a4 0 -[NSURLSession initWithConfiguration:delegate:delegateQueue:]
PUBLIC 88d4 0 -[__NSCFURLSession delegateQueue]
PUBLIC 88ec 0 -[__NSCFURLSessionConfiguration getConnectionCacheLimits]
PUBLIC 8b28 0 defaultConnectionCacheLimits()
PUBLIC 8b54 0 ___Z28defaultConnectionCacheLimitsv_block_invoke
PUBLIC 8b8c 0 HTTPConnectionCacheLimits::HTTPConnectionCacheLimits(HTTPConnectionCacheLimits const&)
PUBLIC 8bba 0 HTTPConnectionCacheLimits::setLimit(HTTPConnectionCacheLimitKeys, int)
PUBLIC 8c40 0 XTubeManager::XTubeManager(__CFAllocator const*, HTTPConnectionCacheLimits)
PUBLIC 8d2e 0 -[__NSCFURLSession set_isSharedSession:]
PUBLIC 8d3f 0 -[__NSURLSessionLocal _prependProtocolClassForDefaultSession:]
PUBLIC 8eff 0 -[__NSCFURLSession _isSharedSession]
PUBLIC 8f12 0 -[__NSURLSessionLocal _protocolClasses]
PUBLIC 920d 0 -[__NSCFURLSession _local_immutable_configuration]
PUBLIC 9224 0 -[__NSCFURLSessionConfiguration dealloc]
PUBLIC 944d 0 -[NSHTTPCookieStorage setCookieAcceptPolicy:]
PUBLIC 94cd 0 CFHTTPCookieStorageSetCookieAcceptPolicy
PUBLIC 94fa 0 HTTPCookieStorage::setAcceptPolicy(int)
PUBLIC 9570 0 non-virtual thunk to ExternalCookieStorage::setCookieAcceptPolicyLocked(int)
PUBLIC 95c5 0 ___ZN21ExternalCookieStorage27setCookieAcceptPolicyLockedEi_block_invoke
PUBLIC 9646 0 +[NSURLSessionConfiguration defaultSessionConfiguration]
PUBLIC 9697 0 __56+[NSURLSessionConfiguration defaultSessionConfiguration]_block_invoke
PUBLIC 96d6 0 -[__NSCFURLSessionConfiguration setURLCache:]
PUBLIC 9700 0 -[__NSCFURLSessionConfiguration set_phskip_urlCache:]
PUBLIC 9712 0 -[__NSCFURLSessionConfiguration setHTTPCookieStorage:]
PUBLIC 973a 0 -[__NSCFURLSessionConfiguration set_phskip_cookieStorage:]
PUBLIC 974e 0 -[__NSCFURLSessionConfiguration _phskip_urlCache]
PUBLIC 9764 0 -[__NSCFURLSessionConfiguration _phskip_cookieStorage]
PUBLIC 977b 0 -[NSURLSession dataTaskWithURL:completionHandler:]
PUBLIC 97df 0 +[NSURLRequest requestWithURL:]
PUBLIC 981d 0 -[NSURLRequest initWithURL:]
PUBLIC 984d 0 -[NSURLRequest initWithURL:cachePolicy:timeoutInterval:]
PUBLIC 9971 0 CFURLRequestCreate
PUBLIC 997e 0 _createRequest(__CFAllocator const*, __CFURL const*, CFURLRequestCachePolicy, double, __CFURL const*, unsigned char)
PUBLIC 9a6c 0 URLRequest::Class()
PUBLIC 9a98 0 ___ZN10URLRequest5ClassEv_block_invoke
PUBLIC 9aca 0 URLRequest::initialize(__CFURL const*, CFURLRequestCachePolicy, double, __CFURL const*, unsigned char)
PUBLIC 9c3b 0 -[NSURLSession dataTaskWithRequest:completionHandler:]
PUBLIC 9c4e 0 -[__NSURLSessionLocal dataTaskForRequest:completion:]
PUBLIC 9ca8 0 -[__NSURLSessionLocal taskForClass:request:uploadFile:bodyData:completion:]
PUBLIC a036 0 -[__NSURLSessionLocal nextSeed]
PUBLIC a06a 0 -[__NSCFLocalSessionTask initWithOriginalRequest:updatedRequest:ident:session:]
PUBLIC a15b 0 -[__NSCFURLSessionTask initWithOriginalRequest:updatedRequest:ident:session:]
PUBLIC a567 0 -[NSURLSessionTask initWithOriginalRequest:updatedRequest:ident:session:]
PUBLIC a596 0 -[NSURLRequest copyWithZone:]
PUBLIC a5a8 0 -[NSURLRequest _CFURLRequest]
PUBLIC a5c4 0 CFURLRequestCreateMutableCopy
PUBLIC a5d3 0 _createRequestCopy(__CFAllocator const*, _CFURLRequest const*, unsigned char)
PUBLIC a6bc 0 URLRequest::initialize(URLRequest const*, unsigned char)
PUBLIC aa2e 0 URLRequest::shouldHandleCookies() const
PUBLIC aa3e 0 URLRequest::getAllowsCellularAccess() const
PUBLIC aa50 0 URLRequest::getPreventsIdleSystemSleep() const
PUBLIC aa60 0 URLRequest::cachePolicy() const
PUBLIC aa6a 0 URLRequest::timeout() const
PUBLIC aa76 0 URLRequest::protocolProperties() const
PUBLIC aa80 0 URLRequest::proxyDict() const
PUBLIC aa8a 0 URLRequest::sslProperties() const
PUBLIC aa94 0 URLRequest::copyContentDispositionHeaderEncodingFallbackArray() const
PUBLIC aaac 0 URLRequest::getNetworkServiceType() const
PUBLIC aab8 0 URLRequest::copyBoundInterfaceIdentifier() const
PUBLIC aadd 0 -[__NSCFURLSession workQueue]
PUBLIC aaee 0 -[__NSCFURLSessionTask _initializeTimingDataWithSessionConfiguration:]
PUBLIC acea 0 +[NSURLConnection(TimingData) _collectsTimingData]
PUBLIC acf8 0 -[__NSCFURLSessionTask setPriority:]
PUBLIC ada9 0 -[__NSCFURLSessionTask session]
PUBLIC adbf 0 -[__NSCFURLSessionTask workQueue]
PUBLIC add0 0 -[__NSCFURLSessionTask _currentCFURLRequest]
PUBLIC ade8 0 URLRequest::applyRequestOptionsToTask(NSURLSessionTask*) const
PUBLIC b63a 0 __36-[__NSCFURLSessionTask setPriority:]_block_invoke
PUBLIC b679 0 _getInternedSelector
PUBLIC bc61 0 -[__NSCFLocalSessionTask _onqueue_adjustPriorityHint:]
PUBLIC bcc1 0 -[NSURLSession _copyConfiguration]
PUBLIC bcef 0 -[__NSCFLocalSessionTask cfConn]
PUBLIC bd05 0 -[__NSCFURLSessionTask set_cachePolicy:]
PUBLIC bd15 0 -[__NSCFURLSessionTask set_timeoutInterval:]
PUBLIC bd2c 0 -[__NSCFURLSessionTask set_sslSettings:]
PUBLIC bd40 0 URLRequest::shouldPipelineHTTP() const
PUBLIC bddc 0 URLRequest::shouldUsePipeliningHeuristics() const
PUBLIC bdfe 0 URLRequest::shouldSkipPipelineProbe() const
PUBLIC be1e 0 -[__NSCFURLSessionTask set_shouldPipelineHTTP:]
PUBLIC be2f 0 -[__NSCFURLSessionTask set_shouldUsePipelineHeuristics:]
PUBLIC be40 0 -[__NSCFURLSessionTask set_shouldSkipPipelineProbe:]
PUBLIC be51 0 -[__NSCFURLSessionTask set_shouldHandleCookies:]
PUBLIC be62 0 hasConfigValue(long*, NSURLSessionConfiguration const*, __CFString const*)
PUBLIC becb 0 hasConfigValue(void const**, unsigned long, NSURLSessionConfiguration const*, __CFString const*)
PUBLIC bf35 0 -[__NSCFURLSessionConfiguration _copyAttribute:]
PUBLIC c184 0 _findExactString
PUBLIC c297 0 _urlIsHTTPish(__CFURL const*)
PUBLIC c2fc 0 hasConfigValue(signed char*, NSURLSessionConfiguration const*, __CFString const*)
PUBLIC c38b 0 -[__NSCFURLSessionTask set_cookieAcceptPolicy:]
PUBLIC c39c 0 -[__NSCFURLSessionTask set_preventsIdleSystemSleep:]
PUBLIC c3ac 0 -[__NSCFURLSessionTask set_allowsCellular:]
PUBLIC c3bd 0 -[__NSCFURLSessionTask set_networkServiceType:]
PUBLIC c400 0 URLRequest::copyExplicitCookieStorageFromRequest() const
PUBLIC c433 0 -[__NSCFURLSessionTask set_disallowCellular:]
PUBLIC c476 0 -[__NSCFURLSessionConfiguration _disallowsSPDY]
PUBLIC c48a 0 URLRequest::allowedProtocolTypes() const
PUBLIC c495 0 -[__NSCFURLSessionTask set_allowedProtocolTypes:]
PUBLIC c4a6 0 -[__NSCFURLSessionTask addAdditionalHeadersToRequest:]
PUBLIC c543 0 CFURLRequestCopyAllHTTPHeaderFields
PUBLIC c579 0 __54-[__NSCFURLSessionTask addAdditionalHeadersToRequest:]_block_invoke
PUBLIC c62a 0 CFURLRequestSetHTTPHeaderFieldValue
PUBLIC c6c2 0 URLRequest::createHTTPRequest(HTTPMethodMixedValue const&)
PUBLIC c730 0 HTTPMessage::Class()
PUBLIC c75c 0 ___ZN11HTTPMessage5ClassEv_block_invoke
PUBLIC c78c 0 ___ZN14HTTPHeaderDict5ClassEv_block_invoke
PUBLIC c7bc 0 HTTPHeaderDict::HTTPHeaderDict()
PUBLIC c800 0 HTTPRequest::HTTPRequest(HTTPMethodMixedValue const&, __CFURL const*)
PUBLIC c80a 0 HTTPRequest::HTTPRequest(HTTPMethodMixedValue const&, __CFURL const*)
PUBLIC c8f0 0 HTTPRequest::ensureSomeURL(__CFURL const*)
PUBLIC c92c 0 HTTPRequestMessage::HTTPRequestMessage(HTTPMethodMixedValue const&, __CFURL const*, HTTPVersionMixedValue const&)
PUBLIC c9d6 0 HTTPMessage::HTTPMessage(char const*, HTTPVersionMixedValue const&)
PUBLIC ca76 0 HTTPMessage::commonInitialization(unsigned char, HTTPMessage const*)
PUBLIC cbe4 0 HTTPParser::HTTPParser(__CFAllocator const*, HTTPParserClient*)
PUBLIC cc3c 0 HTTPRequestParserClient::HTTPRequestParserClient(__CFAllocator const*, HTTPMethodMixedValue const&, char const*, __CFURL const*)
PUBLIC ccb4 0 HTTPRequestParserClient::setURL(char const*, __CFURL const*)
PUBLIC cd24 0 HTTPMessage::setHeaderFieldStringValue(__CFString const*, __CFString const*)
PUBLIC cde0 0 HTTPHeaderValue::isValid(__CFString const*)
PUBLIC ce98 0 HTTPHeaderKeyMixedValue::HTTPHeaderKeyMixedValue(__CFString const*)
PUBLIC cf36 0 HTTPMessage::mutableHeaders()
PUBLIC cfc0 0 HTTPHeaderDict::Class()
PUBLIC cfec 0 HTTPHeaderDict::HTTPHeaderDict()
PUBLIC cff6 0 HTTPHeaderDict::removeValue(HTTPHeaderKeyMixedValue const&)
PUBLIC d044 0 HTTPHeaderDict::setValue(HTTPHeaderKeyMixedValue const&, HTTPHeaderValueMixedValue const&)
PUBLIC d109 0 _key_hash(void const*)
PUBLIC d1c0 0 _key_retain(__CFAllocator const*, void const*)
PUBLIC d1d6 0 _findCanonicalString
PUBLIC d40e 0 cfToSaneCString
PUBLIC d555 0 findSaneCStringInIndices(SaneCString, PerDomainWidth const*)
PUBLIC d606 0 -[NSURLRequest _initWithCFURLRequest:]
PUBLIC d6ce 0 CFURLRequestGetTypeID
PUBLIC d6dd 0 -[NSURLRequest(NSHTTPURLRequest) _startTimeoutDate]
PUBLIC d76a 0 non-virtual thunk to URLRequest::getStartTimeoutTime() const
PUBLIC d778 0 -[__NSCFURLSessionTask setState:]
PUBLIC d78b 0 -[__NSCFLocalSessionTask setDataTaskCompletion:]
PUBLIC d79c 0 -[NSURLRequest(NSHTTPURLRequest) HTTPBodyStream]
PUBLIC d7cc 0 CFURLRequestCopyHTTPRequestBodyStream
PUBLIC d82d 0 -[NSURLRequest(NSHTTPURLRequest) HTTPBody]
PUBLIC d85e 0 CFURLRequestCopyHTTPRequestBody
PUBLIC d895 0 -[__NSCFLocalSessionTask setAsync_initialization:]
PUBLIC d8a7 0 -[__NSCFURLSessionTask state]
PUBLIC d8b9 0 -[__NSCFURLSessionTask resume]
PUBLIC da1d 0 -[NSURLSession finishTasksAndInvalidate]
PUBLIC daa0 0 __30-[__NSCFURLSessionTask resume]_block_invoke
PUBLIC dad0 0 -[__NSCFLocalSessionTask _onqueue_resume]
PUBLIC db89 0 -[__NSCFLocalSessionTask suspendCount]
PUBLIC db9a 0 -[__NSCFLocalSessionTask setSuspendCount:]
PUBLIC dbab 0 -[__NSCFLocalSessionTask async_initialization]
PUBLIC dbc2 0 -[__NSCFLocalSessionTask _onqueue_completeInitialization]
PUBLIC dc25 0 -[__NSCFLocalSessionTask _onqueue_strippedMutableRequest]
PUBLIC dcb0 0 -[__NSCFURLSessionTask currentRequest]
PUBLIC dcc6 0 -[NSURLRequest mutableCopyWithZone:]
PUBLIC dd32 0 HTTPRequest::HTTPRequest(HTTPRequest const*)
PUBLIC dd8a 0 HTTPRequestMessage::HTTPRequestMessage(HTTPRequestMessage const*)
PUBLIC de86 0 HTTPMessage::HTTPMessage(HTTPMessage const*)
PUBLIC df04 0 HTTPMessage::copyImmutableHeaders() const
PUBLIC df42 0 HTTPParser::HTTPParser(__CFAllocator const*, HTTPParserClient*, HTTPParser*)
PUBLIC df4c 0 HTTPParser::HTTPParser(__CFAllocator const*, HTTPParserClient*, HTTPParser*)
PUBLIC dfea 0 HTTPRequest::commonInitialization(HTTPRequest const*)
PUBLIC e12e 0 -[NSMutableURLRequest(NSMutableHTTPURLRequest) setHTTPBody:]
PUBLIC e151 0 CFURLRequestSetHTTPRequestBody
PUBLIC e1dc 0 HTTPRequest::setBody(__CFData const*)
PUBLIC e230 0 HTTPMessage::setBody(__CFData const*)
PUBLIC e2ba 0 HTTPMessage::ensureParserFinished()
PUBLIC e340 0 HTTPParser::noMoreBytesWillEverCome(bool*)
PUBLIC e372 0 HTTPParser::commitAccumulatedLine()
PUBLIC e3e8 0 HTTPParser::commitHeaderLine()
PUBLIC e508 0 HTTPParser::~HTTPParser()
PUBLIC e524 0 HTTPParser::~HTTPParser()
PUBLIC e578 0 CoreLoggable::~CoreLoggable()
PUBLIC e588 0 CFAllocatedObject::~CFAllocatedObject()
PUBLIC e58e 0 CFAllocatedObject::operator delete(void*)
PUBLIC e5a2 0 -[NSMutableURLRequest(NSMutableHTTPURLRequest) setHTTPBodyStream:]
PUBLIC e5c5 0 CFURLRequestSetHTTPRequestBodyStream
PUBLIC e5f2 0 URLRequest::setHTTPBodyCFStream(__CFReadStream*)
PUBLIC e69c 0 -[NSMutableURLRequest(NSMutableHTTPURLRequest) setValue:forHTTPHeaderField:]
PUBLIC e6c0 0 HTTPMessage::removeHeaderFieldValue(__CFString const*)
PUBLIC e71a 0 HTTPHeaderDict::HTTPHeaderDict(HTTPHeaderDict const*)
PUBLIC e724 0 HTTPHeaderDict::HTTPHeaderDict(HTTPHeaderDict const*)
PUBLIC e760 0 -[__NSCFURLSessionTask updateCurrentRequest:]
PUBLIC e7d6 0 -[__NSCFURLSessionTask setCurrentRequest:]
PUBLIC e7e7 0 -[NSMutableURLRequest copyWithZone:]
PUBLIC e7fa 0 -[__NSCFURLSessionTask set_currentCFURLRequest:]
PUBLIC e80c 0 -[__NSURLSessionLocal _onqueue_connectUploadTask:strippedRequest:bodyStream:bodyParts:]
PUBLIC e9d4 0 -[__NSCFLocalDataTask isKindOfClass:]
PUBLIC ea42 0 -[NSURLRequest dealloc]
PUBLIC ea8b 0 -[NSURLRequestInternal dealloc]
PUBLIC ead2 0 CFClass::FinalizeObj(void const*)
PUBLIC eaee 0 URLRequest::~URLRequest()
PUBLIC eafa 0 URLRequest::~URLRequest()
PUBLIC ebfa 0 HTTPRequest::~HTTPRequest()
PUBLIC ec04 0 HTTPRequest::~HTTPRequest()
PUBLIC ec96 0 HTTPRequestMessage::~HTTPRequestMessage()
PUBLIC ed00 0 HTTPRequestParserClient::~HTTPRequestParserClient()
PUBLIC ed5a 0 HTTPMessage::~HTTPMessage()
PUBLIC ee3c 0 CFObject::~CFObject()
PUBLIC ee42 0 -[__NSURLSessionLocal sessionConnectionClass]
PUBLIC ee5c 0 -[__NSCFURLLocalSessionConnection initWithTask:delegate:delegateQueue:]
PUBLIC f08f 0 -[__NSCFURLSessionConnection initWithTask:delegate:delegateQueue:]
PUBLIC f161 0 -[__NSCFURLSessionTask _createXURLCache]
PUBLIC f1e6 0 -[__NSCFURLSessionTask _cfCache]
PUBLIC f1fd 0 -[__NSURLSessionLocal _createXURLCache]
PUBLIC f290 0 -[__NSURLSessionLocal _createXURLCache0]
PUBLIC f2de 0 -[__NSCFURLSessionConfiguration URLCache]
PUBLIC f32a 0 XURLCache::createNSXURLCache(void const*, NSURLSession const*)
PUBLIC f414 0 CFURLCacheGetTypeID
PUBLIC f434 0 CFXURLCache::CFXURLCache(__CFAllocator const*, _CFURLCache const*, NSURLSession const*)
PUBLIC f4c2 0 CFXURLCache::getMaxCacheableEntrySize() const
PUBLIC f4d1 0 _CFURLCacheGetMaxCacheableEntrySize
PUBLIC f543 0 -[NSURLSession can_delegate_task_willSendRequestForEstablishedConnection]
PUBLIC f575 0 -[__NSCFURLSession delegate]
PUBLIC f58b 0 -[NSURLSession can_delegate_task_isWaitingForConnection]
PUBLIC f5bd 0 -[NSURLSession can_delegate_task_isWaitingForConnectionWithReason]
PUBLIC f5ef 0 -[NSURLSession can_delegate_task_conditionalRequirementsChanged]
PUBLIC f622 0 -[__NSURLSessionLocal _createCanonicalRequestForTask:]
PUBLIC f6b8 0 -[__NSCFURLSessionTask set_protocolForTask:]
PUBLIC f6ca 0 -[__NSURLSessionLocal _protocolClassForTask:]
PUBLIC f913 0 -[__NSCFURLSessionTask _protocolForTask]
PUBLIC f924 0 +[_NSCFURLProtocol canInitWithTask:]
PUBLIC f978 0 +[_NSURLHTTPProtocol _cf_internalImpl]
PUBLIC f988 0 HTTPProtocol::_canHandleRequest(_CFURLRequest const*, void const*)
PUBLIC faa2 0 CFURLRequestGetURL
PUBLIC fac7 0 +[_NSCFURLProtocol canonicalRequestForRequest:task:]
PUBLIC fb7a 0 HTTPProtocol::_createCanonicalRequest(__CFAllocator const*, _CFURLRequest const*, NSURLSession const*, void const*)
PUBLIC fbda 0 HTTPProtocol::_createMutableCanonicalRequest(__CFAllocator const*, _CFURLRequest const*, NSURLSession const*, void const*)
PUBLIC ff1e 0 non-virtual thunk to URLRequest::copyExplicitStorageSessionFromRequest() const
PUBLIC ff39 0 -[__NSURLSessionLocal _copyHSTSPolicy]
PUBLIC ff65 0 -[__NSCFURLSessionConfiguration copyHSTSPolicy]
PUBLIC ffc6 0 StorageSession::copyProcessDefault()
PUBLIC 10030 0 ___ZN14StorageSession18copyProcessDefaultEv_block_invoke
PUBLIC 100dc 0 ___ZN14StorageSession5ClassEv_block_invoke
PUBLIC 1010c 0 StorageSession::initialize(__CFString const*, __CFDictionary const*)
PUBLIC 101b4 0 StorageSession::copyHSTSStorage() const
PUBLIC 10222 0 ___ZNK14StorageSession15copyHSTSStorageEv_block_invoke
PUBLIC 10340 0 _CFHSTSPolicyCreateWithProperties
PUBLIC 10535 0 ___ZL14isSandboxedAppv_block_invoke
PUBLIC 10546 0 HSTSStorage::CopyCacheOrCreate(__CFDictionary const*, HSTSStorage* (__CFDictionary const*) block_pointer)
PUBLIC 105b4 0 ___ZN11HSTSStorage17CopyCacheOrCreateEPK14__CFDictionaryU13block_pointerFPS_S2_E_block_invoke
PUBLIC 1060c 0 HSTSStorage::CopyStorageForProperties(__CFDictionary const*)
PUBLIC 10664 0 ___CFHSTSPolicyCreateWithProperties_block_invoke
PUBLIC 106d4 0 ExternalHSTSStorage::ExternalHSTSStorage()
PUBLIC 10712 0 HSTSStorage::HSTSStorage()
PUBLIC 1075c 0 ExternalHSTSStorage::initialize(__CFDictionary const*)
PUBLIC 107d4 0 HSTSStorage::initialize(__CFDictionary const*)
PUBLIC 108ea 0 HSTSPreloader::GetHSTSPreloader()
PUBLIC 10916 0 ___ZN13HSTSPreloader16GetHSTSPreloaderEv_block_invoke
PUBLIC 10a1c 0 ___ZN13HSTSPreloader5ClassEv_block_invoke
PUBLIC 10a4c 0 HSTSPreloader::createMetadataKeys()
PUBLIC 10b08 0 HSTSPreloader::createFallbackHSTSCache(__CFAllocator const*)
PUBLIC 10c66 0 ExternalHSTSStorage::es_retain()
PUBLIC 10c76 0 ExternalHSTSStorage::checkinMessage()
PUBLIC 10c82 0 ExternalHSTSStorage::es_release()
PUBLIC 10c92 0 ExternalHSTSStorage::registerForNotifications()
PUBLIC 10d9c 0 ___ZN10HSTSPolicy5ClassEv_block_invoke
PUBLIC 10dcc 0 HSTSPolicy::Class()
PUBLIC 10df8 0 _createCanonicalURL
PUBLIC 116b0 0 HTTPMessage::hasHeaderField(CFNetworkCanonicalStringConstant) const
PUBLIC 11744 0 HTTPHeaderDict::containsKey(HTTPHeaderKeyMixedValue const&) const
PUBLIC 11795 0 _key_equal(void const*, void const*)
PUBLIC 11832 0 HTTPMessage::setHeaderFieldStringValue(CFNetworkConstantString::HTTPHeader::DomainString, __CFString const*)
PUBLIC 118fc 0 HTTPMessage::removeHeaderFieldValue(CFNetworkCanonicalStringConstant)
PUBLIC 11978 0 _CFNetworkCopyPreferredLanguageCode
PUBLIC 11c6c 0 non-virtual thunk to URLRequest::shouldPipelineHTTP() const
PUBLIC 11d06 0 CFURLRequestGetRequestPriority
PUBLIC 11d3c 0 non-virtual thunk to URLRequest::requestPriority() const
PUBLIC 11d46 0 CFURLRequestSetRequestPriority
PUBLIC 11d6c 0 HTTPMessage::copyHeaderFieldValue(CFNetworkCanonicalStringConstant)
PUBLIC 11e24 0 HTTPHeaderDict::copyStringValue(__CFAllocator const*, HTTPHeaderKeyMixedValue const&) const
PUBLIC 11e9c 0 CFURLRequestCopyHTTPRequestMethod
PUBLIC 11eec 0 InterfaceRequiredForLoader::InterfaceRequiredForLoader()
PUBLIC 11f0e 0 URLConnectionLoader_Classic::URLConnectionLoader_Classic(InterfaceRequiredForLoader*, URLConnectionLoader::ConfigFlags const&, NSURLSession const*, void*)
PUBLIC 11f5a 0 URLConnectionLoader::URLConnectionLoader(InterfaceRequiredForLoader*, URLConnectionLoader::ConfigFlags const&, NSURLSession const*, dispatch_queue_s*)
PUBLIC 12012 0 URLConnectionInstanceData::URLConnectionInstanceData(InterfaceRequiredForLoader*, char const*, dispatch_queue_s*)
PUBLIC 1206c 0 SessionConnectionLoadable::_irl_allocator()
PUBLIC 1207a 0 CoreSchedulingSet::createEmpty()
PUBLIC 120bc 0 ___ZN17CoreSchedulingSet11getEmptySetEv_block_invoke
PUBLIC 12112 0 EmptyCoreSchedulingSet::retain() const
PUBLIC 1211c 0 -[__NSCFURLSessionConnection withWorkQueueAsync:]
PUBLIC 12173 0 -[__NSCFLocalSessionTask setConnection:]
PUBLIC 122f5 0 -[__NSCFLocalSessionTask setCfConn:]
PUBLIC 12306 0 -[__NSCFLocalSessionTask _onqueue_startResourceTimer]
PUBLIC 124b1 0 -[__NSCFURLSessionTask startTime]
PUBLIC 124ca 0 -[__NSCFLocalSessionTask localSession]
PUBLIC 124e2 0 -[__NSCFLocalSessionTask _onqueue_startTimer:withTimeoutInNanos:streamErrorCode:]
PUBLIC 125f8 0 -[__NSCFLocalSessionTask _onqueue_startStartTimer]
PUBLIC 12736 0 -[__NSCFURLSessionConnection copyWithZone:]
PUBLIC 12748 0 HTTPHeaderDict::~HTTPHeaderDict()
PUBLIC 12752 0 HTTPHeaderDict::~HTTPHeaderDict()
PUBLIC 12782 0 _key_release(__CFAllocator const*, void const*)
PUBLIC 12797 0 __40-[NSURLSession finishTasksAndInvalidate]_block_invoke
PUBLIC 127d1 0 -[__NSCFURLSession setInvalid:]
PUBLIC 127e1 0 -[__NSURLSessionLocal _onqueue_completeInvalidation:]
PUBLIC 1285b 0 -[__NSURLSessionLocal _onqueue_invalidateSession:withQueue:completion:]
PUBLIC 12b05 0 -[__NSURLSessionLocal _onqueue_checkForCompletion]
PUBLIC 12bb8 0 __71-[__NSCFURLLocalSessionConnection initWithTask:delegate:delegateQueue:]_block_invoke
PUBLIC 12be7 0 -[__NSCFURLLocalSessionConnection _tick]
PUBLIC 12c5d 0 -[__NSCFURLLocalSessionConnection _tick_initialize]
PUBLIC 12cbc 0 -[__NSCFURLLocalSessionConnection withLoaderOnQueue:]
PUBLIC 12cfc 0 non-virtual thunk to URLConnectionLoader::_loaderInterface_retain()
PUBLIC 12d18 0 URLConnectionInstanceData::instanceRetain() const
PUBLIC 12d2a 0 SessionConnectionLoadable::_irl_retain()
PUBLIC 12d50 0 __51-[__NSCFURLLocalSessionConnection _tick_initialize]_block_invoke
PUBLIC 12d72 0 non-virtual thunk to URLConnectionLoader::_loaderEvent_StartLoad(NSURLSessionTask const*)
PUBLIC 12d80 0 URLConnectionLoader::_loaderEvent_StartLoad(NSURLSessionTask const*)
PUBLIC 13254 0 URLConnectionInstanceData::assertLocked() const
PUBLIC 1325a 0 URLConnectionLoader::setupSessionNowThatWeHaveATask(NSURLSessionTask const*)
PUBLIC 13569 0 -[__NSCFURLSessionTask _copySocketStreamProperties]
PUBLIC 13e7d 0 -[__NSCFURLSessionTask _ledBellyServiceIdentifier]
PUBLIC 13eb3 0 -[__NSCFURLSessionTask _boundInterfaceIdentifier]
PUBLIC 13eea 0 -[__NSCFURLSessionTask _disallowCellular]
PUBLIC 13efc 0 -[__NSCFURLSessionTask _networkServiceType]
PUBLIC 13f0c 0 -[NSURLRequest(NSHTTPURLRequest) _requiresShortConnectionTimeout]
PUBLIC 13f58 0 non-virtual thunk to URLRequest::getRequiresShortConnectionTimeout() const
PUBLIC 13f67 0 -[__NSCFURLSessionTask adjustConditionalConnectionProperties:]
PUBLIC 1423a 0 -[__NSCFURLSessionTask _expectedWorkload]
PUBLIC 1424b 0 -[__NSCFURLSessionTask _timeWindowDelay]
PUBLIC 1425d 0 -[__NSCFURLSessionTask _timeWindowDuration]
PUBLIC 14270 0 -[__NSCFURLSessionTask _legacySocketStreamProperties]
PUBLIC 142a6 0 -[__NSCFURLSession _uuid]
PUBLIC 142bc 0 entr_shouldtrace
PUBLIC 1437c 0 __CFNetworkLoadFramework
PUBLIC 1438c 0 HTTPCookieStorage::_syncTimerFired(__CFRunLoopTimer*, void*)
PUBLIC 14414 0 HTTPCookieStorage::syncStorageWithCompletion(unsigned char, void () block_pointer)
PUBLIC 144c4 0 non-virtual thunk to ExternalCookieStorage::syncStorageWithCompletionLocked(unsigned char, void () block_pointer)
PUBLIC 14527 0 ___ZN21ExternalCookieStorage31syncStorageWithCompletionLockedEhU13block_pointerFvvE_block_invoke
PUBLIC 145b8 0 ExternalStorageCache::timeoutCache(double)
PUBLIC 145f4 0 ExternalStorageCache::timeoutCacheLocked(double)
PUBLIC 14696 0 crcfCFDictionaryApplyBlock(__CCRMutableDictionary*, void (void const*, CoreContainerRetainable const*) block_pointer)
PUBLIC 146ad 0 ___ZN17HTTPCookieStorage25syncStorageWithCompletionEhU13block_pointerFvvE_block_invoke
PUBLIC 146e2 0 ___ZN17HTTPCookieStorage15_syncTimerFiredEP16__CFRunLoopTimerPv_block_invoke
PUBLIC 146f7 0 -[__NSCFURLSessionTask _strictContentLength]
PUBLIC 1470b 0 -[__NSCFURLSessionTask _timeoutInterval]
PUBLIC 14721 0 -[__NSCFURLSessionTask _performanceTiming]
PUBLIC 14733 0 -[__NSCFURLSessionTask _cachePolicy]
PUBLIC 14744 0 CFXURLCache::delayWriteOperationQueue() const
PUBLIC 14762 0 __CFURLCache::DelayWriteOperationQueue()
PUBLIC 14922 0 CFXURLCache::getResponseForTask(NSURLSessionTask const*, unsigned char, void (_CFCachedURLResponse const*) block_pointer) const
PUBLIC 1498f 0 __CFURLCacheCopyResponseForRequestWithCompletionHandler
PUBLIC 14a66 0 __CFURLCache::logCacheEvent(CFURLCacheEventType, _CFURLRequest const*)
PUBLIC 14b10 0 createCanonicalURL
PUBLIC 14b2d 0 _CFURLRequestGetProtocolProperties
PUBLIC 14b62 0 non-virtual thunk to URLRequest::protocolProperties() const
PUBLIC 14b6c 0 _CFURLRequestGetHTTPMessage
PUBLIC 14b9b 0 CFHTTPMessageCopyRequestMethod
PUBLIC 14bd8 0 __CFURLCache::checkMemoryCache(__CFString const*, _CFURLRequest const*, NSURLSession const*)
PUBLIC 14ce2 0 __CFURLCache::GetNodeFromHashMap(unsigned long)
PUBLIC 14d22 0 __CFURLCache::copyPendingPersistCache(__CFString const*, _CFURLRequest const*, NSURLSession const*)
PUBLIC 14dce 0 non-virtual thunk to URLConnectionLoader::_loaderInterface_release()
PUBLIC 14ddc 0 URLConnectionInstanceData::instanceRelease() const
PUBLIC 14dee 0 SessionConnectionLoadable::_irl_release()
PUBLIC 14e05 0 __createCachedResponseFromParts
PUBLIC 151c0 0 __CFURLCache::InflateResponseFromBytes(unsigned char*, long)
PUBLIC 1525c 0 _CFURLResponseCreateFromPropertyList(__CFAllocator const*, void const*)
PUBLIC 152d4 0 URLResponse::Class()
PUBLIC 15300 0 ___ZN11URLResponse5ClassEv_block_invoke
PUBLIC 15330 0 URLResponse::initialize(void const*)
PUBLIC 154c0 0 URLResponse::initialize(long, void const**, long)
PUBLIC 1585a 0 _CFHTTPMessageCreateResponseNoParser
PUBLIC 158f6 0 HTTPVersionMixedValue::HTTPVersionMixedValue(__CFString const*)
PUBLIC 15982 0 HTTPResponseMessage::HTTPResponseMessage(HTTPResponseCode::Code, __CFString const*, HTTPVersionMixedValue const&)
PUBLIC 1598c 0 HTTPResponseMessage::HTTPResponseMessage(HTTPResponseCode::Code, __CFString const*, HTTPVersionMixedValue const&)
PUBLIC 15a7b 0 _CFHTTPMessageSetMultipleHeaderFields
PUBLIC 15aa8 0 HTTPMessage::setMultipleHeaderFields(__CFDictionary const*)
PUBLIC 15e54 0 CFContainerEnumeratorBase::setup(void const*, long (*)(void const*), void (*)(void const*, long, void const**))
PUBLIC 15f02 0 CFContainerEnumeratorBase::_claimDictKeyData(void const*, long, void const**)
PUBLIC 15f14 0 CFContainerEnumeratorBase::_claimDictObjData(void const*, long, void const**)
PUBLIC 15f20 0 CFContainerEnumeratorBase::~CFContainerEnumeratorBase()
PUBLIC 15f52 0 HTTPResponse::HTTPResponse(HTTPResponseMessage const*)
PUBLIC 15fa2 0 HTTPResponseMessage::HTTPResponseMessage(HTTPResponseMessage const*)
PUBLIC 160ae 0 HTTPResponseMessage::~HTTPResponseMessage()
PUBLIC 160b8 0 HTTPResponseMessage::~HTTPResponseMessage()
PUBLIC 1613e 0 __CFURLCache::InflateRequestFromBytes(unsigned char*, long, __CFDictionary const*)
PUBLIC 161f1 0 _CFURLRequestCreateFromPropertyList(__CFAllocator const*, void const*, __CFDictionary const*)
PUBLIC 162aa 0 URLRequest::initialize(void const*, __CFDictionary const*)
PUBLIC 164a0 0 URLRequest::initialize(long, void const**, long, __CFDictionary const*)
PUBLIC 16da8 0 HTTPMethodMixedValue::HTTPMethodMixedValue(__CFString const*)
PUBLIC 16e0c 0 CFCachedURLResponseCreateWithUserInfo
PUBLIC 16ea5 0 _CachedURLResponseRegisterClass()
PUBLIC 16ebe 0 __CFCachedURLResponse::__CFCachedURLResponse(_CFURLResponse*, __CFData const*, void const*, CFURLCacheStoragePolicy)
PUBLIC 16fba 0 __CFCachedURLResponse::Encode()
PUBLIC 16ff6 0 __CFCachedURLResponse::EncodeReceiverData()
PUBLIC 1707f 0 -[__NSURLSessionLocal _protocolClassForRequest:]
PUBLIC 171ba 0 +[_NSCFURLProtocol canInitWithRequest:]
PUBLIC 171ff 0 +[_NSCFURLProtocol requestIsCacheEquivalent:toRequest:]
PUBLIC 1727c 0 HTTPProtocol::_requestsAreCacheEquivalent(_CFURLRequest const*, _CFURLRequest const*, NSURLSession const*, void const*)
PUBLIC 175ec 0 HTTPMessage::copyBody()
PUBLIC 1761a 0 equalData(__CFData const*, __CFData const*)
PUBLIC 17667 0 ___ZN19URLConnectionLoader22_loaderEvent_StartLoadEPK16NSURLSessionTask_block_invoke
PUBLIC 17864 0 URLConnectionInstanceData::withWorkQueueAsync(void () block_pointer) const
PUBLIC 178da 0 ___ZNK25URLConnectionInstanceData18withWorkQueueAsyncEU13block_pointerFvvE_block_invoke
PUBLIC 17904 0 ___ZN19URLConnectionLoader22_loaderEvent_StartLoadEPK16NSURLSessionTask_block_invoke_3
PUBLIC 179a8 0 URLConnectionLoader::ensureLoaderHasProtocolNoLock(NSURLRequest const*)
PUBLIC 17b74 0 -[__NSURLSessionLocal _newURLProtocolForTask:client:]
PUBLIC 17e39 0 -[__NSURLSessionLocal _newURLProtocolForTask:client:protocolClass:]
PUBLIC 17f24 0 HTTPProtocol::_instantiateProtocol(__CFAllocator const*, NSURLSessionTask const*, URLProtocolClient*, void const*)
PUBLIC 17f32 0 Throttler::Client::Client()
PUBLIC 17f44 0 HTTPProtocol::initialize(NSURLSessionTask const*, URLProtocolClient*)
PUBLIC 17f58 0 URLProtocol::initialize(NSURLSessionTask const*, URLProtocolClient*)
PUBLIC 18074 0 -[__NSCFURLSessionTask _copyCurrentCFURLRequest]
PUBLIC 18098 0 non-virtual thunk to URLConnectionLoader_Classic::protocolRetainClient()
PUBLIC 180a6 0 HTTPProtocol::needsThrottler()
PUBLIC 180d2 0 ___ZN12HTTPProtocol14needsThrottlerEv_block_invoke
PUBLIC 180ee 0 -[__NSCFURLSessionTask _suspensionThreshhold]
PUBLIC 18100 0 Throttler::Throttler(Throttler::Client*)
PUBLIC 18158 0 Throttler::setMaximumOutstandingBytes(long long)
PUBLIC 18163 0 -[__NSCFURLSessionTask _bytesPerSecondLimit]
PUBLIC 18175 0 -[__NSCFURLSessionTask _createXCredentialStorage]
PUBLIC 181d3 0 -[__NSCFURLSessionTask _cfCreds]
PUBLIC 181e9 0 -[__NSURLSessionLocal _createXCredentialStorage]
PUBLIC 1827b 0 -[__NSURLSessionLocal _createXCredentialStorage0]
PUBLIC 182c2 0 -[__NSCFURLSessionConfiguration URLCredentialStorage]
PUBLIC 1830e 0 +[NSURLCredentialStorage sharedCredentialStorage]
PUBLIC 1833a 0 __49+[NSURLCredentialStorage sharedCredentialStorage]_block_invoke
PUBLIC 18390 0 CFURLCredentialStorageCreate
PUBLIC 183af 0 _CFURLStorageSessionGetDefault
PUBLIC 183d1 0 _CFURLStorageSessionCopyCredentialStorage
PUBLIC 183f6 0 StorageSession::Class()
PUBLIC 18422 0 StorageSession::copyCredStorage() const
PUBLIC 18490 0 ___ZNK14StorageSession15copyCredStorageEv_block_invoke
PUBLIC 184c6 0 _CFURLCredentialStorageCreateWithProperties(__CFAllocator const*, __CFString const*, __CFDictionary const*)
PUBLIC 1858c 0 URLCredentialStorage::Class()
PUBLIC 185b8 0 ___ZN20URLCredentialStorage5ClassEv_block_invoke
PUBLIC 185e9 0 -[NSURLStorage_CacheClient notifyCacheClientOfTimeRelativeResponses:]
PUBLIC 18c88 0 ActualCredentialStorage::ActualCredentialStorage()
PUBLIC 18cde 0 __CFURLCache::GetCacheRef()
PUBLIC 18cec 0 URLCredentialStorage::URLCredentialStorage()
PUBLIC 18d6c 0 CoreLockable::CoreLockable(unsigned char)
PUBLIC 18d8c 0 ActualCredentialStorage::initialize(__CFString const*, unsigned char)
PUBLIC 18e64 0 MemoryCredentialStorage::MemoryCredentialStorage(__CFAllocator const*)
PUBLIC 18e6e 0 MemoryCredentialStorage::MemoryCredentialStorage(__CFAllocator const*)
PUBLIC 18f04 0 PersistentCredentialStorage::PersistentCredentialStorage(__CFAllocator const*)
PUBLIC 18f3e 0 PersistentCredentialStorage::initialize(__CFString const*)
PUBLIC 18f68 0 URLCredentialStorage::initialize(__CFString const*)
PUBLIC 18f92 0 -[NSURLCredentialStorage _initWithCFURLCredentialStorage:]
PUBLIC 18ff6 0 XCredentialStorage::createNSXCredentialStorage(void const*)
PUBLIC 1902a 0 _CFCachedURLResponseSetHashForKey
PUBLIC 19052 0 NSXCredentialStorage::NSXCredentialStorage(NSURLCredentialStorage*)
PUBLIC 190a6 0 CFCachedURLResponseCopyWrappedRequest
PUBLIC 190e0 0 CFURLRequestCreateCopy
PUBLIC 19130 0 URLProtocol::getRequest() const
PUBLIC 19162 0 __CFURLCacheNode::__CFURLCacheNode(_CFCachedURLResponse const*, __CFString const*, _CFURLRequest const*, CFURLCacheTask, void const*)
PUBLIC 1916d 0 -[__NSCFURLSessionTask _copyHSTSPolicy]
PUBLIC 191d6 0 __CFURLCacheNode::__CFURLCacheNode(_CFCachedURLResponse const*, __CFString const*, _CFURLRequest const*, CFURLCacheTask, void const*)
PUBLIC 192a5 0 -[__NSCFURLSessionTask _cfHSTS]
PUBLIC 192bc 0 __CFURLCache::AddResponseIntoCacheContainers_NoLock(__CFString const*, __CFURLCacheNode*, bool)
PUBLIC 19855 0 -[__NSCFURLSessionTask _copyATSState]
PUBLIC 19880 0 std::__1::deque<__CFURLCacheNode*, std::__1::allocator<__CFURLCacheNode*> >::push_front(__CFURLCacheNode* const&)
PUBLIC 198ef 0 -[NSURLSession _copyATSState]
PUBLIC 19985 0 -[__NSCFURLSession _atsState]
PUBLIC 1999c 0 std::__1::deque<__CFURLCacheNode*, std::__1::allocator<__CFURLCacheNode*> >::__add_front_capacity()
PUBLIC 19d1c 0 std::__1::__split_buffer<__CFURLCacheNode**, std::__1::allocator<__CFURLCacheNode**>&>::push_back(__CFURLCacheNode**&&)
PUBLIC 19e77 0 createDictionaryFromData(__CFData const*)
PUBLIC 19f01 0 -[__NSCFURLSession set_atsState:]
PUBLIC 19f13 0 ___ZN20StrictSecurityPolicy11ATSLogLevelEv_block_invoke
PUBLIC 19f64 0 -[__NSCFURLSessionTask _getAuthenticatorStatusCodes]
PUBLIC 19f8f 0 -[__NSCFURLSessionTask authenticator]
PUBLIC 19fa6 0 URLConnectionLoader::withExistingProtocolAsync(void (URLProtocol*) block_pointer) const
PUBLIC 1a08c 0 CoreSchedulingSet::isEmpty() const
PUBLIC 1a09c 0 ___ZN19URLConnectionLoader22_loaderEvent_StartLoadEPK16NSURLSessionTask_block_invoke_4
PUBLIC 1a1e2 0 __CFURLCache::bindExternalDataToCachedResponse(_CFCachedURLResponse const*, __CFString const*, __CFString const*)
PUBLIC 1a3f0 0 HTTPProtocol::validateCachedResponseForLoad(_CFCachedURLResponse const*)
PUBLIC 1abbe 0 CFURLCacheFS::CFURLCacheFS(__CFString const*, __CFString const*)
PUBLIC 1abc9 0 CFCachedURLResponseGetStoragePolicy
PUBLIC 1abe2 0 CFURLCacheFS::CFURLCacheFS(__CFString const*, __CFString const*)
PUBLIC 1acce 0 CFCachedURLResponseCopyWrappedResponse(_CFCachedURLResponse const*)
PUBLIC 1ad08 0 _ExtractCStringfromCFStringRef
PUBLIC 1ad90 0 CFURLCacheFS::getCachedResponseDataFromFS(void**, long*)
PUBLIC 1af36 0 CFURLResponseCreateCopy
PUBLIC 1afbc 0 URLResponse::initialize(URLResponse const*)
PUBLIC 1b108 0 HTTPResponse::HTTPResponse(HTTPResponse const*)
PUBLIC 1b192 0 CFURLResponseGetHTTPResponse
PUBLIC 1b1c2 0 HTTPMessage::copyHeaderFieldValue(CFNetworkConstantString::HTTPHeader::DomainString)
PUBLIC 1b27a 0 CFURLCacheFS::~CFURLCacheFS()
PUBLIC 1b296 0 CFHTTPMessageGetResponseStatusCode
PUBLIC 1b2f0 0 CFURLCacheFS::~CFURLCacheFS()
PUBLIC 1b37e 0 MutexLockable::~MutexLockable()
PUBLIC 1b388 0 _CFURLResponseMustRevalidate
PUBLIC 1b3d6 0 CoreLockable::~CoreLockable()
PUBLIC 1b3ee 0 URLResponse::parseCacheControl()
PUBLIC 1b9f0 0 __CFURLCache::addMMappedDataToSet(void*)
PUBLIC 1ba3a 0 __CFCachedURLResponse::SetReceiverData(__CFData const*)
PUBLIC 1bac0 0 __CFCachedURLResponse::GetReceiverData()
PUBLIC 1bb12 0 CopyAllDataFromDataArray(__CFArray const*)
PUBLIC 1bc1c 0 CFURLResponseGetExpirationTime
PUBLIC 1bc44 0 URLResponse::getExpirationTime()
PUBLIC 1bca6 0 URLResponse::calculateHTTPExpiration()
PUBLIC 1bcfc 0 URLResponse::ageValueForResponse()
PUBLIC 1bd4a 0 URLResponse::getCreationTime()
PUBLIC 1be68 0 dateFromString(__CFString const*, unsigned char*)
PUBLIC 1bed6 0 _CFGregorianDateCreateWithString
PUBLIC 1bfab 0 _CFGregorianDateCreateWithBytes
PUBLIC 1c95a 0 dep_CFPropertyListCreateFromStream(__CFAllocator const*, __CFReadStream*, long, unsigned long, CFPropertyListFormat*, __CFString const**)
PUBLIC 1c9ae 0 URLResponse::freshnessLifetimeForResponse()
PUBLIC 1cbb2 0 URLResponse::~URLResponse()
PUBLIC 1cbbc 0 URLResponse::~URLResponse()
PUBLIC 1cc64 0 HTTPResponse::~HTTPResponse()
PUBLIC 1cc6f 0 ___ZN19URLConnectionLoader22_loaderEvent_StartLoadEPK16NSURLSessionTask_block_invoke_5
PUBLIC 1cccd 0 ___ZN19URLConnectionLoader22_loaderEvent_StartLoadEPK16NSURLSessionTask_block_invoke_6
PUBLIC 1cd16 0 URLConnectionLoader::loadWithCacheValidity(NSURLRequest const*, _CFCachedURLResponse const*, CacheResponseValidity)
PUBLIC 1cd9c 0 URLConnectionLoader::loadWithWhatToDo(NSURLRequest const*, _CFCachedURLResponse const*, long, URLConnectionLoader::WhatToDo)
PUBLIC 1d1c2 0 SessionConnectionLoadable::withLoaderClientAsync(void (LoaderClientInterface*) block_pointer)
PUBLIC 1d22f 0 ___ZN25SessionConnectionLoadable21withLoaderClientAsyncEU13block_pointerFvP21LoaderClientInterfaceE_block_invoke
PUBLIC 1d257 0 ___ZN19URLConnectionLoader16loadWithWhatToDoEPK12NSURLRequestPK20_CFCachedURLResponselNS_8WhatToDoE_block_invoke_2
PUBLIC 1d27e 0 non-virtual thunk to SessionConnectionLoadable::_loaderClientEvent_HandleCacheResponseIsValid(_CFCachedURLResponse const*)
PUBLIC 1d28e 0 SessionConnectionLoadable::_loaderClientEvent_HandleCacheResponseIsValid(_CFCachedURLResponse const*)
PUBLIC 1d2f1 0 CFCachedURLResponseGetWrappedResponse
PUBLIC 1d30a 0 SessionConnectionLoadable::_loaderClientEvent_DidReceiveResponse(_CFURLResponse*)
PUBLIC 1d373 0 +[NSURLResponse(NSURLResponsePrivate) _responseWithCFURLResponse:]
PUBLIC 1d3ce 0 -[NSHTTPURLResponse _initWithCFURLResponse:]
PUBLIC 1d440 0 -[NSURLResponse _initWithCFURLResponse:]
PUBLIC 1d4bc 0 -[NSURLResponseInternal initWithURLResponse:]
PUBLIC 1d533 0 -[__NSCFURLLocalSessionConnection _didReceiveResponse:sniff:]
PUBLIC 1d6d6 0 -[NSURLResponse(NSURLResponsePrivate) _CFURLResponse]
PUBLIC 1d6f2 0 HTTPSniffing::checkRequestAndUpdateResponseForSniffingPurposes(_CFURLRequest const*, _CFURLResponse*)
PUBLIC 1d87e 0 _CFURLRequestCopyProtocolPropertyForKey
PUBLIC 1d8aa 0 URLRequest::copyProtocolPropertyForKey(__CFString const*) const
PUBLIC 1d944 0 CFURLResponseGetMIMEType
PUBLIC 1d96c 0 URLResponse::getMIMEType()
PUBLIC 1dbf5 0 CFHTTPMessageCopyHeaderFieldValue
PUBLIC 1dc22 0 HTTPMessage::copyHeaderFieldValue(__CFString const*)
PUBLIC 1dcb0 0 HTTPSniffing::shouldFullySniffProtocol(_CFURLRequest const*, _CFURLResponse*)
PUBLIC 1dd4c 0 HTTPSniffing::shouldSniffMIMEType(_CFURLResponse*)
PUBLIC 1de3a 0 -[__NSCFURLLocalSessionConnection withDelegateAndPendingCompletion:]
PUBLIC 1de9d 0 __61-[__NSCFURLLocalSessionConnection _didReceiveResponse:sniff:]_block_invoke
PUBLIC 1df1f 0 -[__NSCFLocalSessionTask connection:didReceiveResponse:completion:]
PUBLIC 1e0e6 0 -[__NSCFLocalDataTask _onqueue_didReceiveResponse:completion:]
PUBLIC 1e31f 0 -[__NSCFLocalSessionTask _private_onqueue_didReceiveResponse:]
PUBLIC 1e369 0 -[__NSCFURLSessionTask setResponse:]
PUBLIC 1e37d 0 -[NSURLResponse copyWithZone:]
PUBLIC 1e391 0 -[NSURLResponse expectedContentLength]
PUBLIC 1e3b1 0 CFURLResponseGetExpectedContentLength
PUBLIC 1e3d8 0 URLResponse::getExpectedContentLength()
PUBLIC 1e46e 0 -[__NSCFURLSessionTask setCountOfBytesExpectedToReceive:]
PUBLIC 1e481 0 -[__NSCFLocalSessionTask dataTaskCompletion]
PUBLIC 1e498 0 __61-[__NSCFURLLocalSessionConnection _didReceiveResponse:sniff:]_block_invoke_2
PUBLIC 1e53a 0 -[__NSCFURLLocalSessionConnection afterDelegateWithTick:]
PUBLIC 1e593 0 CFCachedURLResponseCopyReceiverDataArray
PUBLIC 1e60c 0 SessionConnectionLoadable::_loaderClientEvent_DidReceiveData(__CFArray const*)
PUBLIC 1e64c 0 createDispatchDataFromDataArray(NSArray*)
PUBLIC 1e78d 0 -[__NSCFURLLocalSessionConnection _didReceiveData:]
PUBLIC 1e970 0 SessionConnectionLoadable::_loaderClientEvent_DidFinishLoading()
PUBLIC 1e989 0 -[__NSCFURLLocalSessionConnection _didFinishWithError:]
PUBLIC 1eb77 0 __55-[__NSCFURLLocalSessionConnection _didFinishWithError:]_block_invoke
PUBLIC 1ebb0 0 -[__NSCFLocalSessionTask connectionWillFinishLoading:]
PUBLIC 1ec02 0 -[__NSCFURLSessionTask _onqueue_releasePowerAsssertion]
PUBLIC 1ec9e 0 -[__NSCFURLSessionTask _powerAssertion]
PUBLIC 1ecae 0 -[__NSCFURLSessionTask _darkWakePowerAssertion]
PUBLIC 1ecc1 0 -[__NSCFURLLocalSessionConnection _immediatePostDelegateTick]
PUBLIC 1ecdf 0 _CFCachedURLResponseDeallocate(void const*)
PUBLIC 1ecf6 0 __CFCachedURLResponse::~__CFCachedURLResponse()
PUBLIC 1ed12 0 __CFCachedURLResponse::~__CFCachedURLResponse()
PUBLIC 1edfe 0 __57-[__NSCFURLLocalSessionConnection afterDelegateWithTick:]_block_invoke
PUBLIC 1ee3b 0 __61-[__NSCFURLLocalSessionConnection _didReceiveResponse:sniff:]_block_invoke_3
PUBLIC 1efbc 0 CFURLResponseGetRecommendedCachePolicy
PUBLIC 1efdf 0 -[__NSCFURLSessionConnection _setupForCache:expectedLength:response:]
PUBLIC 1f058 0 -[__NSCFURLLocalSessionConnection _tick_running]
PUBLIC 1f1ad 0 -[__NSCFURLSessionConnection _appendDataToCache:]
PUBLIC 1f225 0 __48-[__NSCFURLLocalSessionConnection _tick_running]_block_invoke
PUBLIC 1f2c8 0 -[__NSCFLocalSessionTask connection:didReceiveData:completion:]
PUBLIC 1f37f 0 -[__NSCFLocalSessionTask _onqueue_didReceiveDispatchData:completion:]
PUBLIC 1f45f 0 -[__NSCFURLSessionTask countOfBytesReceived]
PUBLIC 1f470 0 -[__NSCFURLSessionTask setCountOfBytesReceived:]
PUBLIC 1f484 0 -[__NSCFLocalSessionTask pendingResponseDisposition]
PUBLIC 1f49a 0 -[__NSCFLocalSessionTask _task_onqueue_didReceiveDispatchData:completionHandler:]
PUBLIC 1f5ee 0 __48-[__NSCFURLLocalSessionConnection _tick_running]_block_invoke_2
PUBLIC 1f679 0 __48-[__NSCFURLLocalSessionConnection _tick_running]_block_invoke_3
PUBLIC 1f697 0 -[__NSCFURLLocalSessionConnection _ackBytes:]
PUBLIC 1f6eb 0 __45-[__NSCFURLLocalSessionConnection _ackBytes:]_block_invoke
PUBLIC 1f70e 0 non-virtual thunk to URLConnectionLoader::_loaderEvent_AckBytes(long long)
PUBLIC 1f71c 0 URLConnectionLoader::_loaderEvent_AckBytes(long long)
PUBLIC 1f7ce 0 Throttler::noteAcknowledgedBytes(long long)
PUBLIC 1f84d 0 -[__NSCFURLLocalSessionConnection _tick_finishing]
PUBLIC 1fa3c 0 -[__NSCFURLSessionConnection _cachedResponse]
PUBLIC 1fbd1 0 cfnDISPATCH_DATA_BRIDGED()
PUBLIC 1fbdc 0 -[NSCachedURLResponse initWithResponse:data:userInfo:storagePolicy:]
PUBLIC 1fd47 0 __50-[__NSCFURLLocalSessionConnection _tick_finishing]_block_invoke
PUBLIC 1fdc0 0 -[__NSCFLocalSessionTask connection:willCacheResponse:responseCallback:]
PUBLIC 1fe77 0 -[__NSCFLocalSessionTask _onqueue_willCacheResponse:withCompletion:]
PUBLIC 1ff1e 0 __50-[__NSCFURLLocalSessionConnection _tick_finishing]_block_invoke_2
PUBLIC 1ff77 0 __50-[__NSCFURLLocalSessionConnection _tick_finishing]_block_invoke_3
PUBLIC 1ff95 0 -[__NSCFURLSessionConnection _storeCachedResponse:]
PUBLIC 20032 0 -[NSCachedURLResponse data]
PUBLIC 20134 0 -[NSURLCache(NSURLSessionTaskAdditions) storeCachedResponse:forDataTask:]
PUBLIC 20177 0 -[NSURLCache storeCachedResponse:forRequest:]
PUBLIC 20222 0 -[NSCachedURLResponse _CFCachedURLResponse]
PUBLIC 20247 0 CFURLCacheAddCachedResponseForRequest
PUBLIC 2030a 0 __CFCachedURLResponse::SetKey(__CFString const*)
PUBLIC 20350 0 __CFURLCache::CreateAndStoreCacheNode(__CFURLCacheNode*, _CFCachedURLResponse const*, __CFString const*, _CFURLRequest const*, void const*, bool, bool&)
PUBLIC 2087e 0 __CFURLCache::RemoveLRUCachedItems(long, __CFURLCacheNode*)
PUBLIC 20a02 0 __CFURLCache::RemoveResponseFromCacheContainers(__CFURLCacheNode*, _CFCachedURLResponse const*, __CFString const*, bool)
PUBLIC 20c34 0 __CFURLCacheNode::~__CFURLCacheNode()
PUBLIC 20c50 0 __CFURLCacheNode::~__CFURLCacheNode()
PUBLIC 20cca 0 std::__1::deque<__CFURLCacheNode*, std::__1::allocator<__CFURLCacheNode*> >::erase(std::__1::__deque_iterator<__CFURLCacheNode*, __CFURLCacheNode* const*, __CFURLCacheNode* const&, __CFURLCacheNode* const* const*, long, 512l>)
PUBLIC 21019 0 -[__NSCFURLLocalSessionConnection _task_sendFinish]
PUBLIC 21078 0 __51-[__NSCFURLLocalSessionConnection _task_sendFinish]_block_invoke
PUBLIC 21159 0 -[__NSCFLocalSessionTask connection:didFinishLoadingWithError:]
PUBLIC 211ae 0 -[__NSCFLocalSessionTask _onqueue_didFinishWithError:]
PUBLIC 2120b 0 -[__NSCFURLSessionTask error]
PUBLIC 21221 0 -[__NSCFURLSessionTask setError:]
PUBLIC 21234 0 -[__NSCFLocalSessionTask _task_onqueue_didFinish]
PUBLIC 2155a 0 -[NSURLSession addDelegateBlock:]
PUBLIC 2158b 0 -[NSCachedURLResponse dealloc]
PUBLIC 21617 0 CFCachedURLResponseSetNSCachedURLResponse
PUBLIC 21660 0 -[NSCachedURLResponseInternal dealloc]
PUBLIC 216db 0 __51-[__NSCFURLLocalSessionConnection _task_sendFinish]_block_invoke_2
PUBLIC 216f2 0 -[__NSCFURLLocalSessionConnection _cleanup]
PUBLIC 21744 0 -[__NSCFURLLocalSessionConnection withLoaderAsync:]
PUBLIC 2179f 0 __51-[__NSCFURLLocalSessionConnection withLoaderAsync:]_block_invoke
PUBLIC 217bf 0 __43-[__NSCFURLLocalSessionConnection _cleanup]_block_invoke
PUBLIC 21828 0 URLConnectionLoader::invalidateAsync(dispatch_queue_s*, void () block_pointer)
PUBLIC 2189f 0 ___ZN19URLConnectionLoader15invalidateAsyncEP16dispatch_queue_sU13block_pointerFvvE_block_invoke
PUBLIC 21a26 0 HTTPProtocol::_protocolInterface_cancelLoad()
PUBLIC 21b08 0 HTTPProtocol::cleanupStreams()
PUBLIC 21bdc 0 HTTPProtocol::getRawByteInfo(long*, long*, long*, long*)
PUBLIC 21c0a 0 URLProtocol::forgetProtocolClient()
PUBLIC 21cc6 0 non-virtual thunk to URLConnectionLoader_Classic::protocolReleaseClient()
PUBLIC 21cd4 0 Throttler::invalidate(void () block_pointer)
PUBLIC 21d3b 0 ___ZN19URLConnectionLoader15invalidateAsyncEP16dispatch_queue_sU13block_pointerFvvE_block_invoke_2
PUBLIC 21dbb 0 ___ZN9Throttler10invalidateEU13block_pointerFvvE_block_invoke
PUBLIC 21e72 0 URLConnectionInstanceData::invalidateAsync(dispatch_queue_s*, void () block_pointer)
PUBLIC 21f00 0 Throttler::~Throttler()
PUBLIC 21f1c 0 Throttler::~Throttler()
PUBLIC 21f7a 0 CFAllocatedReferenceCountedObject::~CFAllocatedReferenceCountedObject()
PUBLIC 21f80 0 ___ZN11URLProtocol19invalidateThrottlerEv_block_invoke
PUBLIC 21f93 0 ___ZN25URLConnectionInstanceData15invalidateAsyncEP16dispatch_queue_sU13block_pointerFvvE_block_invoke
PUBLIC 22008 0 HTTPProtocol::~HTTPProtocol()
PUBLIC 22012 0 __49-[__NSCFLocalSessionTask _task_onqueue_didFinish]_block_invoke
PUBLIC 22174 0 HTTPProtocol::~HTTPProtocol()
PUBLIC 227d1 0 ___ZN19URLConnectionLoader29ensureLoaderHasProtocolNoLockEPK12NSURLRequest_block_invoke_2
PUBLIC 227e0 0 -[__NSCFURLSessionTask _shouldReportTimingDataToAWD]
PUBLIC 227f1 0 -[__NSCFURLSessionTask response]
PUBLIC 22808 0 ___ZN25URLConnectionInstanceData15invalidateAsyncEP16dispatch_queue_sU13block_pointerFvvE_block_invoke_2
PUBLIC 22832 0 MetaConnectionCacheClient::~MetaConnectionCacheClient()
PUBLIC 22838 0 __75-[__NSURLSessionLocal taskForClass:request:uploadFile:bodyData:completion:]_block_invoke
PUBLIC 228a7 0 __43-[__NSCFURLLocalSessionConnection _cleanup]_block_invoke_2
PUBLIC 228e0 0 TCPIOConnection::ConnectionEstablishmentDelegate::~ConnectionEstablishmentDelegate()
PUBLIC 228e8 0 SocketStream::SSConnectionEstablishment::~SSConnectionEstablishment()
PUBLIC 228ee 0 URLProtocol::~URLProtocol()
PUBLIC 22968 0 EmptyCoreSchedulingSet::release() const
PUBLIC 22972 0 Throttler::Client::~Client()
PUBLIC 22979 0 __75-[__NSURLSessionLocal taskForClass:request:uploadFile:bodyData:completion:]_block_invoke_2
PUBLIC 2298f 0 -[__NSURLSessionLocal task:terminatedConnection:]
PUBLIC 22a39 0 -[__NSCFURLLocalSessionConnection dealloc]
PUBLIC 22b2e 0 URLConnectionLoader_Classic::~URLConnectionLoader_Classic()
PUBLIC 22b4a 0 URLConnectionLoader::~URLConnectionLoader()
PUBLIC 22bda 0 URLProtocolClient::~URLProtocolClient()
PUBLIC 22be0 0 URLConnectionInstanceData::~URLConnectionInstanceData()
PUBLIC 22c38 0 SessionConnectionLoadable::~SessionConnectionLoadable()
PUBLIC 22c54 0 SessionConnectionLoadable::~SessionConnectionLoadable()
PUBLIC 22ca0 0 InterfaceRequiredForLoader::~InterfaceRequiredForLoader()
PUBLIC 22ca9 0 -[__NSCFURLSessionConnection dealloc]
PUBLIC 22d6a 0 __49-[__NSURLSessionLocal task:terminatedConnection:]_block_invoke
PUBLIC 22d80 0 XTubeManager::invalidateAllConnections()
PUBLIC 22dbe 0 XTubeManager::~XTubeManager()
PUBLIC 22dda 0 XTubeManager::~XTubeManager()
PUBLIC 22e2a 0 RetainableTypedDict<CoreSchedulingSet const*, GlueTubeManager*>::~RetainableTypedDict()
PUBLIC 22e5a 0 -[__NSURLSessionLocal _onqueue_invokeInvalidateCallback]
PUBLIC 22fa4 0 CFXURLCache::~CFXURLCache()
PUBLIC 22fc0 0 CFXURLCache::~CFXURLCache()
PUBLIC 23012 0 NSXCredentialStorage::~NSXCredentialStorage()
PUBLIC 2302e 0 NSXCredentialStorage::~NSXCredentialStorage()
PUBLIC 23071 0 __56-[__NSURLSessionLocal _onqueue_invokeInvalidateCallback]_block_invoke
PUBLIC 23095 0 __53-[__NSURLSessionLocal _onqueue_completeInvalidation:]_block_invoke
PUBLIC 230c8 0 -[NSURLSession finalizeDelegateWithError:]
PUBLIC 232a2 0 -[NSURLResponse initWithURL:MIMEType:expectedContentLength:textEncodingName:]
PUBLIC 23364 0 CFURLResponseCreate
PUBLIC 23408 0 URLResponse::initialize(__CFURL const*, __CFString const*, long long, __CFString const*, CFURLCacheStoragePolicy)
PUBLIC 234d1 0 -[NSURLResponse MIMEType]
PUBLIC 234f3 0 _CFNetworkHTTPConnectionCacheSetLimit
PUBLIC 23534 0 _CFNetworkHTTPConnectionCacheGetLimit
PUBLIC 23572 0 HTTPConnectionCacheLimits::getLimit(HTTPConnectionCacheLimitKeys) const
PUBLIC 235ec 0 -[NSURLRequest URL]
PUBLIC 2360c 0 -[NSURLRequest cachePolicy]
PUBLIC 23630 0 CFURLRequestGetCachePolicy
PUBLIC 23668 0 non-virtual thunk to URLRequest::cachePolicy() const
PUBLIC 23672 0 -[NSURLRequest timeoutInterval]
PUBLIC 23693 0 CFURLRequestGetTimeoutInterval
PUBLIC 236ca 0 non-virtual thunk to URLRequest::timeout() const
PUBLIC 236d6 0 -[NSURLRequest mainDocumentURL]
PUBLIC 236f6 0 CFURLRequestGetMainDocumentURL
PUBLIC 2371a 0 -[NSURLRequest(NSHTTPURLRequest) HTTPMethod]
PUBLIC 2374a 0 -[NSURLRequest(NSHTTPURLRequest) HTTPShouldHandleCookies]
PUBLIC 2376f 0 CFURLRequestShouldHandleHTTPCookies
PUBLIC 237a0 0 non-virtual thunk to URLRequest::shouldHandleCookies() const
PUBLIC 237ae 0 -[NSURLRequest(NSHTTPURLRequest) allHTTPHeaderFields]
PUBLIC 237de 0 -[NSURLRequest(NSHTTPURLRequest) contentDispositionEncodingFallbackArray]
PUBLIC 238dd 0 _CFURLRequestCopyContentDispositionEncodingFallbackArray
PUBLIC 23914 0 non-virtual thunk to URLRequest::copyContentDispositionHeaderEncodingFallbackArray() const
PUBLIC 2392d 0 +[NSURLProtocol propertyForKey:inRequest:]
PUBLIC 2397d 0 -[NSURLRequest _propertyForKey:]
PUBLIC 239b0 0 -[NSMutableURLRequest setURL:]
PUBLIC 239d3 0 CFURLRequestSetURL
PUBLIC 23a00 0 URLRequest::setURL(__CFURL const*)
PUBLIC 23a8e 0 -[NSMutableURLRequest setCachePolicy:]
PUBLIC 23ac1 0 CFURLRequestSetCachePolicy
PUBLIC 23aec 0 _CFURLRequestSetProtocolProperty
PUBLIC 23b6c 0 URLRequest::setProtocolProperty(__CFString const*, void const*)
PUBLIC 23bda 0 -[NSMutableURLRequest setTimeoutInterval:]
PUBLIC 23bfb 0 CFURLRequestSetTimeoutInterval
PUBLIC 23c2e 0 -[NSMutableURLRequest setMainDocumentURL:]
PUBLIC 23c52 0 CFURLRequestSetMainDocumentURL
PUBLIC 23cdc 0 -[NSMutableURLRequest(NSMutableHTTPURLRequest) setHTTPMethod:]
PUBLIC 23d22 0 CFURLRequestSetHTTPRequestMethod
PUBLIC 23d50 0 URLRequest::setHTTPRequestMethod(__CFString const*)
PUBLIC 23de4 0 -[NSMutableURLRequest(NSMutableHTTPURLRequest) setHTTPShouldHandleCookies:]
PUBLIC 23e07 0 CFURLRequestSetShouldHandleHTTPCookies
PUBLIC 23e54 0 HTTPHeaderDict::emptyDict()
PUBLIC 23e80 0 -[NSMutableURLRequest(NSMutableHTTPURLRequest) setContentDispositionEncodingFallbackArray:]
PUBLIC 24000 0 _CFURLRequestSetContentDispositionEncodingFallbackArray
PUBLIC 24058 0 +[NSURLConnection canHandleRequest:]
PUBLIC 2407c 0 +[NSURLProtocol(NSURLProtocolPrivate) _protocolClassForRequest:]
PUBLIC 240d4 0 +[NSURLSessionTask taskForWrappedRequest:]
PUBLIC 2413f 0 -[__NSCFURLSessionTask _onqueue_adjustPriorityHint:]
PUBLIC 24145 0 -[__NSCFURLSessionTask set_requestPriority:]
PUBLIC 24156 0 +[NSURLProtocol canInitWithTask:]
PUBLIC 2418a 0 +[_NSCFTranslatedFileURLProtocol canInitWithRequest:]
PUBLIC 24205 0 +[_NSCFTranslatedFileURLProtocol_PIMPL_2 pimpl]
PUBLIC 24212 0 NSLog
PUBLIC 242cf 0 -[NSURLRequest description]
PUBLIC 243bf 0 +[_NSCFTranslatedFileURLProtocol_PIMPL_1 pimpl]
PUBLIC 243cc 0 +[_NSCFTranslatedFileURLProtocol_PIMPL_0 pimpl]
PUBLIC 243d9 0 -[NSURLConnection(Private) _initWithRequest:delegate:usesCache:maxContentLength:startImmediately:connectionProperties:]
PUBLIC 2450e 0 -[NSURLConnectionInternalConnection initWithInfo:]
PUBLIC 24a25 0 -[NSURLConnectionInternal initWithInfo:]
PUBLIC 24b0b 0 createCFRequest(InternalInit const*)
PUBLIC 24c93 0 +[NSURLRequest(NSHTTPURLRequest) allowsSpecificHTTPSCertificateForHost:]
PUBLIC 24d30 0 NSHTTPURLRequestInit()
PUBLIC 24dab 0 +[NSURLRequest(NSHTTPURLRequest) allowsAnyHTTPSCertificateForHost:]
PUBLIC 24e47 0 CFURLConnectionCreateWithProperties
PUBLIC 24fce 0 AutoAutoreleasePool::AutoAutoreleasePool()
PUBLIC 24fd8 0 AutoAutoreleasePool::AutoAutoreleasePool()
PUBLIC 25018 0 ___ZN9TCFObjectI13URLConnectionE5ClassEv_block_invoke
PUBLIC 2506c 0 ClassicURLConnection::ClassicURLConnection()
PUBLIC 250ac 0 URLConnection::URLConnection()
PUBLIC 25100 0 ClassicURLConnection::initialize(_CFURLRequest const*, _CFURLRequest*, CFURLConnectionClient_V1*, __CFDictionary const*)
PUBLIC 251f9 0 createUpdatedSocketPropertiesForRequest(_CFURLRequest const*, __CFDictionary const*, __CFDictionary const*)
PUBLIC 258df 0 _CFURLRequestCopyBoundInterfaceIdentifier
PUBLIC 25912 0 non-virtual thunk to URLRequest::copyBoundInterfaceIdentifier() const
PUBLIC 25934 0 CFURLRequestGetNetworkServiceType
PUBLIC 25966 0 non-virtual thunk to URLRequest::getNetworkServiceType() const
PUBLIC 25970 0 ClassicURLConnection::getNetworkServiceTypeString(CFURLRequestNetworkServiceType)
PUBLIC 25a25 0 CFURLRequestGetAllowsCellularAccess
PUBLIC 25a58 0 non-virtual thunk to URLRequest::getAllowsCellularAccess() const
PUBLIC 25a68 0 non-virtual thunk to URLRequest::getExpectedWorkload() const
PUBLIC 25a72 0 non-virtual thunk to URLRequest::getTimeWindowDelay() const
PUBLIC 25a80 0 non-virtual thunk to URLRequest::getTimeWindowDuration() const
PUBLIC 25a8e 0 -[__NSURLSessionLocal _createTaskFromOriginalCFURLRequest:updatedCFURLRequest:connProps:sockProps:]
PUBLIC 25af5 0 -[CONNECTION_SessionTask initWithRequest:mutableCurrent:connProps:sockProps:session:]
PUBLIC 25cb8 0 -[CONNECTION_SessionTask _processConnectionProperties]
PUBLIC 25ddf 0 _CFPerformanceTimingCreate(__CFAllocator const*)
PUBLIC 25e34 0 ___ZN17PerformanceTiming5ClassEv_block_invoke
PUBLIC 25e64 0 PerformanceTiming::PerformanceTiming()
PUBLIC 26104 0 _CFPerformanceTimingSetTimingDataOptions(__PerformanceTiming*, _TimingDataOptions)
PUBLIC 26172 0 -[CONNECTION_SessionTask _initializeTimingDataWithSessionConfiguration:]
PUBLIC 262aa 0 ClassicURLConnection::initialize(CFURLConnectionClient_V1*, NSURLSessionTask const*)
PUBLIC 26470 0 -[CONNECTION_SessionTask session]
PUBLIC 26482 0 URLConnectionClient_Classic::URLConnectionClient_Classic(ClassicURLConnection*, NSURLSessionTask const*, CFURLConnectionClient_V1 const*, dispatch_queue_s*)
PUBLIC 264f8 0 URLConnectionClient::URLConnectionClient(ClassicURLConnection*, NSURLSessionTask const*, dispatch_queue_s*)
PUBLIC 26634 0 non-virtual thunk to URLConnection::_irl_allocator()
PUBLIC 26642 0 -[CONNECTION_SessionTask _createXURLCache]
PUBLIC 26708 0 URLConnectionClient_Classic::setDelegate(CFURLConnectionClient_V1 const*)
PUBLIC 267c0 0 ClassicDelegateHolder::ClassicDelegateHolder(CFURLConnectionClient_V1 const*)
PUBLIC 26864 0 AutoAutoreleasePool::~AutoAutoreleasePool()
PUBLIC 26879 0 CFURLConnectionScheduleDownloadWithRunLoop
PUBLIC 268b8 0 ClassicURLConnection::scheduleLoaderWithRunLoop(__CFRunLoop*, __CFString const*)
PUBLIC 26916 0 CoreSchedulingSet::create(__CFRunLoop*, __CFString const*)
PUBLIC 26a17 0 _coreSchedulingSet_RLM()
PUBLIC 26a4e 0 ___ZL22_coreSchedulingSet_RLMv_block_invoke
PUBLIC 26abe 0 CoreSchedulingSet::copyRunloopEmulationSet()
PUBLIC 26af8 0 ___ZN17CoreSchedulingSet23copyRunloopEmulationSetEv_block_invoke
PUBLIC 26b54 0 RunLoopSchedulingSet::RunLoopSchedulingSet(__CFRunLoop*, __CFString const*, char const*)
PUBLIC 26c0a 0 RunLoopSchedulingSet::markAsUniquable() const
PUBLIC 26ce2 0 non-virtual thunk to URLConnection::_irl_retain()
PUBLIC 26cfe 0 -[NSURLConnection scheduleInRunLoop:forMode:]
PUBLIC 26d1b 0 -[NSURLConnectionInternalConnection scheduleInRunLoop:forMode:]
PUBLIC 26da0 0 ___ZN19URLConnectionLoader15withLoaderAsyncEU13block_pointerFvP15LoaderInterfaceE_block_invoke
PUBLIC 26dba 0 -[NSURLConnectionInternalConnection _retainCFURLConnection]
PUBLIC 26e03 0 CFURLConnectionScheduleWithRunLoop
PUBLIC 26e6c 0 ___ZN20ClassicURLConnection15withLoaderAsyncEU13block_pointerFvP15LoaderInterfaceE_block_invoke
PUBLIC 26e9c 0 ClassicURLConnection::scheduleWithRunLoop(__CFRunLoop*, __CFString const*)
PUBLIC 26ef2 0 ClassicURLConnection::pinThisRunLoop(__CFRunLoop*, __CFString const*)
PUBLIC 26fb4 0 CoreSchedulingSet::getEmptySet()
PUBLIC 26fe0 0 non-virtual thunk to URLConnectionLoader::_loaderInterface_UpdateScheduling(CoreSchedulingSet const*, CoreSchedulingSet const*)
PUBLIC 26fec 0 ClassicURLConnection::setDelegateScheduling(CoreSchedulingSet const*)
PUBLIC 270d2 0 URLConnectionLoader::_loaderInterface_UpdateScheduling(CoreSchedulingSet const*, CoreSchedulingSet const*)
PUBLIC 27130 0 -[NSURLConnectionInternal setConnectionActive:]
PUBLIC 27140 0 non-virtual thunk to URLConnection::_irl_release()
PUBLIC 2714e 0 -[NSURLConnection start]
PUBLIC 2716b 0 -[NSURLConnectionInternalConnection start]
PUBLIC 271ca 0 CFURLConnectionStart
PUBLIC 2721c 0 ___ZN19URLConnectionClient15withClientAsyncEU13block_pointerFvP25ConnectionClientInterfaceE_block_invoke
PUBLIC 27236 0 ClassicURLConnection::start()
PUBLIC 27408 0 ___ZN20ClassicURLConnection15withClientAsyncEU13block_pointerFvP25ConnectionClientInterfaceE_block_invoke
PUBLIC 27439 0 ___ZN20ClassicURLConnection21setDelegateSchedulingEPK17CoreSchedulingSet_block_invoke
PUBLIC 27478 0 -[CONNECTION_SessionTask _copyOriginalCFURLRequest]
PUBLIC 27496 0 non-virtual thunk to URLConnectionClient::_connectionClientInterface_hasBegunLoading()
PUBLIC 274b8 0 non-virtual thunk to URLRequest::shouldStartSynchronously() const
PUBLIC 274c8 0 non-virtual thunk to URLConnectionClient_Classic::_connectionClientInterface_UpdateScheduling(CoreSchedulingSet const*)
PUBLIC 274d6 0 URLConnectionClient_Classic::_connectionClientInterface_UpdateScheduling(CoreSchedulingSet const*)
PUBLIC 27546 0 URLConnectionClient::_connectionClientInterface_hasBegunLoading()
PUBLIC 27562 0 EmptyCoreSchedulingSet::copyWithUpdatesReleaseSelf(CoreSchedulingSet const*, CoreSchedulingSet const*) const
PUBLIC 2758c 0 ___ZN20ClassicURLConnection5startEv_block_invoke
PUBLIC 275d2 0 non-virtual thunk to URLConnectionClient::_connectionClientInterface_startConnection(__CFRunLoop*, __CFString const*)
PUBLIC 275e0 0 URLConnectionClient::_connectionClientInterface_startConnection(__CFRunLoop*, __CFString const*)
PUBLIC 27797 0 -[CONNECTION_SessionTask _performanceTiming]
PUBLIC 277a9 0 _CFPerformanceTimingGetTimingDataOptions(__PerformanceTiming*)
PUBLIC 277ea 0 -[CONNECTION_SessionTask _preventsIdleSystemSleep]
PUBLIC 27826 0 non-virtual thunk to URLRequest::getPreventsIdleSystemSleep() const
PUBLIC 27836 0 URLConnectionClient_Classic::scheduleIfNotAlreadyScheduled(__CFRunLoop*, __CFString const*)
PUBLIC 27862 0 PerformanceTracer::TraceIsEnabled()
PUBLIC 2788e 0 ___ZN17PerformanceTracer14TraceIsEnabledEv_block_invoke
PUBLIC 2793e 0 URLConnectionClient_Classic::_internalEvent_WillSendRequest()
PUBLIC 279a4 0 URLConnectionClient::_internalEvent_WillSendRequest()
PUBLIC 27adb 0 -[CONNECTION_SessionTask currentRequest]
PUBLIC 27b38 0 -[CONNECTION_SessionTask set_protocolForTask:]
PUBLIC 27b49 0 -[CONNECTION_SessionTask _protocolForTask]
PUBLIC 27b5b 0 +[NSURLProtocol canonicalRequestForRequest:task:]
PUBLIC 27c0c 0 +[_NSCFTranslatedFileURLProtocol canonicalRequestForRequest:]
PUBLIC 27c16 0 non-virtual thunk to URLConnectionClient_Classic::_delegate_willSendRequest(NSURLRequest const*, _CFURLResponse*, void (NSURLRequest const*) block_pointer)
PUBLIC 27c24 0 URLConnectionClient_Classic::_delegate_willSendRequest(NSURLRequest const*, _CFURLResponse*, void (NSURLRequest const*) block_pointer)
PUBLIC 27d02 0 URLConnectionClient_Classic::isInvalidatingOrInvalid()
PUBLIC 27d28 0 URLConnectionClient::cancelRequested()
PUBLIC 27d58 0 URLConnectionClient_Classic::beginSendingCallbacksLocked(char const*)
PUBLIC 27d92 0 RunLoopSchedulingSet::performAsync(void () block_pointer) const
PUBLIC 27e28 0 RunloopBlockContext::RunloopBlockContext(CoreSchedulingSet const*)
PUBLIC 27ee7 0 ___ZN19RunloopBlockContextC2EPK17CoreSchedulingSet_block_invoke
PUBLIC 27f34 0 RunLoopMultiplexer::RunLoopMultiplexer(__CFAllocator const*, char const*)
PUBLIC 27f7a 0 RunLoopSchedulingSet::createCopy() const
PUBLIC 27fea 0 RunLoopMultiplexer::schedule(CoreSchedulingSet const*, MultiplexerClient*)
PUBLIC 2804e 0 RunLoopMultiplexer::sourceForScheduling(CoreSchedulingSet const*, unsigned char)
PUBLIC 280fa 0 MultiplexerSource::MultiplexerSource(__CFAllocator const*, RunLoopMultiplexer*)
PUBLIC 281ea 0 MultiplexerSource::Retain(void const*)
PUBLIC 281f8 0 CoreSchedulingSet::applyBlock(void (__CFRunLoop*, __CFString const*) block_pointer) const
PUBLIC 282b7 0 ___ZN18RunLoopMultiplexer19sourceForSchedulingEPK17CoreSchedulingSeth_block_invoke
PUBLIC 282cd 0 coreSchedulingSetHash(void const*)
PUBLIC 282da 0 CoreSchedulingSet::hash() const
PUBLIC 28369 0 coreSchedulingSetRetain(__CFAllocator const*, void const*)
PUBLIC 28388 0 RunloopBlockContext::addBlockAndSignal(void () block_pointer)
PUBLIC 28434 0 newBlockArray(__CFAllocator const*)
PUBLIC 28484 0 RunLoopMultiplexer::signal(CoreSchedulingSet const*, MultiplexerClient*)
PUBLIC 284d4 0 MultiplexerSource::signal(CoreSchedulingSet const*, MultiplexerClient*)
PUBLIC 28667 0 ___ZN17MultiplexerSource6signalEPK17CoreSchedulingSetP17MultiplexerClient_block_invoke
PUBLIC 2867a 0 MultiplexerSource::_wakeupRunLoop(__CFRunLoop*, __CFString const*, void*)
PUBLIC 286f2 0 -[__NSCFURLSessionTask dealloc]
PUBLIC 28ac3 0 -[__NSCFURLSessionTask setSession:]
PUBLIC 28ad6 0 -[__NSCFLocalSessionTask dealloc]
PUBLIC 28cc3 0 -[__NSURLSessionLocal dealloc]
PUBLIC 28dee 0 -[__NSCFURLSession dealloc]
PUBLIC 28f28 0 CFURLRequestCreateMutable
PUBLIC 28f39 0 _CFURLRequestCreateArchiveList
PUBLIC 28fae 0 URLRequest::createArchiveList(__CFAllocator const*, long*, void const***, long*, __CFDictionary const**) const
PUBLIC 294f6 0 URLRequest::getExpectedWorkload() const
PUBLIC 29505 0 CFHTTPMessageCopyAllHeaderFields
PUBLIC 2952d 0 CFHTTPMessageCopyBody
PUBLIC 29555 0 +[_NSCFURLProtocol canonicalRequestForRequest:]
PUBLIC 295fd 0 ___ZL15_HSTSIsDisabledv_block_invoke
PUBLIC 29672 0 StrictSecurityPolicy::SanitizedString(__CFString const*)
PUBLIC 29712 0 ExternalHSTSStorage::fetchHSTSState(void () block_pointer)
PUBLIC 2978e 0 ___ZN19ExternalHSTSStorage14fetchHSTSStateEU13block_pointerFvvE_block_invoke
PUBLIC 29860 0 ___ZN19ExternalHSTSStorage14fetchHSTSStateEU13block_pointerFvvE_block_invoke_2
PUBLIC 29938 0 std::__1::__shared_ptr_pointer<__CFHTTPMessage*, Deleter_CFRelease, std::__1::allocator<__CFHTTPMessage> >::__on_zero_shared()
PUBLIC 2993c 0 std::__1::__shared_ptr_pointer<_CFURLCache const*, Deleter_CFRelease, std::__1::allocator<_CFURLCache const> >::__on_zero_shared()
PUBLIC 2993e 0 std::__1::__shared_ptr_pointer<_CFURLResponse*, Deleter_CFRelease, std::__1::allocator<_CFURLResponse> >::__on_zero_shared()
PUBLIC 29940 0 std::__1::__shared_ptr_pointer<__CFURL const*, Deleter_CFRelease, std::__1::allocator<__CFURL const> >::__on_zero_shared()
PUBLIC 29956 0 std::__1::__shared_ptr_pointer<__CFHTTPMessage*, Deleter_CFRelease, std::__1::allocator<__CFHTTPMessage> >::__on_zero_shared_weak()
PUBLIC 29958 0 std::__1::__shared_ptr_pointer<__CFDictionary*, Deleter_CFRelease, std::__1::allocator<__CFDictionary> >::__on_zero_shared_weak()
PUBLIC 2995a 0 std::__1::__shared_ptr_pointer<SHTTP2Connection*, Deleter_release<SHTTP2Connection>, std::__1::allocator<SHTTP2Connection> >::__on_zero_shared_weak()
PUBLIC 2995c 0 std::__1::__shared_ptr_emplace<PropertyObserver, std::__1::allocator<PropertyObserver> >::__on_zero_shared_weak()
PUBLIC 2995e 0 std::__1::__shared_ptr_pointer<SPDYConnection*, Deleter_CustomBlock, std::__1::allocator<SPDYConnection> >::__on_zero_shared_weak()
PUBLIC 29960 0 std::__1::__shared_ptr_emplace<TCPIOConnectionTest::EnqueedRead, std::__1::allocator<TCPIOConnectionTest::EnqueedRead> >::__on_zero_shared_weak()
PUBLIC 29962 0 std::__1::__shared_ptr_emplace<IOConnWrapper, std::__1::allocator<IOConnWrapper> >::__on_zero_shared_weak()
PUBLIC 29964 0 std::__1::__shared_ptr_emplace<TCPIOConnectionTest, std::__1::allocator<TCPIOConnectionTest> >::__on_zero_shared_weak()
PUBLIC 29966 0 std::__1::__shared_ptr_pointer<dispatch_data_s*, void (*)(dispatch_object_s*), std::__1::allocator<dispatch_data_s> >::__on_zero_shared_weak()
PUBLIC 29972 0 std::__1::__shared_ptr_pointer<_CFURLCache const*, Deleter_CFRelease, std::__1::allocator<_CFURLCache const> >::__on_zero_shared_weak()
PUBLIC 29974 0 std::__1::__shared_ptr_emplace<ConditionalConnectionSIMScheduler, std::__1::allocator<ConditionalConnectionSIMScheduler> >::__on_zero_shared_weak()
PUBLIC 29976 0 std::__1::__shared_ptr_pointer<__CFError*, Deleter_CFRelease, std::__1::allocator<__CFError> >::__on_zero_shared_weak()
PUBLIC 29978 0 std::__1::__shared_ptr_pointer<_CFURLResponse*, Deleter_CFRelease, std::__1::allocator<_CFURLResponse> >::__on_zero_shared_weak()
PUBLIC 2997a 0 std::__1::__shared_ptr_pointer<__CFURL const*, Deleter_CFRelease, std::__1::allocator<__CFURL const> >::__on_zero_shared_weak()
PUBLIC 29984 0 HSTSParser::indexOfFirstDotInDomainName(unsigned char const*, long)
PUBLIC 299cc 0 HSTSParser::isHSTSInfoExpired(__CFDictionary const*)
PUBLIC 29a40 0 MultiplexerSource::_perform(void*)
PUBLIC 29b34 0 MultiplexerSource::perform()
PUBLIC 29d06 0 CFContainerEnumeratorBase::_claimArrayData(void const*, long, void const**)
PUBLIC 29d20 0 non-virtual thunk to RunloopBlockContext::multiplexerClientPerform()
PUBLIC 29d2e 0 RunloopBlockContext::perform()
PUBLIC 29ec4 0 RunloopBlockContext::_invoke_block(void const*, void*)
PUBLIC 29ee8 0 URLConnectionClient_Classic::copyDelegate()
PUBLIC 29f28 0 _NSURLConnectionWillSendRequest(_CFURLConnection*, _CFURLRequest const*, _CFURLResponse*, void const*)
PUBLIC 29fda 0 -[NSURLConnectionInternal _withActiveConnectionAndDelegate:]
PUBLIC 2a01c 0 -[NSURLConnectionInternal _withConnectionAndDelegate:onlyActive:]
PUBLIC 2a0f8 0 -[NSURLConnectionInternalConnection invokeForDelegate:]
PUBLIC 2a187 0 __65-[NSURLConnectionInternal _withConnectionAndDelegate:onlyActive:]_block_invoke
PUBLIC 2a1fa 0 ___ZL31_NSURLConnectionWillSendRequestP16_CFURLConnectionPK13_CFURLRequestP14_CFURLResponsePKv_block_invoke
PUBLIC 2a2f6 0 -[NSURLConnection currentRequest]
PUBLIC 2a313 0 -[NSURLConnectionInternal currentRequest]
PUBLIC 2a324 0 NSURLRequest::createWithCFURLRequest(_CFURLRequest const*)
PUBLIC 2a387 0 ___ZN19URLConnectionClient30_internalEvent_WillSendRequestEv_block_invoke
PUBLIC 2a3f1 0 ___ZN19URLConnectionClient30_internalEvent_WillSendRequestEv_block_invoke_2
PUBLIC 2a41e 0 URLConnectionClient::_internal_WillSendRequestPartOnePointFive(NSURLRequest const*)
PUBLIC 2a4ac 0 non-virtual thunk to URLConnectionClient_Classic::_delegate_shouldUseCredentialStorage(void (unsigned char) block_pointer)
PUBLIC 2a514 0 URLConnectionClient_Classic::doneSendingCallbacksLocked(char const*)
PUBLIC 2a540 0 ___ZN27URLConnectionClient_Classic36_delegate_shouldUseCredentialStorageEU13block_pointerFvhE_block_invoke
PUBLIC 2a643 0 _NSURLConnectionShouldUseCredentialStorage(_CFURLConnection*, void const*)
PUBLIC 2a6ee 0 ___ZL42_NSURLConnectionShouldUseCredentialStorageP16_CFURLConnectionPKv_block_invoke
PUBLIC 2a723 0 ___ZN19URLConnectionClient41_internal_WillSendRequestPartOnePointFiveEPK12NSURLRequest_block_invoke
PUBLIC 2a782 0 ___ZN19URLConnectionClient41_internal_WillSendRequestPartOnePointFiveEPK12NSURLRequest_block_invoke_2
PUBLIC 2a7b8 0 URLConnectionClient::_internalEvent_WillSendRequestPartTwo(NSURLRequest const*, unsigned char)
PUBLIC 2a902 0 -[CONNECTION_SessionTask updateCurrentRequest:]
PUBLIC 2a977 0 ___ZN19URLConnectionClient37_internalEvent_WillSendRequestPartTwoEPK12NSURLRequesth_block_invoke
PUBLIC 2a9cd 0 -[CONNECTION_SessionTask _copySocketStreamProperties]
PUBLIC 2a9eb 0 -[CONNECTION_SessionTask _strictContentLength]
PUBLIC 2aa31 0 -[CONNECTION_SessionTask _timeoutInterval]
PUBLIC 2aa6e 0 PerformanceTiming::Class()
PUBLIC 2aa9b 0 -[CONNECTION_SessionTask _cachePolicy]
PUBLIC 2aad9 0 ___ZN19URLConnectionLoader22_loaderEvent_StartLoadEPK16NSURLSessionTask_block_invoke_2
PUBLIC 2ab54 0 URLConnectionLoader::_private_ScheduleOriginLoad(NSURLRequest const*, _CFCachedURLResponse const*)
PUBLIC 2acfe 0 CFURLProtocol_NS::CFURLProtocol_NS(objc_object*)
PUBLIC 2ad7e 0 URLProtocol::URLProtocol()
PUBLIC 2ae1a 0 CFURLProtocol_NS::initialize(NSURLSessionTask const*, URLProtocolClient*)
PUBLIC 2ae7a 0 -[CONNECTION_SessionTask _copyCurrentCFURLRequest]
PUBLIC 2ae98 0 URLProtocol::needsThrottler()
PUBLIC 2aea0 0 -[__NSCFURLProtocolClient_NS initWithCFClient:prot:]
PUBLIC 2af16 0 coreSchedulingSetEqual(void const*, void const*)
PUBLIC 2af26 0 CoreSchedulingSet::equals(CFAllocatedReferenceCountedObject const*) const
PUBLIC 2af36 0 CoreSchedulingSet::isEqualTo(CoreSchedulingSet const*) const
PUBLIC 2afbc 0 ___ZNK19URLConnectionLoader25withExistingProtocolAsyncEU13block_pointerFvP11URLProtocolE_block_invoke
PUBLIC 2afee 0 ___ZN19URLConnectionLoader27_private_ScheduleOriginLoadEPK12NSURLRequestPK20_CFCachedURLResponse_block_invoke_2
PUBLIC 2b070 0 URLProtocol::updateScheduling(CoreSchedulingSet const*, CoreSchedulingSet const*)
PUBLIC 2b0bc 0 CFURLProtocol_NS::subclassUpdateScheduling(CoreSchedulingSet const*, CoreSchedulingSet const*)
PUBLIC 2b0c2 0 CFURLProtocol_NS::_protocolInterface_startLoad(_CFCachedURLResponse const*)
PUBLIC 2b13c 0 -[_NSCFTranslatedFileURLProtocol initWithRequest:cachedResponse:client:]
PUBLIC 2b262 0 -[NSURLProtocol initWithRequest:cachedResponse:client:]
PUBLIC 2b342 0 -[NSURLProtocolInternal init]
PUBLIC 2b3ce 0 -[_NSCFTranslatedFileURLProtocol startLoading]
PUBLIC 2b3fb 0 CFURLProtocolGetClient
PUBLIC 2b40d 0 -[_NSCFTranslatedFileURLProtocol cfurlClient]
PUBLIC 2b41d 0 CFURLProtocolGetRequest
PUBLIC 2b448 0 -[NSURLProtocol request]
PUBLIC 2b46d 0 _CFURLProtocolSendDidReceiveResponseCallback
PUBLIC 2b4cd 0 -[NSURLProtocol client]
PUBLIC 2b4f3 0 -[__NSCFURLProtocolClient_NS URLProtocol:didReceiveResponse:cacheStoragePolicy:]
PUBLIC 2b54c 0 CFURLResponseSetRecommendedCachePolicy
PUBLIC 2b572 0 non-virtual thunk to URLConnectionLoader_Classic::protocolDidReceiveResponse(_CFURLResponse*)
PUBLIC 2b580 0 URLConnectionLoader_Classic::protocolDidReceiveResponse(_CFURLResponse*)
PUBLIC 2b5e9 0 _CFURLProtocolSendDidLoadDataCallback
PUBLIC 2b629 0 ___ZN27URLConnectionLoader_Classic26protocolDidReceiveResponseEP14_CFURLResponse_block_invoke
PUBLIC 2b656 0 URLConnectionLoader::protocolDidReceiveResponse(_CFURLResponse*)
PUBLIC 2b727 0 -[__NSCFURLProtocolClient_NS URLProtocol:didLoadData:]
PUBLIC 2b7a6 0 URLConnectionLoader::touchConnection()
PUBLIC 2b91c 0 non-virtual thunk to URLConnectionLoader_Classic::protocolDidLoadData(__CFData const*, long long)
PUBLIC 2b92a 0 non-virtual thunk to ClassicURLConnection::withLoaderClientAsync(void (LoaderClientInterface*) block_pointer)
PUBLIC 2b938 0 URLConnectionLoader_Classic::protocolDidLoadData(__CFData const*, long long)
PUBLIC 2b9ae 0 ClassicURLConnection::withLoaderClientAsync(void (LoaderClientInterface*) block_pointer)
PUBLIC 2ba4a 0 _CFURLProtocolSendDidFinishLoadingCallback
PUBLIC 2ba7c 0 -[__NSCFURLProtocolClient_NS URLProtocolDidFinishLoading:]
PUBLIC 2bace 0 ___ZN27URLConnectionLoader_Classic19protocolDidLoadDataEPK8__CFDatax_block_invoke
PUBLIC 2bb00 0 non-virtual thunk to URLConnectionLoader_Classic::protocolDidFinishLoading()
PUBLIC 2bb4e 0 URLConnectionLoader::protocolDidLoadData(__CFData const*, long long)
PUBLIC 2bdac 0 CFURLProtocol_NS::forgetProtocolClient()
PUBLIC 2be44 0 ___ZN19URLConnectionClient21withLoaderClientAsyncEU13block_pointerFvP21LoaderClientInterfaceE_block_invoke
PUBLIC 2be60 0 -[NSURLResponse(NSURLResponsePrivate) dealloc]
PUBLIC 2beac 0 ___ZN20ClassicURLConnection21withLoaderClientAsyncEU13block_pointerFvP21LoaderClientInterfaceE_block_invoke
PUBLIC 2bedb 0 -[NSURLResponseInternal dealloc]
PUBLIC 2bf1d 0 ___ZN19URLConnectionLoader26protocolDidReceiveResponseEP14_CFURLResponse_block_invoke
PUBLIC 2bf5c 0 non-virtual thunk to URLConnectionClient::_loaderClientEvent_DidReceiveResponse(_CFURLResponse*)
PUBLIC 2bf6b 0 ___ZN16CFURLProtocol_NS20forgetProtocolClientEv_block_invoke
PUBLIC 2bf90 0 CFURLProtocol_NS::forgetProtocolClient0()
PUBLIC 2c017 0 -[__NSCFURLProtocolClient_NS teardown]
PUBLIC 2c068 0 URLConnectionClient::_loaderClientEvent_DidReceiveResponse(_CFURLResponse*)
PUBLIC 2c248 0 CFURLResponseCopyPeerAddress
PUBLIC 2c27a 0 -[_NSCFTranslatedFileURLProtocol stopLoading]
PUBLIC 2c2a7 0 -[_NSCFTranslatedFileURLProtocol dealloc]
PUBLIC 2c310 0 non-virtual thunk to URLConnectionClient_Classic::_delegate_didReceiveResponse(_CFURLResponse*)
PUBLIC 2c31e 0 -[NSURLProtocol dealloc]
PUBLIC 2c368 0 -[NSURLProtocolInternal dealloc]
PUBLIC 2c3f4 0 URLConnectionClient_Classic::_delegate_didReceiveResponse(_CFURLResponse*)
PUBLIC 2c4b9 0 -[__NSCFURLProtocolClient_NS dealloc]
PUBLIC 2c4e9 0 ___ZN27URLConnectionLoader_Classic24protocolDidFinishLoadingEv_block_invoke
PUBLIC 2c4f8 0 URLConnectionLoader::protocolDidFinishLoading()
PUBLIC 2c864 0 CFURLProtocol_NS::getRawByteInfo(long*, long*, long*, long*)
PUBLIC 2c879 0 ___ZN19URLConnectionLoader19protocolDidLoadDataEPK8__CFDatax_block_invoke
PUBLIC 2c8ed 0 ___ZN19URLConnectionLoader24protocolDidFinishLoadingEv_block_invoke_4
PUBLIC 2c902 0 non-virtual thunk to URLConnectionClient::_loaderClientEvent_DidReceiveData(__CFArray const*)
PUBLIC 2c910 0 CFURLProtocol_NS::~CFURLProtocol_NS()
PUBLIC 2c91a 0 CFURLProtocol_NS::~CFURLProtocol_NS()
PUBLIC 2c9b2 0 URLConnectionClient::_loaderClientEvent_DidReceiveData(__CFArray const*)
PUBLIC 2cb23 0 GetTotalSizeOfDataArrayData(__CFArray const*)
PUBLIC 2cb7a 0 non-virtual thunk to URLConnectionClient_Classic::_delegate_didReceiveDataArray()
PUBLIC 2cb88 0 URLConnectionClient_Classic::_delegate_didReceiveDataArray()
PUBLIC 2cc2a 0 ___ZN19URLConnectionLoader24protocolDidFinishLoadingEv_block_invoke_3
PUBLIC 2cc9e 0 non-virtual thunk to URLConnectionClient::_loaderClientEvent_DidFinishLoading()
PUBLIC 2ccac 0 URLConnectionClient::_loaderClientEvent_DidFinishLoading()
PUBLIC 2d1b6 0 URLConnectionClient::_internalEvent_WillCacheResponse()
PUBLIC 2d64c 0 URLConnectionClient::terminalEvent(char const*, void (void () block_pointer) block_pointer)
PUBLIC 2d7b0 0 ___ZN19URLConnectionClient35_loaderClientEvent_DidFinishLoadingEv_block_invoke_2
PUBLIC 2d7c8 0 non-virtual thunk to URLConnectionClient_Classic::_delegate_didFinishLoading(void () block_pointer)
PUBLIC 2d7d6 0 URLConnectionClient_Classic::_delegate_didFinishLoading(void () block_pointer)
PUBLIC 2d864 0 ___ZN27URLConnectionClient_Classic28_delegate_didReceiveResponseEP14_CFURLResponse_block_invoke
PUBLIC 2d967 0 _NSURLConnectionDidReceiveResponse(_CFURLConnection*, _CFURLResponse*, void const*)
PUBLIC 2d9be 0 ___ZL34_NSURLConnectionDidReceiveResponseP16_CFURLConnectionP14_CFURLResponsePKv_block_invoke
PUBLIC 2da24 0 -[NSURLConnection(TimingData) _timingData]
PUBLIC 2da41 0 -[NSURLConnectionInternalConnection _timingData]
PUBLIC 2dab0 0 _CFURLConnectionGetPerformanceTiming(_CFURLConnection*)
PUBLIC 2db2c 0 ClassicURLConnection::getTask() const
PUBLIC 2db39 0 -[NSURLResponse URL]
PUBLIC 2db59 0 CFURLResponseGetURL
PUBLIC 2db7d 0 -[NSURLResponse textEncodingName]
PUBLIC 2db9d 0 CFURLResponseGetTextEncodingName
PUBLIC 2dbc4 0 URLResponse::getTextEncodingName()
PUBLIC 2dd8c 0 _CFURLResponseGetSSLCertificateContext
PUBLIC 2ddb0 0 HTTPRequest::HTTPRequest(HTTPRequest const*, __CFURL const*)
PUBLIC 2de08 0 HTTPRequestMessage::HTTPRequestMessage(HTTPRequestMessage const*, __CFURL const*)
PUBLIC 2def8 0 HTTPRequest::HTTPRequest(HTTPRequest const*, HTTPMethodMixedValue const&)
PUBLIC 2df50 0 HTTPRequestMessage::HTTPRequestMessage(HTTPRequestMessage const*, HTTPMethodMixedValue const&)
PUBLIC 2dff9 0 ___ZN27URLConnectionClient_Classic29_delegate_didReceiveDataArrayEv_block_invoke
PUBLIC 2e1ee 0 URLConnectionClient::_internal_captureDataArray()
PUBLIC 2e3d2 0 _NSURLConnectionDidReceiveDataArray(_CFURLConnection*, __CFArray const*, void const*)
PUBLIC 2e429 0 ___ZN20ClassicURLConnection29informProtocolOfBytesConsumedEx_block_invoke
PUBLIC 2e44c 0 ___ZL35_NSURLConnectionDidReceiveDataArrayP16_CFURLConnectionPK9__CFArrayPKv_block_invoke
PUBLIC 2e46b 0 ___ZN27URLConnectionClient_Classic26_delegate_didFinishLoadingEU13block_pointerFvvE_block_invoke
PUBLIC 2e556 0 _NSURLConnectionDidFinishLoading(_CFURLConnection*, void const*)
PUBLIC 2e575 0 ___ZL32_NSURLConnectionDidFinishLoadingP16_CFURLConnectionPKv_block_invoke
PUBLIC 2e5b5 0 -[NSURLConnection(TimingData) _reportTimingDataToAWD]
PUBLIC 2e5d2 0 -[NSURLConnectionInternalConnection _reportTimingDataToAWD]
PUBLIC 2e670 0 ClassicURLConnection::cancel()
PUBLIC 2e758 0 URLConnectionClient::_markClientAsCanceledAndAskIfItAlreadyWas()
PUBLIC 2e79c 0 ___ZN20ClassicURLConnection6cancelEv_block_invoke
PUBLIC 2e826 0 non-virtual thunk to URLConnectionClient::_connectionClientInterface_cancelConnection(dispatch_queue_s*, void () block_pointer)
PUBLIC 2e834 0 URLConnectionClient::_connectionClientInterface_cancelConnection(dispatch_queue_s*, void () block_pointer)
PUBLIC 2e91d 0 ___ZN19URLConnectionClient43_connectionClientInterface_cancelConnectionEP16dispatch_queue_sU13block_pointerFvvE_block_invoke
PUBLIC 2e984 0 ClassicURLConnection::withLoaderAsync(void (LoaderInterface*) block_pointer)
PUBLIC 2ea1f 0 ___ZN19URLConnectionClient43_connectionClientInterface_cancelConnectionEP16dispatch_queue_sU13block_pointerFvvE_block_invoke_2
PUBLIC 2eaf6 0 non-virtual thunk to URLConnectionLoader::_loaderEvent_CancelLoad(dispatch_queue_s*, void () block_pointer)
PUBLIC 2eb04 0 URLConnectionLoader::_loaderEvent_CancelLoad(dispatch_queue_s*, void () block_pointer)
PUBLIC 2ec17 0 ___ZN19URLConnectionClient43_connectionClientInterface_cancelConnectionEP16dispatch_queue_sU13block_pointerFvvE_block_invoke_3
PUBLIC 2ec42 0 ___ZN20ClassicURLConnection6cancelEv_block_invoke_2
PUBLIC 2eca0 0 ClassicURLConnection::invalidateConnectionAsync(dispatch_queue_s*, void () block_pointer)
PUBLIC 2ed5d 0 ___ZN20ClassicURLConnection25invalidateConnectionAsyncEP16dispatch_queue_sU13block_pointerFvvE_block_invoke
PUBLIC 2ed94 0 URLConnectionClient_Classic::invalidateAsync(dispatch_queue_s*, void () block_pointer)
PUBLIC 2ee0c 0 ___ZN20ClassicURLConnection6cancelEv_block_invoke_3
PUBLIC 2ee72 0 ClassicURLConnection::~ClassicURLConnection()
PUBLIC 2ee7c 0 ClassicURLConnection::~ClassicURLConnection()
PUBLIC 2ef2a 0 URLConnectionClient_Classic::~URLConnectionClient_Classic()
PUBLIC 2ef46 0 URLConnectionClient_Classic::~URLConnectionClient_Classic()
PUBLIC 2efba 0 URLConnectionClient::~URLConnectionClient()
PUBLIC 2f0f4 0 -[CONNECTION_SessionTask dealloc]
PUBLIC 2f250 0 PerformanceTiming::~PerformanceTiming()
PUBLIC 2f25a 0 PerformanceTiming::~PerformanceTiming()
PUBLIC 2f40e 0 -[NSHTTPURLResponse statusCode]
PUBLIC 2f441 0 -[NSHTTPURLResponse allHeaderFields]
PUBLIC 2f4ca 0 URLResponse::getLastModifiedDate()
PUBLIC 2f5da 0 CFNGetContentLengthFromHeaderFieldValue(__CFString const*)
PUBLIC 2f719 0 -[__NSURLSessionLocal _cfurlRequest:isCacheEquivalentTo:]
PUBLIC 2f82e 0 URLRequest::equals(CFObject const&) const
PUBLIC 2f838 0 URLRequest::isEqualTo(URLRequest const*, URLRequest const*)
PUBLIC 2fb98 0 typesNotEqualWithAppropriateNullChecks(void const*, void const*)
PUBLIC 2fbcd 0 dictsNotEqualWithAppropriateNullAndEmptyDictionaryChecks(__CFDictionary const*, __CFDictionary const*)
PUBLIC 2fc3b 0 -[__NSURLSessionLocal _request:isCacheEquivalentTo:]
PUBLIC 2fd82 0 __CFURLCache::TouchCachedResponseInLRUList(_CFCachedURLResponse const*)
PUBLIC 2fede 0 HTTPProtocol::copyVaryState(NSURLSession const*, __CFString const*, _CFURLRequest const*)
PUBLIC 300e4 0 CFURLRequestCopyHTTPHeaderFieldValue
PUBLIC 3011e 0 NSURLSessionTask::createWithCFURLRequestAndSession(_CFURLRequest const*, NSURLSession const*)
PUBLIC 301b6 0 HTTPProtocol::copyCookiesForThisTask(NSURLSessionTask const*)
PUBLIC 302b4 0 -[__NSURLSessionLocal _getCookieHeadersForTask:completionHandler:]
PUBLIC 303cc 0 -[__NSCFURLSessionTask shouldHandleCookiesAndSchemeIsAppropriate]
PUBLIC 30420 0 -[__NSCFURLSessionTask _shouldHandleCookies]
PUBLIC 30433 0 URLCanUseCookies(__CFURL const*)
PUBLIC 304af 0 -[__NSCFURLSessionTask _createXCookieStorage]
PUBLIC 3050e 0 -[__NSCFURLSessionTask _cfCookies]
PUBLIC 30525 0 -[__NSURLSessionLocal _createXCookieStorage]
PUBLIC 305b7 0 -[__NSURLSessionLocal _createXCookieStorage0]
PUBLIC 30602 0 -[__NSCFURLSessionConfiguration HTTPCookieStorage]
PUBLIC 3064e 0 XCookieStorage::createNSXCookieStorage(void const*)
PUBLIC 306aa 0 CFXCookieStorage::CFXCookieStorage(OpaqueCFHTTPCookieStorage*)
PUBLIC 306fe 0 CFURLRequestCopyAdditionalHTTPCookies
PUBLIC 3073c 0 XCookieStorage::getRequestHeaderFieldsForTask(NSURLSessionTask const*, void (__CFDictionary const*) block_pointer) const
PUBLIC 307ff 0 -[__NSCFURLSessionTask currentRequest_URL]
PUBLIC 3081a 0 CFXCookieStorage::getCookiesForTask(NSURLSessionTask const*, unsigned char, void (__CFArray const*) block_pointer) const
PUBLIC 3095d 0 -[__NSCFURLSessionTask currentRequest_mainDocumentURL]
PUBLIC 30978 0 CookieHostName::CookieHostName(__CFAllocator const*, __CFURL const*)
PUBLIC 30982 0 CookieHostName::CookieHostName(__CFAllocator const*, __CFURL const*)
PUBLIC 30a62 0 CookieHostName::initializeFromString(__CFAllocator const*, __CFString const*)
PUBLIC 30d94 0 ExternalStorageCache::copyCached(unsigned char const*, unsigned char)
PUBLIC 30dda 0 ExternalStorageCache::copyCachedLocked(unsigned char const*, unsigned char)
PUBLIC 30e6c 0 CompactCookieArray::makeCompactCookieArray(__CFAllocator const*, __CFData const*)
PUBLIC 30ec6 0 ___ZN18CompactCookieArray5ClassEv_block_invoke
PUBLIC 30ef6 0 CompactCookieArray::CompactCookieArray(__CFData const*)
PUBLIC 30f42 0 CompactCookieArray::fastValidateAndReturnOrReleaseAndReturnNil(CompactCookieArray const*)
PUBLIC 30f72 0 CompactCookieArray::assertCookiesValid(unsigned char) const
PUBLIC 3105e 0 CompactCookieArray::peekData(long*) const
PUBLIC 31098 0 ExternalStorageCache::cache(unsigned char const*, unsigned char, CompactCookieArray const*)
PUBLIC 310e6 0 ExternalStorageCache::cacheLocked(unsigned char const*, unsigned char, CompactCookieArray const*)
PUBLIC 31186 0 Crumbery::computeCrumbdex(unsigned char const*)
PUBLIC 311a6 0 asciiLowerHash
PUBLIC 31410 0 Crumbery::getCrumb(unsigned long long) const
PUBLIC 31454 0 ExternallyCachedCookieArray::ExternallyCachedCookieArray(__CFAllocator const*, unsigned long long, unsigned char, CompactCookieArray const*)
PUBLIC 3145e 0 ExternallyCachedCookieArray::ExternallyCachedCookieArray(__CFAllocator const*, unsigned long long, unsigned char, CompactCookieArray const*)
PUBLIC 314d6 0 CoreContainerRetainable::CoreContainerRetainable()
PUBLIC 314e6 0 CStringKeyCallbacks::_caseInsensitiveHash(void const*)
PUBLIC 31516 0 asciiLowerHash(char const*, unsigned long)
PUBLIC 31780 0 createNewMutableDict(__CFAllocator const*, CFDictionaryKeyCallBacks const*)::RetainableCallbacks::_retain(__CFAllocator const*, void const*)
PUBLIC 3179c 0 non-virtual thunk to ExternallyCachedCookieArray::retainableRetain()
PUBLIC 317a6 0 CStringKeyCallbacks::_retain(__CFAllocator const*, void const*)
PUBLIC 31804 0 ExternallyCachedCookieArray::retainableRelease()
PUBLIC 31826 0 mmapFileDeallocate(void*, void*)
PUBLIC 3189a 0 CookieUtils::looksLikeIPAddress(char const*)
PUBLIC 31950 0 __CFURLCache::removeMMappedDataFromSet(void*)
PUBLIC 3199a 0 CStringKeyCallbacks::_caseInsensitiveEqual(void const*, void const*)
PUBLIC 319b6 0 CookieHostName::trimFirstComponent()
PUBLIC 319ec 0 HTTPCookie::Class()
PUBLIC 31a18 0 ___ZN10HTTPCookie5ClassEv_block_invoke
PUBLIC 31a48 0 CompactHTTPCookieReference::CompactHTTPCookieReference(CompactCookieArray const*, long)
PUBLIC 31a52 0 CompactHTTPCookieReference::CompactHTTPCookieReference(CompactCookieArray const*, long)
PUBLIC 31b06 0 CompactHTTPCookieReference::cookieHeader() const
PUBLIC 31b10 0 CompactHTTPCookieReference::~CompactHTTPCookieReference()
PUBLIC 31b54 0 HTTPCookie::~HTTPCookie()
PUBLIC 31b74 0 ExternallyCachedCookieArray::retainArray() const
PUBLIC 31ba0 0 HTTPBodyData::HTTPBodyData(__CFAllocator const*)
PUBLIC 31bb4 0 HTTPBodyData::setData(__CFData const*)
PUBLIC 31c8c 0 HTTPBodyData::HTTPBodyData(__CFAllocator const*, HTTPBodyData const*)
PUBLIC 31c96 0 HTTPBodyData::HTTPBodyData(__CFAllocator const*, HTTPBodyData const*)
PUBLIC 31ce2 0 HTTPBodyData::copyImmutable() const
PUBLIC 31d48 0 HTTPBodyData::~HTTPBodyData()
PUBLIC 31d76 0 HTTPBodyData::becomeEmpty()
PUBLIC 31dd4 0 FormContentLengthWithArray(__CFArray const*)
PUBLIC 31f47 0 CFURLRequestSetHTTPRequestBodyParts
PUBLIC 31f74 0 URLRequest::setHTTPBodyParts(__CFArray const*)
PUBLIC 320be 0 HTTPMessage::setHeaderFieldScalarValue(CFNetworkConstantString::HTTPHeader::DomainString, long long)
PUBLIC 32194 0 HTTPProtocol::subclassUpdateScheduling(CoreSchedulingSet const*, CoreSchedulingSet const*)
PUBLIC 321be 0 HTTPProtocol::_protocolInterface_startLoad(_CFCachedURLResponse const*)
PUBLIC 326de 0 HTTPProtocol::shouldAttemptOriginLoad()
PUBLIC 32752 0 HTTPProtocol::copyCustomProxySettings()
PUBLIC 327c9 0 -[__NSCFURLSessionTask _proxySettings]
PUBLIC 327df 0 _CFNetworkCopyOverrideProxySettings
PUBLIC 327f9 0 __use_tcp_connection_proxy_settings
PUBLIC 32825 0 ____use_tcp_connection_proxy_settings_block_invoke
PUBLIC 3285a 0 AutoDict::getEmptyDict()
PUBLIC 328a9 0 CFNetworkCopyProxiesForURL
PUBLIC 328b5 0 __CFNetworkCopyProxiesForURLWithInterface
PUBLIC 32935 0 __CFNetworkCopyProxiesForInterface(__CFString const*, __CFString const*, __CFDictionary const*, __CFString const*)
PUBLIC 33656 0 _ProxyInitialization()
PUBLIC 336a8 0 HTTPProtocol::executePACOrOpenStream(_CFCachedURLResponse const*)
PUBLIC 338bc 0 HTTPProtocol::createAndOpenStream(_CFCachedURLResponse const*)
PUBLIC 33968 0 HTTPProtocol::asynchronouslyCreateAndOpenStream(_CFCachedURLResponse const*)
PUBLIC 33aaf 0 CFURLRequestCopyHTTPRequest
PUBLIC 33b4e 0 HTTPRequestMessage::HTTPRequestMessage(HTTPRequestMessage const*)
PUBLIC 33b58 0 HTTPProtocol::asynchronouslyAddCookiesAndContinue(__CFHTTPMessage*)
PUBLIC 33ca4 0 HTTPProtocol::canRelinquishControlToTask()
PUBLIC 33cec 0 HTTPProtocol::isCancelled()
PUBLIC 33cfe 0 ___ZN12HTTPProtocol35asynchronouslyAddCookiesAndContinueEP15__CFHTTPMessage_block_invoke
PUBLIC 33d71 0 ___ZN12HTTPProtocol35asynchronouslyAddCookiesAndContinueEP15__CFHTTPMessage_block_invoke_2
PUBLIC 33e08 0 HTTPProtocol::asynchronouslyAddAuthenticatorHeadersAndContinue(__CFHTTPMessage*)
PUBLIC 33f94 0 HTTPProtocol::asynchronouslyCreateAndOpenStream_WithMessage_AfterCookiesAndAuthenticatorHeaders(__CFHTTPMessage*)
PUBLIC 34a56 0 _getConnectionInfoForProxy(__CFDictionary const*, __CFHTTPMessage*, __CFString const**, int*, _CFHTTPConnectionType*, __CFDictionary const**)
PUBLIC 34eca 0 CFNProxyDictionaryDirect
PUBLIC 34eea 0 CFHTTPMessageCopyRequestURL
PUBLIC 34f54 0 HTTPRequestParserClient::requestURL() const
PUBLIC 350ca 0 -[__NSCFURLSessionTask _requestPriority]
PUBLIC 350dc 0 -[__NSCFURLSessionTask priority]
PUBLIC 350ee 0 -[__NSCFURLSessionTask _allowedProtocolTypes]
PUBLIC 35100 0 -[__NSCFURLSessionTask _shouldUsePipelineHeuristics]
PUBLIC 35113 0 -[__NSCFURLSessionTask _shouldSkipPipelineProbe]
PUBLIC 35127 0 -[__NSCFURLSessionTask _shouldPipelineHTTP]
PUBLIC 3513c 0 HTTPConnectionCacheKey::HTTPConnectionCacheKey(__CFAllocator const*, __CFString const*, int, _CFHTTPConnectionType, __CFDictionary const*, unsigned long)
PUBLIC 35148 0 HTTPConnectionCacheKey::HTTPConnectionCacheKey(__CFAllocator const*, __CFString const*, int, _CFHTTPConnectionType, __CFDictionary const*, unsigned long)
PUBLIC 35260 0 non-virtual thunk to URLConnectionLoader_Classic::protocolDidReceiveConnectionCacheKey(HTTPConnectionCacheKey*)
PUBLIC 3526e 0 URLConnectionLoader_Classic::protocolDidReceiveConnectionCacheKey(HTTPConnectionCacheKey*)
PUBLIC 352d9 0 -[__NSURLSessionLocal _withConnectionCache_enqueueRequest:forProtocol:scheduling:options:]
PUBLIC 3538a 0 ___ZN27URLConnectionLoader_Classic36protocolDidReceiveConnectionCacheKeyEP22HTTPConnectionCacheKey_block_invoke
PUBLIC 35408 0 -[__NSURLSessionLocal _actualTubeManager]
PUBLIC 3541a 0 XTubeManager::withTubeManager(CoreSchedulingSet const*, void (GlueTubeManager*) block_pointer)
PUBLIC 35502 0 ___ZN19URLConnectionLoader36protocolDidReceiveConnectionCacheKeyEP22HTTPConnectionCacheKey_block_invoke
PUBLIC 3552c 0 non-virtual thunk to SessionConnectionLoadable::_loaderClientEvent_DidReceiveConnectionCacheKey(HTTPConnectionCacheKey*)
PUBLIC 35548 0 GlueTubeManager::GlueTubeManager(__CFAllocator const*, CoreSchedulingSet const*, HTTPConnectionCacheLimits)
PUBLIC 35552 0 GlueTubeManager::GlueTubeManager(__CFAllocator const*, CoreSchedulingSet const*, HTTPConnectionCacheLimits)
PUBLIC 355fc 0 SessionConnectionLoadable::_loaderClientEvent_DidReceiveConnectionCacheKey(HTTPConnectionCacheKey*)
PUBLIC 35618 0 HTTPConnectionCacheLimits::HTTPConnectionCacheLimits()
PUBLIC 35642 0 -[__NSCFURLLocalSessionConnection _didReceiveConnectionCacheKey:]
PUBLIC 356d0 0 CFAllocatedReferenceCountedObject::_retainable_hash(void const*)
PUBLIC 356dc 0 __65-[__NSCFURLLocalSessionConnection _didReceiveConnectionCacheKey:]_block_invoke
PUBLIC 3572c 0 GlueTubeManager::enqueueRequestForProtocol(MetaConnectionCacheClient*, HTTPRequestMessage const*, MetaConnectionOptions)
PUBLIC 357d6 0 -[__NSCFLocalSessionTask connection:didReceiveConnectionCacheKey:]
PUBLIC 35846 0 HTTPConnectionCacheKey::getProps()
PUBLIC 3587c 0 GlueTubeManager::_findOrCreateSManager()
PUBLIC 358ea 0 STubeManager::STubeManager(__CFAllocator const*, CoreSchedulingSet const*, HTTPConnectionCacheLimits)
PUBLIC 358f4 0 STubeManager::STubeManager(__CFAllocator const*, CoreSchedulingSet const*, HTTPConnectionCacheLimits)
PUBLIC 35a2a 0 STubeManager::enqueueRequestForProtocol(MetaConnectionCacheClient*, HTTPRequestMessage const*, MetaConnectionOptions)
PUBLIC 35afc 0 resolveTubeTypeForKey(HTTPConnectionCacheKey*, CoreLoggable*, STubeType*, __CFArray const**)
PUBLIC 35b66 0 HTTPConnectionCacheKey::getType() const
PUBLIC 35b85 0 resolveTubeType(unsigned long, bool, __CFDictionary const*, CoreLoggable*, STubeType*, __CFArray const**)
PUBLIC 35f68 0 STubeManager::_onqueue_haveValidPendingTubeForKey(HTTPConnectionCacheKey const*)
PUBLIC 35fe6 0 STubeManager::_onqueue_requestNewTube(HTTPConnectionCacheKey*, HTTPRequestMessage const*, MetaConnectionCacheClient*)
PUBLIC 3604c 0 STube::STube(__CFAllocator const*, char const*, HTTPConnectionCacheKey*, SBaseTubeManager*, CoreSchedulingSet const*)
PUBLIC 36058 0 STube::STube(__CFAllocator const*, char const*, HTTPConnectionCacheKey*, SBaseTubeManager*, CoreSchedulingSet const*)
PUBLIC 361e4 0 CFAllocatedReferenceCountedObject_RequiringNamedRetains::CFAllocatedReferenceCountedObject_RequiringNamedRetains(__CFAllocator const*, char const*)
PUBLIC 36230 0 CFAllocatedReferenceCountedObject_RequiringNamedRetains::retain() const
PUBLIC 3623a 0 CFAllocatedReferenceCountedObject_RequiringNamedRetains::release() const
PUBLIC 3625c 0 SAwaitingTube::SAwaitingTube(__CFAllocator const*, char const*, MetaConnectionCacheClient*, HTTPRequestMessage const*, MetaConnectionOptions)
PUBLIC 3628a 0 SAwaitingTube::SAwaitingTube(__CFAllocator const*, char const*, MetaConnectionCacheClient*, HTTPRequestMessage const*, MetaConnectionOptions)
PUBLIC 3636e 0 SAwaitingTube::linkWithTube(STube*)
PUBLIC 363be 0 STube::initialize(SBaseAwaitingTube*)
PUBLIC 364b4 0 SBaseAwaitingTube::hasBeenClaimed()
PUBLIC 364be 0 SBaseAwaitingTube::markAsClaimed()
PUBLIC 364ef 0 ___ZN5STube10initializeEP17SBaseAwaitingTube_block_invoke
PUBLIC 3654a 0 STube::initStreams()
PUBLIC 36602 0 SocketStream::SocketStream(char const*)
PUBLIC 367a2 0 SocketStream::initialize(__CFString const*, int)
PUBLIC 36829 0 _CFHostCreateWithNameAndPortForConnect
PUBLIC 368e8 0 HostBase::Class()
PUBLIC 36914 0 ___ZN8HostBase5ClassEv_block_invoke
PUBLIC 36944 0 DispatchHost::DispatchHost(__CFString const*, void const*, ...)
PUBLIC 36a6a 0 HostBase::HostBase(HostBase const*)
PUBLIC 36b71 0 copyHostQueue()
PUBLIC 36bdb 0 ___ZL13copyHostQueuev_block_invoke
PUBLIC 36c4a 0 HostBase::lock()
PUBLIC 36c70 0 HostBase::setInfoLocked(__CFString const*, void const*)
PUBLIC 36cb6 0 HostBase::setInfoLocked(__va_list_tag*)
PUBLIC 36da8 0 HostBase::unlock()
PUBLIC 36e26 0 SocketStream::initialize(__CFHost*, int)
PUBLIC 36ed2 0 SocketStream::commonInitialization()
PUBLIC 37014 0 IOLogger::newLogger(LogFormatter::LineInfo const&)
PUBLIC 370b8 0 IOLogger::_initLogger()
PUBLIC 3725f 0 copyGlobalTCPConnWorkQueue()
PUBLIC 3729b 0 ___ZL26copyGlobalTCPConnWorkQueuev_block_invoke
PUBLIC 372b7 0 CFHostCreateCopy
PUBLIC 37350 0 DispatchHost::DispatchHost(DispatchHost const*)
PUBLIC 3739e 0 DispatchHost::~DispatchHost()
PUBLIC 373a8 0 DispatchHost::~DispatchHost()
PUBLIC 37488 0 HostBase::~HostBase()
PUBLIC 37528 0 CoreLockable::~CoreLockable()
PUBLIC 37542 0 STube::prepAllowedProtocols()
PUBLIC 3761c 0 SocketStream::setProperty(__CFString const*, void const*)
PUBLIC 3764c 0 SocketStream::setProperty(void const*, __CFString const*, void const*)
PUBLIC 38a28 0 SocketStream::dispatchSignalFromSocketCallbackUnlocked(SocketStreamSignalHolder*)
PUBLIC 38aa8 0 SocketStreamSignalHolder::~SocketStreamSignalHolder()
PUBLIC 38b0f 0 foreachDictionaryEntry(__CFDictionary const*, void (__CFString const*, void const*) block_pointer)
PUBLIC 38b26 0 _apply_block(void const*, void const*, void*)
PUBLIC 38b40 0 SAwaitingTube::getClient()
PUBLIC 38b4a 0 HTTPProtocol::isValidForTube()
PUBLIC 38b88 0 CoreSchedulingSet::performSync(void () block_pointer) const
PUBLIC 38d4c 0 CoreSchedulingSet::currentlyInContext() const
PUBLIC 38ed8 0 ___ZNK17CoreSchedulingSet18currentlyInContextEv_block_invoke
PUBLIC 38f54 0 HTTPProtocol::copyProtocolPropertiesForStream()
PUBLIC 39240 0 -[__NSCFURLSessionTask _sslSettings]
PUBLIC 39257 0 -[__NSURLSessionLocal _withConnectionCache_getCurrentSSLMethodForKey:scheduling:]
PUBLIC 39290 0 XTubeManager::getCurrentSSLMethodForKey(HTTPConnectionCacheKey const*, CoreSchedulingSet const*)
PUBLIC 39336 0 ___ZN12XTubeManager25getCurrentSSLMethodForKeyEPK22HTTPConnectionCacheKeyPK17CoreSchedulingSet_block_invoke
PUBLIC 39362 0 GlueTubeManager::getCurrentSSLMethodForKey(HTTPConnectionCacheKey const*)
PUBLIC 393a2 0 STubeManager::getCurrentSSLMethodForKey(HTTPConnectionCacheKey const*)
PUBLIC 393bd 0 -[__NSCFURLSessionTask _shouldSkipPreferredClientCertificateLookup]
PUBLIC 393d0 0 HTTPProtocolSSLSupport::getSSLCertsCached(__CFString const*)
PUBLIC 39706 0 HTTPRequest::isEffectivelyEmpty() const
PUBLIC 39770 0 HTTPMessage::headers() const
PUBLIC 3978e 0 HTTPHeaderDict::count() const
PUBLIC 3979c 0 HTTPRequest::isEqualTo(HTTPRequest const*, HTTPRequest const*)
PUBLIC 39936 0 HTTPHeaderDict::equals(CFObject const&) const
PUBLIC 3994e 0 URLRequest::getTimeWindowDuration() const
PUBLIC 3995c 0 URLRequest::getTimeWindowDelay() const
PUBLIC 3996c 0 URLRequest::requestPriority() const
PUBLIC 39978 0 URLRequest::getStartTimeoutTime() const
PUBLIC 39986 0 URLRequest::getRequiresShortConnectionTimeout() const
PUBLIC 39996 0 URLRequest::getPayloadTransmissionTimeout() const
PUBLIC 399a5 0 ___ZN12SocketStream15beginConnectionEv_block_invoke
PUBLIC 39a32 0 SocketStream::captureStreams(__CFReadStream**, __CFWriteStream**)
PUBLIC 39b18 0 CFObject::selfStreamClient()
PUBLIC 39b4e 0 CFObject::_cfobj_instance_retain(void*)
PUBLIC 39b6a 0 WriteStreamCallbacks::_schedule(__CFWriteStream*, __CFRunLoop*, __CFString const*, void*)
PUBLIC 39b96 0 virtual thunk to SocketStream::schedule(void const*, __CFRunLoop*, __CFString const*)
PUBLIC 39bec 0 SocketStream::schedule_NoLock(void const*, __CFRunLoop*, __CFString const*)
PUBLIC 39dc4 0 _SchedulesFind
PUBLIC 39e4e 0 _SchedulesAddRunLoopAndMode
PUBLIC 39ee4 0 Schedulables::schedule(__CFRunLoop*, __CFString const*)
PUBLIC 39f16 0 WriteStreamCallbacks::_open(__CFWriteStream*, CFStreamError*, unsigned char*, void*)
PUBLIC 39f40 0 virtual thunk to SocketStream::open(void const*, CFStreamError*, unsigned char*)
PUBLIC 39f52 0 SocketStream::open(void const*, CFStreamError*, unsigned char*)
PUBLIC 3a1a8 0 CoreSchedulingSet::applyBlockWithPossibleEmulation(void (__CFRunLoop*, __CFString const*) block_pointer) const
PUBLIC 3a1ef 0 ___ZN12SocketStream4openEPKvP13CFStreamErrorPh_block_invoke
PUBLIC 3a218 0 SocketStream::startLookupForOpen_NoLock()
PUBLIC 3a904 0 SocketStream::startTCPConnection_Host(__CFHost*, __CFNumber const*)
PUBLIC 3acea 0 CFHostGetAddressing
PUBLIC 3acfc 0 SocketStream::startTCPConnection(unsigned char)
PUBLIC 3b654 0 ___ZN12SocketStream18startTCPConnectionEh_block_invoke_4
PUBLIC 3b680 0 SocketStream::_onqueue_startTCPConnectionCompletion(unsigned char, unsigned char)
PUBLIC 3bc64 0 -[__NSCFURLSessionTask _takePreventIdleSleepAssertionIfAppropriate]
PUBLIC 3bf6a 0 SocketStream::copyProperty(__CFString const*)
PUBLIC 3bf92 0 SAwaitingTube::getRequest()
PUBLIC 3bf9d 0 ___ZN12SocketStream30_onqueue_completeTCPConnectionEv_block_invoke
PUBLIC 3c04d 0 ___ZN12SocketStream30_onqueue_completeTCPConnectionEv_block_invoke_2
PUBLIC 3c1a4 0 SocketStream::_onqueue_completeTCPConnection0(dispatch_data_s*)
PUBLIC 3c762 0 SocketStream::setupMinimumThroughput(bool)
PUBLIC 3c7f2 0 SocketStream::attemptNextConnection_NoLock()
PUBLIC 3cbd0 0 _CFTypeScheduleOnMultipleRunLoops
PUBLIC 3ce39 0 CFMuckPortGetTypeID()
PUBLIC 3ce6a 0 ___ZN8MuckPort5ClassEv_block_invoke
PUBLIC 3ce9a 0 Schedulables::_add(void const*)
PUBLIC 3cee8 0 SocketStream::_SocketCallBack_stream(__CFSocket*, unsigned long, __CFData const*, void const*, void*)
PUBLIC 3cf68 0 SocketStream::socketCallback(__CFSocket*, unsigned long, __CFData const*, void const*)
PUBLIC 3d092 0 SocketStream::socketCallbackConnectLocked(SocketStreamSignalHolder*, void const*)
PUBLIC 3d22e 0 SocketStream::prepareSignalFromSocketCallbackLocked(SocketStreamSignalHolder*)
PUBLIC 3d460 0 SocketStream::socketCallbackWriteLocked(SocketStreamSignalHolder*)
PUBLIC 3d560 0 SocketStream::performHandshake(SocketStream::Handshake)
PUBLIC 3d5d4 0 SocketStream::_PerformSecurityHandshake_NoLock()
PUBLIC 3e10e 0 SocketStream::setPeerID(SSLContext*)
PUBLIC 3e388 0 SocketStream::copyPeerNameFromAddressAppendingDomain(__CFString const*)
PUBLIC 3e4b2 0 SocketStream::_SecurityWriteFunc_NoLock(void*, void const*, unsigned long*)
PUBLIC 3e4f6 0 SocketStream::writeFunc_NoLock(void const*, unsigned long*)
PUBLIC 3e5a2 0 SocketStream::sendToSocket(unsigned char const*, long, CFStreamError*)
PUBLIC 3e628 0 SocketStream::sendToSocket_NoLog(unsigned char const*, long, CFStreamError*)
PUBLIC 3e6aa 0 SocketStream::_SecurityReadFunc_NoLock(void*, void*, unsigned long*)
PUBLIC 3e6ee 0 SocketStream::readFunc_NoLock(void*, unsigned long*)
PUBLIC 3e946 0 CFBuffer::CFBuffer(__CFAllocator const*, long, unsigned char*)
PUBLIC 3e96a 0 SocketStream::recvBytes(unsigned char*, long, CFStreamError*)
PUBLIC 3e9de 0 SocketStream::socketRead(unsigned char*, long, CFStreamError*)
PUBLIC 3ea5a 0 SocketStream::socketRead_NoLog(unsigned char*, long, CFStreamError*)
PUBLIC 3eaba 0 SocketStream::socketCallbackReadLocked(SocketStreamSignalHolder*)
PUBLIC 3eb65 0 ___ZN27URLConnectionLoader_Classic41protocolDidReceiveAuthenticationChallengeEP19_CFURLAuthChallenge_block_invoke
PUBLIC 3eba2 0 URLConnectionLoader::protocolDidReceiveAuthenticationChallenge(_CFURLAuthChallenge*)
PUBLIC 3edeb 0 ___ZN19URLConnectionLoader41protocolDidReceiveAuthenticationChallengeEP19_CFURLAuthChallenge_block_invoke
PUBLIC 3ee60 0 non-virtual thunk to SessionConnectionLoadable::_loaderClientEvent_DidReceiveChallenge(_CFURLAuthChallenge*)
PUBLIC 3ee6e 0 SessionConnectionLoadable::_loaderClientEvent_DidReceiveChallenge(_CFURLAuthChallenge*)
PUBLIC 3eed4 0 +[NSURLAuthenticationChallenge(NSURLAuthenticationChallengeInternal) _authenticationChallengeForCFAuthChallenge:sender:]
PUBLIC 3ef28 0 -[NSURLAuthenticationChallenge _initWithCFAuthChallenge:sender:]
PUBLIC 3f093 0 CFURLAuthChallengeGetProtectionSpace
PUBLIC 3f0b7 0 -[NSURLProtectionSpace _initWithCFURLProtectionSpace:]
PUBLIC 3f114 0 -[NSURLProtectionSpace _internalInit]
PUBLIC 3f157 0 CFURLAuthChallengeGetProposedCredential
PUBLIC 3f17b 0 CFURLAuthChallengeGetFailureResponse
PUBLIC 3f19f 0 CFURLAuthChallengeGetError
PUBLIC 3f1c3 0 _CFURLAuthChallengeGetListOfProtectionSpaces
PUBLIC 3f1e7 0 CFURLAuthChallengeGetPreviousFailureCount
PUBLIC 3f20b 0 -[NSURLAuthenticationChallenge initWithProtectionSpace:proposedCredential:previousFailureCount:failureResponse:error:sender:]
PUBLIC 3f2b4 0 -[__NSCFURLLocalSessionConnection _didReceiveChallenge:]
PUBLIC 3f5b0 0 -[NSURLAuthenticationChallenge(__NSCFURLSessionConnectionAdditions) _isPasswordBasedChallenge]
PUBLIC 3f5eb 0 -[NSURLAuthenticationChallenge protectionSpace]
PUBLIC 3f62d 0 -[NSURLProtectionSpace _CFURLProtectionSpace]
PUBLIC 3f63f 0 CFURLProtectionSpaceGetAuthenticationScheme
PUBLIC 3f664 0 -[__NSCFLocalSessionTask connection:challenged:authCallback:]
PUBLIC 3f71b 0 -[__NSCFLocalSessionTask _onqueue_didReceiveChallenge:request:withCompletion:]
PUBLIC 3f89c 0 isSessionChallenge(NSURLAuthenticationChallenge*)
PUBLIC 3f938 0 -[NSURLProtectionSpace authenticationMethod]
PUBLIC 3f9e5 0 -[NSURLSession can_delegate_didReceiveChallenge]
PUBLIC 3fa17 0 -[NSURLSession can_delegate_task_didReceiveChallenge]
PUBLIC 3fa49 0 -[NSURLAuthenticationChallenge previousFailureCount]
PUBLIC 3fa68 0 __56-[__NSCFURLLocalSessionConnection _didReceiveChallenge:]_block_invoke_3
PUBLIC 3fade 0 __56-[__NSCFURLLocalSessionConnection _didReceiveChallenge:]_block_invoke_4
PUBLIC 3fbb0 0 -[NSURLAuthenticationChallenge(NSURLAuthenticationChallengeInternal) _createCFAuthChallenge]
PUBLIC 3fcbc 0 -[NSURLProtectionSpace _cfurlprtotectionspace]
PUBLIC 3fccd 0 _CFURLAuthChallengeSetListOfProtectionSpaces
PUBLIC 3fd02 0 non-virtual thunk to URLConnectionLoader::_loaderInterface_performDefaultHandlingForChallenge(_CFURLAuthChallenge*)
PUBLIC 3fd10 0 URLConnectionLoader::_loaderInterface_performDefaultHandlingForChallenge(_CFURLAuthChallenge*)
PUBLIC 3fd9c 0 URLConnectionLoader::_loaderInterface_useCredential(_CFURLCredential const*, _CFURLAuthChallenge*)
PUBLIC 3ffc8 0 -[NSURLAuthenticationChallenge dealloc]
PUBLIC 40011 0 -[NSURLAuthenticationChallengeInternal dealloc]
PUBLIC 400bf 0 -[NSURLProtectionSpace dealloc]
PUBLIC 40105 0 -[NSMutableURLRequest setNetworkServiceType:]
PUBLIC 40128 0 CFURLRequestSetNetworkServiceType
PUBLIC 40153 0 ___ZN12SocketStream32_PerformSecurityHandshake_NoLockEv_block_invoke_2
PUBLIC 4019a 0 SocketStream::securityAcceptPeerTrust_NoLock(SSLPeerTrustAcceptancePolicy)
PUBLIC 40394 0 SocketStream::doSettingsOverrideTrustEvaluation()
PUBLIC 4060c 0 CFNetworkTrust::CFNetworkTrust(__SecTrust*)
PUBLIC 4064e 0 CFNetworkTrust::evaluate()
PUBLIC 406ba 0 CFNetworkTrust::setupTrustForEvaluation()
PUBLIC 40738 0 _CFHostIsDomainTopLevel
PUBLIC 40754 0 -[CONNECTION_SessionTask _proxySettings]
PUBLIC 40794 0 non-virtual thunk to URLRequest::proxyDict() const
PUBLIC 4079e 0 -[CONNECTION_SessionTask _currentCFURLRequest]
PUBLIC 407af 0 -[CONNECTION_SessionTask shouldHandleCookiesAndSchemeIsAppropriate]
PUBLIC 407ed 0 -[CONNECTION_SessionTask _createXCookieStorage]
PUBLIC 408d6 0 non-virtual thunk to URLRequest::copyExplicitCookieStorageFromRequest() const
PUBLIC 40909 0 -[CONNECTION_SessionTask currentRequest_URL]
PUBLIC 4091e 0 -[CONNECTION_SessionTask currentRequest_mainDocumentURL]
PUBLIC 40933 0 -[CONNECTION_SessionTask _requestPriority]
PUBLIC 40970 0 -[CONNECTION_SessionTask priority]
PUBLIC 4097e 0 -[CONNECTION_SessionTask _allowedProtocolTypes]
PUBLIC 409be 0 non-virtual thunk to URLRequest::allowedProtocolTypes() const
PUBLIC 409c9 0 -[CONNECTION_SessionTask _shouldUsePipelineHeuristics]
PUBLIC 40a08 0 non-virtual thunk to URLRequest::shouldUsePipeliningHeuristics() const
PUBLIC 40a28 0 -[CONNECTION_SessionTask _shouldSkipPipelineProbe]
PUBLIC 40a66 0 non-virtual thunk to URLRequest::shouldSkipPipelineProbe() const
PUBLIC 40a86 0 -[CONNECTION_SessionTask _shouldPipelineHTTP]
PUBLIC 40ac2 0 STube::getKey()
PUBLIC 40ace 0 HTTPConnectionCacheKey::equals(CFAllocatedReferenceCountedObject const*) const
PUBLIC 40b3a 0 -[CONNECTION_SessionTask _sslSettings]
PUBLIC 40b7a 0 non-virtual thunk to URLRequest::sslProperties() const
PUBLIC 40b84 0 -[CONNECTION_SessionTask _shouldSkipPreferredClientCertificateLookup]
PUBLIC 40b95 0 __CFNGetSecuritySocketLevelTLSv1SSLv3
PUBLIC 40ba8 0 stringToServiceType(__CFString const*)
PUBLIC 40c70 0 ___ZN5STube31ssConnectionWaitingNotificationE40tcp_connection_unmet_conditions_reason_t_block_invoke
PUBLIC 40cc2 0 HTTPProtocol::handleConnectionWaitingNotification(tcp_connection_unmet_conditions_reason_t)
PUBLIC 40d32 0 SocketStream::_beginConnection_streamEvent(__CFWriteStream*, unsigned long, void*)
PUBLIC 40d5c 0 SocketStream::beginConnectionCompletion()
PUBLIC 40e12 0 WriteStreamCallbacks::_unschedule(__CFWriteStream*, __CFRunLoop*, __CFString const*, void*)
PUBLIC 40e3e 0 virtual thunk to SocketStream::unschedule(void const*, __CFRunLoop*, __CFString const*)
PUBLIC 40e96 0 SocketStream::unschedule_NoLock(void const*, __CFRunLoop*, __CFString const*)
PUBLIC 40f44 0 _SchedulesRemoveRunLoopAndMode
PUBLIC 40fd8 0 Schedulables::unschedule(__CFRunLoop*, __CFString const*)
PUBLIC 4100a 0 Schedulables::_SchedulablesUnscheduleApplierFunction(void const*, void*)
PUBLIC 4101e 0 _CFTypeUnscheduleFromRunLoop
PUBLIC 411e4 0 CFObject::_cfobj_instance_release(void*)
PUBLIC 411f2 0 non-virtual thunk to STube::ssPostHandshakesStreamsAvailable(__CFReadStream*, __CFWriteStream*)
PUBLIC 41200 0 STube::ssPostHandshakesStreamsAvailable(__CFReadStream*, __CFWriteStream*)
PUBLIC 4128c 0 ___ZN27URLConnectionLoader_Classic23protocolDidSendBodyDataElll_block_invoke
PUBLIC 412aa 0 URLConnectionLoader::protocolDidSendBodyData(long, long, long)
PUBLIC 414d9 0 ___ZN19URLConnectionLoader23protocolDidSendBodyDataElll_block_invoke
PUBLIC 4154c 0 non-virtual thunk to SessionConnectionLoadable::_loaderClientEvent_DidSendBodyData(UploadProgressInfo)
PUBLIC 41588 0 SessionConnectionLoadable::_loaderClientEvent_DidSendBodyData(UploadProgressInfo)
PUBLIC 415c3 0 -[__NSCFURLLocalSessionConnection _didSendBodyData:]
PUBLIC 4162c 0 __52-[__NSCFURLLocalSessionConnection _didSendBodyData:]_block_invoke
PUBLIC 4172a 0 -[__NSCFLocalSessionTask connection:sentBodyBytes:totalBytes:expectedBytes:]
PUBLIC 417ec 0 -[__NSCFLocalSessionTask _onqueue_didSendBodyBytes:totalBytesSent:totalBytesExpectedToSend:]
PUBLIC 41898 0 -[__NSCFURLSessionTask setCountOfBytesSent:]
PUBLIC 418aa 0 -[__NSCFURLSessionTask setCountOfBytesExpectedToSend:]
PUBLIC 418bc 0 -[NSURLSession can_delegate_task_didSendBodyData]
PUBLIC 418f0 0 non-virtual thunk to SessionConnectionLoadable::_loaderClientEvent_DidReceiveResponse(_CFURLResponse*)
PUBLIC 418fe 0 copyMIMETypeFromContentTypeComponent(__CFString const*)
PUBLIC 41ac2 0 non-virtual thunk to SessionConnectionLoadable::_loaderClientEvent_DidReceiveData(__CFArray const*)
PUBLIC 41ad0 0 Throttler::checkOutstandingBytesLimitations(long long)
PUBLIC 41b3a 0 Throttler::checkBytesPerSecondLimitations(long long)
PUBLIC 41c78 0 non-virtual thunk to SessionConnectionLoadable::_loaderClientEvent_DidFinishLoading()
PUBLIC 41c90 0 -[NSURLSession invalidateAndCancel]
PUBLIC 41d14 0 ___ZN12SocketStream5closeEPKv_block_invoke
PUBLIC 41de0 0 Schedulables::_SchedulablesInvalidateApplierFunction(void const*, void*)
PUBLIC 41e2e 0 _CFTypeInvalidate
PUBLIC 41fa2 0 SocketStream::~SocketStream()
PUBLIC 41fcc 0 SocketStream::~SocketStream()
PUBLIC 42494 0 Schedulables::~Schedulables()
PUBLIC 424cc 0 CFBufferConstantSize<32768l>::~CFBufferConstantSize()
PUBLIC 424e8 0 CFBuffer::~CFBuffer()
PUBLIC 424f4 0 void CFTypeRefRelease<__CFSet const*>(__CFSet const*)
PUBLIC 42506 0 StreamCallbacks::~StreamCallbacks()
PUBLIC 4250c 0 CoreReadStream::~CoreReadStream()
PUBLIC 42558 0 SUnauthConnectionArray::~SUnauthConnectionArray()
PUBLIC 4259e 0 SAuthConnectionArray::~SAuthConnectionArray()
PUBLIC 425e4 0 SHTTPConnectionCacheEntry::~SHTTPConnectionCacheEntry()
PUBLIC 42600 0 SHTTPConnectionCacheEntry::~SHTTPConnectionCacheEntry()
PUBLIC 42748 0 HTTPConnectionCacheKey::~HTTPConnectionCacheKey()
PUBLIC 42766 0 HTTPConnectionCacheKey::~HTTPConnectionCacheKey()
PUBLIC 427ce 0 SHTTPConnectionCache::disableTimer()
PUBLIC 427fe 0 GlueTubeManager::~GlueTubeManager()
PUBLIC 4281a 0 GlueTubeManager::~GlueTubeManager()
PUBLIC 428a5 0 ___ZN20SHTTPConnectionCache11enableTimerEv_block_invoke_3
PUBLIC 428fa 0 SocketStream::_SecurityALPNFunc(SSLContext*, void*, void const*, unsigned long)
PUBLIC 429af 0 ___ZN27URLConnectionLoader_Classic28protocolCacheResponseIsValidEPK20_CFCachedURLResponse_block_invoke
PUBLIC 429dc 0 URLConnectionLoader::protocolCacheResponseIsValid(_CFCachedURLResponse const*)
PUBLIC 42a7b 0 ___ZN19URLConnectionLoader28protocolCacheResponseIsValidEPK20_CFCachedURLResponse_block_invoke
PUBLIC 42abb 0 ___ZN12__CFURLCache24DelayWriteOperationQueueEv_block_invoke
PUBLIC 42b72 0 URLResponse::copyPropertyList(__CFAllocator const*)
PUBLIC 42d1c 0 URLResponse::createArchiveList(__CFAllocator const*, long*, void const***, long*)
PUBLIC 42f88 0 dep_CFPropertyListWriteToStream
PUBLIC 42fdb 0 _CFURLRequestCopyPropertyList(__CFAllocator const*, _CFURLRequest const*, __CFDictionary const**)
PUBLIC 43014 0 URLRequest::copyPropertyList(__CFAllocator const*, __CFDictionary const**) const
PUBLIC 431fe 0 -[NSURLStorage_CacheClient addCachedResponseWithDictionary:key:]
PUBLIC 43331 0 -[NSURLStorage_CacheClient notifyCachedURLResponseBecameFileBacked:filePath:forUUID:]
PUBLIC 43502 0 __CFURLCache::ReplaceDataInMemoryCacheResponseWithMMappedData(_CFCachedURLResponse const*, CFURLCacheFS*, __CFString const*)
PUBLIC 4374e 0 CFURLCacheFS::~CFURLCacheFS()
PUBLIC 43758 0 +[NSHost currentHost]
PUBLIC 43795 0 -[NSHost initToResolve:as:]
PUBLIC 43883 0 -[__NSHostExtraIvars init]
PUBLIC 43906 0 -[NSHost setReserved:]
PUBLIC 43917 0 -[NSHost reserved]
PUBLIC 43928 0 -[__NSHostExtraIvars setThingToResolve:]
PUBLIC 43939 0 -[__NSHostExtraIvars setResolveType:]
PUBLIC 43949 0 -[NSHost localizedName]
PUBLIC 43a43 0 -[__NSHostExtraIvars resolveType]
PUBLIC 43a53 0 -[NSHost dealloc]
PUBLIC 43acd 0 -[__NSHostExtraIvars dealloc]
PUBLIC 43b2b 0 -[__NSHostExtraIvars cleanup]
PUBLIC 43b6a 0 connectionHTTP_KeychainCallback(SecKeychainEvent, SecKeychainCallbackInfo*, void*)
PUBLIC 43b7b 0 ___ZN20SHTTPConnectionCache11enableTimerEv_block_invoke_2
PUBLIC 43b8a 0 SHTTPConnectionCache::timeoutIdleConnections()
PUBLIC 43bc2 0 SHTTPConnectionCache::purgeExcessiveConnections()
PUBLIC 43d44 0 SHTTPConnectionCache::performIdleSweep()
PUBLIC 43f22 0 SHTTPConnectionCacheDictionary::newKeyAndObjectEnumerator()
PUBLIC 43f82 0 SHTTPConnectionCacheEntry::purgeIdleConnections(double, double)
PUBLIC 4414a 0 SHTTPConnectionCacheEntry::checkForPurgability(double, double, HTTPNetConnection*, RetainableTypedArray<HTTPNetConnection*>*)
PUBLIC 44268 0 NetConnection::getLastAccessTime()
PUBLIC 442bc 0 RetainableTypedArray<HTTPNetConnection*>::_invoke(void const*, void*)
PUBLIC 442d1 0 ___ZN25SHTTPConnectionCacheEntry20purgeIdleConnectionsEdd_block_invoke
PUBLIC 442e0 0 SHTTPConnectionCacheEntry::removeUnauthConnection(HTTPNetConnection*)
PUBLIC 44472 0 SHTTPConnectionCacheEntry::connectionWasLost(HTTPNetConnection*)
PUBLIC 446ac 0 _CFURLRequestCreateFromArchiveList
PUBLIC 44779 0 +[_NSURLDataProtocol _cf_internalImpl]
PUBLIC 44786 0 DataProtocol::_canHandleRequest(_CFURLRequest const*, void const*)
PUBLIC 447ee 0 +[_NSURLFTPProtocol _cf_internalImpl]
PUBLIC 447fc 0 FTPProtocol::_canHandleRequest(_CFURLRequest const*, void const*)
PUBLIC 44853 0 +[_NSURLFileProtocol _cf_internalImpl]
PUBLIC 44860 0 FileURLProtocol::_canHandleRequest(_CFURLRequest const*, void const*)
PUBLIC 448c6 0 +[NSAboutURLProtocol canInitWithRequest:]
PUBLIC 44902 0 -[NSURLRequest _URLHasScheme:]
PUBLIC 44975 0 +[NSURLCache setSharedURLCache:]
PUBLIC 44a43 0 +[NSURLRequest requestWithURL:cachePolicy:timeoutInterval:]
PUBLIC 44a9a 0 -[NSURLCache cachedResponseForRequest:]
PUBLIC 44ba8 0 CFURLCacheCopyResponseForRequest
PUBLIC 44bb6 0 __CFURLCacheCopyResponseForRequestInternalWithSession(_CFURLCache const*, _CFURLRequest const*, unsigned char, NSURLSession const*)
PUBLIC 44cf7 0 __CFURLCacheCopyResponseForRequest
PUBLIC 44de8 0 _nsurlstoraged_main
PUBLIC 45083 0 _CFURLCacheCreateFS2
PUBLIC 450da 0 CFURLCacheFS::CFURLCacheFS(__CFString const*, bool)
PUBLIC 450e8 0 CFURLCacheFS::CFURLCacheFS(__CFString const*, bool)
PUBLIC 451b9 0 _CFURLCacheFSGetFileSystemUsage
PUBLIC 451cc 0 CFURLCacheFS::getFileSystemUsage() const
PUBLIC 45252 0 directorySize(char const*, long long*)
PUBLIC 4539f 0 ____CFURLCacheCopyResponseForRequest_block_invoke
PUBLIC 453d5 0 CFNetworkCopySystemProxySettings
PUBLIC 453df 0 _CFNetworkCopySystemProxySettings
PUBLIC 454b4 0 _CFNetworkDoesNeedProxy
PUBLIC 45e76 0 -[__NSCFURLSessionTask set_ledBellyFallbackURL:]
PUBLIC 45e88 0 XURLCache::createEmptyXURLCache()
PUBLIC 45ee2 0 +[__NSCFMemoryURLCache initialize]
PUBLIC 45f3f 0 __34+[__NSCFMemoryURLCache initialize]_block_invoke
PUBLIC 45f92 0 -[__NSCFMemoryURLCache initEmptyCache]
PUBLIC 45fab 0 -[__NSCFMemoryURLCache initWithMemoryCapacity:diskCapacity:diskPath:]
PUBLIC 46062 0 -[__NSCFMemoryURLCache initByCallingSuperSuperInit]
PUBLIC 460b6 0 NSXURLCache::NSXURLCache(__CFAllocator const*, NSURLCache*)
PUBLIC 46100 0 NSXURLCache::getMaxCacheableEntrySize() const
PUBLIC 46126 0 NSXURLCache::delayWriteOperationQueue() const
PUBLIC 46182 0 NSXURLCache::getResponseForTask(NSURLSessionTask const*, unsigned char, void (_CFCachedURLResponse const*) block_pointer) const
PUBLIC 4624e 0 -[NSURLCache(NSURLSessionTaskAdditions) getCachedResponseForDataTask:completionHandler:]
PUBLIC 46298 0 -[__NSCFMemoryURLCache cachedResponseForRequest:]
PUBLIC 46357 0 ___ZNK11NSXURLCache18getResponseForTaskEPK16NSURLSessionTaskhU13block_pointerFvPK20_CFCachedURLResponseE_block_invoke
PUBLIC 463e0 0 ___ZNK11NSXURLCache18getResponseForTaskEPK16NSURLSessionTaskhU13block_pointerFvPK20_CFCachedURLResponseE_block_invoke_2
PUBLIC 46412 0 XCookieStorage::createEmptyXCookieStorage(XCookieStorage const*)
PUBLIC 46446 0 EmptyXCookieStorage::EmptyXCookieStorage(XCookieStorage const*)
PUBLIC 46496 0 EmptyXCookieStorage::getCookiesForTask(NSURLSessionTask const*, unsigned char, void (__CFArray const*) block_pointer) const
PUBLIC 464a6 0 GlueTubeManager::_findOrCreateTManager()
PUBLIC 46514 0 TubeManager::TubeManager(__CFAllocator const*, CoreSchedulingSet const*, HTTPConnectionCacheLimits)
PUBLIC 4651e 0 TubeManager::TubeManager(__CFAllocator const*, CoreSchedulingSet const*, HTTPConnectionCacheLimits)
PUBLIC 46654 0 TubeManager::enqueueRequestForProtocol(MetaConnectionCacheClient*, HTTPRequestMessage const*, MetaConnectionOptions)
PUBLIC 46685 0 resolveTubeTypeForKey(HTTPConnectionCacheKey*, CoreLoggable*, TubeType*, __CFArray const**)
PUBLIC 466f1 0 resolveTubeType(unsigned long, bool, __CFDictionary const*, CoreLoggable*, TubeType*, __CFArray const**)
PUBLIC 46ad4 0 TubeManager::_onqueue_haveValidPendingTubeForKey(HTTPConnectionCacheKey const*)
PUBLIC 46b6a 0 TubeManager::_onqueue_createNewTube(HTTPConnectionCacheKey*)
PUBLIC 46c9a 0 Tube::Tube(__CFAllocator const*, char const*, HTTPConnectionCacheKey*, void (Tube*, CFStreamError) block_pointer)
PUBLIC 46f24 0 std::__1::shared_ptr<TCPIOConnection> std::__1::shared_ptr<TCPIOConnection>::make_shared<dispatch_queue_s*&>(dispatch_queue_s*&&&)
PUBLIC 46fba 0 TCPIOConnection::TCPIOConnection(dispatch_queue_s*)
PUBLIC 46fc4 0 TCPIOConnection::TCPIOConnection(dispatch_queue_s*)
PUBLIC 474a0 0 AwaitingTube::AwaitingTube(__CFAllocator const*, char const*, MetaConnectionCacheClient*, HTTPRequestMessage const*, MetaConnectionOptions)
PUBLIC 474ce 0 AwaitingTube::AwaitingTube(__CFAllocator const*, char const*, MetaConnectionCacheClient*, HTTPRequestMessage const*, MetaConnectionOptions)
PUBLIC 475cc 0 AwaitingTube::linkWithTube(Tube*)
PUBLIC 4761c 0 Tube::initialize(BaseAwaitingTube*)
PUBLIC 47734 0 BaseAwaitingTube::hasBeenClaimed()
PUBLIC 4773e 0 BaseAwaitingTube::markAsClaimed()
PUBLIC 4776c 0 ___ZN4Tube10initializeEP16BaseAwaitingTube_block_invoke
PUBLIC 477a2 0 Tube::_onqueue_connect()
PUBLIC 479a4 0 Tube::_onqueue_initConnection()
PUBLIC 479ec 0 Tube::copyKey()
PUBLIC 47a46 0 TCPIOConnection::initialize(__CFString const*, int)
PUBLIC 47b3e 0 Tube::_onqueue_prepAllowedProtocols()
PUBLIC 47e5e 0 TCPIOConnection::setProperty(__CFString const*, void const*)
PUBLIC 488dc 0 Tube::_onqueue_prepConnection(void () block_pointer, void (int) block_pointer)
PUBLIC 48b34 0 ___ZN4Tube23_onqueue_prepConnectionEU13block_pointerFvvEU13block_pointerFviE_block_invoke
PUBLIC 48b4a 0 AwaitingTube::getClient()
PUBLIC 48b56 0 Tube::canAcceptWaiters()
PUBLIC 48ba0 0 TubeManager::getCurrentSSLMethodForKey(HTTPConnectionCacheKey const*)
PUBLIC 48bbd 0 ___ZN4Tube23_onqueue_prepConnectionEU13block_pointerFvvEU13block_pointerFviE_block_invoke_2
PUBLIC 48d4c 0 TCPIOConnection::setProperties(__CFDictionary const*)
PUBLIC 48d9b 0 ___ZN15TCPIOConnection13setPropertiesEPK14__CFDictionary_block_invoke
PUBLIC 48daa 0 TCPIOConnection::_applyPropertyToConnection(__CFString const*, void const*)
PUBLIC 4974c 0 ___ZN4Tube16_onqueue_connectEv_block_invoke
PUBLIC 49802 0 TCPIOConnection::open()
PUBLIC 498e0 0 TCPIOConnection::_startConnection()
PUBLIC 49b9c 0 TCPIOConnection::_createConnection()
PUBLIC 4a162 0 TCPIOConnection::_applyPropertiesToConnection()
PUBLIC 4a56c 0 TCPIOConnection::_applyPropertiesForP2PAWDL()
PUBLIC 4a614 0 TCPIOConnection::_applyPropertiesForExcessiveKeepalives()
PUBLIC 4a70a 0 TCPIOConnection::_applyPropertiesForAdaptiveTimeouts()
PUBLIC 4a944 0 TCPIOConnection::_startTLS()
PUBLIC 4aa2c 0 TCPIOConnection::_tlsConfigure()
PUBLIC 4aae6 0 std::__1::weak_ptr<TCPIOConnection>::lock() const
PUBLIC 4ab2c 0 AwaitingTube::getRequest()
PUBLIC 4ab38 0 TCPIOConnection::_startConnection_Completion()
PUBLIC 4b2c4 0 ___ZN15TCPIOConnection13_tlsConfigureEv_block_invoke
PUBLIC 4b353 0 ___ZN15TCPIOConnection16_startConnectionEv_block_invoke
PUBLIC 4b3e0 0 TCPIOConnection::_handleConnectionEvent(unsigned int, void const*)
PUBLIC 4b72a 0 TCPIOConnection::_connectionKickTimerCancel()
PUBLIC 4b764 0 TCPIOConnection::copyProperty(__CFString const*)
PUBLIC 4c000 0 TCPIOConnection::_endpointNegotiate()
PUBLIC 4c030 0 TCPIOConnection::_tlsTriggerPendingEvent()
PUBLIC 4c0b6 0 ___ZN15TCPIOConnection9_startTLSEv_block_invoke
PUBLIC 4c0c8 0 non-virtual thunk to Tube::needServerTrust(__SecTrust*, void (SSLPeerTrustAcceptancePolicy, bool) block_pointer)
PUBLIC 4c0d8 0 Tube::needServerTrust(__SecTrust*, void (SSLPeerTrustAcceptancePolicy, bool) block_pointer)
PUBLIC 4c13e 0 Tube::_onqueue_needServerTrust()
PUBLIC 4c2c0 0 ___ZN4Tube24_onqueue_needServerTrustEv_block_invoke_2
PUBLIC 4c328 0 non-virtual thunk to HTTPProtocol::needServerTrust(__SecTrust*, void (SSLPeerTrustAcceptancePolicy, bool) block_pointer)
PUBLIC 4c338 0 Deleter_CustomBlock::operator()(void const*)
PUBLIC 4c376 0 ___ZN4Tube24_onqueue_needServerTrustEv_block_invoke
PUBLIC 4c38b 0 ___ZN4Tube24_onqueue_needServerTrustEv_block_invoke_3
PUBLIC 4c409 0 ___ZN4Tube25_complete_needServerTrustE28SSLPeerTrustAcceptancePolicyb_block_invoke
PUBLIC 4c434 0 Tube::_onqueue_complete_needServerTrust(SSLPeerTrustAcceptancePolicy, bool)
PUBLIC 4c4a4 0 TCPIOConnection::_handleEvent_TLSHandshakeComplete()
PUBLIC 4c57a 0 TCPIOConnection::_signalConnectionEstablished()
PUBLIC 4c62e 0 non-virtual thunk to Tube::connectionEstablished(CFStreamError)
PUBLIC 4c63c 0 Tube::connectionEstablished(CFStreamError)
PUBLIC 4c7fa 0 Tube::_onqueue_parseNPN()
PUBLIC 4c9f8 0 Tube::_onqueue_invokeCB(CFStreamError)
PUBLIC 4cab8 0 TCPIOConnection::rstConnectionEstablishmentDelegate()
PUBLIC 4cae0 0 Tube::_notifyOfTubeType(__CFError*)
PUBLIC 4cc95 0 ___ZN11TubeManager22_onqueue_createNewTubeEP22HTTPConnectionCacheKey_block_invoke
PUBLIC 4ccbc 0 TubeManager::newTubeReady(Tube*, CFStreamError)
PUBLIC 4cd46 0 TubeManager::_onqueue_newTubeReady(Tube*, CFStreamError)
PUBLIC 4d3e2 0 Tube::copyWaiter()
PUBLIC 4d43c 0 Tube::isCanceled()
PUBLIC 4d486 0 Tube::getType()
PUBLIC 4d492 0 TubeManager::_onqueue_pairKeyWithConnectionCache(HTTPConnectionCacheKey const*, MetaConnectionCacheType)
PUBLIC 4d4d8 0 TubeManager::_onqueue_createConnectionCache(MetaConnectionCacheType)
PUBLIC 4d5a6 0 HTTPConnectionCache::HTTPConnectionCache(__CFAllocator const*, HTTPConnectionCacheLimits const&)
PUBLIC 4d5b0 0 HTTPConnectionCache::HTTPConnectionCache(__CFAllocator const*, HTTPConnectionCacheLimits const&)
PUBLIC 4d60c 0 HTTPConnectionCache::initWithSchedulingSet(CoreSchedulingSet const*, TubeManager*)
PUBLIC 4d662 0 HTTPConnectionCache::enableTimer()
PUBLIC 4d778 0 HTTPConnectionCache::ingestTube(Tube*, bool)
PUBLIC 4d786 0 HTTPConnectionCache::_onqueue_ingestTube(Tube*, bool)
PUBLIC 4d86e 0 HTTPConnectionCache::ensureEntries()
PUBLIC 4d8f6 0 HTTPConnectionCache::createEmptyCacheEntry(HTTPConnectionCacheKey const*)
PUBLIC 4d9aa 0 HTTPConnectionCacheEntryWrapper::HTTPConnectionCacheEntryWrapper(__CFAllocator const*, HTTPConnectionCacheLimits const&, CoreSchedulingSet const*, unsigned char, TubeManager*)
PUBLIC 4da44 0 HTTPConnectionCacheEntry::initialize()
PUBLIC 4db04 0 HTTPConnectionCacheEntry::ingestTube(Tube*, bool)
PUBLIC 4dec4 0 std::__1::shared_ptr<HTTPConnection> std::__1::shared_ptr<HTTPConnection>::make_shared<>()
PUBLIC 4df54 0 HTTPConnection::HTTPConnection()
PUBLIC 4df5e 0 HTTPConnection::HTTPConnection()
PUBLIC 4e08e 0 std::__1::__vector_base<std::__1::shared_ptr<HTTPTransaction>, std::__1::allocator<std::__1::shared_ptr<HTTPTransaction> > >::~__vector_base()
PUBLIC 4e0e0 0 HTTPConnection::initialize(HTTPConnectionCacheKey*, Tube*, std::__1::weak_ptr<HTTPConnection::HTTPActivityDelegate>)
PUBLIC 4e49e 0 Tube::copyDispatchQueue()
PUBLIC 4e4c1 0 ___ZN14HTTPConnection10initializeEP22HTTPConnectionCacheKeyP4TubeNSt3__18weak_ptrINS_20HTTPActivityDelegateEEE_block_invoke
PUBLIC 4e55a 0 Tube::captureConnection()
PUBLIC 4e592 0 std::__1::shared_ptr<HTTPEngine> std::__1::shared_ptr<HTTPEngine>::make_shared<std::__1::shared_ptr<TCPIOConnection>&, std::__1::weak_ptr<HTTPConnection>&>(std::__1::shared_ptr<TCPIOConnection>&&&, std::__1::weak_ptr<HTTPConnection>&&&)
PUBLIC 4e68c 0 TCPIOConnection::copyDispatchQueue()
PUBLIC 4e6b0 0 HTTPConnection::setConnectionNumber(long)
PUBLIC 4e6be 0 void std::__1::vector<std::__1::shared_ptr<HTTPConnection>, std::__1::allocator<std::__1::shared_ptr<HTTPConnection> > >::__push_back_slow_path<std::__1::shared_ptr<HTTPConnection> const&>(std::__1::shared_ptr<HTTPConnection> const&&&)
PUBLIC 4e78e 0 std::__1::__split_buffer<std::__1::shared_ptr<HTTPConnection>, std::__1::allocator<std::__1::shared_ptr<HTTPConnection> >&>::~__split_buffer()
PUBLIC 4e7de 0 AwaitingTube::getRequestToEnqueue(MetaConnectionCacheClient**, HTTPRequestMessage const**, MetaConnectionOptions const*)
PUBLIC 4e81e 0 HTTPEngine::setProperty(__CFString const*, void const*)
PUBLIC 4eb22 0 HTTPConnection::setShouldSkipPipelineProbe(bool)
PUBLIC 4ebde 0 ___ZN14HTTPConnection26setShouldSkipPipelineProbeEb_block_invoke
PUBLIC 4ec14 0 HTTPConnection::setShouldPipeline(bool)
PUBLIC 4ecd0 0 ___ZN14HTTPConnection17setShouldPipelineEb_block_invoke
PUBLIC 4ece6 0 HTTPConnection::_onqueue_setShouldPipeline(bool)
PUBLIC 4ed76 0 HTTPTransaction::HTTPTransaction(HTTPRequestMessage*, MetaConnectionCacheClient*, MetaConnectionOptions)
PUBLIC 4eda4 0 HTTPTransaction::HTTPTransaction(HTTPRequestMessage*, MetaConnectionCacheClient*, MetaConnectionOptions)
PUBLIC 4efda 0 HTTPTransaction::initialize(std::__1::shared_ptr<HTTPConnection>)
PUBLIC 4f11a 0 HTTPConnection::copyDispatchQueue()
PUBLIC 4f13c 0 non-virtual thunk to HTTPTransactionWrapper::_meta_retain()
PUBLIC 4f14e 0 non-virtual thunk to HTTPTransactionWrapper::setBodyStreamBeforeOpening(__CFReadStream*)
PUBLIC 4f160 0 HTTPTransaction::setBodyStreamBeforeOpening(__CFReadStream*)
PUBLIC 4f280 0 non-virtual thunk to HTTPTransactionWrapper::copyProperty(MetaNetStreamInfo::ApplicableProperties)
PUBLIC 4f293 0 ___ZN15HTTPTransaction26setBodyStreamBeforeOpeningEP14__CFReadStream_block_invoke
PUBLIC 4f3c0 0 HTTPTransaction::copyProperty(MetaNetStreamInfo::ApplicableProperties)
PUBLIC 4f430 0 HTTPTransaction::_onqueue_copyProperty(__CFString const*)
PUBLIC 4f6d4 0 HTTPConnection::copyProperty(__CFString const*)
PUBLIC 4f738 0 HTTPEngine::copyProperty(__CFString const*)
PUBLIC 4f7dc 0 TCPIOConnection::RefCountedWrapper::RefCountedWrapper(std::__1::shared_ptr<TCPIOConnection>)
PUBLIC 4f84e 0 TCPIOConnection::RefCountedWrapper::connection()
PUBLIC 4f87a 0 TCPIOConnection::RefCountedWrapper::~RefCountedWrapper()
PUBLIC 4f886 0 TCPIOConnection::RefCountedWrapper::~RefCountedWrapper()
PUBLIC 4f8b6 0 non-virtual thunk to HTTPTransactionWrapper::setProperty(MetaNetStreamInfo::ApplicableProperties, void const*)
PUBLIC 4f8c8 0 HTTPTransaction::setProperty(MetaNetStreamInfo::ApplicableProperties, void const*)
PUBLIC 4f94a 0 HTTPTransaction::_onqueue_setProperty(__CFString const*, void const*)
PUBLIC 4fc6c 0 HTTPConnection::setProperty(__CFString const*, void const*)
PUBLIC 4fd40 0 non-virtual thunk to HTTPTransactionWrapper::setPriorityHint(float)
PUBLIC 4fd52 0 HTTPTransaction::setPriorityHint(float)
PUBLIC 4fd58 0 non-virtual thunk to HTTPTransactionWrapper::canScheduleAndOpenWithHandlerAsync()
PUBLIC 4fd68 0 HTTPTransaction::canScheduleAndOpenWithHandlerAsync()
PUBLIC 4fd74 0 HTTPConnection::setConnectionPriority(int)
PUBLIC 4fd80 0 HTTPTransaction::_onqueue_updateScheduling(CoreSchedulingSet const*, bool)
PUBLIC 4ff8a 0 AwaitingTube::getKey()
PUBLIC 4ff94 0 HTTPConnection::enqueue(std::__1::shared_ptr<HTTPTransaction>)
PUBLIC 5023e 0 void std::__1::vector<std::__1::shared_ptr<HTTPTransaction>, std::__1::allocator<std::__1::shared_ptr<HTTPTransaction> > >::__push_back_slow_path<std::__1::shared_ptr<HTTPTransaction> const&>(std::__1::shared_ptr<HTTPTransaction> const&&&)
PUBLIC 5030e 0 AwaitingTube::getTube()
PUBLIC 50318 0 AwaitingTube::isValid()
PUBLIC 50330 0 RetainableTypedArray<BaseAwaitingTube*>::_invoke(void const*, void*)
PUBLIC 50344 0 std::__1::__split_buffer<std::__1::shared_ptr<HTTPTransaction>, std::__1::allocator<std::__1::shared_ptr<HTTPTransaction> >&>::~__split_buffer()
PUBLIC 50395 0 ___ZN11TubeManager21_onqueue_newTubeReadyEP4Tube13CFStreamError_block_invoke_3
PUBLIC 50520 0 HTTPConnectionCache::enqueueRequestForProtocol(MetaConnectionCacheClient*, HTTPRequestMessage const*, MetaConnectionOptions)
PUBLIC 5054e 0 ___ZN14HTTPConnection7enqueueENSt3__110shared_ptrI15HTTPTransactionEE_block_invoke
PUBLIC 5055c 0 HTTPConnection::_onqueue_attemptNextRequest()
PUBLIC 505e0 0 HTTPConnection::_onqueue_requestStart()
PUBLIC 508bc 0 CFAllocatedReferenceCountedObject::_retainable_equal(void const*, void const*)
PUBLIC 508cc 0 HTTPTransaction::requestPermitsConnectionReuse()
PUBLIC 50928 0 HTTPTransaction::hasRequestBody()
PUBLIC 5093a 0 std::__1::__vector_base<std::__1::shared_ptr<HTTPConnection>, std::__1::allocator<std::__1::shared_ptr<HTTPConnection> > >::~__vector_base()
PUBLIC 5098c 0 HTTPConnection::willEnqueueRequests()
PUBLIC 509dc 0 HTTPEngine::_writePrepare(std::__1::shared_ptr<HTTPRequestMessage>&, std::__1::weak_ptr<HTTPEngine::HTTPRequestBodyDelegate>&)
PUBLIC 50aec 0 HTTPEngine::_100ContinueTimerStart()
PUBLIC 50bd0 0 HTTPEngine::_requestHasExpect100Continue()
PUBLIC 50c0e 0 HTTPEngine::_writeHeadersStart()
PUBLIC 51360 0 HTTPEngine::_expectedSizeFromHeaders(HTTPMessage*)
PUBLIC 514e2 0 PerformanceTiming::copyOneTimeValues(PerformanceTiming*, PerformanceTiming*)
PUBLIC 515d8 0 AutoReleaseTypePtr<__CFString const*, CFObject>::put(__CFString const*)
PUBLIC 515e6 0 AutoRetainReleaseTypePtr<__CFString const*, CFObject>::operator<<(__CFString const*)
PUBLIC 5162c 0 PerformanceTiming::nstatCountsCopyAllValues(nstat_counts const*)
PUBLIC 5187c 0 PerformanceTiming::storeTCPConnectionCountsAtStart(PerformanceTiming*, __CFDictionary const*)
PUBLIC 518e2 0 AutoReleaseTypePtr<__CFDictionary const*, CFObject>::put(__CFDictionary const*)
PUBLIC 518f0 0 AutoRetainReleaseTypePtr<__CFDictionary const*, CFObject>::operator<<(__CFDictionary const*)
PUBLIC 51936 0 HTTPConnection::_onqueue_attemptNextResponse()
PUBLIC 51980 0 HTTPConnection::_onqueue_responseStart()
PUBLIC 51b5c 0 HTTPTransaction::requestExpectsResponseBody()
PUBLIC 51bae 0 HTTPEngine::_readPrepare()
PUBLIC 51c8c 0 HTTPEngine::_readHeadersStart()
PUBLIC 51cf4 0 HTTPEngine::_readHeadersDoRead()
PUBLIC 51e02 0 HTTPEngine::_readBlob(unsigned long, void (CFStreamError) block_pointer)
PUBLIC 51fb2 0 HTTPTransaction::isScheduled()
PUBLIC 51fd2 0 HTTPTransaction::_onqueue_invokeHandler()
PUBLIC 5213e 0 HTTPConnection::getQueueDepth()
PUBLIC 5218c 0 ___ZN10HTTPEngine18_writeHeadersStartEv_block_invoke_2
PUBLIC 5220e 0 HTTPEngine::_writeHeadersFinish(CFStreamError)
PUBLIC 522b8 0 HTTPConnection::bytesTransferred(long, long)
PUBLIC 522fe 0 HTTPTransaction::sentBytes(long)
PUBLIC 5230c 0 HTTPEngine::_writeBodyFinish(CFStreamError)
PUBLIC 5235c 0 HTTPEngine::_writeFinish(CFStreamError)
PUBLIC 5241e 0 ___ZN14HTTPConnection21_onqueue_requestStartEv_block_invoke
PUBLIC 52492 0 HTTPConnection::_onqueue_requestFinish(CFStreamError)
PUBLIC 526f6 0 HTTPConnection::getConnectionPriority()
PUBLIC 52703 0 ___ZN10HTTPEngine18_writeHeadersStartEv_block_invoke
PUBLIC 52730 0 TubeManager::requestNewTube(BaseAwaitingTube*, void (Tube*) block_pointer)
PUBLIC 52864 0 Tube::setExplicitlyRequested()
PUBLIC 52874 0 Tube::overrideAllowedProtocols(unsigned long)
PUBLIC 528cb 0 ___ZN4Tube24overrideAllowedProtocolsEm_block_invoke
PUBLIC 528f0 0 HTTPConnectionCache::purgeExcessiveConnections()
PUBLIC 52af8 0 AwaitingTube::~AwaitingTube()
PUBLIC 52b14 0 AwaitingTube::~AwaitingTube()
PUBLIC 52ba0 0 Tube::~Tube()
PUBLIC 52bbc 0 Tube::~Tube()
PUBLIC 52e20 0 ___ZN4TubeD2Ev_block_invoke
PUBLIC 52e54 0 ___ZN12HTTPProtocol26useNetStreamInfoForRequestEP17MetaNetStreamInfoPK18HTTPRequestMessageh_block_invoke_3
PUBLIC 5302b 0 ___ZN11TubeManager14requestNewTubeEP16BaseAwaitingTubeU13block_pointerFvP4TubeE_block_invoke
PUBLIC 53052 0 ___ZN11TubeManager21_onqueue_newTubeReadyEP4Tube13CFStreamError_block_invoke_2
PUBLIC 53068 0 CFAllocatedReferenceCountedObject::equals(CFAllocatedReferenceCountedObject const*) const
PUBLIC 53075 0 ___ZN10HTTPEngine9_readBlobEmU13block_pointerFv13CFStreamErrorE_block_invoke
PUBLIC 530f0 0 HTTPEngine::_readBufferStore(dispatch_data_s*, bool)
PUBLIC 5314d 0 ___ZN10HTTPEngine18_readHeadersDoReadEv_block_invoke
PUBLIC 5315c 0 HTTPEngine::_readHeadersDoParse(CFStreamError)
PUBLIC 537f7 0 ___ZN10HTTPEngine19_readHeadersDoParseE13CFStreamError_block_invoke
PUBLIC 53848 0 HTTPEngine::_readBufferConsume(long)
PUBLIC 538ce 0 HTTPEngine::_readBufferCaptureBody(std::__1::shared_ptr<HTTPResponseMessage>&)
PUBLIC 539c8 0 HTTPEngine::_readHeadersFinish(CFStreamError)
PUBLIC 53a78 0 HTTPTransaction::receivedBytes(long)
PUBLIC 53a86 0 ___ZN14HTTPConnection22_onqueue_responseStartEv_block_invoke
PUBLIC 53b14 0 HTTPConnection::_onqueue_responseHeadersArrived(std::__1::shared_ptr<HTTPResponseMessage>, CFStreamError)
PUBLIC 53cd2 0 HTTPConnectionCacheEntry::connActivityOccurred(std::__1::shared_ptr<HTTPConnection>)
PUBLIC 53dc2 0 HTTPConnectionCacheEntry::connCompletedRequest(std::__1::shared_ptr<HTTPConnection>, void () block_pointer)
PUBLIC 53ec4 0 HTTPTransaction::consumeResponseHeaders(std::__1::shared_ptr<HTTPResponseMessage>)
PUBLIC 540d1 0 ___ZN24HTTPConnectionCacheEntry20connActivityOccurredENSt3__110shared_ptrI14HTTPConnectionEE_block_invoke
PUBLIC 5419e 0 HTTPTransaction::_onqueue_responseShouldStopTransmission()
PUBLIC 54220 0 HTTPConnection::isPipelining()
PUBLIC 54230 0 HTTPTransaction::responsePermitsConnectionReuse()
PUBLIC 54263 0 CFHTTPMessageCopyVersion
PUBLIC 542a7 0 ___ZN24HTTPConnectionCacheEntry20connCompletedRequestENSt3__110shared_ptrI14HTTPConnectionEEU13block_pointerFvvE_block_invoke
PUBLIC 5438a 0 HTTPEngine::_readBodyStart()
PUBLIC 543bc 0 HTTPEngine::_readBodyStartNextRead()
PUBLIC 54420 0 HTTPEngine::_getBodyIntelligently(void (dispatch_data_s*, CFStreamError, bool) block_pointer)
PUBLIC 54a44 0 ___ZN10HTTPEngine14_readBodyPlainEv_block_invoke
PUBLIC 54a56 0 HTTPEngine::_deliverBodyBytes(dispatch_data_s*, CFStreamError, bool)
PUBLIC 54c42 0 HTTPEngine::_readBodyFinish(dispatch_data_s*, CFStreamError, bool)
PUBLIC 54d0e 0 HTTPConnection::_onqueue_responseDataArrived(dispatch_data_s*, CFStreamError, bool)
PUBLIC 54e3e 0 HTTPConnection::_onqueue_responseFinish()
PUBLIC 54f60 0 HTTPConnectionCacheEntry::connCompletedResponse(std::__1::shared_ptr<HTTPConnection>)
PUBLIC 55050 0 HTTPTransaction::consumeData(dispatch_data_s*, bool)
PUBLIC 5524b 0 ___ZN24HTTPConnectionCacheEntry21connCompletedResponseENSt3__110shared_ptrI14HTTPConnectionEE_block_invoke
PUBLIC 552fb 0 ___ZN14HTTPConnection22_onqueue_requestFinishE13CFStreamError_block_invoke_2
PUBLIC 55308 0 ___ZN14HTTPConnection22_onqueue_requestFinishE13CFStreamError_block_invoke
PUBLIC 553b4 0 HTTPConnection::_onqueue_advanceCurrentRequest()
PUBLIC 55444 0 HTTPConnection::_onqueue_getTransactionItr(std::__1::shared_ptr<HTTPTransaction>&)
PUBLIC 5548e 0 HTTPConnection::_onqueue_advanceCurrentResponse()
PUBLIC 5551e 0 HTTPConnection::hasPendingResponses()
PUBLIC 55569 0 ___ZN12HTTPProtocol10openStreamEv_block_invoke_3
PUBLIC 55578 0 DeflateDataDecoder::DeflateDataDecoder()
PUBLIC 555e8 0 DeflateDataDecoderHolder::decoder()
PUBLIC 555f2 0 DeflateDataDecoder::isInitialized()
PUBLIC 555fc 0 DeflateDataDecoder::decodeData(__CFAllocator const*, __CFData const*, unsigned char*)
PUBLIC 557ba 0 ___ZN10HTTPEngine22_readBufferCaptureBodyERNSt3__110shared_ptrI19HTTPResponseMessageEE_block_invoke
PUBLIC 557ed 0 -[__NSCFURLSessionConnection _tossCache]
PUBLIC 55848 0 AutoReleaseTypePtr<__CFData const*, CFObject>::put(__CFData const*)
PUBLIC 55856 0 AutoRetainReleaseTypePtr<__CFData const*, CFObject>::operator<<(__CFData const*)
PUBLIC 5589c 0 PerformanceTiming::storeTCPConnectionCountsAtStop(PerformanceTiming*, __CFDictionary const*)
PUBLIC 5590a 0 TCPIOConnection::rstConnectionEstablishmentDelegate_offqueue()
PUBLIC 55932 0 TCPIOConnection::_setPropertyForNotificationBlock(__CFString const*, void const*)
PUBLIC 559e2 0 non-virtual thunk to HTTPTransactionWrapper::closeAndClearHandler()
PUBLIC 559f2 0 HTTPTransaction::closeAndClearHandler()
PUBLIC 55a04 0 HTTPTransaction::_onqueue_closeAndClearHandler()
PUBLIC 55ace 0 HTTPTransaction::_onqueue_closeAndCleanup()
PUBLIC 55c60 0 HTTPConnection::dequeue(std::__1::shared_ptr<HTTPTransaction>)
PUBLIC 560f8 0 non-virtual thunk to HTTPTransactionWrapper::_meta_release()
PUBLIC 5610a 0 HTTPTransactionWrapper::~HTTPTransactionWrapper()
PUBLIC 56126 0 HTTPTransactionWrapper::~HTTPTransactionWrapper()
PUBLIC 5616c 0 DeflateDataDecoderHolder::~DeflateDataDecoderHolder()
PUBLIC 5618c 0 DeflateDataDecoder::~DeflateDataDecoder()
PUBLIC 561c0 0 std::__1::__shared_ptr_emplace<HTTPTransaction, std::__1::allocator<HTTPTransaction> >::__on_zero_shared()
PUBLIC 561d0 0 HTTPTransaction::~HTTPTransaction()
PUBLIC 561da 0 HTTPTransaction::~HTTPTransaction()
PUBLIC 5637c 0 std::__1::__shared_ptr_pointer<HTTPResponseMessage*, Deleter_release<HTTPResponseMessage>, std::__1::allocator<HTTPResponseMessage> >::__on_zero_shared()
PUBLIC 56398 0 std::__1::__shared_ptr_pointer<HTTPResponseMessage*, Deleter_release<HTTPResponseMessage>, std::__1::allocator<HTTPResponseMessage> >::__on_zero_shared_weak()
PUBLIC 563a2 0 std::__1::__shared_ptr_pointer<HTTPRequestMessage*, Deleter_release<HTTPRequestMessage>, std::__1::allocator<HTTPRequestMessage> >::__on_zero_shared()
PUBLIC 563bc 0 -[__NSCFURLSessionTask _timingData]
PUBLIC 56408 0 std::__1::__shared_ptr_pointer<HTTPRequestMessage*, Deleter_release<HTTPRequestMessage>, std::__1::allocator<HTTPRequestMessage> >::__on_zero_shared_weak()
PUBLIC 56412 0 HTTPEngine::HTTPRequestBodyDelegate::~HTTPRequestBodyDelegate()
PUBLIC 56418 0 AutoReleaseTypePtr<__CFData const*, CFObject>::getValue() const
PUBLIC 56424 0 std::__1::__shared_ptr_emplace<HTTPTransaction, std::__1::allocator<HTTPTransaction> >::__on_zero_shared_weak()
PUBLIC 5642e 0 AutoReleaseTypePtr<__CFString const*, CFObject>::getValue() const
PUBLIC 56438 0 AutoReleaseTypePtr<__CFDictionary const*, CFObject>::getValue() const
PUBLIC 56443 0 +[NSURLProtocol canonicalRequestForRequest:]
PUBLIC 564dd 0 -[NSURLSession configuration]
PUBLIC 56514 0 _CFNetworkIsKnownHSTSHostWithSession
PUBLIC 5656f 0 _HSTSPolicyForSession(__CFURLStorageSession const*)
PUBLIC 565e4 0 HTTPConnection::rstIneligibleToBePurged()
PUBLIC 565f6 0 TubeManager::invalidateAllConnections()
PUBLIC 5668c 0 NSXURLCache::~NSXURLCache()
PUBLIC 566a8 0 NSXURLCache::~NSXURLCache()
PUBLIC 566ea 0 HTTPConnectionCache::invalidateAllConnections()
PUBLIC 566f4 0 -[__NSCFMemoryURLCache dealloc]
PUBLIC 56772 0 HTTPConnectionCache::_onqueue_invalidateAllConnections()
PUBLIC 567ba 0 -[NSURLCache dealloc]
PUBLIC 56804 0 EmptyXCookieStorage::~EmptyXCookieStorage()
PUBLIC 56820 0 RetainableTypedDict<HTTPConnectionCacheKey const*, HTTPConnectionCacheEntryWrapper*>::_visit(void const*, void const*, void*)
PUBLIC 5683a 0 EmptyXCookieStorage::~EmptyXCookieStorage()
PUBLIC 5687d 0 ___ZN29HTTPConnectionCacheDictionary18forgetCacheEntriesEv_block_invoke
PUBLIC 5692a 0 HTTPConnectionCacheEntry::invalidateUnpurgeableConnections()
PUBLIC 5699a 0 HTTPConnectionCacheEntry::removeEnqueuedRequests()
PUBLIC 56a16 0 HTTPConnectionCacheEntry::setHasBeenForgotten()
PUBLIC 56a6e 0 HTTPConnection::doNotAllowMoreRequests()
PUBLIC 56a78 0 HTTPConnection::_onqueue_doNotAllowMoreRequests()
PUBLIC 56d9a 0 HTTPConnection::_onqueue_cleanupEngine()
PUBLIC 56dfe 0 HTTPEngine::close()
PUBLIC 56e08 0 HTTPEngine::_cleanupConnection()
PUBLIC 56f72 0 HTTPEngine::_100ContinueTimerCancel()
PUBLIC 56faa 0 TCPIOConnection::rstConnectionDelegate()
PUBLIC 56fd0 0 TCPIOConnection::close()
PUBLIC 5703c 0 TCPIOConnection::_cleanupConnection()
PUBLIC 57338 0 TCPIOConnection::_watchdogTimerCancel()
PUBLIC 57372 0 std::__1::__shared_ptr_emplace<TCPIOConnection, std::__1::allocator<TCPIOConnection> >::__on_zero_shared()
PUBLIC 57384 0 TCPIOConnection::~TCPIOConnection()
PUBLIC 57390 0 TCPIOConnection::~TCPIOConnection()
PUBLIC 576e6 0 std::__1::__shared_ptr_emplace<TCPIOConnection, std::__1::allocator<TCPIOConnection> >::__on_zero_shared_weak()
PUBLIC 576f0 0 HTTPConnectionCacheEntry::connLostConnection(std::__1::shared_ptr<HTTPConnection>)
PUBLIC 577e0 0 std::__1::__shared_ptr_emplace<HTTPEngine, std::__1::allocator<HTTPEngine> >::__on_zero_shared()
PUBLIC 577f0 0 HTTPEngine::~HTTPEngine()
PUBLIC 577fa 0 HTTPEngine::~HTTPEngine()
PUBLIC 5798a 0 TCPIOConnection::ConnectionDelegate::~ConnectionDelegate()
PUBLIC 57990 0 std::__1::__shared_ptr_emplace<HTTPEngine, std::__1::allocator<HTTPEngine> >::__on_zero_shared_weak()
PUBLIC 5799a 0 HTTPConnectionCacheEntryWrapper::~HTTPConnectionCacheEntryWrapper()
PUBLIC 579b6 0 HTTPConnectionCacheEntryWrapper::~HTTPConnectionCacheEntryWrapper()
PUBLIC 579e6 0 HTTPConnectionCache::disableTimer()
PUBLIC 57a17 0 ___ZN24HTTPConnectionCacheEntry18connLostConnectionENSt3__110shared_ptrI14HTTPConnectionEE_block_invoke
PUBLIC 57a75 0 ___ZN19HTTPConnectionCache11enableTimerEv_block_invoke_3
PUBLIC 57acc 0 std::__1::__shared_ptr_emplace<HTTPConnection, std::__1::allocator<HTTPConnection> >::__on_zero_shared()
PUBLIC 57adc 0 HTTPConnection::~HTTPConnection()
PUBLIC 57ae6 0 HTTPConnection::~HTTPConnection()
PUBLIC 57c30 0 std::__1::__shared_ptr_emplace<HTTPConnection, std::__1::allocator<HTTPConnection> >::__on_zero_shared_weak()
PUBLIC 57c3a 0 std::__1::__shared_ptr_emplace<HTTPConnectionCacheEntry, std::__1::allocator<HTTPConnectionCacheEntry> >::__on_zero_shared()
PUBLIC 57c4c 0 HTTPConnectionCacheEntry::~HTTPConnectionCacheEntry()
PUBLIC 57c56 0 HTTPConnectionCacheEntry::~HTTPConnectionCacheEntry()
PUBLIC 57d60 0 std::__1::__shared_ptr_emplace<HTTPConnectionCacheEntry, std::__1::allocator<HTTPConnectionCacheEntry> >::__on_zero_shared_weak()
PUBLIC 57d6a 0 ___ZN19HTTPConnectionCache11enableTimerEv_block_invoke_4
PUBLIC 57d8e 0 TubeManager::~TubeManager()
PUBLIC 57daa 0 TubeManager::~TubeManager()
PUBLIC 57e78 0 HTTPConnectionCache::~HTTPConnectionCache()
PUBLIC 57e94 0 HTTPConnectionCache::~HTTPConnectionCache()
PUBLIC 57efa 0 HTTPConnectionCacheDictionary::~HTTPConnectionCacheDictionary()
PUBLIC 57f16 0 HTTPConnectionCacheDictionary::~HTTPConnectionCacheDictionary()
PUBLIC 57f72 0 HTTPTransaction::RequestBodyStream::updateScheduling(CoreSchedulingSet const*, bool)
PUBLIC 57fae 0 HTTPTransaction::RequestBodyStream::getExpectedLength()
PUBLIC 57fbc 0 HTTPEngine::_writeBodyStart()
PUBLIC 58052 0 HTTPEngine::_writeBodyResume()
PUBLIC 58134 0 HTTPTransaction::bodyStartProvidingData(void (dispatch_data_s*, CFStreamError, bool) block_pointer)
PUBLIC 58238 0 HTTPTransaction::RequestBodyStream::bodyStartProvidingData(void (dispatch_data_s*, CFStreamError, bool) block_pointer)
PUBLIC 58446 0 HTTPTransaction::RequestBodyStream::_onqueue_resume()
PUBLIC 58588 0 formEventCallback(__CFReadStream*, unsigned long, void*)
PUBLIC 585fe 0 HTTPTransaction::RequestBody::isScheduled()
PUBLIC 5861a 0 HTTPTransaction::RequestBodyStream::_bodyStreamCallback_offqueue(__CFReadStream*, unsigned long, void*)
PUBLIC 5865e 0 HTTPTransaction::RequestBodyStream::_bodyStreamEventOccurred_offqueue()
PUBLIC 58727 0 ___ZN15HTTPTransaction17RequestBodyStream33_bodyStreamEventOccurred_offqueueEv_block_invoke
PUBLIC 58741 0 ___ZN15HTTPTransaction17RequestBodyStream15_onqueue_resumeEv_block_invoke
PUBLIC 58750 0 HTTPTransaction::RequestBodyStream::_bufferRequestBodyFromStream_offqueue()
PUBLIC 58a6c 0 HTTPTransaction::RequestBodyStream::_onqueue_bufferResults(dispatch_data_s*, CFStreamError, bool)
PUBLIC 58b36 0 HTTPTransaction::RequestBodyStream::_onqueue_provideRequestBodyFromBuffer()
PUBLIC 58cfc 0 ___ZN15HTTPTransaction22bodyStartProvidingDataEU13block_pointerFvP15dispatch_data_s13CFStreamErrorbE_block_invoke
PUBLIC 58db8 0 ___ZN10HTTPEngine16_writeBodyResumeEv_block_invoke
PUBLIC 58e8c 0 HTTPEngine::_writeBodyPlain(dispatch_data_s*, CFStreamError, bool)
PUBLIC 59081 0 ___ZN15HTTPTransaction17RequestBodyStream37_onqueue_provideRequestBodyFromBufferEv_block_invoke
PUBLIC 590be 0 HTTPTransaction::bodyStopProvidingData()
PUBLIC 590f4 0 HTTPTransaction::RequestBodyStream::bodyStopProvidingData()
PUBLIC 591c0 0 ___ZN10HTTPEngine15_writeBodyPlainEP15dispatch_data_s13CFStreamErrorb_block_invoke
PUBLIC 59251 0 ___ZN15HTTPTransaction17RequestBodyStream37_bufferRequestBodyFromStream_offqueueEv_block_invoke
PUBLIC 59276 0 formUnschedule(__CFReadStream*, __CFRunLoop*, __CFString const*, void*)
PUBLIC 592bc 0 RunLoopSchedulingSet::copyWithRemovalReleaseSelf(__CFRunLoop*, __CFString const*) const
PUBLIC 59322 0 HTTPTransaction::RequestBodyStream::cleanup()
PUBLIC 59414 0 std::__1::__shared_ptr_emplace<HTTPTransaction::RequestBodyStream, std::__1::allocator<HTTPTransaction::RequestBodyStream> >::__on_zero_shared()
PUBLIC 59424 0 HTTPTransaction::RequestBodyStream::~RequestBodyStream()
PUBLIC 5942e 0 HTTPTransaction::RequestBodyStream::~RequestBodyStream()
PUBLIC 5947c 0 HTTPTransaction::RequestBody::~RequestBody()
PUBLIC 59518 0 std::__1::__shared_ptr_emplace<HTTPTransaction::RequestBodyStream, std::__1::allocator<HTTPTransaction::RequestBodyStream> >::__on_zero_shared_weak()
PUBLIC 59522 0 -[NSMutableURLRequest setAllowsCellularAccess:]
PUBLIC 59545 0 CFURLRequestSetAllowsCellularAccess
PUBLIC 59598 0 CFURLConnectionCreate
PUBLIC 595e7 0 -[NSURLCache initWithExistingSharedCFURLCache:]
PUBLIC 5960e 0 -[NSURLCache _initWithExistingCFURLCache:]
PUBLIC 59723 0 CFURLConnectionSetDelegateDispatchQueue
PUBLIC 59784 0 ClassicURLConnection::setDelegateDispatchQueue(dispatch_queue_s*)
PUBLIC 597c0 0 CoreSchedulingSet::createWithDispatchQueue(void*)
PUBLIC 59830 0 -[CONNECTION_SessionTask _suspensionThreshhold]
PUBLIC 5986f 0 -[CONNECTION_SessionTask _bytesPerSecondLimit]
PUBLIC 59877 0 -[CONNECTION_SessionTask _createXCredentialStorage]
PUBLIC 5992b 0 -[CONNECTION_SessionTask _copyHSTSPolicy]
PUBLIC 599cc 0 -[CONNECTION_SessionTask _copyATSState]
PUBLIC 599ea 0 -[CONNECTION_SessionTask _getAuthenticatorStatusCodes]
PUBLIC 599f4 0 CompactCookieHeader::assertCookieValid(unsigned char) const
PUBLIC 59c14 0 CompactCookieHeader::getEnumeratedString(CookieData::FieldNames) const
PUBLIC 59f81 0 _CookieSortForCopy(void const*, void const*, void*)
PUBLIC 5a0fe 0 CookieHostName::~CookieHostName()
PUBLIC 5a129 0 ___ZNK14XCookieStorage29getRequestHeaderFieldsForTaskEPK16NSURLSessionTaskU13block_pointerFvPK14__CFDictionaryE_block_invoke
PUBLIC 5a175 0 CFHTTPCookieCopyRequestHeaderFields
PUBLIC 5a394 0 __66-[__NSURLSessionLocal _getCookieHeadersForTask:completionHandler:]_block_invoke
PUBLIC 5a3c4 0 non-virtual thunk to URLConnectionClient::_loaderClientEvent_DidReceiveConnectionCacheKey(HTTPConnectionCacheKey*)
PUBLIC 5a3cc 0 HTTPProtocol::configureATSProperties(std::__1::shared_ptr<__CFDictionary>&, _CFURLRequest const*)
PUBLIC 5a5ba 0 StrictSecurityPolicy::configureStrengthPolicy(__CFString const*, StrictSecurityPolicy::StrengthPolicy*)
PUBLIC 5a636 0 StrictSecurityPolicy::getATSExceptionForHost(__CFString const*)
PUBLIC 5a704 0 StrictSecurityPolicy::getException(__CFString const*)
PUBLIC 5a7ba 0 StrictSecurityPolicy::exceptionDomains()
PUBLIC 5a810 0 StrictSecurityPolicy::dictionaryForKey(__CFString const*)
PUBLIC 5a8da 0 SocketStream::setProperties(__CFDictionary const*)
PUBLIC 5a929 0 ___ZN12SocketStream13setPropertiesEPK14__CFDictionary_block_invoke
PUBLIC 5a940 0 SocketStream::securitySetInfo_NoLock(__CFDictionary const*)
PUBLIC 5b460 0 SocketStream::securitySetContext_NoLock(SSLContext*, __CFDictionary const*)
PUBLIC 5b78c 0 SocketStream::removeHandshake_NoLock(SocketStream::Handshake)
PUBLIC 5b968 0 SocketStream::copyProperty(void const*, __CFString const*)
PUBLIC 5b9a8 0 SocketStream::copyProperty_NoLock(void const*, __CFString const*)
PUBLIC 5c4a4 0 CFHostGetTypeID
PUBLIC 5c4b3 0 CFNetServiceGetTypeID
PUBLIC 5c4d3 0 _CFNetServiceRegisterClass()
PUBLIC 5c53a 0 CFHTTPMessageGetTypeID
PUBLIC 5c54a 0 StrictSecurityPolicy::StrengthPolicyFromNumber(__CFNumber const*)
PUBLIC 5c592 0 SocketStream::copyConnectionEstablishment()
PUBLIC 5c5d0 0 CFHostGetNames
PUBLIC 5c5e7 0 CFHostGetInfo
PUBLIC 5c640 0 infoToString(unsigned int)
PUBLIC 5c704 0 _CFHostCopyInfo
PUBLIC 5c78c 0 HostBase::copyInfo(__CFString const*)
PUBLIC 5c7e0 0 HostBase::dontLeak(__CFString const*, void const*)
PUBLIC 5c876 0 SocketStream::_SecurityShouldEnableALPN(__CFDictionary const*)
PUBLIC 5c8de 0 SocketStream::addHandshake_NoLock(SocketStream::Handshake)
PUBLIC 5c980 0 SocketStream::setConnectionEstablishment(SocketStream::SSConnectionEstablishment*)
PUBLIC 5ca40 0 non-virtual thunk to STube::ceRetain()
PUBLIC 5ca50 0 non-virtual thunk to STube::ceRelease()
PUBLIC 5ca62 0 SocketStream::beginConnection()
PUBLIC 5cac6 0 SAwaitingTube::isValid()
PUBLIC 5cadf 0 ___ZN12SocketStream18startTCPConnectionEh_block_invoke_3
PUBLIC 5cb5a 0 ___ZN12SocketStream18startTCPConnectionEh_block_invoke
PUBLIC 5cb6a 0 SocketStream::_onqueue_HandleTCPConnectionEvent(unsigned int, void const*)
PUBLIC 5d438 0 SocketStream::_onqueue_completeTCPConnection()
PUBLIC 5d5fa 0 -[CONNECTION_SessionTask _takePreventIdleSleepAssertionIfAppropriate]
PUBLIC 5d603 0 logPeerCertAvailable(SSLContext*)
PUBLIC 5d7ca 0 non-virtual thunk to STube::ssNeedServerTrust(__SecTrust*, void (SSLPeerTrustAcceptancePolicy) block_pointer)
PUBLIC 5d7d8 0 STube::ssNeedServerTrust(__SecTrust*, void (SSLPeerTrustAcceptancePolicy) block_pointer)
PUBLIC 5d88a 0 SocketStream::unscheduleFromSSL()
PUBLIC 5d8f7 0 _CFTypeUnscheduleFromMultipleRunLoops
PUBLIC 5db32 0 ___ZN5STube17ssNeedServerTrustEP10__SecTrustU13block_pointerFv28SSLPeerTrustAcceptancePolicyE_block_invoke
PUBLIC 5db54 0 STube::_onqueue_needServerTrust()
PUBLIC 5dc7c 0 ___ZN5STube24_onqueue_needServerTrustEv_block_invoke
PUBLIC 5dcf6 0 HTTPProtocol::needServerTrust(__SecTrust*, void (SSLPeerTrustAcceptancePolicy, bool) block_pointer)
PUBLIC 5ded0 0 HTTPProtocolSSLSupport::CreateTrustChallenge(_CFURLRequest const*, __SecTrust*)
PUBLIC 5df30 0 HTTPProtocolSSLSupport::CreateTrustChallengeWithHostAndPort(__CFString const*, long, __SecTrust*)
PUBLIC 5df87 0 createChallenge(CFURLProtectionSpaceAuthenticationScheme, __CFString const*, long, void (_CFURLProtectionSpace*) block_pointer)
PUBLIC 5e005 0 CFURLProtectionSpaceCreate
PUBLIC 5e088 0 URLProtectionSpace::Class()
PUBLIC 5e0b4 0 ___ZN18URLProtectionSpace5ClassEv_block_invoke
PUBLIC 5e0e4 0 URLProtectionSpace::URLProtectionSpace()
PUBLIC 5e128 0 Serializable::Serializable(CFNetworkConstantString::SerializableKinds::DomainString)
PUBLIC 5e150 0 URLProtectionSpace::calcHash()
PUBLIC 5e1a6 0 ___ZN22HTTPProtocolSSLSupport35CreateTrustChallengeWithHostAndPortEPK10__CFStringlP10__SecTrust_block_invoke
PUBLIC 5e1ff 0 CFURLAuthChallengeCreate
PUBLIC 5e282 0 URLAuthChallenge::Class()
PUBLIC 5e2ae 0 ___ZN16URLAuthChallenge5ClassEv_block_invoke
PUBLIC 5e2de 0 URLAuthChallenge::URLAuthChallenge()
PUBLIC 5e322 0 URLAuthChallenge::initialize(_CFURLProtectionSpace*, _CFURLCredential const*, long, _CFURLResponse*, __CFError*)
PUBLIC 5e3b6 0 non-virtual thunk to URLConnectionLoader_Classic::protocolDidReceiveAuthenticationChallenge(_CFURLAuthChallenge*)
PUBLIC 5e3c4 0 URLConnectionLoader_Classic::protocolDidReceiveAuthenticationChallenge(_CFURLAuthChallenge*)
PUBLIC 5e43a 0 non-virtual thunk to URLConnectionClient::_loaderClientEvent_DidReceiveChallenge(_CFURLAuthChallenge*)
PUBLIC 5e448 0 URLConnectionClient::_loaderClientEvent_DidReceiveChallenge(_CFURLAuthChallenge*)
PUBLIC 5e59a 0 non-virtual thunk to URLConnectionClient_Classic::_delegate_willSendRequestForAuthenticationChallenge(_CFURLAuthChallenge*)
PUBLIC 5e5a8 0 URLConnectionClient_Classic::_delegate_willSendRequestForAuthenticationChallenge(_CFURLAuthChallenge*)
PUBLIC 5e63c 0 QCoreSchedulingSet::performAsync(void () block_pointer) const
PUBLIC 5e6a2 0 ___ZNK18QCoreSchedulingSet12performAsyncEU13block_pointerFvvE_block_invoke
PUBLIC 5e6e6 0 ___ZN27URLConnectionClient_Classic51_delegate_willSendRequestForAuthenticationChallengeEP19_CFURLAuthChallenge_block_invoke
PUBLIC 5ea36 0 ClassicURLConnection::useCredential(_CFURLCredential const*, _CFURLAuthChallenge*)
PUBLIC 5eb3d 0 ___ZN20ClassicURLConnection13useCredentialEPK16_CFURLCredentialP19_CFURLAuthChallenge_block_invoke
PUBLIC 5eb8e 0 non-virtual thunk to URLConnectionLoader::_loaderInterface_useCredential(_CFURLCredential const*, _CFURLAuthChallenge*)
PUBLIC 5eb9c 0 ___ZN19URLConnectionLoader30_loaderInterface_useCredentialEPK16_CFURLCredentialP19_CFURLAuthChallenge_block_invoke
PUBLIC 5ec10 0 HTTPProtocol::_protocolInterface_useCredential(_CFURLCredential const*, _CFURLAuthChallenge*)
PUBLIC 5f31f 0 isLikeChallenge(_CFURLAuthChallenge*, _CFURLAuthChallenge*)
PUBLIC 5f35a 0 isIPAddress
PUBLIC 5f369 0 _isIPAddress(__CFString const*, unsigned char)
PUBLIC 5f41e 0 ___ZN12HTTPProtocol17ssNeedServerTrustEP10__SecTrustU13block_pointerFv28SSLPeerTrustAcceptancePolicyE_block_invoke
PUBLIC 5f4a0 0 ___ZN5STube24_onqueue_needServerTrustEv_block_invoke_2
PUBLIC 5f516 0 HTTPProtocol::applyPreAuthenticationToCurrentRequest(MetaNetStreamInfo*, _CFURLRequest const*, __CFURL const*)
PUBLIC 5f654 0 URLAuthChallenge::~URLAuthChallenge()
PUBLIC 5f65e 0 URLAuthChallenge::~URLAuthChallenge()
PUBLIC 5f6e6 0 URLProtectionSpace::~URLProtectionSpace()
PUBLIC 5f6f0 0 URLProtectionSpace::~URLProtectionSpace()
PUBLIC 5f76a 0 Serializable::~Serializable()
PUBLIC 5f770 0 ___ZN5STube25_complete_needServerTrustE28SSLPeerTrustAcceptancePolicy_block_invoke
PUBLIC 5f796 0 STube::_onqueue_complete_needServerTrust(SSLPeerTrustAcceptancePolicy)
PUBLIC 5f7f0 0 ___ZN12SocketStream32_PerformSecurityHandshake_NoLockEv_block_invoke
PUBLIC 5f874 0 CFNetworkTrust::~CFNetworkTrust()
PUBLIC 5f880 0 CFNetworkTrust::~CFNetworkTrust()
PUBLIC 5f8cc 0 SocketStream::removeSSLHandshake()
PUBLIC 5fa1a 0 SocketStream::securityBufferedRead_NoLock()
PUBLIC 5fc20 0 SocketStream::securityRead_NoLock(unsigned char*, long, unsigned char*, unsigned char*)
PUBLIC 5ff04 0 setCFIndexProperty(__CFDictionary*, __CFString const*, long)
PUBLIC 5ff5c 0 ___ZN5STube32ssPostHandshakesStreamsAvailableEP14__CFReadStreamP15__CFWriteStream_block_invoke
PUBLIC 5ff9a 0 STube::_onqueue_streamsAvailable()
PUBLIC 600e2 0 STube::parseNPN()
PUBLIC 60294 0 STube::_onqueue_notifyTubeManager(CFStreamError)
PUBLIC 6038a 0 STube::_notifyOfTubeType(__CFError*)
PUBLIC 60544 0 STubeManager::newTubeReady(STube*, CFStreamError)
PUBLIC 60627 0 ___ZN12STubeManager12newTubeReadyEP5STube13CFStreamError_block_invoke
PUBLIC 60664 0 STubeManager::_onqueue_newTubeReady(STube*, CFStreamError)
PUBLIC 60c3a 0 CFAllocatedReferenceCountedObject::_retainable_release(__CFAllocator const*, void const*)
PUBLIC 60c48 0 STube::getWaiter()
PUBLIC 60cd5 0 ___ZN5STube9getWaiterEv_block_invoke
PUBLIC 60cf0 0 STube::isCanceled()
PUBLIC 60d83 0 ___ZN5STube10isCanceledEv_block_invoke
PUBLIC 60da0 0 STube::getType()
PUBLIC 60daa 0 STubeManager::_onqueue_pairKeyWithConnectionCache(HTTPConnectionCacheKey const*, MetaConnectionCacheType)
PUBLIC 60df0 0 STubeManager::_onqueue_createConnectionCache(MetaConnectionCacheType)
PUBLIC 60ebe 0 SHTTP2ConnectionCache::SHTTP2ConnectionCache(__CFAllocator const*, HTTPConnectionCacheLimits const&)
PUBLIC 60ec8 0 SHTTP2ConnectionCache::SHTTP2ConnectionCache(__CFAllocator const*, HTTPConnectionCacheLimits const&)
PUBLIC 60f4a 0 MetaConnectionCache::MetaConnectionCache(__CFAllocator const*)
PUBLIC 60f6a 0 SHTTP2ConnectionCache::initWithSchedulingSet(CoreSchedulingSet const*, STubeManager*)
PUBLIC 60ff0 0 SHTTP2ConnectionCache::initCacheTimers()
PUBLIC 6109a 0 SHTTP2ConnectionCache::enableIdleTimer()
PUBLIC 610e8 0 HTTPConnectionCacheKey::hash() const
PUBLIC 610f2 0 SHTTP2ConnectionCache::ingestTube(STube*)
PUBLIC 61122 0 SHTTP2ConnectionCache::_onqueue_findOrCreateHTTP2ConnectionCacheEntry(HTTPConnectionCacheKey const*)
PUBLIC 611f6 0 SHTTP2ConnectionCacheEntry::Class()
PUBLIC 61222 0 ___ZN26SHTTP2ConnectionCacheEntry5ClassEv_block_invoke
PUBLIC 61252 0 SHTTP2ConnectionCacheEntry::SHTTP2ConnectionCacheEntry(CoreSchedulingSet const*, STubeManager*, SHTTP2ConnectionCache*)
PUBLIC 6125c 0 SHTTP2ConnectionCacheEntry::SHTTP2ConnectionCacheEntry(CoreSchedulingSet const*, STubeManager*, SHTTP2ConnectionCache*)
PUBLIC 61326 0 SHTTP2ConnectionCacheEntry::initialize(HTTPConnectionCacheKey const*, int)
PUBLIC 6136e 0 CFObject::_cfobj_retain(__CFAllocator const*, void const*)
PUBLIC 6138a 0 SHTTP2ConnectionCacheEntry::ingestTube(STube*)
PUBLIC 6142e 0 SHTTP2ConnectionCacheEntry::shouldOpenNewConnection()
PUBLIC 614e0 0 SHTTP2ConnectionCacheEntry::createHTTP2ConnectionFromTube(STube*)
PUBLIC 6155c 0 SHTTP2Connection::Class()
PUBLIC 61588 0 ___ZN16SHTTP2Connection5ClassEv_block_invoke
PUBLIC 615b8 0 SHTTP2Connection::SHTTP2Connection(__CFAllocator const*)
PUBLIC 61630 0 SHTTP2Connection::initialize(STube*, int, SHTTP2ConnectionCacheEntry*)
PUBLIC 61896 0 SHTTP2Connection::initializeHTTP2()
PUBLIC 6192a 0 SHTTP2Connection::initializeSocketStreams(STube*)
PUBLIC 61aae 0 STube::captureStreams(__CFReadStream**, __CFWriteStream**)
PUBLIC 61ae0 0 ReadStreamCallbacks::_schedule(__CFReadStream*, __CFRunLoop*, __CFString const*, void*)
PUBLIC 61b0a 0 Schedulables::_SchedulablesScheduleApplierFunction(void const*, void*)
PUBLIC 61b1e 0 _CFTypeScheduleOnRunLoop
PUBLIC 61cc4 0 ReadStreamCallbacks::_open(__CFReadStream*, CFStreamError*, unsigned char*, void*)
PUBLIC 61cf0 0 ObserverHolder::createUniqueObserverHolder(__CFString const*, std::__1::shared_ptr<PropertyObserver>)
PUBLIC 61d82 0 ObserverHolder::Class()
PUBLIC 61dae 0 ___ZN14ObserverHolder5ClassEv_block_invoke
PUBLIC 61dde 0 ObserverHolder::ObserverHolder(__CFString const*, std::__1::shared_ptr<PropertyObserver>)
PUBLIC 61e56 0 ReadStreamCallbacks::_setProperty(__CFReadStream*, __CFString const*, void const*, void*)
PUBLIC 61e80 0 virtual thunk to SocketStream::setProperty(void const*, __CFString const*, void const*)
PUBLIC 61e93 0 void std::__1::__tree_balance_after_insert<std::__1::__tree_node_base<void*>*>(std::__1::__tree_node_base<void*>*, std::__1::__tree_node_base<void*>*)
PUBLIC 61f48 0 void std::__1::vector<std::__1::weak_ptr<PropertyObserver>, std::__1::allocator<std::__1::weak_ptr<PropertyObserver> > >::__emplace_back_slow_path<std::__1::weak_ptr<PropertyObserver> >(std::__1::weak_ptr<PropertyObserver>&&)
PUBLIC 61ffc 0 std::__1::__split_buffer<std::__1::weak_ptr<PropertyObserver>, std::__1::allocator<std::__1::weak_ptr<PropertyObserver> >&>::~__split_buffer()
PUBLIC 6204f 0 ___ZN12SocketStream11setPropertyEPKvPK10__CFStringS1__block_invoke
PUBLIC 62068 0 PropertyObserver::propertyChanged(__CFString const*, void const*)
PUBLIC 6207e 0 ___ZN16SHTTP2Connection10initializeEP5STubeiP26SHTTP2ConnectionCacheEntry_block_invoke
PUBLIC 62180 0 ObserverHolder::createUniqueObserverHolder(__CFString const*, std::__1::shared_ptr<PropertyObserver>)::'lambda'(ObserverHolder*)::__invoke(ObserverHolder*)
PUBLIC 62196 0 ObserverHolder::~ObserverHolder()
PUBLIC 621a2 0 ObserverHolder::~ObserverHolder()
PUBLIC 621e0 0 SHTTP2ConnectionCacheEntry::enqueueAwaitingTubeForTube(STube*)
PUBLIC 6228e 0 SAwaitingTube::getRequestToEnqueue(MetaConnectionCacheClient**, HTTPRequestMessage const**, MetaConnectionOptions const*)
PUBLIC 622ce 0 SHTTP2Connection::willEnqueueRequests()
PUBLIC 62318 0 SHTTP2Connection::enqueue(HTTPRequestMessage const*, MetaConnectionCacheClient*, int, float)
PUBLIC 623b7 0 ___ZN16SHTTP2Connection7enqueueEPK18HTTPRequestMessageP25MetaConnectionCacheClientif_block_invoke
PUBLIC 6247c 0 SHTTP2StreamBridge::Class()
PUBLIC 624a8 0 ___ZN18SHTTP2StreamBridge5ClassEv_block_invoke
PUBLIC 624d8 0 SHTTP2StreamBridge::SHTTP2StreamBridge(SHTTP2Connection*, HTTPRequestMessage const*, MetaConnectionCacheClient*, unsigned char)
PUBLIC 624e6 0 SHTTP2StreamBridge::SHTTP2StreamBridge(SHTTP2Connection*, HTTPRequestMessage const*, MetaConnectionCacheClient*, unsigned char)
PUBLIC 625a2 0 SHTTP2Stream::SHTTP2Stream(SHTTP2Connection*, HTTPRequestMessage const*, MetaConnectionCacheClient*, unsigned char)
PUBLIC 627a1 0 RetainedURLStringFromHTTPMessage(__CFHTTPMessage*)
PUBLIC 627d4 0 RequestBodyDataProvider::RequestBodyDataProvider(__CFData const*)
PUBLIC 6283c 0 SHTTP2Stream::setSelfWeakPtr(std::__1::shared_ptr<SHTTP2Stream>&)
PUBLIC 6288e 0 SHTTP2StreamBridge::theStream()
PUBLIC 628ba 0 SHTTP2Stream::setConnReadStream(__CFReadStream*)
PUBLIC 628f0 0 SHTTP2StreamRetainCallBack(__CFAllocator const*, void const*)
PUBLIC 6290e 0 HTTPProtocol::useNetStreamInfoForRequest(MetaNetStreamInfo*, HTTPRequestMessage const*, unsigned char)
PUBLIC 6324e 0 HTTPProtocol::takePreventIdleSleepAssertionIfAppropriate()
PUBLIC 63280 0 non-virtual thunk to SHTTP2StreamBridge::_meta_retain()
PUBLIC 6328e 0 non-virtual thunk to SHTTP2StreamBridge::setBodyStreamBeforeOpening(__CFReadStream*)
PUBLIC 632a0 0 SHTTP2Stream::setBodyStreamBeforeOpening(__CFReadStream*)
PUBLIC 632fc 0 non-virtual thunk to SHTTP2StreamBridge::copyProperty(MetaNetStreamInfo::ApplicableProperties)
PUBLIC 6330e 0 SHTTP2Stream::copyProperty(MetaNetStreamInfo::ApplicableProperties)
PUBLIC 6339d 0 ___ZN12SHTTP2Stream12copyPropertyEN17MetaNetStreamInfo20ApplicablePropertiesE_block_invoke
PUBLIC 635c0 0 MetaNetStreamInfo::applicableToPropertyName(MetaNetStreamInfo::ApplicableProperties)
PUBLIC 637e0 0 ReadStreamCallbacks::_copyProperty(__CFReadStream*, __CFString const*, void*)
PUBLIC 6380c 0 virtual thunk to SocketStream::copyProperty(void const*, __CFString const*)
PUBLIC 63856 0 ___ZN9TCFObjectIN15TCPIOConnection17RefCountedWrapperEE5ClassEv_block_invoke
PUBLIC 638d4 0 HTTPProtocol::openStream()
PUBLIC 63a32 0 HTTPProtocol::setProtocolPropertiesToStream()
PUBLIC 63a9c 0 ___ZN12HTTPProtocol29setProtocolPropertiesToStreamEv_block_invoke
PUBLIC 63af8 0 MetaNetStreamInfo::propertyNameToApplicableProperty(__CFString const*)
PUBLIC 63e2e 0 non-virtual thunk to SHTTP2StreamBridge::setProperty(MetaNetStreamInfo::ApplicableProperties, void const*)
PUBLIC 63e40 0 SHTTP2Stream::setProperty(MetaNetStreamInfo::ApplicableProperties, void const*)
PUBLIC 63f0d 0 ___ZN12SHTTP2Stream11setPropertyEN17MetaNetStreamInfo20ApplicablePropertiesEPKv_block_invoke
PUBLIC 64166 0 HTTPProtocol::setPriorityHint(float)
PUBLIC 64182 0 non-virtual thunk to SHTTP2StreamBridge::setPriorityHint(float)
PUBLIC 64198 0 SHTTP2Stream::setPriorityHint(float)
PUBLIC 64257 0 ___ZN12SHTTP2Stream15setPriorityHintEf_block_invoke
PUBLIC 6429c 0 SHTTP2Stream::_onqueue_setPriorityHint(float)
PUBLIC 6435e 0 SHTTP2Stream::mapAPIPriorityToProtocolPriority(float)
PUBLIC 643d8 0 non-virtual thunk to SHTTP2StreamBridge::canScheduleAndOpenWithHandlerAsync()
PUBLIC 643e8 0 SHTTP2Stream::canScheduleAndOpenWithHandlerAsync()
PUBLIC 643f6 0 SHTTP2Connection::submitRequest(std::__1::shared_ptr<SHTTP2Stream>, void () block_pointer)
PUBLIC 64644 0 SHTTP2Stream::isError() const
PUBLIC 64660 0 SHTTP2Stream::buildHTTP2Headers(nghttp2_nv**, unsigned int*, MemPool*)
PUBLIC 64ba0 0 RequestBodyDataProvider::bodyLength()
PUBLIC 64baa 0 initializeUserAgentString()
PUBLIC 64e6b 0 appendEscaped(__CFString*, __CFString const*)
PUBLIC 64ead 0 appendEscapedFormat(__CFString*, __CFString const*, __CFString const*)
PUBLIC 64f08 0 copySysctl(int*)
PUBLIC 64f8e 0 shttp2CreateCStringFromCFString(__CFString const*, MemPool*)
PUBLIC 65026 0 void std::__1::vector<std::__1::pair<void*, int>, std::__1::allocator<std::__1::pair<void*, int> > >::__push_back_slow_path<std::__1::pair<void*, int> >(std::__1::pair<void*, int>&&)
PUBLIC 65106 0 SHTTP2Stream::_createPathStringFromURL(__CFURL const*) const
PUBLIC 651be 0 URLPortion::URLPortion(__CFAllocator const*, __CFURL const*, unsigned char)
PUBLIC 651c8 0 URLPortion::URLPortion(__CFAllocator const*, __CFURL const*, unsigned char)
PUBLIC 6544e 0 cStringFromConstCharPtr(char const*, unsigned long, MemPool*)
PUBLIC 654aa 0 std::__1::vector<nghttp2_nv, std::__1::allocator<nghttp2_nv> >::reserve(unsigned long)
PUBLIC 655aa 0 ___ZN12SHTTP2Stream17buildHTTP2HeadersEPP10nghttp2_nvPjP7MemPool_block_invoke
PUBLIC 65664 0 SHTTP2Stream::isHeaderAllowed(__CFString const*) const
PUBLIC 65722 0 SHTTP2Stream::setSelfUserData(std::__1::shared_ptr<SHTTP2Stream>*)
PUBLIC 65740 0 SHTTP2Stream::breakStreamUserDataCycle()
PUBLIC 6579c 0 SHTTP2Stream::hasRequestBody() const
PUBLIC 657af 0 ___ZN16SHTTP2Connection13submitRequestENSt3__110shared_ptrI12SHTTP2StreamEEU13block_pointerFvvE_block_invoke
PUBLIC 658ca 0 SHTTP2Stream::getStreamPriority() const
PUBLIC 658d8 0 SHTTP2Stream::setStreamID(int)
PUBLIC 65a32 0 RequestBodyProvider::scheduleWithSchedulingSet(CoreSchedulingSet const*)
PUBLIC 65a3b 0 ___ZN12HTTPProtocol10openStreamEv_block_invoke
PUBLIC 65bdc 0 ___ZN16SHTTP2Connection10scheduleIOEv_block_invoke
PUBLIC 65c00 0 SHTTP2Connection::_onqueue_scheduleIO()
PUBLIC 65d3a 0 STube::~STube()
PUBLIC 65d56 0 WriteStreamCallbacks::_canWrite(__CFWriteStream*, void*)
PUBLIC 65d7a 0 STube::~STube()
PUBLIC 65f1c 0 ___ZN5STube14cleanupStreamsEb_block_invoke
PUBLIC 65f32 0 virtual thunk to SocketStream::canWrite(__CFWriteStream*)
PUBLIC 65f46 0 STube::_onqueue_cleanupStreams(bool)
PUBLIC 6603c 0 SAwaitingTube::~SAwaitingTube()
PUBLIC 6605a 0 SocketStream::canWrite(__CFWriteStream*)
PUBLIC 66096 0 SAwaitingTube::~SAwaitingTube()
PUBLIC 66124 0 SocketStream::streamCan(void const*, SocketStream::SocketCanDoWhat, __CFString const*, CFStreamError*)
PUBLIC 66436 0 SocketStream::__isCanFlagBitSet(SocketStream::SocketCanDoWhat) const
PUBLIC 66474 0 CFAllocatedReferenceCountedObject_RequiringNamedRetains::~CFAllocatedReferenceCountedObject_RequiringNamedRetains()
PUBLIC 6647a 0 WriteStreamCallbacks::_write(__CFWriteStream*, unsigned char const*, long, CFStreamError*, void*)
PUBLIC 664a8 0 virtual thunk to SocketStream::write(__CFWriteStream*, unsigned char const*, long, CFStreamError*)
PUBLIC 664ba 0 SocketStream::write(__CFWriteStream*, unsigned char const*, long, CFStreamError*)
PUBLIC 66afa 0 SocketStream::securitySend_NoLock(unsigned char const*, long, unsigned char*)
PUBLIC 66f32 0 _CFSocketCan(__CFSocket*, int)
PUBLIC 67064 0 SHTTP2Connection::_onqueue_performWrite()
PUBLIC 67155 0 scf_nghttp2_before_frame_send_callback(nghttp2_session*, nghttp2_frame const*, void*)
PUBLIC 6725c 0 scf_nghttp2_send_callback(nghttp2_session*, unsigned char const*, unsigned long, int, void*)
PUBLIC 672cd 0 insert
PUBLIC 67328 0 SHTTP2Stream::getStream(nghttp2_session*, int)
PUBLIC 67340 0 SHTTP2Stream::didSendHeaders()
PUBLIC 673f7 0 ___ZN12SHTTP2Stream14didSendHeadersEv_block_invoke
PUBLIC 67410 0 scf_nghttp2_data_source_read_callback(nghttp2_session*, int, unsigned char*, unsigned long, unsigned int*, nghttp2_data_source*, void*)
PUBLIC 67492 0 SHTTP2Stream::isSuspended()
PUBLIC 674b2 0 SHTTP2Stream::canProvideBodyData()
PUBLIC 674c8 0 RequestBodyDataProvider::canProvideData()
PUBLIC 674da 0 SHTTP2Stream::provideBodyData(unsigned char*, unsigned long, unsigned int*)
PUBLIC 67566 0 RequestBodyDataProvider::provideData(char*, unsigned long, int&)
PUBLIC 675c2 0 RequestBodyProvider::updateUploadStatus(long, bool, void (long, long) block_pointer)
PUBLIC 67651 0 ___ZN12SHTTP2Stream15provideBodyDataEPhmPj_block_invoke
PUBLIC 676d7 0 ___ZN12SHTTP2Stream15provideBodyDataEPhmPj_block_invoke_2
PUBLIC 67704 0 URLProtocol::uploadActivityOccurred(long, long)
PUBLIC 67780 0 non-virtual thunk to URLConnectionLoader_Classic::protocolDidSendBodyData(long, long, long)
PUBLIC 677de 0 SHTTP2Connection::cbReadStream(__CFReadStream*, unsigned long, void*)
PUBLIC 67872 0 SHTTP2Connection::cbWriteStream(__CFWriteStream*, unsigned long, void*)
PUBLIC 67904 0 SHTTP2Connection::_onqueue_performRead()
PUBLIC 679e9 0 scf_nghttp2_recv_callback(nghttp2_session*, unsigned char*, unsigned long, int, void*)
PUBLIC 67a5c 0 ReadStreamCallbacks::_canRead(__CFReadStream*, void*)
PUBLIC 67a80 0 virtual thunk to SocketStream::canRead(__CFReadStream*)
PUBLIC 67a94 0 SocketStream::canRead(__CFReadStream*)
PUBLIC 67b60 0 ReadStreamCallbacks::_read(__CFReadStream*, unsigned char*, long, CFStreamError*, unsigned char*, void*)
PUBLIC 67b92 0 virtual thunk to SocketStream::read(__CFReadStream*, unsigned char*, long, CFStreamError*, unsigned char*)
PUBLIC 67ba4 0 SocketStream::read(__CFReadStream*, unsigned char*, long, CFStreamError*, unsigned char*)
PUBLIC 682c2 0 SocketStream::bufferedRead_NoLock(unsigned char*, long)
PUBLIC 6841b 0 scf_nghttp2_on_frame_recv_callback(nghttp2_session*, nghttp2_frame const*, void*)
PUBLIC 68490 0 SHTTP2Connection::handleFrame(nghttp2_frame const*)
PUBLIC 6850c 0 SHTTP2Connection::handleSETTINGSFrame(nghttp2_frame const*)
PUBLIC 68656 0 ___ZN16SHTTP2Connection19handleSETTINGSFrameEPK13nghttp2_frame_block_invoke
PUBLIC 686e0 0 scf_nghttp2_on_begin_headers_callback(nghttp2_session*, nghttp2_frame const*, void*)
PUBLIC 686f8 0 SHTTP2Stream::beginHeaders()
PUBLIC 687ab 0 ___ZN12SHTTP2Stream12beginHeadersEv_block_invoke
PUBLIC 687ba 0 SHTTP2Stream::_onqueue_beginHeaders()
PUBLIC 6883c 0 CFHTTPMessageCreateEmpty
PUBLIC 68896 0 HTTPResponseMessage::HTTPResponseMessage()
PUBLIC 68964 0 HTTPMessage::HTTPMessage(char const*)
PUBLIC 689d0 0 scf_nghttp2_on_header_callback(nghttp2_session*, nghttp2_frame const*, unsigned char const*, unsigned long, unsigned char const*, unsigned long, unsigned char, void*)
PUBLIC 68a56 0 SHTTP2Connection::isHeaderValid(unsigned char const*, unsigned long, unsigned char const*, unsigned long)
PUBLIC 68a8e 0 SHTTP2Stream::processHeaderLine(unsigned char const*, unsigned long, unsigned char const*, unsigned long)
PUBLIC 68c9c 0 SHTTP2Connection::handleHEADERSFrame(nghttp2_frame const*)
PUBLIC 68e68 0 SHTTP2Stream::endHeaders()
PUBLIC 68f88 0 ___ZN12SHTTP2Stream10endHeadersEv_block_invoke
PUBLIC 68ffc 0 SHTTP2Stream::_onqueue_endHeaders()
PUBLIC 6903c 0 SHTTP2Stream::_onqueue_processRawHeaders()
PUBLIC 690cc 0 SHTTP2Stream::_onqueue_processHeader(__CFString const*, __CFString const*)
PUBLIC 691de 0 SHTTP2Stream::_onqueue_checkStatusHeader(__CFString const*, __CFString const*)
PUBLIC 692cd 0 scf_nghttp2_on_data_chunk_recv_callback(nghttp2_session*, unsigned char, int, unsigned char const*, unsigned long, void*)
PUBLIC 6930e 0 SHTTP2Stream::bufferDataFromDataFrame(unsigned char const*, unsigned long)
PUBLIC 693e8 0 createCStringFromCFString
PUBLIC 6946c 0 SHTTP2Connection::manageConnectionWindow(unsigned long)
PUBLIC 694d3 0 CFHTTPMessageAppendBytes
PUBLIC 69518 0 HTTPMessage::appendBytes(unsigned char const*, long)
PUBLIC 69668 0 HTTPMessage::appendToBodyData(unsigned char const*, long)
PUBLIC 696ec 0 HTTPBodyData::appendBytes(unsigned char const*, long)
PUBLIC 697ac 0 SHTTP2Connection::handleDATAFrame(nghttp2_frame const*)
PUBLIC 698c0 0 HTTPParser::parse(unsigned char const*, long)
PUBLIC 69aea 0 HTTPParser::commitFirstLine()
PUBLIC 69b34 0 SHTTP2Stream::closeStream()
PUBLIC 69b40 0 HTTPParser::trimBuffer(long, long, long*)
PUBLIC 69bee 0 SHTTP2Stream::closeStreamWithErrorCode(int)
PUBLIC 69cee 0 non-virtual thunk to HTTPResponseMessage::parserCompleteFirstLine(unsigned char const*, long)
PUBLIC 69cfe 0 SHTTP2Connection::didCloseStream(std::__1::shared_ptr<SHTTP2Stream>)
PUBLIC 69d92 0 HTTPResponseMessage::parserCompleteFirstLine(unsigned char const*, long)
PUBLIC 6a09a 0 FirstLineFieldsBase::checkFields(FirstLineFieldsBase::Field const*, long, char const*, char const*)
PUBLIC 6a124 0 _findCanonicalCStringLen
PUBLIC 6a1c0 0 scf_nghttp2_on_stream_close_callback(nghttp2_session*, int, unsigned int, void*)
PUBLIC 6a20d 0 _CFHTTPMessageSetResponseURL
PUBLIC 6a244 0 HTTPResponseMessage::setResponseURL(__CFURL const*, unsigned char)
PUBLIC 6a290 0 HTTPMessage::ParserAddHeader(HTTPHeaderDict*, HTTPHeaderKeyMixedValue const&, HTTPHeaderValueMixedValue const&)
PUBLIC 6a29a 0 ___ZN16SHTTP2Connection22manageConnectionWindowEm_block_invoke
PUBLIC 6a32a 0 ___ZN16SHTTP2Connection14didCloseStreamENSt3__110shared_ptrI12SHTTP2StreamEE_block_invoke
PUBLIC 6a38e 0 SHTTP2Connection::_onqueue_removeStream(std::__1::shared_ptr<SHTTP2Stream>)
PUBLIC 6a4c2 0 SHTTP2Stream::equals(SHTTP2Stream const*) const
PUBLIC 6a4d0 0 SHTTP2StreamReleaseCallBack(__CFAllocator const*, void const*)
PUBLIC 6a4de 0 _CFHTTPMessageGetAuthentication(__CFHTTPMessage*, unsigned char)
PUBLIC 6a512 0 ___ZN12SHTTP2Stream23bufferDataFromDataFrameEPKhm_block_invoke
PUBLIC 6a53e 0 SHTTP2Stream::_onqueue_bufferData(dispatch_data_s*)
PUBLIC 6a5a4 0 SHTTP2Stream::_onqueue_performFlowControl()
PUBLIC 6a5f2 0 SHTTP2Stream::_onqueue_notifyDataAvailable()
PUBLIC 6a6f8 0 ___ZN12SHTTP2Stream24closeStreamWithErrorCodeEi_block_invoke
PUBLIC 6a707 0 ___ZN12SHTTP2Stream28_onqueue_notifyDataAvailableEv_block_invoke
PUBLIC 6a734 0 SHTTP2Stream::_onqueue_streamClose()
PUBLIC 6a762 0 SHTTP2Stream::_onschedulingset_notifyDataAvailable(dispatch_data_s*)
PUBLIC 6a7be 0 SHTTP2Stream::_onqueue_executeHandler()
PUBLIC 6a7f0 0 SHTTP2Stream::_onqueue_notifyStreamClosed()
PUBLIC 6a97c 0 HTTPProtocol::handleStreamEvent(__CFHTTPMessage*, dispatch_data_s*, CFStreamError const*)
PUBLIC 6ab1a 0 SHTTP2Connection::scheduleIO()
PUBLIC 6ab76 0 HTTPProtocol::performHeaderRead(__CFHTTPMessage*)
PUBLIC 6b222 0 HTTPProtocol::updateConnectionForResponse(__CFHTTPMessage*)
PUBLIC 6b308 0 non-virtual thunk to SHTTP2StreamBridge::_conn_no_more_reqests_after_this_one_connectionLost()
PUBLIC 6b318 0 SHTTP2Stream::_conn_no_more_reqests_after_this_one_connectionLost()
PUBLIC 6b320 0 HTTPProtocol::constructSSLCertContext()
PUBLIC 6b3c6 0 HTTPProtocol::needToVetProxyCredentials() const
PUBLIC 6b3f0 0 HTTPProtocol::performHeaderReadPostProcessing(__CFHTTPMessage*, unsigned char)
PUBLIC 6b622 0 HTTPProtocol::updateForHeader(__CFHTTPMessage*)
PUBLIC 6bd32 0 HTTPProtocol::updateCookieStoreDuringHeaderRead(__CFHTTPMessage*)
PUBLIC 6be2e 0 HTTPProtocol::getCacheStoragePolicy(__CFHTTPMessage*)
PUBLIC 6c003 0 CFURLResponseCreateWithHTTPResponse
PUBLIC 6c090 0 URLResponse::initialize(__CFURL const*, __CFHTTPMessage*, CFURLCacheStoragePolicy)
PUBLIC 6c15c 0 HTTPProtocol::checkAndSendDidReceiveResponse()
PUBLIC 6c2f2 0 HTTPProtocol::bytesAvailable(dispatch_data_s*)
PUBLIC 6c3c0 0 HTTPProtocol::tryToSendDispatchDataToDelegate(dispatch_data_s*)
PUBLIC 6c486 0 Throttler::noteOutstandingBytes(long long)
PUBLIC 6c4aa 0 HTTPProtocol::endEncountered()
PUBLIC 6c816 0 HTTPProtocol::destroyReadStream()
PUBLIC 6ce42 0 SHTTP2Connection::isCell()
PUBLIC 6ce92 0 non-virtual thunk to SHTTP2StreamBridge::closeAndClearHandler()
PUBLIC 6cea2 0 SHTTP2Stream::closeAndClearHandler()
PUBLIC 6cf59 0 ___ZN12SHTTP2Stream20closeAndClearHandlerEv_block_invoke
PUBLIC 6cfe6 0 non-virtual thunk to SHTTP2StreamBridge::_meta_release()
PUBLIC 6cff4 0 SHTTP2StreamBridge::~SHTTP2StreamBridge()
PUBLIC 6cffe 0 SHTTP2StreamBridge::~SHTTP2StreamBridge()
PUBLIC 6d070 0 MetaNetStreamInfo::~MetaNetStreamInfo()
PUBLIC 6d078 0 URLProtocol::sendDidFinishLoading()
PUBLIC 6d224 0 std::__1::__shared_ptr_pointer<HTTP2Stream*, std::__1::default_delete<HTTP2Stream>, std::__1::allocator<HTTP2Stream> >::__on_zero_shared()
PUBLIC 6d23a 0 SHTTP2Stream::~SHTTP2Stream()
PUBLIC 6d256 0 SHTTP2Stream::~SHTTP2Stream()
PUBLIC 6d3d2 0 HTTPRequestMessage::~HTTPRequestMessage()
PUBLIC 6d3dc 0 RequestBodyDataProvider::~RequestBodyDataProvider()
PUBLIC 6d3f8 0 RequestBodyDataProvider::~RequestBodyDataProvider()
PUBLIC 6d432 0 RequestBodyProvider::~RequestBodyProvider()
PUBLIC 6d43c 0 BodyDataConsumerDelegate::~BodyDataConsumerDelegate()
PUBLIC 6d443 0 ___ZN27URLConnectionClient_Classic15invalidateAsyncEP16dispatch_queue_sU13block_pointerFvvE_block_invoke
PUBLIC 6d53c 0 ___ZN27URLConnectionClient_Classic15invalidateAsyncEP16dispatch_queue_sU13block_pointerFvvE_block_invoke_2
PUBLIC 6d5bb 0 ___ZN27URLConnectionClient_Classic15invalidateAsyncEP16dispatch_queue_sU13block_pointerFvvE_block_invoke_3
PUBLIC 6d660 0 QCoreSchedulingSet::~QCoreSchedulingSet()
PUBLIC 6d67e 0 QCoreSchedulingSet::~QCoreSchedulingSet()
PUBLIC 6d6e2 0 URLConnectionClient::invalidateAsync(dispatch_queue_s*, void () block_pointer)
PUBLIC 6d759 0 ___ZN19URLConnectionClient15invalidateAsyncEP16dispatch_queue_sU13block_pointerFvvE_block_invoke
PUBLIC 6d80a 0 URLConnection::~URLConnection()
PUBLIC 6d82b 0 _visitBlock(void const*, void const*, void*)
PUBLIC 6d846 0 ___ZN20ExternalStorageCache18timeoutCacheLockedEd_block_invoke
PUBLIC 6d876 0 createNewMutableDict(__CFAllocator const*, CFDictionaryKeyCallBacks const*)::RetainableCallbacks::_release(__CFAllocator const*, void const*)
PUBLIC 6d884 0 non-virtual thunk to ExternallyCachedCookieArray::retainableRelease()
PUBLIC 6d89c 0 CStringKeyCallbacks::_release(__CFAllocator const*, void const*)
PUBLIC 6d8a6 0 -[NSURLRequest _setProperty:forKey:]
PUBLIC 6d8cc 0 +[NSURLSessionConfiguration ephemeralSessionConfiguration]
PUBLIC 6db1a 0 -[__NSCFMemoryHTTPCookieStorage init]
PUBLIC 6db7a 0 _CFHTTPCookieStorageCreateInMemory
PUBLIC 6db84 0 -[__NSCFMemoryURLCredentialStorage init]
PUBLIC 6dc48 0 -[__NSCFURLSessionConfiguration setURLCredentialStorage:]
PUBLIC 6dc72 0 -[__NSCFURLSessionConfiguration set_phskip_credStorage:]
PUBLIC 6dc84 0 -[__NSCFURLSessionConfiguration _phskip_credStorage]
PUBLIC 6dc9a 0 -[NSURLSession dataTaskWithRequest:]
PUBLIC 6dcae 0 +[NSURLSessionTaskHTTPAuthenticator sessionTaskHTTPAuthenticatorWithContext:statusCodes:]
PUBLIC 6dd39 0 -[NSURLSessionTaskLocalHTTPAuthenticator initWithSessionAuthenticator:statusCodes:]
PUBLIC 6ddaf 0 -[NSURLSessionTaskHTTPAuthenticator initWithStatusCodes:]
PUBLIC 6de05 0 -[NSURLSessionTaskHTTPAuthenticator setStatusCodes:]
PUBLIC 6de16 0 -[NSURLSessionTaskLocalHTTPAuthenticator setExternalAuthenticator:]
PUBLIC 6de27 0 -[__NSCFURLSessionTask setAuthenticator:]
PUBLIC 6de38 0 -[NSURLSessionTaskHTTPAuthenticator copyWithZone:]
PUBLIC 6de4a 0 -[NSURLRequest(NSHTTPURLRequest) valueForHTTPHeaderField:]
PUBLIC 6de7e 0 -[__NSCFURLSessionTask setTaskDescription:]
PUBLIC 6de8f 0 -[NSURLSessionTaskHTTPAuthenticator statusCodes]
PUBLIC 6dea5 0 -[__NSCFURLSessionTask _getAuthenticationHeadersForResponse:completionHandler:]
PUBLIC 6df85 0 __79-[__NSCFURLSessionTask _getAuthenticationHeadersForResponse:completionHandler:]_block_invoke
PUBLIC 6e01a 0 -[NSURLSessionTaskLocalHTTPAuthenticator getAuthenticationHeadersForTask:task:response:completionHandler:]
PUBLIC 6e0eb 0 __106-[NSURLSessionTaskLocalHTTPAuthenticator getAuthenticationHeadersForTask:task:response:completionHandler:]_block_invoke
PUBLIC 6e16c 0 -[NSURLSessionTaskLocalHTTPAuthenticator externalAuthenticator]
PUBLIC 6e183 0 -[__NSCFURLSessionTask originalRequest]
PUBLIC 6e199 0 __106-[NSURLSessionTaskLocalHTTPAuthenticator getAuthenticationHeadersForTask:task:response:completionHandler:]_block_invoke_2
PUBLIC 6e1a8 0 __79-[__NSCFURLSessionTask _getAuthenticationHeadersForResponse:completionHandler:]_block_invoke_2
PUBLIC 6e1be 0 ___ZN12HTTPProtocol48asynchronouslyAddAuthenticatorHeadersAndContinueEP15__CFHTTPMessage_block_invoke
PUBLIC 6e320 0 ___ZN12HTTPProtocol48asynchronouslyAddAuthenticatorHeadersAndContinueEP15__CFHTTPMessage_block_invoke_2
PUBLIC 6e384 0 std::__1::__shared_ptr_pointer<HTTPProtocol*, Deleter_release<HTTPProtocol>, std::__1::allocator<HTTPProtocol> >::__on_zero_shared()
PUBLIC 6e3a0 0 std::__1::__shared_ptr_pointer<HTTPProtocol*, Deleter_release<HTTPProtocol>, std::__1::allocator<HTTPProtocol> >::__on_zero_shared_weak()
PUBLIC 6e3ad 0 ___ZN12HTTPProtocol31copyProtocolPropertiesForStreamEv_block_invoke
PUBLIC 6e3bb 0 -[NSURLSession delegate_didReceiveChallenge:completionHandler:]
PUBLIC 6e436 0 __63-[NSURLSession delegate_didReceiveChallenge:completionHandler:]_block_invoke
PUBLIC 6e480 0 getkAOSAuthTrustInfoKey
PUBLIC 6e51a 0 AOSAccountCreate
PUBLIC 6e5da 0 AOSAccountCopyAuthInfo
PUBLIC 6e698 0 getkAOSMMeAuthTokenKey
PUBLIC 6e732 0 getkAOSPersonIDKey
PUBLIC 6e7cc 0 HTTPProtocol::setXMMeAuthTokenPreviouslyAttempted(__CFString const*)
PUBLIC 6e808 0 AuthStringUtils::_CFEncodeBase64(__CFAllocator const*, __CFData const*)
PUBLIC 6e8a8 0 cuEnc64
PUBLIC 6e8ba 0 cuEnc64WithLines
PUBLIC 6e9fa 0 encChunk
PUBLIC 6ea7a 0 SocketStream::doesTrustEvaluateStrictly()
PUBLIC 6eb58 0 CFNetworkTrust::setupKeychainForEvaluation()
PUBLIC 6eb98 0 SHTTPConnectionCache::SHTTPConnectionCache(__CFAllocator const*, HTTPConnectionCacheLimits const&)
PUBLIC 6eba2 0 SHTTPConnectionCache::SHTTPConnectionCache(__CFAllocator const*, HTTPConnectionCacheLimits const&)
PUBLIC 6ebfe 0 SHTTPConnectionCache::initWithSchedulingSet(CoreSchedulingSet const*, STubeManager*)
PUBLIC 6ec40 0 SHTTPConnectionCache::enableTimer()
PUBLIC 6ed56 0 SHTTPConnectionCache::ingestTube(STube*)
PUBLIC 6ed60 0 SHTTPConnectionCache::_onqueue_ingestTube(STube*)
PUBLIC 6edfc 0 SHTTPConnectionCache::ensureEntries()
PUBLIC 6ee84 0 SHTTPConnectionCache::createEmptyCacheEntry(HTTPConnectionCacheKey const*)
PUBLIC 6ef06 0 SHTTPConnectionCacheEntry::SHTTPConnectionCacheEntry(__CFAllocator const*, HTTPConnectionCacheLimits const&, CoreSchedulingSet const*, unsigned char)
PUBLIC 6ef10 0 SHTTPConnectionCacheEntry::SHTTPConnectionCacheEntry(__CFAllocator const*, HTTPConnectionCacheLimits const&, CoreSchedulingSet const*, unsigned char)
PUBLIC 6efe2 0 SHTTPConnectionCacheEntry::initialize()
PUBLIC 6f122 0 SHTTPConnectionCacheEntry::ingestTube(STube*)
PUBLIC 6f682 0 SHTTPConnectionCacheEntry::ingestTubeUnauth(STube*)
PUBLIC 6f730 0 HTTPNetConnection_NoAuth::HTTPNetConnection_NoAuth(__CFAllocator const*, HTTPConnectionCacheKey*)
PUBLIC 6f774 0 HTTPNetConnection::HTTPNetConnection(__CFAllocator const*, HTTPConnectionCacheKey*)
PUBLIC 6f808 0 HTTPNetConnection::useTubeForInit(STube*)
PUBLIC 6f81e 0 NetConnection::initialize(unsigned char)
PUBLIC 6f906 0 HTTPNetConnection::createStreams(__CoreWriteStream**, __CoreReadStream**)
PUBLIC 6fd02 0 HTTPConnectionCacheKey::getHost()
PUBLIC 6fd6e 0 __CoreWriteStreamCreateHTTPStreamWithConnInfo(__CFAllocator const*, __CFHTTPMessage*, unsigned char, __CFWriteStream*, HTTPNetConnection*)
PUBLIC 6fdfe 0 CoreWriteStream::Class()
PUBLIC 6fe2a 0 ___ZN15CoreWriteStream5ClassEv_block_invoke
PUBLIC 6fe5a 0 HTTPWriteFilter::HTTPWriteFilter(__CFAllocator const*, __CFWriteStream*, unsigned char, HTTPNetConnection*)
PUBLIC 6fe64 0 HTTPWriteFilter::HTTPWriteFilter(__CFAllocator const*, __CFWriteStream*, unsigned char, HTTPNetConnection*)
PUBLIC 6ff64 0 CoreWriteStream::CoreWriteStream(char const*)
PUBLIC 6ffde 0 CoreStreamBase::CoreStreamBase(char const*, CoreStreamImplementation*)
PUBLIC 7001a 0 CoreStreamImplementation::CoreStreamImplementation()
PUBLIC 7002a 0 HTTPFilter::HTTPFilter(HTTPNetConnection*)
PUBLIC 70056 0 CoreStreamBase::_streamInterface_SetProperty(__CFString const*, void const*)
PUBLIC 7007c 0 non-virtual thunk to HTTPWriteFilter::_streamImpl_SetProperty(__CFString const*, void const*)
PUBLIC 7008a 0 HTTPWriteFilter::_streamImpl_SetProperty(__CFString const*, void const*)
PUBLIC 7052a 0 __CoreReadStreamCreateHTTPStreamWithConnInfo(__CFAllocator const*, __CFReadStream*, unsigned char, HTTPNetConnection*)
PUBLIC 70582 0 CoreReadStream::Class()
PUBLIC 705ae 0 ___ZN14CoreReadStream5ClassEv_block_invoke
PUBLIC 705de 0 HTTPReadFilter::HTTPReadFilter(__CFReadStream*, unsigned char, HTTPNetConnection*)
PUBLIC 705e8 0 HTTPReadFilter::HTTPReadFilter(__CFReadStream*, unsigned char, HTTPNetConnection*)
PUBLIC 706dc 0 CoreReadStream::CoreReadStream(char const*)
PUBLIC 70756 0 non-virtual thunk to HTTPReadFilter::_streamImpl_SetProperty(__CFString const*, void const*)
PUBLIC 70764 0 HTTPReadFilter::_streamImpl_SetProperty(__CFString const*, void const*)
PUBLIC 70a9e 0 WriteStreamCallbacks::_setProperty(__CFWriteStream*, __CFString const*, void const*, void*)
PUBLIC 70ac8 0 NetConnection::setClient(unsigned char)
PUBLIC 70bda 0 CoreWriteStream::setClient(unsigned long, void (*)(__CoreWriteStream*, unsigned long, void*), CFStreamClientContext const*)
PUBLIC 70ca0 0 ClassicStreamClient::ClassicStreamClient(__CFAllocator const*, CFStreamClientContext const*)
PUBLIC 70d00 0 NetConnection::_retainFilter(void*)
PUBLIC 70d1c 0 CoreStreamClient::CoreStreamClient()
PUBLIC 70d2e 0 CoreStreamBase::streamSetClient(unsigned long, CoreStreamClient*)
PUBLIC 70d96 0 non-virtual thunk to ClassicWriteClient::coreStreamClientRetain()
PUBLIC 70db4 0 non-virtual thunk to CoreWriteStreamBase::_streamImpl_RequestEvents(unsigned long)
PUBLIC 70dba 0 non-virtual thunk to ClassicWriteClient::coreStreamClientRelease()
PUBLIC 70dca 0 CoreReadStream::setClient(unsigned long, void (*)(__CoreReadStream*, unsigned long, void*), CFStreamClientContext const*)
PUBLIC 70e90 0 non-virtual thunk to ClassicReadClient::coreStreamClientRetain()
PUBLIC 70eae 0 non-virtual thunk to CoreReadStreamBase::_streamImpl_RequestEvents(unsigned long)
PUBLIC 70eb4 0 non-virtual thunk to ClassicReadClient::coreStreamClientRelease()
PUBLIC 70ec4 0 NetConnection::setConnectionClient(NetConnection::ClientInfo*)
PUBLIC 70f5e 0 SHTTPConnectionCacheEntry::retainCacheEntry(void const*)
PUBLIC 70f84 0 SHTTPConnectionCacheEnqueuedRequestInfo::getAuthSchemeStringFromChallenge(unsigned char)
PUBLIC 70fca 0 SHTTPConnectionCacheEntry::dispatchConnectionToProtocol(HTTPNetConnection*, SHTTPConnectionCacheEnqueuedRequestInfo*, unsigned char)
PUBLIC 71120 0 NetConnection::setShouldSkipPipelineProbe(unsigned char)
PUBLIC 71140 0 NetConnection::setShouldPipeline(unsigned char)
PUBLIC 711d0 0 CFNetworkReadStream::ConstructCFStream(__CFAllocator const*, CFNetworkReadStream* (__CFReadStream*) block_pointer)
PUBLIC 711e8 0 CFNetworkReadStream::_createStream(__CFReadStream*, void*)
PUBLIC 711fc 0 HTTPNetStreamInfo::HTTPNetStreamInfo(__CFReadStream*, __CFHTTPMessage*, HTTPNetConnection*)
PUBLIC 71206 0 HTTPNetStreamInfo::HTTPNetStreamInfo(__CFReadStream*, __CFHTTPMessage*, HTTPNetConnection*)
PUBLIC 712e8 0 CFNetworkReadStream::CFNetworkReadStream(__CFReadStream*, char const*)
PUBLIC 712fc 0 HTTPNetStreamInfo::setProtocol(MetaConnectionCacheClient*)
PUBLIC 7133c 0 HTTPProtocol::getCurrentBodyStream()
PUBLIC 7134a 0 CFReadStreamCreateWithFormArray
PUBLIC 71361 0 formCreate(__CFReadStream*, void*)
PUBLIC 713de 0 HTTPProtocol::setCurrentBodyStream(__CFReadStream*)
PUBLIC 7147a 0 non-virtual thunk to HTTPNetStreamInfo::_meta_retain()
PUBLIC 7148e 0 HTTPNetStreamInfo::retain() const
PUBLIC 7149c 0 non-virtual thunk to HTTPNetStreamInfo::setBodyStreamBeforeOpening(__CFReadStream*)
PUBLIC 714aa 0 HTTPNetStreamInfo::setBodyStreamBeforeOpening(__CFReadStream*)
PUBLIC 71562 0 non-virtual thunk to HTTPNetStreamInfo::copyProperty(MetaNetStreamInfo::ApplicableProperties)
PUBLIC 71584 0 CFNetworkReadStream::httpStreamCopyProperty(__CFReadStream*, __CFString const*, void*)
PUBLIC 715a2 0 HTTPNetStreamInfo::_streamImpl_CopyProperty(__CFReadStream*, __CFString const*)
PUBLIC 717dc 0 HTTPNetStreamInfo::copyConnectionProperty(__CFString const*) const
PUBLIC 718bc 0 CoreStreamBase::_streamInterface_CopyProperty(__CFString const*) const
PUBLIC 718de 0 non-virtual thunk to HTTPReadFilter::_streamImpl_CopyProperty(__CFString const*) const
PUBLIC 718ec 0 HTTPReadFilter::_streamImpl_CopyProperty(__CFString const*) const
PUBLIC 71a1e 0 non-virtual thunk to HTTPNetStreamInfo::setProperty(MetaNetStreamInfo::ApplicableProperties, void const*)
PUBLIC 71a46 0 CFNetworkReadStream::httpStreamSetProperty(__CFReadStream*, __CFString const*, void const*, void*)
PUBLIC 71a64 0 HTTPNetStreamInfo::_streamImpl_SetProperty(__CFReadStream*, __CFString const*, void const*)
PUBLIC 71e52 0 non-virtual thunk to HTTPNetStreamInfo::setPriorityHint(float)
PUBLIC 71e58 0 non-virtual thunk to HTTPNetStreamInfo::canScheduleAndOpenWithHandlerAsync()
PUBLIC 71e60 0 CFNetworkReadStream::selfStreamClient()
PUBLIC 71e96 0 CFNetworkReadStream::selfStreamCallBack()
PUBLIC 71ea5 0 _CFNetworkReadStream_retain(void*)
PUBLIC 71ec2 0 HTTPNetStreamInfo::updateScheduling(CoreSchedulingSet const*)
PUBLIC 71f68 0 CoreSchedulingSet::unscheduleStream(__CFReadStream*) const
PUBLIC 71fd8 0 CoreSchedulingSet::scheduleStream(__CFReadStream*) const
PUBLIC 71ff0 0 CFNetworkReadStream::httpStreamSchedule(__CFReadStream*, __CFRunLoop*, __CFString const*, void*)
PUBLIC 7200e 0 HTTPNetStreamInfo::_streamImpl_deprecated_Schedule(__CFReadStream*, __CFRunLoop*, __CFString const*)
PUBLIC 720be 0 RunLoopSchedulingSet::copyWithAdditionReleaseSelf(__CFRunLoop*, __CFString const*) const
PUBLIC 72114 0 NetConnection::schedule(void*, __CFRunLoop*, __CFString const*)
PUBLIC 721da 0 formSchedule(__CFReadStream*, __CFRunLoop*, __CFString const*, void*)
PUBLIC 7221e 0 EmptyCoreSchedulingSet::copyWithAdditionReleaseSelf(__CFRunLoop*, __CFString const*) const
PUBLIC 7222e 0 CFNetworkReadStream::httpStreamOpen(__CFReadStream*, CFStreamError*, unsigned char*, void*)
PUBLIC 7224c 0 HTTPNetStreamInfo::_streamImpl_Open(__CFReadStream*, CFStreamError*, unsigned char*)
PUBLIC 7230e 0 NetConnection::enqueue(void*, unsigned char)
PUBLIC 7266e 0 HTTPNetConnection::requestStateChanged(void*, NetConnection::State, CFStreamError*)
PUBLIC 72924 0 NetConnection::scheduleNewRequest(_CFNetRequest*, _CFNetRequest*, unsigned char)
PUBLIC 72a58 0 HTTPNetConnection::copySchedulingSetForRequest(void*)
PUBLIC 72a78 0 NetConnection::rescheduleStream(__CoreWriteStream*, CoreSchedulingSet const*)
PUBLIC 72ae0 0 CoreStreamBase::_streamInterface_UpdateScheduling(CoreSchedulingSet const*)
PUBLIC 72c31 0 ___ZN14CoreStreamBase33_streamInterface_UpdateSchedulingEPK17CoreSchedulingSet_block_invoke
PUBLIC 72caa 0 CoreStreamBase::copySchedulingSet() const
PUBLIC 72cf8 0 CoreStreamBase::setSchedulingSet(CoreSchedulingSet const*)
PUBLIC 72d50 0 CoreStreamImplementation::_streamImpl_UpdateScheduling(CoreSchedulingSet const*, CoreSchedulingSet const*)
PUBLIC 72dec 0 ___ZN24CoreStreamImplementation28_streamImpl_UpdateSchedulingEPK17CoreSchedulingSetS2__block_invoke_2
PUBLIC 72e02 0 non-virtual thunk to HTTPWriteFilter::_streamImpl_deprecated_Schedule(__CFRunLoop*, __CFString const*)
PUBLIC 72e10 0 HTTPWriteFilter::_streamImpl_deprecated_Schedule(__CFRunLoop*, __CFString const*)
PUBLIC 72e5a 0 NetConnection::openConnectionStreams()
PUBLIC 72eaa 0 CoreStreamBase::_streamInterface_Open()
PUBLIC 72f60 0 non-virtual thunk to HTTPWriteFilter::_streamImpl_Open(CFStreamError*, unsigned char*)
PUBLIC 72f6e 0 HTTPWriteFilter::_streamImpl_Open(CFStreamError*, unsigned char*)
PUBLIC 7306e 0 CoreStreamBase::_streamSetEventAndScheduleDelivery(unsigned long, unsigned char)
PUBLIC 731e0 0 non-virtual thunk to HTTPReadFilter::_streamImpl_Open(CFStreamError*, unsigned char*)
PUBLIC 731ee 0 HTTPReadFilter::_streamImpl_Open(CFStreamError*, unsigned char*)
PUBLIC 73322 0 HTTPNetConnection::prepareTransmission(HTTPNetStreamInfo*, __CoreWriteStream*, __CoreReadStream*)
PUBLIC 73992 0 non-virtual thunk to HTTPWriteFilter::_streamImpl_CopyProperty(__CFString const*) const
PUBLIC 739a0 0 HTTPWriteFilter::_streamImpl_CopyProperty(__CFString const*) const
PUBLIC 73b2e 0 HTTPNetConnection_NoAuth::applyAnyCredentials(HTTPNetStreamInfo*, unsigned char)
PUBLIC 73c02 0 HTTPWriteFilter::setNewHeaderProperty(__CFHTTPMessage*)
PUBLIC 73e54 0 HTTPWriteFilter::transmitHeader(unsigned char)
PUBLIC 747ce 0 HTTPFilter::expectedSizeFromHeaders(__CFHTTPMessage*)
PUBLIC 74978 0 CFHTTPMessageIsRequest
PUBLIC 749a1 0 _CFHTTPAuthenticationIsFirstNTLMTransaction(_CFHTTPAuthentication*, void*)
PUBLIC 749d8 0 HTTPMessage::copySerializedHeaders(unsigned char)
PUBLIC 74b22 0 HTTPRequestMessage::firstLineForSerialization(unsigned char)
PUBLIC 74d32 0 StringSerializable::maximumSerializedLength() const
PUBLIC 74d56 0 StringSerializable::serialize(unsigned char*) const
PUBLIC 74e84 0 HTTPHeaderDict::sizeHeaders() const
PUBLIC 74f08 0 ___ZNK14HTTPHeaderDict11sizeHeadersEv_block_invoke
PUBLIC 74f98 0 HTTPHeaderDict::Buffer::Buffer(__CFAllocator const*, long)
PUBLIC 74fda 0 HTTPHeaderDict::serializeHeaders(HTTPHeaderDict::Buffer*) const
PUBLIC 7502c 0 ___ZNK14HTTPHeaderDict16serializeHeadersEPNS_6BufferE_block_invoke
PUBLIC 750b2 0 HTTPHeaderDict::Buffer::addString(__CFString const*)
PUBLIC 7510e 0 HTTPNetConnection::sentBytes(unsigned long)
PUBLIC 75174 0 CoreStreamBase::_streamInterface_CanWrite()
PUBLIC 751ae 0 CoreStreamBase::_streamInterface_GetStatus()
PUBLIC 75240 0 non-virtual thunk to HTTPWriteFilter::_streamImpl_CanWrite()
PUBLIC 7524e 0 HTTPWriteFilter::socketStreamCanWrite()
PUBLIC 753e8 0 CoreStreamBase::_streamInterface_SignalEventDelayed(unsigned long, CFStreamError const*)
PUBLIC 7540a 0 CoreStreamBase::_signalEvent(unsigned long, CFStreamError, unsigned char)
PUBLIC 7553c 0 SHTTPConnectionCacheEnqueuedRequestInfo::~SHTTPConnectionCacheEnqueuedRequestInfo()
PUBLIC 75558 0 SHTTPConnectionCacheEnqueuedRequestInfo::~SHTTPConnectionCacheEnqueuedRequestInfo()
PUBLIC 755d7 0 ___ZN14CoreStreamBase34_streamSetEventAndScheduleDeliveryEmh_block_invoke
PUBLIC 75610 0 CoreStreamBase::_callClientNow(CoreStreamClient*)
PUBLIC 75658 0 non-virtual thunk to ClassicWriteClient::coreStreamEventsAvailable(unsigned long)
PUBLIC 75666 0 ClassicWriteClient::coreStreamEventsAvailable(unsigned long)
PUBLIC 756be 0 ClassicWriteClient::coreStreamWriteEvent(__CoreWriteStream*, unsigned long)
PUBLIC 756f0 0 ClassicStreamClient::clientInfoPtr() const
PUBLIC 756fa 0 NetConnection::_connectionRequestCallBack(__CoreWriteStream*, unsigned long, void*)
PUBLIC 75714 0 NetConnection::connectionRequest(__CoreWriteStream*, unsigned long)
PUBLIC 757ca 0 HTTPNetConnection::requestStreamCallback(void*, __CoreWriteStream*, unsigned long)
PUBLIC 758a0 0 HTTPNetConnection::transmitRequest(HTTPNetStreamInfo*, __CoreWriteStream*, CFStreamError*, unsigned char)
PUBLIC 76050 0 formOpen(__CFReadStream*, __CFError**, unsigned char*, void*)
PUBLIC 76080 0 openNextStream(FormStreamFields*)
PUBLIC 760aa 0 advanceCurrentStream(FormStreamFields*)
PUBLIC 7621c 0 closeCurrentStream(FormStreamFields*)
PUBLIC 76270 0 HTTPNetConnection::infoPointer()
PUBLIC 7627b 0 formCanRead(__CFReadStream*, __CFError**, void*)
PUBLIC 762db 0 formRead(__CFReadStream*, unsigned char*, long, __CFError**, unsigned char*, void*)
PUBLIC 7637c 0 CoreStreamBase::_streamInterface_Write(unsigned char const*, long)
PUBLIC 76474 0 non-virtual thunk to HTTPWriteFilter::_streamImpl_Write(unsigned char const*, long, CFStreamError*)
PUBLIC 76482 0 HTTPWriteFilter::_streamImpl_Write(unsigned char const*, long, CFStreamError*)
PUBLIC 76646 0 SHTTPConnectionCacheEntry::connectionActivity(NetConnection*, void*)
PUBLIC 76654 0 SHTTPConnectionCacheEntry::connectionActivity(HTTPNetConnection*)
PUBLIC 766c6 0 HTTPNetStreamInfo::uploadActivityOccurred(long, long)
PUBLIC 766e2 0 HTTPNetStreamInfo::_httpRequestPayloadCallBack(__CFReadStream*, unsigned long, void*)
PUBLIC 767f6 0 HTTPNetStreamInfo::closeRequestResources()
PUBLIC 768ac 0 formClose(__CFReadStream*, void*)
PUBLIC 768ba 0 NetConnection::requestIsComplete(void*)
PUBLIC 76a5a 0 SHTTPConnectionCacheEntry::connectionCompletedRequest(NetConnection*, void*)
PUBLIC 76a6e 0 SHTTPConnectionCacheEntry::connectionCompletedRequest(HTTPNetConnection*)
PUBLIC 76ab2 0 HTTPNetConnection::concludeTransmission(HTTPNetStreamInfo*, __CoreWriteStream*)
PUBLIC 76b34 0 _CFHTTPWriteStreamWriteMark(__CoreWriteStream*)
PUBLIC 76b5e 0 HTTPWriteFilter::writeMark()
PUBLIC 76bf8 0 HTTPWriteFilter::_streamImpl_CanWrite()
PUBLIC 76c02 0 NetConnection::scheduleNewResponse(_CFNetRequest*, _CFNetRequest*)
PUBLIC 76d24 0 -[NSURLSession delegate_task:didSendBodyData:totalBytesSent:totalBytesExpectedToSend:]
PUBLIC 76dc0 0 non-virtual thunk to HTTPReadFilter::_streamImpl_deprecated_Schedule(__CFRunLoop*, __CFString const*)
PUBLIC 76dce 0 HTTPReadFilter::_streamImpl_deprecated_Schedule(__CFRunLoop*, __CFString const*)
PUBLIC 76e22 0 HTTPNetStreamInfo::startStallTimer()
PUBLIC 76efe 0 __86-[NSURLSession delegate_task:didSendBodyData:totalBytesSent:totalBytesExpectedToSend:]_block_invoke
PUBLIC 76f38 0 HTTPNetConnection::prepareReception(HTTPNetStreamInfo*, __CoreReadStream*)
PUBLIC 77088 0 _CFHTTPReadStreamReadMark(__CoreReadStream*)
PUBLIC 770b2 0 HTTPReadFilter::readMark()
PUBLIC 7733e 0 HTTPReadFilter::canReadNoSignal(StreamReader*, CFStreamError*, unsigned char)
PUBLIC 774e8 0 HTTPReadFilter::readHeaderBytes(StreamReader*, unsigned char, unsigned char*, long, CFStreamError*)
PUBLIC 77d26 0 CFHTTPMessageIsHeaderComplete
PUBLIC 77d52 0 CoreStreamBase::_streamInterface_ClearEvent(unsigned long)
PUBLIC 77d60 0 CoreStreamBase::_streamInterface_CanRead()
PUBLIC 77d98 0 non-virtual thunk to HTTPReadFilter::_streamImpl_CanRead()
PUBLIC 77da6 0 HTTPReadFilter::_streamImpl_CanRead()
PUBLIC 77ea4 0 _CFHTTPReadStreamIsAtMark(__CoreReadStream*)
PUBLIC 77ef6 0 HTTPNetStreamInfo::release() const
PUBLIC 77f04 0 HTTPWriteFilter::_httpWrFilterSocketStreamCallBack(__CFWriteStream*, unsigned long, void*)
PUBLIC 77f42 0 HTTPWriteFilter::socketStreamFilterCallback(__CFWriteStream*, unsigned long)
PUBLIC 780ee 0 HTTPReadFilter::_httpRdFilterStreamCallBack(__CFReadStream*, unsigned long, void*)
PUBLIC 78174 0 HTTPReadFilter::socketReadStreamCallback(unsigned long)
PUBLIC 784da 0 HTTPHeaderValue::isValid(unsigned char const*, long)
PUBLIC 78558 0 HTTPHeaderKeyMixedValue::HTTPHeaderKeyMixedValue(unsigned char const*, long)
PUBLIC 785fa 0 non-virtual thunk to HTTPResponseMessage::parserAddHeader(HTTPHeaderKeyMixedValue const&, HTTPHeaderValueMixedValue const&)
PUBLIC 78608 0 HTTPResponseMessage::parserAddHeader(HTTPHeaderKeyMixedValue const&, HTTPHeaderValueMixedValue const&)
PUBLIC 78768 0 HTTPMessage::parserAddHeader(HTTPHeaderKeyMixedValue const&, HTTPHeaderValueMixedValue const&)
PUBLIC 7878c 0 HTTPMessage::captureBodyFromMessageAndSetMessageBodyToNull()
PUBLIC 787ae 0 HTTPBodyData::captureData()
PUBLIC 78800 0 HTTPReadFilter::readChunkedHeader(StreamReader*, unsigned char, unsigned char*, long, CFStreamError*)
PUBLIC 78ca2 0 HTTPReadFilter::setFilterForChunkedHeaderBytes(unsigned char const*, long, long*, CFStreamError*)
PUBLIC 78d63 0 parseChunkedHeader(unsigned char const*, long, unsigned char, long*)
PUBLIC 7900e 0 HTTPReadFilter::setDataForRange(CFRange)
PUBLIC 790dc 0 HTTPNetConnection::receivedBytes(unsigned long)
PUBLIC 79142 0 CoreStreamBase::_streamInterface_SignalEvent(unsigned long, CFStreamError const*)
PUBLIC 79166 0 CoreReadStreamClient::coreStreamEventsAvailable(unsigned long)
PUBLIC 791be 0 non-virtual thunk to ClassicReadClient::coreStreamReadEvent(__CoreReadStream*, unsigned long)
PUBLIC 791f4 0 NetConnection::_connectionResponseCallBack(__CoreReadStream*, unsigned long, void*)
PUBLIC 7920e 0 NetConnection::connectionResponse(__CoreReadStream*, unsigned long)
PUBLIC 792cc 0 HTTPNetConnection::responseStreamCallback(void*, __CoreReadStream*, unsigned long)
PUBLIC 7960e 0 HTTPNetStreamInfo::stopStallTimer()
PUBLIC 79646 0 HTTPNetConnection::handleReadEventsDuringRequestBodyTransmission(void*, unsigned long)
PUBLIC 79950 0 HTTPNetConnection::updateForHeaders(HTTPNetStreamInfo*, __CoreReadStream*)
PUBLIC 79b9e 0 canKeepAlive(__CFHTTPMessage*, __CFHTTPMessage*)
PUBLIC 79d68 0 HTTPNetConnection::updateAuth(HTTPNetStreamInfo*, __CFHTTPMessage*)
PUBLIC 79f48 0 HTTPNetConnection_NoAuth::updateAuthForReal(HTTPNetStreamInfo*, __CFHTTPMessage*)
PUBLIC 79ffc 0 CFNetworkReadStream::_readStreamClientCallBackCallBack(__CFReadStream*, unsigned long, void*)
PUBLIC 7a060 0 HTTPNetStreamInfo::_readStreamClientCallBack(__CFReadStream*, unsigned long)
PUBLIC 7a1f4 0 HTTPNetStreamInfo::copyProperty(MetaNetStreamInfo::ApplicableProperties)
PUBLIC 7a216 0 CFNetworkReadStream::httpStreamRead(__CFReadStream*, unsigned char*, long, CFStreamError*, unsigned char*, void*)
PUBLIC 7a242 0 HTTPNetStreamInfo::_streamImpl_Read(__CFReadStream*, unsigned char*, long, CFStreamError*, unsigned char*)
PUBLIC 7a44e 0 CoreStreamBase::_streamInterface_Read(unsigned char*, long)
PUBLIC 7a55a 0 non-virtual thunk to HTTPReadFilter::_streamImpl_Read(unsigned char*, long, CFStreamError*, unsigned char*)
PUBLIC 7a568 0 HTTPReadFilter::_streamImpl_Read(unsigned char*, long, CFStreamError*, unsigned char*)
PUBLIC 7a8a8 0 HTTPReadFilter::doChunkedRead(StreamReader*, unsigned char*, long, CFStreamError*, unsigned char*)
PUBLIC 7ab10 0 HTTPReadFilter::setDataForBytes(unsigned char const*, long)
PUBLIC 7ab84 0 HTTPReadFilter::readChunkedTrailers(StreamReader*, CFStreamError*)
PUBLIC 7adbc 0 HTTPNetStreamInfo::sendStreamIsComplete()
PUBLIC 7afee 0 NetConnection::responseIsComplete(void*)
PUBLIC 7b0ea 0 NetConnection::scheduleNonPipelinedTransition(_CFNetRequest*, _CFNetRequest*)
PUBLIC 7b24e 0 EmptyCoreSchedulingSet::createCopy() const
PUBLIC 7b269 0 ___ZN24CoreStreamImplementation28_streamImpl_UpdateSchedulingEPK17CoreSchedulingSetS2__block_invoke
PUBLIC 7b27e 0 non-virtual thunk to HTTPWriteFilter::_streamImpl_deprecated_Unschedule(__CFRunLoop*, __CFString const*)
PUBLIC 7b28c 0 HTTPWriteFilter::_streamImpl_deprecated_Unschedule(__CFRunLoop*, __CFString const*)
PUBLIC 7b2d6 0 non-virtual thunk to HTTPReadFilter::_streamImpl_deprecated_Unschedule(__CFRunLoop*, __CFString const*)
PUBLIC 7b2e4 0 HTTPReadFilter::_streamImpl_deprecated_Unschedule(__CFRunLoop*, __CFString const*)
PUBLIC 7b338 0 ReadStreamCallbacks::_unschedule(__CFReadStream*, __CFRunLoop*, __CFString const*, void*)
PUBLIC 7b364 0 HTTPNetConnection::concludeReception(HTTPNetStreamInfo*, __CoreReadStream*)
PUBLIC 7b3b4 0 SHTTPConnectionCacheEntry::connectionCompletedResponse(NetConnection*, void*)
PUBLIC 7b3c8 0 SHTTPConnectionCacheEntry::connectionCompletedResponse(HTTPNetConnection*)
PUBLIC 7b434 0 _isSocketOpenOnNetConnection(HTTPNetConnection*)
PUBLIC 7b63c 0 SHTTPConnectionCacheEntry::notifyNextProtocolOfOpenConnection(HTTPNetConnection*, unsigned char)
PUBLIC 7b90a 0 HTTPNetConnection_NoAuth::isConnectionWithAuth()
PUBLIC 7b912 0 NetConnection::hasPendingResponses()
PUBLIC 7b963 0 ___ZN12HTTPProtocol10openStreamEv_block_invoke_2
PUBLIC 7b972 0 WriteStreamCallbacks::_copyProperty(__CFWriteStream*, __CFString const*, void*)
PUBLIC 7b99e 0 HTTPProtocol::shouldHandleHTTPStatusCodeExternally(long)
PUBLIC 7ba1e 0 HTTPProtocol::handleSTSHeader(__CFHTTPMessage*, __CFString const*)
PUBLIC 7baf6 0 determineHTTPEncodingFromString
PUBLIC 7bd21 0 createCanonicalHTTPEncodingFromString(__CFString const*)
PUBLIC 7c043 0 CFURLResponseSetExpectedContentLength
PUBLIC 7c0a6 0 ___ZN12HTTPProtocol14bytesAvailableEP15dispatch_data_s_block_invoke
PUBLIC 7c27e 0 HTTPProtocol::decodedDecoding(unsigned char, unsigned char const*, long)
PUBLIC 7c44c 0 CFURLDataDecoderCreateWithContentEncoding(__CFAllocator const*, unsigned char)
PUBLIC 7c624 0 ___ZN20URLDataDecoderHolder5ClassEv_block_invoke
PUBLIC 7c654 0 GZipDataDecoder::GZipDataDecoder()
PUBLIC 7c6d0 0 GZIPDataDecoderHolder::decoder()
PUBLIC 7c6da 0 GZipDataDecoder::isInitialized()
PUBLIC 7c6e5 0 CFURLDataDecoderDecodeData
PUBLIC 7c766 0 GZipDataDecoder::decodeData(__CFAllocator const*, __CFData const*, unsigned char*)
PUBLIC 7c7e4 0 gzipDecodeHeader(__CFData const*, int*, __CFAllocator const*, __CFString const**, unsigned long long*, unsigned char*)
PUBLIC 7c9af 0 _CFNetworkReadStream_release(void*)
PUBLIC 7c9bd 0 CFURLDataDecoderIsFinishedDecoding
PUBLIC 7ca08 0 DataDecoder::isFinishedDecoding()
PUBLIC 7ca16 0 SocketStream::setNotificationProperty(unsigned char, __CFString const*, void const*)
PUBLIC 7cb20 0 non-virtual thunk to HTTPNetStreamInfo::closeAndClearHandler()
PUBLIC 7cb2e 0 HTTPNetStreamInfo::closeAndClearHandler()
PUBLIC 7cb90 0 CFNetworkReadStream::httpStreamClose(__CFReadStream*, void*)
PUBLIC 7cba8 0 HTTPNetStreamInfo::_streamImpl_Close(__CFReadStream*)
PUBLIC 7cbb4 0 -[__NSCFURLLocalSessionConnection _tick_sniffNow]
PUBLIC 7cd74 0 HTTPNetStreamInfo::dequeueFromConnection()
PUBLIC 7ce12 0 CFURLResponseDataIsEncoded
PUBLIC 7ce54 0 NetConnection::dequeue(void*)
PUBLIC 7d32e 0 URLResponse::guessMIMEType(__CFData const*)
PUBLIC 7d338 0 URLResponse::guessMIMETypeCurrent(__CFData const*)
PUBLIC 7d90c 0 HTTPNetConnection::pendingResponseCount()
PUBLIC 7d917 0 copyMIMETypeForUnknown(__CFData const*)
PUBLIC 7d9c8 0 NetConnection::pendingResponseCount()
PUBLIC 7da12 0 getMIMETypeForRuleArray(__CFData const*, MIMETypeRule const*, unsigned char)
PUBLIC 7dc08 0 non-virtual thunk to HTTPNetStreamInfo::_meta_release()
PUBLIC 7dc1c 0 GZIPDataDecoderHolder::~GZIPDataDecoderHolder()
PUBLIC 7dc3c 0 GZipDataDecoder::~GZipDataDecoder()
PUBLIC 7dc70 0 CFNetworkReadStream::httpStreamFinalize(__CFReadStream*, void*)
PUBLIC 7dca4 0 HTTPNetStreamInfo::~HTTPNetStreamInfo()
PUBLIC 7dcae 0 HTTPNetStreamInfo::~HTTPNetStreamInfo()
PUBLIC 7de1e 0 HTTPNetStreamInfo::closeAndReleasePayload()
PUBLIC 7de58 0 formFinalize(__CFReadStream*, void*)
PUBLIC 7deaf 0 -[NSURLSession can_delegate_dataTask_didReceiveResponse]
PUBLIC 7dee4 0 -[__NSCFLocalSessionTask _onqueue_suspend]
PUBLIC 7df70 0 CFNetworkReadStream::~CFNetworkReadStream()
PUBLIC 7df8e 0 -[__NSCFURLLocalSessionConnection suspend]
PUBLIC 7dfdf 0 -[__NSCFLocalSessionTask setPendingResponseDisposition:]
PUBLIC 7dfef 0 -[NSURLSession delegate_dataTask:didReceiveResponse:completionHandler:]
PUBLIC 7e07f 0 __71-[NSURLSession delegate_dataTask:didReceiveResponse:completionHandler:]_block_invoke
PUBLIC 7e0a9 0 __62-[__NSCFLocalDataTask _onqueue_didReceiveResponse:completion:]_block_invoke
PUBLIC 7e12f 0 __42-[__NSCFURLLocalSessionConnection suspend]_block_invoke
PUBLIC 7e15c 0 non-virtual thunk to URLConnectionLoader::_loaderEvent_SuspendProtocolLoad()
PUBLIC 7e187 0 ___ZN19URLConnectionLoader32_loaderEvent_SuspendProtocolLoadEv_block_invoke
PUBLIC 7e19f 0 __62-[__NSCFLocalDataTask _onqueue_didReceiveResponse:completion:]_block_invoke_2
PUBLIC 7e1d6 0 -[__NSCFLocalSessionTask _private_onqueue_didReceiveResponseDisposition:completion:]
PUBLIC 7e484 0 -[__NSCFLocalSessionTask _finishAllow]
PUBLIC 7e511 0 -[__NSCFURLLocalSessionConnection resume]
PUBLIC 7e563 0 -[__NSCFLocalSessionTask pendingResponseDisposition_didFinish]
PUBLIC 7e576 0 __41-[__NSCFURLLocalSessionConnection resume]_block_invoke
PUBLIC 7e598 0 non-virtual thunk to URLConnectionLoader::_loaderEvent_ResumeProtocolLoad()
PUBLIC 7e5c3 0 ___ZN19URLConnectionLoader31_loaderEvent_ResumeProtocolLoadEv_block_invoke
PUBLIC 7e5d9 0 -[NSURLSession can_delegate_dataTask_didReceiveData]
PUBLIC 7e63a 0 -[NSURLSession delegate_dataTask:didReceiveData:completionHandler:]
PUBLIC 7e727 0 -[NSURLSession can_delegate_task_didCompleteWithError]
PUBLIC 7e735 0 -[__NSCFLocalSessionTask didIssueDidFinish]
PUBLIC 7e748 0 -[__NSCFLocalSessionTask setDidIssueDidFinish:]
PUBLIC 7e758 0 -[NSURLSession delegate_task:didCompleteWithError:]
PUBLIC 7e8b6 0 -[NSURLSession can_delegate_task_actually_didCompleteWithError]
PUBLIC 7e8e8 0 -[__NSCFURLSessionTask cancel]
PUBLIC 7e9cf 0 __51-[NSURLSession delegate_task:didCompleteWithError:]_block_invoke
PUBLIC 7ea36 0 __35-[NSURLSession invalidateAndCancel]_block_invoke
PUBLIC 7ea74 0 -[__NSURLSessionLocal copyTasks]
PUBLIC 7ea92 0 __71-[__NSURLSessionLocal _onqueue_invalidateSession:withQueue:completion:]_block_invoke
PUBLIC 7eaa9 0 __51-[NSURLSession delegate_task:didCompleteWithError:]_block_invoke_2
PUBLIC 7eadc 0 RetainableTypedDict<CoreSchedulingSet const*, GlueTubeManager*>::_visit(void const*, void const*, void*)
PUBLIC 7eaf6 0 ___ZN12XTubeManager24invalidateAllConnectionsEv_block_invoke
PUBLIC 7eb5b 0 ___ZN12XTubeManager24invalidateAllConnectionsEv_block_invoke_2
PUBLIC 7eb7e 0 GlueTubeManager::invalidateAllConnections()
PUBLIC 7ebac 0 STubeManager::invalidateAllConnections()
PUBLIC 7ec42 0 SHTTPConnectionCache::invalidateAllConnections()
PUBLIC 7ec4c 0 SHTTPConnectionCache::_onqueue_invalidateAllConnections()
PUBLIC 7ec94 0 RetainableTypedDict<HTTPConnectionCacheKey const*, SHTTPConnectionCacheEntry*>::_visit(void const*, void const*, void*)
PUBLIC 7ecaf 0 ___ZN30SHTTPConnectionCacheDictionary18forgetCacheEntriesEv_block_invoke
PUBLIC 7ecd6 0 SHTTPConnectionCacheEntry::invalidateUnpurgeableConnections()
PUBLIC 7ed74 0 SHTTPConnectionCacheEntry::removeEnqueuedRequests()
PUBLIC 7edc8 0 SHTTPConnectionCacheEntry::setHasBeenForgotten()
PUBLIC 7ee5c 0 SHTTPConnectionCacheEntry::removeAllConnections()
PUBLIC 7f164 0 SHTTPConnectionCacheEntry::releaseCacheEntry(void const*)
PUBLIC 7f177 0 -[__NSCFURLSession setDelegate:]
PUBLIC 7f188 0 NetConnection::closeStreamsIfPossibleOrSignalThatThatNeedsToBeDonePrettyPlease()
PUBLIC 7f1de 0 NetConnection::shutdownConnectionStreams(void*)
PUBLIC 7f310 0 ClassicWriteClient::~ClassicWriteClient()
PUBLIC 7f32d 0 __42-[NSURLSession finalizeDelegateWithError:]_block_invoke
PUBLIC 7f368 0 ClassicWriteClient::~ClassicWriteClient()
PUBLIC 7f3ac 0 CoreStreamClient::~CoreStreamClient()
PUBLIC 7f3b2 0 ClassicStreamClient::~ClassicStreamClient()
PUBLIC 7f3e8 0 NetConnection::_releaseFilter(void*)
PUBLIC 7f3f4 0 ClassicReadClient::~ClassicReadClient()
PUBLIC 7f410 0 ClassicReadClient::~ClassicReadClient()
PUBLIC 7f446 0 HTTPNetConnection::closeConnectionStreams(void*, __CoreReadStream*, __CoreWriteStream*)
PUBLIC 7f574 0 NetConnection::closeConnectionStreams(void*, __CoreReadStream*, __CoreWriteStream*)
PUBLIC 7f5b8 0 CoreStreamBase::_streamInterface_Close()
PUBLIC 7f612 0 non-virtual thunk to HTTPReadFilter::_streamImpl_Close()
PUBLIC 7f620 0 HTTPReadFilter::_streamImpl_Close()
PUBLIC 7f678 0 ReadStreamCallbacks::_close(__CFReadStream*, void*)
PUBLIC 7f69c 0 virtual thunk to SocketStream::close(void const*)
PUBLIC 7f6ae 0 SocketStream::close(void const*)
PUBLIC 7f8ae 0 Schedulables::_SchedulablesUnscheduleFromAllApplierFunction(void const*, void*)
PUBLIC 7f8b8 0 non-virtual thunk to HTTPWriteFilter::_streamImpl_Close()
PUBLIC 7f8c6 0 HTTPWriteFilter::_streamImpl_Close()
PUBLIC 7f92a 0 -[NSURLSessionTaskLocalHTTPAuthenticator dealloc]
PUBLIC 7f96a 0 WriteStreamCallbacks::_close(__CFWriteStream*, void*)
PUBLIC 7f98e 0 -[NSURLSessionTaskHTTPAuthenticator dealloc]
PUBLIC 7f9ce 0 -[NSURLCredentialStorage dealloc]
PUBLIC 7fa18 0 ActualCredentialStorage::~ActualCredentialStorage()
PUBLIC 7fa22 0 ActualCredentialStorage::~ActualCredentialStorage()
PUBLIC 7fa98 0 WriteStreamCallbacks::_finalize(__CFWriteStream*, void*)
PUBLIC 7fabc 0 MemoryCredentialStorage::~MemoryCredentialStorage()
PUBLIC 7fad8 0 virtual thunk to SocketStream::finalize(void const*)
PUBLIC 7faea 0 MemoryCredentialStorage::~MemoryCredentialStorage()
PUBLIC 7fb6c 0 SocketStream::finalize(void const*)
PUBLIC 7fc48 0 URLCredentialStorage::~URLCredentialStorage()
PUBLIC 7fcce 0 HTTPNetConnection_NoAuth::~HTTPNetConnection_NoAuth()
PUBLIC 7fcea 0 HTTPNetConnection_NoAuth::~HTTPNetConnection_NoAuth()
PUBLIC 7fd3e 0 HTTPNetConnection::~HTTPNetConnection()
PUBLIC 7fdd8 0 NetConnection::~NetConnection()
PUBLIC 7fe9a 0 MutexLockable::~MutexLockable()
PUBLIC 7feb6 0 HTTPWriteFilter::~HTTPWriteFilter()
PUBLIC 7fec0 0 HTTPWriteFilter::~HTTPWriteFilter()
PUBLIC 7fff6 0 HTTPFilter::~HTTPFilter()
PUBLIC 80000 0 CoreWriteStream::~CoreWriteStream()
PUBLIC 80020 0 CoreStreamImplementation::~CoreStreamImplementation()
PUBLIC 80028 0 CoreStreamBase::~CoreStreamBase()
PUBLIC 800b6 0 -[NSHTTPCookieStorage dealloc]
PUBLIC 80100 0 HTTPReadFilter::~HTTPReadFilter()
PUBLIC 8010a 0 HTTPReadFilter::~HTTPReadFilter()
PUBLIC 8022c 0 -[NSHTTPCookieStorageInternal dealloc]
PUBLIC 80302 0 ReadStreamCallbacks::_finalize(__CFReadStream*, void*)
PUBLIC 80326 0 HTTPCookieStorage::~HTTPCookieStorage()
PUBLIC 80330 0 HTTPCookieStorage::~HTTPCookieStorage()
PUBLIC 803e0 0 SocketStream::finalizeCancelConnection_Locked()
PUBLIC 804fa 0 SocketStream::securityClose_NoLock()
PUBLIC 805fe 0 PrivateHTTPCookieStorage::detachedClientLocked()
PUBLIC 80604 0 MemoryCookieStorage::~MemoryCookieStorage()
PUBLIC 80620 0 MemoryCookieStorage::~MemoryCookieStorage()
PUBLIC 8065c 0 MemoryCookies::~MemoryCookies()
PUBLIC 80678 0 __cfnSetStreamError(CFStreamError*, long, int)
PUBLIC 80684 0 MemoryCookies::~MemoryCookies()
PUBLIC 806e0 0 PrivateHTTPCookieStorage::~PrivateHTTPCookieStorage()
PUBLIC 80742 0 ___ZN20SHTTPConnectionCache11enableTimerEv_block_invoke_4
PUBLIC 80766 0 STubeManager::~STubeManager()
PUBLIC 80782 0 STubeManager::~STubeManager()
PUBLIC 80850 0 SHTTPConnectionCache::~SHTTPConnectionCache()
PUBLIC 8086c 0 SHTTPConnectionCache::~SHTTPConnectionCache()
PUBLIC 808d2 0 SHTTPConnectionCacheDictionary::~SHTTPConnectionCacheDictionary()
PUBLIC 808ee 0 SHTTPConnectionCacheDictionary::~SHTTPConnectionCacheDictionary()
PUBLIC 8094a 0 MetaConnectionCache::~MetaConnectionCache()
PUBLIC 80957 0 -[NSHTTPURLResponse dealloc]
PUBLIC 809a3 0 -[NSHTTPURLResponseInternal dealloc]
PUBLIC 809d2 0 ___ZN21SHTTP2ConnectionCache15initCacheTimersEv_block_invoke
PUBLIC 809e4 0 SHTTP2ConnectionCache::purgeIdleConnections()
PUBLIC 80a4a 0 ___ZN21SHTTP2ConnectionCache20purgeIdleConnectionsEv_block_invoke
PUBLIC 80a76 0 SHTTP2ConnectionCache::_onqueue_removeIdleConnections()
PUBLIC 80afe 0 SHTTP2ConnectionCache::_onqueue_base_remove_connections(bool)
PUBLIC 80c6e 0 RetainableTypedDict<HTTPConnectionCacheKey const*, SHTTP2ConnectionCacheEntry*>::_visit(void const*, void const*, void*)
PUBLIC 80c88 0 ___ZN21SHTTP2ConnectionCache32_onqueue_base_remove_connectionsEb_block_invoke_2
PUBLIC 80cf2 0 SHTTP2ConnectionCacheEntry::shouldIdleClose(double, double)
PUBLIC 80daa 0 RetainableTypedArray<SHTTP2Connection*>::_invoke(void const*, void*)
PUBLIC 80dbf 0 ___ZN26SHTTP2ConnectionCacheEntry15shouldIdleCloseEdd_block_invoke
PUBLIC 80e02 0 SHTTP2Connection::shouldIdleClose(double, double)
PUBLIC 80e7c 0 SHTTP2Connection::countOutstandingRequests()
PUBLIC 80f08 0 ___ZN16SHTTP2Connection24countOutstandingRequestsEv_block_invoke
PUBLIC 80f36 0 SHTTP2Connection::stop()
PUBLIC 80f92 0 SHTTP2ConnectionCacheEntry::stopConnections()
PUBLIC 81019 0 ___ZN16SHTTP2Connection4stopEv_block_invoke
PUBLIC 8103e 0 ___ZN26SHTTP2ConnectionCacheEntry15stopConnectionsEv_block_invoke
PUBLIC 8104e 0 SHTTP2Connection::_onqueue_closeConnection()
PUBLIC 81180 0 STubeManager::invalidateKey(HTTPConnectionCacheKey const*, bool, MetaConnectionCacheType)
PUBLIC 8124c 0 CFObject::_cfobj_release(__CFAllocator const*, void const*)
PUBLIC 8125c 0 SHTTP2Connection::_onqueue_closeSocketStreams()
PUBLIC 8130c 0 SHTTP2Connection::_onqueue_terminateSession(nghttp2_error_code)
PUBLIC 8133c 0 SHTTP2ConnectionCacheEntry::connectionClosed(SHTTP2Connection*)
PUBLIC 813ae 0 std::__1::__shared_ptr_emplace<__CFURLCache, std::__1::allocator<__CFURLCache> >::__on_zero_shared()
PUBLIC 813b0 0 std::__1::__shared_ptr_emplace<PropertyObserver, std::__1::allocator<PropertyObserver> >::__on_zero_shared()
PUBLIC 813c0 0 PropertyObserver::~PropertyObserver()
PUBLIC 813e5 0 ___ZN26SHTTP2ConnectionCacheEntry16connectionClosedEP16SHTTP2Connection_block_invoke
PUBLIC 8140e 0 std::__1::__shared_ptr_pointer<HTTP2Connection*, Deleter_release<HTTP2Connection>, std::__1::allocator<HTTP2Connection> >::__on_zero_shared()
PUBLIC 81410 0 std::__1::__shared_ptr_pointer<SHTTP2Connection*, Deleter_release<SHTTP2Connection>, std::__1::allocator<SHTTP2Connection> >::__on_zero_shared()
PUBLIC 8142a 0 SHTTP2ConnectionCacheEntry::_onqueue_connectionClosed(SHTTP2Connection*)
PUBLIC 814a6 0 SHTTP2ConnectionCache::cacheEntryDidBecomeUnusable(SHTTP2ConnectionCacheEntry*)
PUBLIC 81516 0 SHTTP2Connection::~SHTTP2Connection()
PUBLIC 81520 0 ___ZN21SHTTP2ConnectionCache27cacheEntryDidBecomeUnusableEP26SHTTP2ConnectionCacheEntry_block_invoke
PUBLIC 81554 0 std::__1::__vector_base<std::__1::weak_ptr<PropertyObserver>, std::__1::allocator<std::__1::weak_ptr<PropertyObserver> > >::~__vector_base()
PUBLIC 815a8 0 SHTTP2Connection::~SHTTP2Connection()
PUBLIC 81660 0 SHTTP2ConnectionCache::_onqueue_removeCacheEntry(SHTTP2ConnectionCacheEntry*)
PUBLIC 816b6 0 SHTTP2ConnectionCacheEntry::key() const
PUBLIC 816c0 0 void CFTypeRefRelease<__CFString const*>(__CFString const*)
PUBLIC 816d2 0 SHTTP2ConnectionCacheEntry::~SHTTP2ConnectionCacheEntry()
PUBLIC 816dc 0 SHTTP2ConnectionCacheEntry::~SHTTP2ConnectionCacheEntry()
PUBLIC 817cc 0 SHTTP2Connection::handleGOAWAYFrame(nghttp2_frame const*)
PUBLIC 8188d 0 ___ZN16SHTTP2Connection20setErrorOnAllStreamsEj_block_invoke
PUBLIC 818b4 0 SHTTP2Connection::_onqueue_setErrorOnAllStreams(unsigned int)
PUBLIC 8194c 0 ___ZN16SHTTP2Connection15closeConnectionEv_block_invoke
PUBLIC 81970 0 CFHTTPMessageSetHeaderFieldValue
PUBLIC 819ab 0 ___ZN19URLConnectionLoader21_loaderEvent_AckBytesEx_block_invoke
PUBLIC 819e1 0 CFURLRequestSetHTTPCookieStorageAcceptPolicy
PUBLIC 81a6e 0 -[NSMutableURLRequest(NSMutableHTTPURLRequest) setAllHTTPHeaderFields:]
PUBLIC 81a98 0 CFURLRequestSetMultipleHTTPHeaderFields
PUBLIC 81b21 0 _NSURLConnectionWillSendRequestForAuthenticationChallenge(_CFURLConnection*, _CFURLAuthChallenge*, void const*)
PUBLIC 81b43 0 -[NSURLConnectionInternalConnection(Internal) sendCFChallenge:toSelector:]
PUBLIC 81b9f 0 __74-[NSURLConnectionInternalConnection(Internal) sendCFChallenge:toSelector:]_block_invoke
PUBLIC 81c39 0 -[NSURLAuthenticationChallenge sender]
PUBLIC 81c7d 0 -[NSURLProtectionSpace host]
PUBLIC 81cbb 0 CFURLProtectionSpaceGetHost
PUBLIC 81cdf 0 -[NSURLProtectionSpace port]
PUBLIC 81cf7 0 CFURLProtectionSpaceGetPort
PUBLIC 81d1a 0 -[NSURLProtectionSpace protocol]
PUBLIC 81d98 0 CFURLProtectionSpaceGetServerType
PUBLIC 81dbd 0 -[NSURLProtectionSpace realm]
PUBLIC 81dfb 0 CFURLProtectionSpaceGetRealm
PUBLIC 81e1f 0 -[NSURLConnection description]
PUBLIC 81e88 0 -[NSURLConnection originalRequest]
PUBLIC 81ea5 0 -[NSURLConnectionInternal originalRequest]
PUBLIC 81eb6 0 -[NSURLAuthenticationChallenge failureResponse]
PUBLIC 81ef7 0 -[NSURLAuthenticationChallenge proposedCredential]
PUBLIC 81f38 0 -[NSURLAuthenticationChallenge error]
PUBLIC 81f79 0 -[NSURLConnection(NSURLAuthenticationChallengeSender) continueWithoutCredentialForAuthenticationChallenge:]
PUBLIC 81f96 0 -[NSURLConnectionInternalConnection continueWithoutCredentialForAuthenticationChallenge:]
PUBLIC 8200a 0 CFURLConnectionUseCredential
PUBLIC 82070 0 -[NSURLConnectionInternalConnection cleanupChallenges]
PUBLIC 820ce 0 HTTPNetConnection::isStreamReadyForWrite(__CoreWriteStream*, HTTPNetStreamInfo*, CFStreamError*, unsigned char)
PUBLIC 8222c 0 URLConnectionClient::sniffAndSendDidReceiveResponse(__CFArray const*)
PUBLIC 8246c 0 -[NSURLConnection cancel]
PUBLIC 82489 0 -[NSURLConnectionInternalConnection cancel]
PUBLIC 824e4 0 CFURLConnectionCancel
PUBLIC 8253c 0 non-virtual thunk to ClassicURLConnection::cancel()
PUBLIC 8254a 0 _NSURLConnectionReleaseClient(void const*)
PUBLIC 8255c 0 -[NSURLConnectionInternal _withConnectionDisconnectFromConnection]
PUBLIC 825ad 0 -[NSURLConnectionInternal _withConnectionAndDelegate:]
PUBLIC 825ec 0 __66-[NSURLConnectionInternal _withConnectionDisconnectFromConnection]_block_invoke
PUBLIC 82650 0 -[NSURLConnectionInternalConnection _invalidate]
PUBLIC 8279d 0 -[NSURLConnectionInternal _invalidate]
PUBLIC 827a3 0 -[NSURLConnection dealloc]
PUBLIC 827ec 0 -[NSURLConnectionInternalConnection dealloc]
PUBLIC 8284d 0 -[NSURLConnectionInternalConnection _atomic_CFURLConnection]
PUBLIC 82884 0 -[NSURLConnectionInternal dealloc]
PUBLIC 82920 0 RunLoopSchedulingSet::~RunLoopSchedulingSet()
PUBLIC 8293c 0 RunLoopSchedulingSet::~RunLoopSchedulingSet()
PUBLIC 82a0e 0 RunloopBlockContext::~RunloopBlockContext()
PUBLIC 82a2a 0 RunloopBlockContext::~RunloopBlockContext()
PUBLIC 82ae6 0 RunLoopMultiplexer::unschedule(CoreSchedulingSet const*, MultiplexerClient*)
PUBLIC 82b7e 0 MultiplexerSource::unschedule(CoreSchedulingSet const*, MultiplexerClient*)
PUBLIC 82c66 0 MultiplexerSource::Release(void const*)
PUBLIC 82c8b 0 coreSchedulingSetRelease(__CFAllocator const*, void const*)
PUBLIC 82c9a 0 MultiplexerSource::~MultiplexerSource()
PUBLIC 82cb6 0 MultiplexerSource::~MultiplexerSource()
PUBLIC 82d1e 0 ___ZN20SHTTPConnectionCache11enableTimerEv_block_invoke
PUBLIC 82d74 0 SHTTPConnectionCacheEntry::countConnections() const
PUBLIC 82dc4 0 STubeManager::_onqueue_getValidAwaitingTubeForKey(HTTPConnectionCacheKey const*)
PUBLIC 82e52 0 non-virtual thunk to HTTPNetStreamInfo::copyTrust()
PUBLIC 82e6e 0 HTTPNetConnection::copyTrust()
PUBLIC 82e78 0 NetConnection::copyTrust()
PUBLIC 82ee2 0 non-virtual thunk to URLConnectionClient::_loaderClientEvent_DidSendBodyData(UploadProgressInfo)
PUBLIC 82f46 0 non-virtual thunk to URLConnectionClient_Classic::_delegate_didSendBodyData(UploadProgressInfo)
PUBLIC 82f78 0 URLConnectionClient_Classic::_delegate_didSendBodyData(UploadProgressInfo)
PUBLIC 8301f 0 ___ZN27URLConnectionClient_Classic25_delegate_didSendBodyDataE18UploadProgressInfo_block_invoke
PUBLIC 83100 0 _NSURLConnectionDidSendBodyData(_CFURLConnection*, long, long, long, void const*)
PUBLIC 8315f 0 ___ZL31_NSURLConnectionDidSendBodyDataP16_CFURLConnectionlllPKv_block_invoke
PUBLIC 83186 0 HTTPReadFilter::doPlainRead(StreamReader*, unsigned char*, long, CFStreamError*, unsigned char*)
PUBLIC 833ac 0 _NSURLConnectionDidReceiveData(_CFURLConnection*, __CFData const*, long, void const*)
PUBLIC 83400 0 ___ZL30_NSURLConnectionDidReceiveDataP16_CFURLConnectionPK8__CFDatalPKv_block_invoke
PUBLIC 83420 0 SHTTPConnectionCache::enqueueRequestForProtocol(MetaConnectionCacheClient*, HTTPRequestMessage const*, MetaConnectionOptions)
PUBLIC 8344e 0 SHTTPConnectionCacheEntry::findOrCreateEmptyAuthenticatedNetConnection(SHTTPConnectionCacheEnqueuedRequestInfo*, unsigned char*)
PUBLIC 83a7e 0 ___ZN19URLConnectionLoader29ensureLoaderHasProtocolNoLockEPK12NSURLRequest_block_invoke
PUBLIC 83aa0 0 URLConnectionLoader::performTimeOut()
PUBLIC 83bdc 0 ___ZN19URLConnectionLoader14performTimeOutEv_block_invoke
PUBLIC 83c50 0 non-virtual thunk to URLConnectionClient::_loaderClientEvent_DidTimeout()
PUBLIC 83c5e 0 URLConnectionClient::_loaderClientEvent_DidTimeout()
PUBLIC 83df0 0 __cfnCreateCFErrorWithDict(__CFAllocator const*, __CFString const*, long, FileLineFunc const&, __CFDictionary const*)
PUBLIC 83dfe 0 URLConnectionClient::_loaderClientEvent_DidFailWithError(__CFError*)
PUBLIC 84209 0 _CFNetworkErrorCopyLocalizedDescriptionWithHostname
PUBLIC 8426c 0 _CFNetworkErrorGetLocalizedString(long, long)
PUBLIC 842f8 0 _CFNetworkErrorInitLocalizedStringsDictionary()
PUBLIC 84af6 0 _CFNetworkErrorMapErrorCode(long, __CFString const*, __CFString const*, __CFString const*, __CFString const*, __CFString const*, __CFString const*, __CFString const*, __CFString const*)
PUBLIC 84c60 0 _CFNetworkErrorCopyLocalizedString(__CFString const*, __CFString const*)
PUBLIC 84cd6 0 _CFNetworkErrorGetLocalizedFailureReason
PUBLIC 84ce5 0 _CFNetworkErrorGetLocalizedRecoverySuggestion
PUBLIC 84cf5 0 ___ZN19URLConnectionClient35_loaderClientEvent_DidFailWithErrorEP9__CFError_block_invoke
PUBLIC 84d2e 0 non-virtual thunk to URLConnectionClient_Classic::_delegate_didFail(__CFError*, void () block_pointer)
PUBLIC 84d3c 0 URLConnectionClient_Classic::_delegate_didFail(__CFError*, void () block_pointer)
PUBLIC 84dbf 0 ___ZN27URLConnectionClient_Classic17_delegate_didFailEP9__CFErrorU13block_pointerFvvE_block_invoke
PUBLIC 84edd 0 _NSURLConnectionDidFail(_CFURLConnection*, __CFError*, void const*)
PUBLIC 84f38 0 ___ZL23_NSURLConnectionDidFailP16_CFURLConnectionP9__CFErrorPKv_block_invoke
PUBLIC 84fd4 0 cfnTranslateCFError
PUBLIC 8544b 0 ___ZN19URLConnectionLoader23_loaderEvent_CancelLoadEP16dispatch_queue_sU13block_pointerFvvE_block_invoke
PUBLIC 854c8 0 URLConnectionLoader::_onqueue_loaderEvent_CancelLoad(dispatch_queue_s*, void () block_pointer, URLProtocol*)
PUBLIC 85593 0 -[NSMutableURLRequest(NSMutableHTTPURLRequest) addValue:forHTTPHeaderField:]
PUBLIC 855b7 0 CFURLRequestAppendHTTPHeaderFieldValue
PUBLIC 8564c 0 HTTPRequest::appendHTTPHeaderFieldValue(__CFString const*, __CFString const*)
PUBLIC 856ec 0 -[NSURLRequest encodeWithCoder:]
PUBLIC 85b34 0 +[NSURLConnection connectionWithRequest:delegate:]
PUBLIC 85b88 0 -[NSURLConnection initWithRequest:delegate:]
PUBLIC 85bac 0 URLAuthChallenge::tryNextProtectionSpace()
PUBLIC 85c1c 0 SSPDYConnectionCache::SSPDYConnectionCache(__CFAllocator const*, HTTPConnectionCacheLimits const&)
PUBLIC 85c26 0 SSPDYConnectionCache::SSPDYConnectionCache(__CFAllocator const*, HTTPConnectionCacheLimits const&)
PUBLIC 85c92 0 SSPDYConnectionCache::initWithSchedulingSet(CoreSchedulingSet const*, STubeManager*)
PUBLIC 85cd6 0 SSPDYConnectionCache::idleTimer(bool)
PUBLIC 85e34 0 SSPDYConnectionCache::ingestTube(STube*)
PUBLIC 85e3e 0 SSPDYConnectionCache::_onqueue_ingestTube(STube*)
PUBLIC 85e7a 0 SSPDYConnectionCache::_onqueue_findOrCreateSPDYConnectionCacheEntry(HTTPConnectionCacheKey const*)
PUBLIC 85f66 0 SSPDYConnectionCacheEntry::Class()
PUBLIC 85f92 0 ___ZN25SSPDYConnectionCacheEntry5ClassEv_block_invoke
PUBLIC 85fc2 0 SSPDYConnectionCacheEntry::SSPDYConnectionCacheEntry(CoreSchedulingSet const*, STubeManager*, SSPDYConnectionCache*)
PUBLIC 85fcc 0 SSPDYConnectionCacheEntry::SSPDYConnectionCacheEntry(CoreSchedulingSet const*, STubeManager*, SSPDYConnectionCache*)
PUBLIC 860b8 0 SSPDYConnectionCacheEntry::initialize(HTTPConnectionCacheKey const*, int)
PUBLIC 86104 0 HTTPConnectionCacheKey::copyDebugDesc() const
PUBLIC 861ec 0 SSPDYConnectionCacheEntry::ingestTube(STube*)
PUBLIC 863e0 0 SSPDYConnectionCacheEntry::createSPDYConnectionFromTube(STube*)
PUBLIC 86456 0 SSPDYConnection::SSPDYConnection(__CFAllocator const*, char const*)
PUBLIC 86490 0 SSPDYConnection::initialize(STube*, int, SSPDYConnectionCacheEntry*)
PUBLIC 8678a 0 SSPDYConnection::initSPDY(STube*)
PUBLIC 86923 0 spdylay_session_client_new
PUBLIC 86963 0 spdylay_session_new
PUBLIC 86cf8 0 spdylay_zlib_deflate_hd_init
PUBLIC 86dbf 0 spdylay_zlib_inflate_hd_init
PUBLIC 86e0e 0 spdylay_map_init
PUBLIC 86e87 0 spdylay_pq_init
PUBLIC 86ec8 0 spdylay_buffer_init
PUBLIC 86eeb 0 spdylay_buffer_reset
PUBLIC 86f08 0 spdylay_client_cert_vector_init
PUBLIC 86f6e 0 spdylay_session_set_option
PUBLIC 86fde 0 SSPDYConnection::initConnection(STube*)
PUBLIC 87135 0 cbSocketStreamRetain(void*)
PUBLIC 87150 0 SSPDYConnection::streamsOpened()
PUBLIC 871b7 0 ___ZN15SSPDYConnection10initializeEP5STubeiP25SSPDYConnectionCacheEntry_block_invoke
PUBLIC 872ac 0 SSPDYConnection::willEnqueueRequests()
PUBLIC 87339 0 ___ZN15SSPDYConnection19willEnqueueRequestsEv_block_invoke
PUBLIC 8737e 0 SSPDYConnection::enqueue(HTTPRequestMessage const*, MetaConnectionCacheClient*, int, float)
PUBLIC 87422 0 ___ZN15SSPDYConnection7enqueueEPK18HTTPRequestMessageP25MetaConnectionCacheClientif_block_invoke
PUBLIC 875c0 0 spdylay_session_get_pri_lowest
PUBLIC 875e4 0 SSPDYStream::Class()
PUBLIC 87610 0 ___ZN11SSPDYStream5ClassEv_block_invoke
PUBLIC 87640 0 SSPDYStream::SSPDYStream(HTTPRequestMessage const*, MetaConnectionCacheClient*, unsigned char)
PUBLIC 8764c 0 SSPDYStream::SSPDYStream(HTTPRequestMessage const*, MetaConnectionCacheClient*, unsigned char)
PUBLIC 878ce 0 SSPDYConnection::cfnPriorityToStreamPriority(int)
PUBLIC 87938 0 SSPDYStream::setPriorityHint(float)
PUBLIC 87990 0 ___ZN11SSPDYStream15setPriorityHintEf_block_invoke
PUBLIC 879d4 0 SSPDYStream::setConn(SSPDYConnection*)
PUBLIC 87a1c 0 SSPDYStream::setConnStream(__CFReadStream*)
PUBLIC 87a65 0 cbRetainSPDYStream(__CFAllocator const*, void const*)
PUBLIC 87aa8 0 SSPDYStream::setBodyStreamBeforeOpening(__CFReadStream*)
PUBLIC 87b72 0 SSPDYStream::copyProperty(MetaNetStreamInfo::ApplicableProperties)
PUBLIC 87d88 0 SSPDYStream::setProperty(MetaNetStreamInfo::ApplicableProperties, void const*)
PUBLIC 87fa8 0 SSPDYConnection::startEnqueuedStream(SSPDYStream*)
PUBLIC 88064 0 ___ZN15SSPDYConnection19startEnqueuedStreamEP11SSPDYStream_block_invoke
PUBLIC 88302 0 SSPDYStream::createSPDYHeaders(char***, long*)
PUBLIC 88696 0 SSPDYConnection::hasProxy()
PUBLIC 886d6 0 SSPDYConnectionCacheEntry::getKey()
PUBLIC 886e2 0 SSPDYStream::_createPathStringFromURL(__CFURL const*)
PUBLIC 887a6 0 createCStringFromConstant
PUBLIC 887f4 0 isBannedHeader
PUBLIC 8885c 0 __isBannedHeader_block_invoke
PUBLIC 888ba 0 SSPDYStream::hasRequestBody()
PUBLIC 888ca 0 SSPDYStream::getPriority()
PUBLIC 888d8 0 spdylay_submit_request
PUBLIC 88918 0 spdylay_submit_syn_stream_shared
PUBLIC 88aa1 0 spdylay_frame_nv_check_null
PUBLIC 88af1 0 spdylay_frame_nv_norm_copy
PUBLIC 88b1e 0 spdylay_frame_nv_copy
PUBLIC 88bfb 0 spdylay_frame_nv_downcase
PUBLIC 88c4e 0 spdylay_frame_nv_sort
PUBLIC 88c84 0 spdylay_string_compar
PUBLIC 88c94 0 spdylay_frame_syn_stream_init
PUBLIC 88cca 0 spdylay_session_add_frame
PUBLIC 88e74 0 spdylay_pq_push
PUBLIC 88f3d 0 ___ZN15SSPDYConnection10scheduleIOEv_block_invoke
PUBLIC 88f5e 0 SSPDYConnection::_onqueue_scheduleIO()
PUBLIC 89204 0 SSPDYStream::_onqueue_invokeHandler()
PUBLIC 8938e 0 spdylay_session_want_read
PUBLIC 893bf 0 spdylay_session_want_write
PUBLIC 89432 0 spdylay_pq_empty
PUBLIC 89444 0 ___ZN15SSPDYConnection19_onqueue_scheduleIOEv_block_invoke
PUBLIC 89466 0 SSPDYConnection::_onqueue_performRead()
PUBLIC 89518 0 spdylay_session_recv
PUBLIC 895f7 0 cb_spdylay_recv
PUBLIC 89674 0 spdylay_session_mem_recv
PUBLIC 8a2ca 0 spdylay_get_uint32
PUBLIC 8a2d4 0 spdylay_frame_is_ctrl_frame
PUBLIC 8a2e4 0 spdylay_inbound_frame_payload_nv_offset
PUBLIC 8a326 0 spdylay_get_uint16
PUBLIC 8a336 0 spdylay_frame_nv_offset
PUBLIC 8a380 0 spdylay_reserve_buffer
PUBLIC 8a3e7 0 spdylay_frame_unpack_settings
PUBLIC 8a545 0 spdylay_frame_unpack_ctrl_hd
PUBLIC 8a592 0 spdylay_session_on_settings_received
PUBLIC 8a701 0 spdylay_map_each
PUBLIC 8a764 0 cb_spdylay_on_ctrl_recv
PUBLIC 8ab98 0 spdylay_frame_settings_free
PUBLIC 8aba6 0 spdylay_frame_unpack_window_update
PUBLIC 8abf3 0 spdylay_session_on_window_update_received
PUBLIC 8adb3 0 spdylay_session_get_stream_user_data
PUBLIC 8adcb 0 spdylay_map_find
PUBLIC 8ae0c 0 spdylay_frame_window_update_free
PUBLIC 8ae15 0 cbSocketStreamRead(__CFReadStream*, unsigned long, void*)
PUBLIC 8af16 0 cbSocketStreamRelease(void*)
PUBLIC 8af22 0 cbSocketStreamWrite(__CFWriteStream*, unsigned long, void*)
PUBLIC 8b025 0 ___ZN15SSPDYConnection19_onqueue_scheduleIOEv_block_invoke_2
PUBLIC 8b046 0 SSPDYConnection::_onqueue_performWrite()
PUBLIC 8b0cf 0 spdylay_session_send
PUBLIC 8b2b9 0 spdylay_session_pop_next_ob_item
PUBLIC 8b37b 0 spdylay_pq_top
PUBLIC 8b392 0 spdylay_pq_pop
PUBLIC 8b423 0 spdylay_session_prep_frame
PUBLIC 8ba28 0 spdylay_frame_pack_syn_stream
PUBLIC 8bb02 0 spdylay_frame_alloc_pack_nv
PUBLIC 8bbda 0 spdylay_frame_count_nv_space
PUBLIC 8bce9 0 spdylay_zlib_deflate_hd_bound
PUBLIC 8bcf3 0 spdylay_frame_pack_nv
PUBLIC 8bf32 0 spdylay_pack_str
PUBLIC 8bf89 0 spdylay_put_uint32be
PUBLIC 8bf98 0 spdylay_zlib_deflate_hd
PUBLIC 8bfd9 0 spdylay_frame_pack_ctrl_hd
PUBLIC 8c01c 0 spdylay_put_uint16be
PUBLIC 8c02f 0 spdylay_session_open_stream
PUBLIC 8c0fa 0 spdylay_stream_init
PUBLIC 8c16f 0 spdylay_map_entry_init
PUBLIC 8c17f 0 spdylay_map_insert
PUBLIC 8c28b 0 cb_spdylay_before_ctrl_send
PUBLIC 8c434 0 SSPDYStream::setStreamID(int)
PUBLIC 8c59e 0 SSPDYStream::getPerformancetiming()
PUBLIC 8c5ac 0 SSPDYStream::isCanceled()
PUBLIC 8c63c 0 ___ZN11SSPDYStream10isCanceledEv_block_invoke
PUBLIC 8c657 0 cb_spdylay_send
PUBLIC 8c6b4 0 spdylay_session_after_frame_sent
PUBLIC 8cc6b 0 cb_spdylay_on_ctrl_send
PUBLIC 8ccb2 0 SSPDYStream::sentBytes(long)
PUBLIC 8ccc0 0 spdylay_submit_data
PUBLIC 8cd47 0 spdylay_frame_data_init
PUBLIC 8cd70 0 spdylay_outbound_item_free
PUBLIC 8ce88 0 spdylay_frame_syn_stream_free
PUBLIC 8ce96 0 spdylay_session_predicate_data_send
PUBLIC 8cf38 0 spdylay_session_pack_data
PUBLIC 8d024 0 cb_spdylay_data_source_read
PUBLIC 8d07c 0 SSPDYStream::provideRequestBody(unsigned char*, unsigned long, int*)
PUBLIC 8d127 0 ___ZN11SSPDYStream18provideRequestBodyEPhmPi_block_invoke
PUBLIC 8d250 0 SSPDYStream::_onqueue_provideRequestBodyFromData(unsigned char*, unsigned long, int*)
PUBLIC 8d340 0 ___ZN11SSPDYStream18provideRequestBodyEPhmPi_block_invoke_2
PUBLIC 8d385 0 cb_spdylay_on_data_send
PUBLIC 8d3b4 0 spdylay_stream_shutdown
PUBLIC 8d3c3 0 spdylay_frame_data_free
PUBLIC 8d3cb 0 spdylay_zlib_inflate_hd
PUBLIC 8d508 0 spdylay_buffer_avail
PUBLIC 8d515 0 spdylay_buffer_alloc
PUBLIC 8d5a8 0 spdylay_buffer_get
PUBLIC 8d5c2 0 spdylay_buffer_advance
PUBLIC 8d60a 0 spdylay_buffer_length
PUBLIC 8d614 0 spdylay_frame_unpack_syn_reply
PUBLIC 8d669 0 spdylay_frame_unpack_syn_reply_without_nv
PUBLIC 8d6fd 0 spdylay_frame_unpack_nv
PUBLIC 8d9ef 0 spdylay_frame_count_unpack_nv_space
PUBLIC 8db50 0 spdylay_buffer_reader_init
PUBLIC 8db69 0 spdylay_buffer_reader_uint32
PUBLIC 8db8b 0 spdylay_buffer_reader_data
PUBLIC 8dc0d 0 spdylay_buffer_reader_advance
PUBLIC 8dc51 0 spdylay_buffer_reader_count
PUBLIC 8dccb 0 spdylay_session_on_syn_reply_received
PUBLIC 8ddf0 0 SSPDYStream::receivedBytes(long)
PUBLIC 8ddfe 0 SSPDYStream::isClosing()
PUBLIC 8de8e 0 ___ZN11SSPDYStream9isClosingEv_block_invoke
PUBLIC 8deaa 0 SSPDYStream::initResponse(char const*, char const*)
PUBLIC 8df7e 0 SSPDYStream::addRespHeader(char const*, char const*)
PUBLIC 8e023 0 ___ZN11SSPDYStream12initResponseEPKcS1__block_invoke
PUBLIC 8e16e 0 spdylay_frame_syn_reply_free
PUBLIC 8e17d 0 update_recv_window_size
PUBLIC 8e1e7 0 cb_spdylay_on_data_chunk_recv
PUBLIC 8e258 0 ___ZN11SSPDYStream13addRespHeaderEPKcS1__block_invoke
PUBLIC 8e3aa 0 SSPDYStream::consumeData(unsigned char const*, unsigned long)
PUBLIC 8e44c 0 spdylay_session_on_data_received
PUBLIC 8e5a6 0 ___ZN11SSPDYStream11consumeDataEPKhm_block_invoke
PUBLIC 8e654 0 cb_spdylay_on_data_recv
PUBLIC 8e820 0 SSPDYStream::_onqueue_headersComplete()
PUBLIC 8e8a2 0 SSPDYStream::headersComplete()
PUBLIC 8e900 0 SSPDYConnection::_onqueue_updateWindow()
PUBLIC 8e9da 0 spdylay_session_close_stream
PUBLIC 8ea82 0 cb_spdylay_on_stream_close
PUBLIC 8eb8c 0 SSPDYConnection::_onqueue_closeStream(SSPDYStream*)
PUBLIC 8ecf2 0 SSPDYStream::hasBeenClosed()
PUBLIC 8ed84 0 SSPDYStream::_onqueue_updateWindow()
PUBLIC 8ee38 0 SSPDYConnection::submitWindowUpdate(SSPDYStream*, int)
PUBLIC 8ef0e 0 SSPDYStream::getStreamID()
PUBLIC 8ef1c 0 ___ZN11SSPDYStream15headersCompleteEv_block_invoke
PUBLIC 8ef40 0 ___ZN11SSPDYStream22_onqueue_invokeHandlerEv_block_invoke_2
PUBLIC 8ef92 0 ___ZN11SSPDYStream13hasBeenClosedEv_block_invoke
PUBLIC 8efae 0 SSPDYStream::closeStream()
PUBLIC 8f29c 0 ___ZN11SSPDYStream11closeStreamEv_block_invoke_3
PUBLIC 8f311 0 cbReleaseSPDYStream(__CFAllocator const*, void const*)
PUBLIC 8f346 0 ___ZN11SSPDYStream11closeStreamEv_block_invoke_4
PUBLIC 8f36a 0 spdylay_map_remove
PUBLIC 8f3d4 0 spdylay_stream_free
PUBLIC 8f3fe 0 spdylay_frame_unpack_ping
PUBLIC 8f431 0 spdylay_session_on_ping_received
PUBLIC 8f4c2 0 spdylay_frame_ping_free
PUBLIC 8f4c9 0 ___ZN15SSPDYConnection21_onqueue_updateWindowEv_block_invoke
PUBLIC 8f555 0 spdylay_submit_window_update
PUBLIC 8f5ff 0 spdylay_session_add_window_update
PUBLIC 8f67c 0 spdylay_frame_window_update_init
PUBLIC 8f6af 0 ___ZN15SSPDYConnection18submitWindowUpdateEP11SSPDYStreami_block_invoke
PUBLIC 8f779 0 spdylay_session_get_stream
PUBLIC 8f783 0 spdylay_frame_pack_window_update
PUBLIC 8f7e6 0 ___ZN11SSPDYStream22_onqueue_invokeHandlerEv_block_invoke_3
PUBLIC 8f822 0 SSPDYStream::closeAndClearHandler()
PUBLIC 8f8fe 0 ___ZN11SSPDYStream20closeAndClearHandlerEv_block_invoke_2
PUBLIC 8f938 0 +[NSHTTPCookie cookiesWithResponseHeaderFields:forURL:]
PUBLIC 8f954 0 +[NSHTTPCookie _cookiesWithResponseHeaderFields:forURL:singleCookie:]
PUBLIC 8f9cc 0 CFHTTPCookieCreateWithResponseHeaderFields
PUBLIC 8fa60 0 SSPDYStream::~SSPDYStream()
PUBLIC 8fa6a 0 +[NSHTTPCookie _cf2nsCookies:]
PUBLIC 8fbd6 0 SSPDYStream::~SSPDYStream()
PUBLIC 8fdec 0 -[NSHTTPURLResponse initWithCoder:]
PUBLIC 90170 0 -[NSURLResponse initWithCoder:]
PUBLIC 9058f 0 _CFURLResponseCreateArchiveList
PUBLIC 905fb 0 _CFURLResponseCreateFromArchiveList
PUBLIC 90687 0 -[NSURLRequest initWithCoder:]
PUBLIC 91104 0 -[NSHTTPURLResponse encodeWithCoder:]
PUBLIC 91187 0 -[NSURLResponse encodeWithCoder:]
PUBLIC 912f9 0 +[__NSCFURLSessionXPC initialize]
PUBLIC 9131d 0 __33+[__NSCFURLSessionXPC initialize]_block_invoke
PUBLIC 91b5d 0 +[__NSCFURLSessionXPC bgSessionManagerInterface]
PUBLIC 91b6c 0 non-virtual thunk to SessionConnectionLoadable::_loaderClientEvent_DidTimeout()
PUBLIC 91b7c 0 SessionConnectionLoadable::_loaderClientEvent_DidTimeout()
PUBLIC 91cbc 0 SessionConnectionLoadable::_loaderClientEvent_DidFailWithError(__CFError*)
PUBLIC 91cd8 0 STube::clientCanceled(MetaConnectionCacheClient*)
PUBLIC 91d34 0 ___ZN5STube14clientCanceledEP25MetaConnectionCacheClient_block_invoke
PUBLIC 91d6c 0 STube::_onqueue_cancel()
PUBLIC 91e14 0 SocketStream::closeStreams()
PUBLIC 91e72 0 ___ZN12SocketStream12closeStreamsEv_block_invoke
PUBLIC 91f24 0 RetainableTypedArray<STube*>::_invoke(void const*, void*)
PUBLIC 91f38 0 ___ZN12STubeManager24invalidateAllConnectionsEv_block_invoke_2
PUBLIC 91f46 0 STube::cancel()
PUBLIC 91f9a 0 ___ZN5STube6cancelEv_block_invoke
PUBLIC 91fa8 0 ___ZN5STube15_onqueue_cancelEv_block_invoke
PUBLIC 91fd4 0 _CFErrorCreateWithStreamError
PUBLIC 91fe0 0 __cfnCreateCFErrorWithStreamError(__CFAllocator const*, CFStreamError const*, FileLineFunc const&)
PUBLIC 92605 0 __cfnCreateCFError(__CFAllocator const*, __CFString const*, long, FileLineFunc const&, int, ...)
PUBLIC 927d8 0 HTTPProtocol::handleStreamError(CFStreamError, __CFDictionary const*)
PUBLIC 9281e 0 HTTPProtocol::streamError(CFStreamError const*)
PUBLIC 92ac6 0 HTTPProtocol::SSLFallbackAllowedBySecurityPolicy()
PUBLIC 92b26 0 HTTPProtocol::failWithStreamError(CFStreamError const*)
PUBLIC 92dfc 0 HTTPProtocol::transformErrorDomainNativeSocket(long)
PUBLIC 92f5c 0 URLProtocol::sendDidFail(__CFError*)
PUBLIC 931c3 0 -[NSHTTPCookieStorage cookiesForURL:]
PUBLIC 93283 0 CFHTTPCookieStorageCopyCookiesForURL
PUBLIC 9332c 0 HTTPNetConnection::cleanAbortRequestTransmission()
PUBLIC 9337e 0 NetConnection::cleanAbortRequestTransmission()
PUBLIC 933a4 0 HTTPNetStreamInfo::cleanAbort()
PUBLIC 933dc 0 CFNetworkReadStream::httpStreamUnschedule(__CFReadStream*, __CFRunLoop*, __CFString const*, void*)
PUBLIC 933fa 0 HTTPNetStreamInfo::_streamImpl_deprecated_Unschedule(__CFReadStream*, __CFRunLoop*, __CFString const*)
PUBLIC 934a8 0 NetConnection::unschedule(void*, __CFRunLoop*, __CFString const*)
PUBLIC 9359a 0 CoreWriteStreamUnscheduleFromRunLoop(__CoreWriteStream*, __CFRunLoop*, __CFString const*)
PUBLIC 935cf 0 ___ZN12HTTPProtocol26useNetStreamInfoForRequestEP17MetaNetStreamInfoPK18HTTPRequestMessageh_block_invoke_4
PUBLIC 93642 0 ___ZN12HTTPProtocol26useNetStreamInfoForRequestEP17MetaNetStreamInfoPK18HTTPRequestMessageh_block_invoke_5
PUBLIC 936d4 0 non-virtual thunk to URLConnectionLoader_Classic::protocolConnectionEstablished(__CFDictionary const*)
PUBLIC 93728 0 ___ZN27URLConnectionLoader_Classic29protocolConnectionEstablishedEPK14__CFDictionary_block_invoke
PUBLIC 9373e 0 URLConnectionLoader::protocolConnectionEstablished(__CFDictionary const*)
PUBLIC 93978 0 ___ZN19URLConnectionLoader29protocolConnectionEstablishedEPK14__CFDictionary_block_invoke
PUBLIC 939eb 0 ___ZN19URLConnectionLoader29protocolConnectionEstablishedEPK14__CFDictionary_block_invoke_2
PUBLIC 93a68 0 ___ZN19URLConnectionLoader29protocolConnectionEstablishedEPK14__CFDictionary_block_invoke_3
PUBLIC 93ad8 0 URLConnectionLoader::_private_followRedirection(NSURLRequest const*)
PUBLIC 93b64 0 ___ZN19URLConnectionLoader31_onqueue_loaderEvent_CancelLoadEP16dispatch_queue_sU13block_pointerFvvEP11URLProtocol_block_invoke
PUBLIC 93ba8 0 URLConnectionLoader::_onqueue_loaderEvent_CancelLoad0(dispatch_queue_s*, void () block_pointer, URLProtocol*)
PUBLIC 93c63 0 ___ZN19URLConnectionLoader26_private_followRedirectionEPK12NSURLRequest_block_invoke
PUBLIC 93cc8 0 URLConnectionLoader::replayOrConsumeRedirections()
PUBLIC 93d26 0 HTTPProtocol::updateHTTPMessageWithCondtionalHeaders(__CFHTTPMessage*, _CFCachedURLResponse const*, _CFURLRequest const*)
PUBLIC 93ed2 0 CFURLResponseGetLastModifiedDate
PUBLIC 93ef9 0 _CFStringCreateRFC2616DateStringWithGregorianDate
PUBLIC 93fa4 0 CoreSchedulingSet::scheduleTimer(__CFRunLoopTimer*) const
PUBLIC 93ff0 0 ___ZNK17CoreSchedulingSet13scheduleTimerEP16__CFRunLoopTimer_block_invoke
PUBLIC 94004 0 HTTPProtocol::handleNotModifiedResponse(__CFHTTPMessage*)
PUBLIC 9446d 0 CFHTTPMessageCreateCopy
PUBLIC 944e4 0 HTTPResponseMessage::HTTPResponseMessage(HTTPResponseMessage const*)
PUBLIC 944ee 0 CFURLResponseSetMIMEType
PUBLIC 94586 0 CFCachedURLResponseGetUserInfo
PUBLIC 9459e 0 CFCachedURLResponseCreateWithDataArray
PUBLIC 94636 0 __CFCachedURLResponse::__CFCachedURLResponse(_CFURLResponse*, __CFArray const*, void const*, CFURLCacheStoragePolicy)
PUBLIC 9470c 0 HTTPProtocol::setSSLCertContextOnResponseOrCachedResponse(_CFURLResponse*, _CFCachedURLResponse const*)
PUBLIC 947c4 0 non-virtual thunk to URLConnectionLoader_Classic::protocolCacheResponseIsValid(_CFCachedURLResponse const*)
PUBLIC 947d2 0 URLConnectionLoader_Classic::protocolCacheResponseIsValid(_CFCachedURLResponse const*)
PUBLIC 9483c 0 non-virtual thunk to URLConnectionClient::_loaderClientEvent_HandleCacheResponseIsValid(_CFCachedURLResponse const*)
PUBLIC 9484a 0 URLConnectionClient::_loaderClientEvent_HandleCacheResponseIsValid(_CFCachedURLResponse const*)
PUBLIC 94926 0 ___ZN19URLConnectionClient45_loaderClientEvent_HandleCacheResponseIsValidEPK20_CFCachedURLResponse_block_invoke
PUBLIC 94960 0 non-virtual thunk to URLConnectionClient_Classic::_delegate_cacheTrifecta(_CFCachedURLResponse const*, void () block_pointer)
PUBLIC 9496e 0 URLConnectionClient_Classic::_delegate_cacheTrifecta(_CFCachedURLResponse const*, void () block_pointer)
PUBLIC 94a18 0 ___ZN27URLConnectionClient_Classic23_delegate_cacheTrifectaEPK20_CFCachedURLResponseU13block_pointerFvvE_block_invoke
PUBLIC 94e4b 0 translateSSLContextError(SSLContext*, int)
PUBLIC 94ea0 0 STube::_onqueue_saveSSLCertContext()
PUBLIC 94f56 0 STube::copySSLCertContext()
PUBLIC 94fe3 0 ___ZN5STube18copySSLCertContextEv_block_invoke
PUBLIC 95014 0 -[__NSCFURLSessionTask _releasePreventIdleSleepAssertionIfAppropriate]
PUBLIC 95072 0 __70-[__NSCFURLSessionTask _releasePreventIdleSleepAssertionIfAppropriate]_block_invoke
PUBLIC 95088 0 HTTPProtocolSSLSupport::_IsTLSFailOverError(int)
PUBLIC 950b2 0 HTTPProtocol::retryAfterTLSFailure()
PUBLIC 951a0 0 -[__NSURLSessionLocal _withConnectionCache_setCurrentSSLMethod:forKey:scheduling:]
PUBLIC 95219 0 ___ZN12XTubeManager25setCurrentSSLMethodForKeyEPK22HTTPConnectionCacheKeyPK10__CFStringPK17CoreSchedulingSet_block_invoke
PUBLIC 95232 0 GlueTubeManager::setCurrentSSLMethodForKey(HTTPConnectionCacheKey const*, __CFString const*)
PUBLIC 952b0 0 TubeManager::setCurrentSSLMethodForKey(HTTPConnectionCacheKey const*, __CFString const*)
PUBLIC 952d4 0 STubeManager::setCurrentSSLMethodForKey(HTTPConnectionCacheKey const*, __CFString const*)
PUBLIC 952f8 0 SAwaitingTube::getKey()
PUBLIC 95302 0 RetainableTypedArray<SAwaitingTube*>::_invoke(void const*, void*)
PUBLIC 95316 0 ___ZN12STubeManager21_onqueue_newTubeReadyEP5STube13CFStreamError_block_invoke_2
PUBLIC 9532c 0 -[CONNECTION_SessionTask _releasePreventIdleSleepAssertionIfAppropriate]
PUBLIC 95332 0 HTTPProtocolSSLSupport::markSSLCertsCacheInvalid()
PUBLIC 95340 0 HTTPProtocol::transformErrorDomainSSL(long)
PUBLIC 953ba 0 HTTPProtocolSSLSupport::translateSSLError(int)
PUBLIC 953e4 0 HTTPProtocol::createSSLErrorDict(long)
PUBLIC 954b8 0 non-virtual thunk to URLConnectionLoader_Classic::protocolDidFail(__CFError*)
PUBLIC 954c6 0 URLConnectionLoader_Classic::protocolDidFail(__CFError*)
PUBLIC 9552f 0 ___ZN27URLConnectionLoader_Classic15protocolDidFailEP9__CFError_block_invoke
PUBLIC 9555c 0 URLConnectionLoader::protocolDidFail(__CFError*)
PUBLIC 9589c 0 ___ZN19URLConnectionLoader15protocolDidFailEP9__CFError_block_invoke
PUBLIC 95910 0 non-virtual thunk to URLConnectionClient::_loaderClientEvent_DidFailWithError(__CFError*)
PUBLIC 95920 0 non-virtual thunk to SessionConnectionLoadable::_loaderClientEvent_DidFailWithError(__CFError*)
PUBLIC 9593c 0 _CFHTTPCookieStorageFlushCookieStores
PUBLIC 95946 0 RetainableTypedDict<__CFDictionary const*, PrivateHTTPCookieStorage*>::_visit(void const*, void const*, void*)
PUBLIC 95960 0 RetainableTypedDict<__CFDictionary const*, PrivateHTTPCookieStorage*>::~RetainableTypedDict()
PUBLIC 95990 0 NSURLCacheInit()
PUBLIC 95acf 0 -[NSURLSessionConfiguration copyWithZone:]
PUBLIC 95b4e 0 -[NSURLSessionConfiguration getConnectionCacheLimits]
PUBLIC 95bdb 0 _CFURLStorageSessionCopyProcessDefault
PUBLIC 95bea 0 _CFURLStorageSessionCopyCookieStorage
PUBLIC 95c0e 0 StorageSession::copyCookieStorage() const
PUBLIC 95c89 0 ___ZNK14StorageSession17copyCookieStorageEv_block_invoke
PUBLIC 95e04 0 StorageSession::copyExplicitlySpecifiedAppIdentifier() const
PUBLIC 95e31 0 -[NSURLSessionTask _initializeTimingDataWithSessionConfiguration:]
PUBLIC 95ead 0 -[NSURLSessionTask setPriority:]
PUBLIC 95ec2 0 -[NSURLSessionConfiguration _copyAttribute:]
PUBLIC 95f40 0 -[__NSCFLocalSessionTask setLocalSession:]
PUBLIC 95f51 0 -[NSURLSessionTask resume]
PUBLIC 95fcd 0 -[NSURLSessionTask updateCurrentRequest:]
PUBLIC 9604c 0 -[__NSCFURLSessionConnection setTask:]
PUBLIC 9605d 0 -[NSURLSessionTask copyWithZone:]
PUBLIC 960db 0 -[__NSCFURLSessionConnection setDelegate:]
PUBLIC 960ee 0 -[__NSCFURLSessionConnection task]
PUBLIC 96105 0 -[NSURLSessionTask _copyCurrentCFURLRequest]
PUBLIC 96183 0 -[NSURLSessionConfiguration copyHSTSPolicy]
PUBLIC 96202 0 -[__NSCFLocalSessionTask startResourceTimer]
PUBLIC 96275 0 -[NSURLSessionTask _copySocketStreamProperties]
PUBLIC 962f1 0 -[NSURLSessionTask _createXURLCache]
PUBLIC 9636d 0 -[NSURLSessionTask _createXCredentialStorage]
PUBLIC 963e9 0 -[NSURLSessionTask _copyHSTSPolicy]
PUBLIC 96465 0 -[NSURLSessionTask shouldHandleCookiesAndSchemeIsAppropriate]
PUBLIC 964e1 0 -[NSURLSessionTask _createXCookieStorage]
PUBLIC 9655e 0 NSURLSessionTask::getConnectionOptions() const
PUBLIC 966a1 0 -[NSURLSessionTask priority]
PUBLIC 966b5 0 -[__NSCFURLSessionConnection delegate]
PUBLIC 966cc 0 _CFHSTSPolicyIsKnownHSTSHost
PUBLIC 96711 0 -[NSURLSessionTask _onqueue_releasePowerAsssertion]
PUBLIC 9678d 0 -[NSCachedURLResponse initWithResponse:data:]
PUBLIC 967a5 0 __Block_byref_object_copy_
PUBLIC 967bc 0 -[__NSCFLocalSessionTask setUploadFile:]
PUBLIC 967cd 0 -[NSURLSessionTask _onqueue_adjustPriorityHint:]
PUBLIC 9684a 0 _CFHSTSPolicyIsKnownHSTSHostWithBytes
PUBLIC 9689c 0 HTTPConnectionCacheEntry::~HTTPConnectionCacheEntry()
PUBLIC 968b8 0 CompactCookieArray::Class()
PUBLIC 968e4 0 SocketStream::_SecurityNPNFunc(SSLContext*, void*, void const*, unsigned long)
PUBLIC 96979 0 ___ZN12SocketStream16_SecurityNPNFuncEP10SSLContextPvPKvm_block_invoke
PUBLIC 9698f 0 ___ZN12HTTPProtocol22copyCookiesForThisTaskEPK16NSURLSessionTask_block_invoke
PUBLIC 969c4 0 CFXCookieStorage::~CFXCookieStorage()
PUBLIC 969e0 0 CFXCookieStorage::~CFXCookieStorage()
PUBLIC 96a22 0 __Block_byref_object_dispose_
PUBLIC 96a35 0 CFHTTPMessageCreateResponse
PUBLIC 96ac1 0 CFURLRequestSetShouldCacheResponse
PUBLIC 96ac8 0 HSTSPolicy::createDefaultPolicy()
PUBLIC 96b08 0 ___ZN10HSTSPolicy16getDefaultPolicyEv_block_invoke
PUBLIC 96b9a 0 HSTSPolicy::initialize(__CFAllocator const*, __CFDictionary const*)
PUBLIC 96be6 0 HSTSCache::Class()
PUBLIC 96c12 0 ___ZN9HSTSCache5ClassEv_block_invoke
PUBLIC 96c42 0 HSTSCache::HSTSCache()
PUBLIC 96c86 0 HSTSCache::initialize(__CFDictionary const*)
PUBLIC 96d9c 0 HSTSCache::createKnownHSTSHostsDictionary()
PUBLIC 96ef0 0 HSTSCache::createHSTSStorePath(unsigned char)
PUBLIC 96f64 0 HSTSCache::createDataFromFileURL(__CFAllocator const*, __CFURL const*, __CFError**)
PUBLIC 9719c 0 HSTSParser::createHSTSInfo(__CFAllocator const*, double, unsigned char, unsigned char, __CFNumber const*)
PUBLIC 972f8 0 HSTSPreloader::getVersionWithKey(__CFDictionary const*, __CFString const*)
PUBLIC 97338 0 HTTPCookieStorage::copyDefaultBinaryStorageLocationForOtherAppBundleAndIdentifier(__CFString const*, __CFString const*)
PUBLIC 9734d 0 _createByFile(__CFDictionary const*)
PUBLIC 9747e 0 DiskCookieStorage::initialize(MemoryCookies const*)
PUBLIC 97b0e 0 DiskCookieStorage::readFileToCookies(MemoryCookies*)
PUBLIC 97d0e 0 MemoryCookies::mergeCookiesFrom(MemoryCookies const*)
PUBLIC 97d82 0 DiskCookieStorage::requiresJournaling()
PUBLIC 97f02 0 CompactCookieArray::newEmptyArray()
PUBLIC 97f5e 0 CompactCookieArray::CompactCookieArray(CompactCookieHeader const**, unsigned int)
PUBLIC 97fe4 0 CookieArrayViewConstructionKit::createArrayView(CompactCookieHeader const**, unsigned int)
PUBLIC 980a6 0 CompactCookieArray::~CompactCookieArray()
PUBLIC 980b0 0 CompactCookieArray::~CompactCookieArray()
PUBLIC 9812c 0 non-virtual thunk to URLConnectionClient_Classic::_delegate_willCacheResponse(_CFCachedURLResponse const*, void (_CFCachedURLResponse const*) block_pointer)
PUBLIC 9813a 0 URLConnectionClient_Classic::_delegate_willCacheResponse(_CFCachedURLResponse const*, void (_CFCachedURLResponse const*) block_pointer)
PUBLIC 981fd 0 CFURLCacheCopySharedURLCache
PUBLIC 98268 0 DiskCookieStorage::syncStorageWithCompletionLocked(unsigned char, void () block_pointer)
PUBLIC 98f76 0 HTTPConnectionCache::timeoutIdleConnections()
PUBLIC 98fae 0 HTTPConnectionCache::performIdleSweep()
PUBLIC 99240 0 HTTPConnectionCacheDictionary::newKeyAndObjectEnumerator()
PUBLIC 992a0 0 HTTPConnectionCacheEntry::purgeIdleConnections(double, double)
PUBLIC 99458 0 HTTPConnectionCacheEntry::countConnections() const
PUBLIC 99488 0 TubeManager::_onqueue_getValidAwaitingTubeForKey(HTTPConnectionCacheKey const*)
PUBLIC 9951a 0 _XX_CFURLConnectionSessionCreateCopyWithSubsitutedAttributes
PUBLIC 998e4 0 _XX_CFURLConnectionSessionCreateMutableHTTPRequest
PUBLIC 999a3 0 _XX_CFURLConnectionSessionCreateConnection
PUBLIC 99b85 0 -[NSURLSessionTask _copyOriginalCFURLRequest]
PUBLIC 99c02 0 non-virtual thunk to URLConnectionClient_Classic::_delegate_didCancel(void () block_pointer)
PUBLIC 99c66 0 ___ZN27URLConnectionClient_Classic19_delegate_didCancelEU13block_pointerFvvE_block_invoke
PUBLIC 99c86 0 Tube::clientCanceled(MetaConnectionCacheClient*)
PUBLIC 99cb8 0 Tube::_onqueue_cancel()
PUBLIC 99d64 0 ___ZN4Tube15_onqueue_cancelEv_block_invoke
PUBLIC 99d90 0 HTTPProtocol::sendError(__CFString const*, long)
PUBLIC 99e60 0 _session_connection_willSendRequestForAuthenticationChallenge(_CFURLConnection*, _CFURLAuthChallenge*, void const*)
PUBLIC 99f02 0 _XX_CFURLConnectionSessionPerformDefaultHandlingForMessage
PUBLIC 99f95 0 ___ZL61_session_connection_willSendRequestForAuthenticationChallengeP16_CFURLConnectionP19_CFURLAuthChallengePKv_block_invoke
PUBLIC 99ff8 0 CFURLConnectionPerformDefaultHandlingForChallenge
PUBLIC 9a05a 0 ClassicURLConnection::performDefaultHandlingForChallenge(_CFURLAuthChallenge*)
PUBLIC 9a143 0 ___ZN20ClassicURLConnection34performDefaultHandlingForChallengeEP19_CFURLAuthChallenge_block_invoke
PUBLIC 9a183 0 getMIMETypeForComplexNonScriptableTypeRules(__CFData const*)
PUBLIC 9a557 0 isAllText(__CFData const*)
PUBLIC 9a5ea 0 _session_connection_didReceiveResponse(_CFURLConnection*, _CFURLResponse*, void const*)
PUBLIC 9a63c 0 HTTPResponseMessage::responseURL(unsigned char) const
PUBLIC 9a65c 0 -[NSHTTPURLResponse initWithURL:statusCode:HTTPVersion:headerFields:]
PUBLIC 9a734 0 _session_connection_didReceiveDataArray(_CFURLConnection*, __CFArray const*, void const*)
PUBLIC 9a9a9 0 _session_connection_didFinishLoading(_CFURLConnection*, void const*)
PUBLIC 9aa19 0 ___ZL39_session_connection_didReceiveDataArrayP16_CFURLConnectionPK9__CFArrayPKv_block_invoke
PUBLIC 9aa2f 0 -[NSHost names]
PUBLIC 9aa5c 0 -[NSHost blockingResolveUntil:]
PUBLIC 9ab31 0 -[NSHost resolve:]
PUBLIC 9abaf 0 -[__NSHostExtraIvars resolveQueue]
PUBLIC 9abc0 0 __18-[NSHost resolve:]_block_invoke
PUBLIC 9ad77 0 -[__NSHostExtraIvars startedResolving]
PUBLIC 9ad8a 0 -[__NSHostExtraIvars setStartedResolving:]
PUBLIC 9ad9a 0 -[NSHost resolveCurrentHostWithHandler:]
PUBLIC 9b0cd 0 __40-[NSHost resolveCurrentHostWithHandler:]_block_invoke
PUBLIC 9b280 0 -[__NSHostExtraIvars cacheAccessQueue]
PUBLIC 9b291 0 __40-[NSHost resolveCurrentHostWithHandler:]_block_invoke_2
PUBLIC 9b392 0 -[__NSHostExtraIvars callbackQueue]
PUBLIC 9b3a3 0 __40-[NSHost resolveCurrentHostWithHandler:]_block_invoke_3
PUBLIC 9b3bc 0 __31-[NSHost blockingResolveUntil:]_block_invoke
PUBLIC 9b3f9 0 __18-[NSHost resolve:]_block_invoke_2
PUBLIC 9b40f 0 -[NSHost addresses]
PUBLIC 9b43e 0 CFNetDiagnosticCreateWithStreams
PUBLIC 9b4d8 0 CFNetDiagnosticCopyNetworkStatusPassively
PUBLIC 9b65e 0 _CFNetDiagnosticCopyNetworkStatusPassivelyInterfaceSpecific(__SCDynamicStore const*, __CFString const*, __CFString const**)
PUBLIC 9b9af 0 _CFSocketStreamCreatePair
PUBLIC 9baa8 0 CFStreamCreatePairWithSocketToCFHost
PUBLIC 9baba 0 SocketStream::_SOCKSSetInfo_NoLock(__CFDictionary const*)
PUBLIC 9be74 0 ReadStreamCallbacks::_openCompleted(__CFReadStream*, CFStreamError*, void*)
PUBLIC 9be9e 0 virtual thunk to SocketStream::openCompleted(void const*, CFStreamError*)
PUBLIC 9bebe 0 WriteStreamCallbacks::_openCompleted(__CFWriteStream*, CFStreamError*, void*)
PUBLIC 9beea 0 SocketStream::securityGetProtocol()
PUBLIC 9bfaa 0 -[NSURLConnection initWithRequest:delegate:startImmediately:]
PUBLIC 9bfd1 0 ___ZN9TCFObjectI11URLProtocolE5ClassEv_block_invoke
PUBLIC 9c034 0 CFURLProtocol_NS::_protocolInterface_resumeLoad()
PUBLIC 9c03b 0 -[__NSCFURLProtocolClient_NS URLProtocol:didFailWithError:]
PUBLIC 9c090 0 CFURLProtocol_NS::_protocolInterface_cancelLoad()
PUBLIC 9c0f3 0 +[NSURLProtocol setProperty:forKey:inRequest:]
PUBLIC 9c152 0 DiskCookieStorage::Journal::replayJournal(MemoryCookies*, DiskCookieStorage*)
PUBLIC 9c254 0 MemoryCookies::deleteAllCookies()
PUBLIC 9c286 0 HSTSCache::persistAtExit()
PUBLIC 9c29e 0 HSTSCache::_persistAtExit()
PUBLIC 9c31a 0 +[NSURLConnection(TimingData) _setCollectsTimingData:]
PUBLIC 9c326 0 _NSURLConnectionDidReceiveData_LengthReceived(_CFURLConnection*, __CFData const*, long, void const*)
PUBLIC 9c381 0 ___ZL45_NSURLConnectionDidReceiveData_LengthReceivedP16_CFURLConnectionPK8__CFDatalPKv_block_invoke
PUBLIC 9c3a6 0 CFHostCreateWithAddress
PUBLIC 9c488 0 CFHostStartInfoResolution
PUBLIC 9c512 0 DispatchHost::startInfoResolution(__CFString const*, __CFString const*, __CFDictionary const*)
PUBLIC 9c5dc 0 HostBase::purgeInfoLocked(__CFString const*)
PUBLIC 9c5ea 0 DispatchHost::enqueueResolutionLocked(__CFString const*, __CFString const*, __CFDictionary const*)
PUBLIC 9c7f2 0 HostBase::calculateWantsLocked(CFNetworkConstantString::HostInfo::DomainString, HostBase::WantsAndNeeds*)
PUBLIC 9c97c 0 HostBase::getInfoLocked(__CFString const*)
PUBLIC 9c98a 0 HostLookup_Names::enqueueWithHost(DispatchHost*, __CFData const*, __CFString const*)
PUBLIC 9cba2 0 DispatchHost::createAndEnqueuePortSource(unsigned int)
PUBLIC 9cc88 0 ___ZN12DispatchHost26createAndEnqueuePortSourceEj_block_invoke
PUBLIC 9cc96 0 ___ZN12DispatchHost26createAndEnqueuePortSourceEj_block_invoke_2
PUBLIC 9ccc6 0 DispatchHost::GetAddrAsyncHelper::handle_mach_msg_received(unsigned int)
PUBLIC 9cd36 0 _dispach_HostLookup_Names__GetNameInfoCallBack(int, char*, char*, void*)
PUBLIC 9ced8 0 DispatchHost::performCallback(__CFString const*, void const*)
PUBLIC 9d004 0 DispatchHost::GetAddrAsyncHelper::~GetAddrAsyncHelper()
PUBLIC 9d034 0 SocketStream::setBlockedOnSSLWrite_NoLock()
PUBLIC 9d0fe 0 SocketStream::securityIsSendUnblocked_NoLock()
PUBLIC 9d1a8 0 SocketStream::clearBlockedOnSSLWrite_NoLock()
PUBLIC 9d268 0 ___ZN27URLConnectionClient_Classic27_delegate_willCacheResponseEPK20_CFCachedURLResponseU13block_pointerFvS2_E_block_invoke
PUBLIC 9d39b 0 _NSURLConnectionWillCacheResponse(_CFURLConnection*, _CFCachedURLResponse const*, void const*)
PUBLIC 9d467 0 ___ZL33_NSURLConnectionWillCacheResponseP16_CFURLConnectionPK20_CFCachedURLResponsePKv_block_invoke
PUBLIC 9d52e 0 -[NSCachedURLResponse _initWithCFCachedURLResponse:]
PUBLIC 9d63f 0 CFHTTPMessageCreateRequest
PUBLIC 9d6e6 0 HTTPRequestMessage::HTTPRequestMessage(HTTPMethodMixedValue const&, __CFURL const*, HTTPVersionMixedValue const&)
PUBLIC 9d6f0 0 CFReadStreamCreateForHTTPRequest
PUBLIC 9d740 0 __CFReadStreamCreateForHTTPRequest_block_invoke
PUBLIC 9d7ae 0 HTTPReadStream::HTTPReadStream(__CFReadStream*, HTTPRequestMessage*, __CFReadStream*)
PUBLIC 9d7b8 0 HTTPReadStream::HTTPReadStream(__CFReadStream*, HTTPRequestMessage*, __CFReadStream*)
PUBLIC 9d8c0 0 HTTPReadStream::_streamImpl_SetProperty(__CFReadStream*, __CFString const*, void const*)
PUBLIC 9dd9a 0 HTTPReadStream::_streamImpl_deprecated_Schedule(__CFReadStream*, __CFRunLoop*, __CFString const*)
PUBLIC 9de14 0 HTTPReadStream::_streamImpl_Open(__CFReadStream*, CFStreamError*, unsigned char*)
PUBLIC 9def8 0 HTTPReadStream::constructProxyList(CFStreamError*)
PUBLIC 9e27c 0 HTTPReadStream::startRequest(CFStreamError*)
PUBLIC 9e646 0 HTTPReadStream::authenticationRequiresPersistentConnection()
PUBLIC 9e68c 0 HTTPReadStream::nextConnectionCacheKeyFromProxyArray()
PUBLIC 9e810 0 NetConnectionCache::createKey(__CFAllocator const*, __CFString const*, int, unsigned int, __CFDictionary const*)
PUBLIC 9e872 0 NetConnectionCache::Key::Key(__CFAllocator const*, __CFString const*, int, unsigned int, __CFDictionary const*)
PUBLIC 9e87c 0 NetConnectionCache::Key::Key(__CFAllocator const*, __CFString const*, int, unsigned int, __CFDictionary const*)
PUBLIC 9e901 0 ___ZL21getNetConnectionCachev_block_invoke
PUBLIC 9e92a 0 NetConnectionCache::NetConnectionCache()
PUBLIC 9e966 0 NetConnectionCache::Key::getValues(__CFString const**, int*, unsigned int*, __CFDictionary const**) const
PUBLIC 9e998 0 NetConnectionCache::findOrCreateNetConnection(__CFAllocator const*, NetConnection* (*)(__CFAllocator const*, void const*, unsigned char), void const*, NetConnectionCache::Key const*, unsigned char, __CFDictionary const*)
PUBLIC 9ea82 0 _constructNetConnection(__CFAllocator const*, void const*, unsigned char)
PUBLIC 9eb2c 0 setConnectionProperties(NetConnection*, __CFDictionary const*)
PUBLIC 9ec8e 0 NetConnectionCache::Key::~Key()
PUBLIC 9ecaa 0 NetConnectionCache::Key::~Key()
PUBLIC 9ece9 0 ___ZN14HTTPReadStream12startRequestEP13CFStreamError_block_invoke_2
PUBLIC 9ed51 0 _httpreadstream_retain(void*)
PUBLIC 9ed6e 0 CFNetworkReadStream::httpStreamOpenCompleted(__CFReadStream*, CFStreamError*, void*)
PUBLIC 9ed8c 0 HTTPNetStreamInfo::_streamImpl_OpenCompleted(__CFReadStream*, CFStreamError*)
PUBLIC 9ee20 0 NetConnection::getState(unsigned char, void*)
PUBLIC 9eed6 0 HTTPNetConnection::transmitRequest(void*)
PUBLIC 9f04c 0 NetConnection::getStateLocked(void*) const
PUBLIC 9f114 0 NetConnection::connectionLost()
PUBLIC 9f204 0 HTTPReadStream::_streamCB(__CFReadStream*, unsigned long, void*)
PUBLIC 9f212 0 HTTPReadStream::streamEvent(unsigned long)
PUBLIC 9f353 0 _httpreadstream_release(void*)
PUBLIC 9f362 0 HTTPReadStream::readHeader(CFStreamError*)
PUBLIC 9f73a 0 HTTPReadStream::_streamImpl_CopyProperty(__CFReadStream*, __CFString const*)
PUBLIC 9f85a 0 HTTPReadStream::_streamImpl_Read(__CFReadStream*, unsigned char*, long, CFStreamError*, unsigned char*)
PUBLIC 9f874 0 HTTPReadStream::_streamImpl_deprecated_Unschedule(__CFReadStream*, __CFRunLoop*, __CFString const*)
PUBLIC 9f8ee 0 HTTPReadStream::_streamImpl_Close(__CFReadStream*)
PUBLIC 9f94c 0 HTTPReadStream::dequeueRequestFromConnection(unsigned char)
PUBLIC 9fc2a 0 CFHTTPMessageSetBody
PUBLIC 9fc86 0 HTTPReadStream::~HTTPReadStream()
PUBLIC 9fc90 0 HTTPReadStream::~HTTPReadStream()
PUBLIC 9fda7 0 CFHTTPCookieStorageSetCookies
PUBLIC 9fe52 0 CFHTTPCookieGetTypeID
PUBLIC 9fe61 0 CFHTTPCookieCopyName
PUBLIC 9fe9e 0 _NSURLConnectionCanRespondToProtectionSpace(_CFURLConnection*, _CFURLProtectionSpace*, void const*)
PUBLIC 9ff4d 0 ___ZL43_NSURLConnectionCanRespondToProtectionSpaceP16_CFURLConnectionP21_CFURLProtectionSpacePKv_block_invoke
PUBLIC 9ffd0 0 -[NSURLProtectionSpace isProxy]
PUBLIC 9ffea 0 CFURLProtectionSpaceIsProxy
PUBLIC a0019 0 CFHTTPMessageCopyResponseStatusLine
PUBLIC a0091 0 +[NSHTTPCookie cookieWithCFHTTPCookie:]
PUBLIC a00d6 0 -[NSHTTPCookie initWithCFHTTPCookie:]
PUBLIC a0104 0 -[NSHTTPCookie name]
PUBLIC a0129 0 -[NSHTTPCookie isHTTPOnly]
PUBLIC a0143 0 CFHTTPCookieIsHTTPOnly
PUBLIC a0154 0 CFHTTPCookieGetFlags
PUBLIC a019d 0 +[NSHTTPCookie requestHeaderFieldsWithCookies:]
PUBLIC a01fe 0 +[NSHTTPCookie _ns2cfCookies:]
PUBLIC a0315 0 -[NSHTTPCookie dealloc]
PUBLIC a0368 0 non-virtual thunk to URLConnectionLoader::_loaderEvent_DontUseCredentialStorage()
PUBLIC a0384 0 ___ZN19URLConnectionLoader37_loaderEvent_DontUseCredentialStorageEv_block_invoke
PUBLIC a0394 0 CookieParser_parse
PUBLIC a101c 0 CookieParser_lex
PUBLIC a9c59 0 _makeCookie
PUBLIC aa0e0 0 CookieUtils::looksLikeIPAddress(__CFString const*)
PUBLIC aa1d5 0 CFHTTPCookieCreateWithProperties
PUBLIC aa2e8 0 CompactHTTPCookieWithData::CompactHTTPCookieWithData(__CFDictionary const*)
PUBLIC aa2f2 0 CompactHTTPCookieWithData::CompactHTTPCookieWithData(__CFDictionary const*)
PUBLIC aa396 0 Decanter::decant(__CFAllocator const*)
PUBLIC aa970 0 CompactHTTPCookieWithData::CompactHTTPCookieWithData(__CFDictionary const*)::PropDecanter::getEnumeratedString(unsigned int)
PUBLIC aab46 0 CompactHTTPCookieWithData::CompactHTTPCookieWithData(__CFDictionary const*)::PropDecanter::ensureDomain(PropDecanter*, void const*)
PUBLIC aabf0 0 CompactHTTPCookieWithData::CompactHTTPCookieWithData(__CFDictionary const*)::PropDecanter::ensureValidName(PropDecanter*, void const*)
PUBLIC aac3a 0 CompactHTTPCookieWithData::CompactHTTPCookieWithData(__CFDictionary const*)::PropDecanter::stringIsHTTPHeaderClean(__CFString const*)
PUBLIC aaca0 0 CompactHTTPCookieWithData::CompactHTTPCookieWithData(__CFDictionary const*)::PropDecanter::getPortCount()
PUBLIC aad58 0 CompactHTTPCookieWithData::CompactHTTPCookieWithData(__CFDictionary const*)::PropDecanter::ensureValidValue(PropDecanter*, void const*)
PUBLIC aad92 0 CompactHTTPCookieWithData::CompactHTTPCookieWithData(__CFDictionary const*)::PropDecanter::getVersion()
PUBLIC aadc2 0 CompactHTTPCookieWithData::CompactHTTPCookieWithData(__CFDictionary const*)::PropDecanter::getNumberValue(__CFString const*, long*)
PUBLIC aadf8 0 CompactHTTPCookieWithData::CompactHTTPCookieWithData(__CFDictionary const*)::PropDecanter::getFlags()
PUBLIC aae88 0 CompactHTTPCookieWithData::CompactHTTPCookieWithData(__CFDictionary const*)::PropDecanter::getExpireTime()
PUBLIC ab016 0 CompactHTTPCookieWithData::CompactHTTPCookieWithData(__CFDictionary const*)::PropDecanter::getCreateTime()
PUBLIC ab09c 0 CompactCookieHeader::setEnumeratedStringValue(CookieData::FieldNames, unsigned int, unsigned char const*, long)
PUBLIC ab3a8 0 CompactHTTPCookieWithData::CompactHTTPCookieWithData(__CFDictionary const*)::PropDecanter::~PropDecanter()
PUBLIC ab3ec 0 CompactHTTPCookieWithData::cookieHeader() const
PUBLIC ab3f6 0 -[NSHTTPCookieStorage setCookies:forURL:mainDocumentURL:]
PUBLIC ab484 0 CookieUtils::web_domainMatches_LCC_LCC(unsigned char const*, unsigned char const*)
PUBLIC ab6c2 0 AutoString::initialize(__CFAllocator const*, char const*)
PUBLIC ab6f4 0 AutoStringWithFormat::AutoStringWithFormat(__CFAllocator const*, __CFString const*, ...)
PUBLIC ab7b8 0 AutoStringWithFormat::~AutoStringWithFormat()
PUBLIC ab7c2 0 AutoString::~AutoString()
PUBLIC ab820 0 AutoString::~AutoString()
PUBLIC ab82a 0 ExternalCookieStorage::assertCookie(CompactCookieHeader const*)
PUBLIC ab85a 0 ExternalStorageCache::invalidateCacheFor(unsigned char const*)
PUBLIC ab8a0 0 ExternallyCachedCookieArray::~ExternallyCachedCookieArray()
PUBLIC ab8bc 0 ExternallyCachedCookieArray::~ExternallyCachedCookieArray()
PUBLIC ab900 0 CoreContainerRetainable::~CoreContainerRetainable()
PUBLIC ab906 0 HTTPCookieStorage::notifyObserversOfChanges()
PUBLIC aba1b 0 _signalObservers(void const*, void*)
PUBLIC aba4c 0 DataProtocol::_createCanonicalRequest(__CFAllocator const*, _CFURLRequest const*, NSURLSession const*, void const*)
PUBLIC aba64 0 CompactHTTPCookieWithData::~CompactHTTPCookieWithData()
PUBLIC aba70 0 CompactHTTPCookieWithData::~CompactHTTPCookieWithData()
PUBLIC ababc 0 DataProtocol::_instantiateProtocol(__CFAllocator const*, NSURLSessionTask const*, URLProtocolClient*, void const*)
PUBLIC abbfa 0 DataProtocol::subclassUpdateScheduling(CoreSchedulingSet const*, CoreSchedulingSet const*)
PUBLIC abc00 0 DataProtocol::_protocolInterface_startLoad(_CFCachedURLResponse const*)
PUBLIC abe46 0 URLProtocol::getRawByteInfo(long*, long*, long*, long*)
PUBLIC abe5a 0 DataProtocol::~DataProtocol()
PUBLIC abe64 0 NetConnection::equals(CFAllocatedReferenceCountedObject const*) const
PUBLIC abe70 0 SourceContext::perform(void*)
PUBLIC abe86 0 NetConnection::pendingRequestCount()
PUBLIC abed0 0 +[NSURLProtocol unregisterClass:]
PUBLIC abf09 0 -[__NSURLSessionLocal _removeProtocolClassForDefaultSession:]
PUBLIC ac006 0 MemoryCookies::setCookie(CompactCookieHeader const*)
PUBLIC ac167 0 +[NSURLProtectionSpace supportsSecureCoding]
PUBLIC ac172 0 -[NSURLProtectionSpace initWithCoder:]
PUBLIC ac22b 0 _CFURLProtectionSpaceCreateFromArchive
PUBLIC ac28a 0 Dearchiver<URLProtectionSpace, _CFURLProtectionSpace*>::dearchive()
PUBLIC ac2e8 0 URLProtectionSpace::initializeFromPropertyList(DeserializableArchive const*)
PUBLIC ac462 0 Serializable::initializeFromPropertyList(DeserializableArchive const*)
PUBLIC ac4fe 0 DeserializableArchive::decant(__CFString const*, unsigned long, void const**) const
PUBLIC ac75e 0 CFURLResponseGetTypeID
PUBLIC ac770 0 DeserializableArchive::deserialize(void const*, __SecTrust**)
PUBLIC ac84e 0 DeserializableArchive::deserialize(void const*, __CFArray const**)
PUBLIC ac9e4 0 DeserializableArchive::decantTypedCF(__CFString const*, void const**) const
PUBLIC acc3e 0 DeserializableArchive::deserialize(void const*, OpaqueSecPolicyRef**)
PUBLIC accfa 0 DeserializableArchive::deserialize(void const*, __CFDictionary const**)
PUBLIC ace54 0 ___ZN19ExternalHSTSStorage24registerForNotificationsEv_block_invoke
PUBLIC ace62 0 -[NSURLCredentialStorage allCredentials]
PUBLIC ace7b 0 CFURLCredentialStorageCopyAllCredentials
PUBLIC acfca 0 non-virtual thunk to ActualCredentialStorage::copyAllCredentials()
PUBLIC acfd8 0 ActualCredentialStorage::copyAllCredentials()
PUBLIC ad042 0 MemoryCredentialStorage::copyAllCredentials()
PUBLIC ad058 0 PersistentCredentialStorage::copyAllCredentials()
PUBLIC ad0b2 0 StorageQuery::performQuery()
PUBLIC ad35a 0 StorageQuery::~StorageQuery()
PUBLIC ad3a6 0 ActualCredentialStorage::mergeProtectionSpaceToNameToCredentialsDict(__CFDictionary const*, __CFDictionary const*)
PUBLIC ad556 0 xx_CFHTTPCookieStorageFlushCookieStores()
PUBLIC ad560 0 xx_CFHTTPCookieStorageRemoveObserver(OpaqueCFHTTPCookieStorage*, __CFRunLoop*, __CFString const*, void (*)(OpaqueCFHTTPCookieStorage*, void*), void*)
PUBLIC ad56a 0 xx_CFHTTPCookieStorageAddObserver(OpaqueCFHTTPCookieStorage*, __CFRunLoop*, __CFString const*, void (*)(OpaqueCFHTTPCookieStorage*, void*), void*)
PUBLIC ad574 0 BrotliDecoderCreateInstance
PUBLIC ad5e5 0 BrotliDecoderDestroyInstance
PUBLIC ad628 0 BrotliDecoderDecompressStream
PUBLIC ae604 0 SaveErrorCode
PUBLIC ae618 0 WriteRingBuffer
PUBLIC ae767 0 DecodeMetaBlockLength
PUBLIC aed1c 0 BrotliCalculateRingBufferSize
PUBLIC aed7b 0 CopyUncompressedBlockToOutput
PUBLIC aef06 0 DecodeVarLenUint8
PUBLIC af0ed 0 ReadHuffmanCode
PUBLIC afcc0 0 DecodeContextMap
PUBLIC b01b4 0 BrotliEnsureRingBuffer
PUBLIC b02a0 0 ProcessCommands
PUBLIC b0e14 0 SafeProcessCommands
PUBLIC b1b50 0 WrapRingBuffer
PUBLIC b1b87 0 SafeDecodeSymbol
PUBLIC b1c16 0 InverseMoveToFrontTransform
PUBLIC b1cb1 0 SafeDecodeCommandBlockSwitch
PUBLIC b2019 0 DecodeCommandBlockSwitch
PUBLIC b21ec 0 SafeDecodeLiteralBlockSwitch
PUBLIC b25be 0 DecodeLiteralBlockSwitch
PUBLIC b27f7 0 SafeDecodeDistanceBlockSwitch
PUBLIC b2b6d 0 DecodeDistanceBlockSwitch
PUBLIC b2d49 0 TransformDictionaryWord
PUBLIC b2e69 0 ToUpperCase
PUBLIC b2ea5 0 BrotliGetDictionary
PUBLIC b2eb4 0 BrotliBuildCodeLengthsHuffmanTable
PUBLIC b3127 0 BrotliBuildHuffmanTable
PUBLIC b33fb 0 BrotliBuildSimpleHuffmanTable
PUBLIC b35f8 0 BrotliDecoderStateInitWithCustomAllocators
PUBLIC b3740 0 DefaultAllocFunc
PUBLIC b374d 0 DefaultFreeFunc
PUBLIC b375a 0 BrotliDecoderStateMetablockBegin
PUBLIC b37ff 0 BrotliDecoderStateCleanupAfterMetablock
PUBLIC b388f 0 BrotliDecoderStateCleanup
PUBLIC b38d0 0 BrotliDecoderHuffmanTreeGroupInit
PUBLIC b3937 0 BrotliInitBitReader
PUBLIC b394b 0 BrotliWarmupBitReader
PUBLIC b399a 0 APSRelayEngine::APSRelayEngine(std::__1::shared_ptr<__CFString const>)
PUBLIC b3ac2 0 APSRelayEngine::APSRelayEngine(std::__1::shared_ptr<__CFString const>)
PUBLIC b3acc 0 APSRelayEngine::~APSRelayEngine()
PUBLIC b3c32 0 APSRelayEngine::~APSRelayEngine()
PUBLIC b3c3c 0 APSRelayEngine::~APSRelayEngine()
PUBLIC b3c58 0 APSRelayEngine::initialize()
PUBLIC b3cbe 0 APSRelayEngine::cancel()
PUBLIC b3d04 0 APSRelayEngine::setProperty(__CFString const*, void const*)
PUBLIC b3d6c 0 APSRelayEngine::processTransaction(std::__1::shared_ptr<HTTPRequestMessage>, std::__1::shared_ptr<__CFData const>, std::__1::shared_ptr<CoreSchedulingSet>, std::__1::shared_ptr<__CFString const>, double, void (std::__1::shared_ptr<HTTPResponseMessage>, objc_object*, CFStreamError, long, long) block_pointer)
PUBLIC b4112 0 APSRelayEngine::_buildRequest()
PUBLIC b425b 0 ___ZN14APSRelayEngine18processTransactionENSt3__110shared_ptrI18HTTPRequestMessageEENS1_IK8__CFDataEENS1_I17CoreSchedulingSetEENS1_IK10__CFStringEEdU13block_pointerFvNS1_I19HTTPResponseMessageEEP11objc_object13CFStreamErrorllE_block_invoke
PUBLIC b43c7 0 ___ZN14APSRelayEngine18processTransactionENSt3__110shared_ptrI18HTTPRequestMessageEENS1_IK8__CFDataEENS1_I17CoreSchedulingSetEENS1_IK10__CFStringEEdU13block_pointerFvNS1_I19HTTPResponseMessageEEP11objc_object13CFStreamErrorllE_block_invoke_2
PUBLIC b4785 0 ___ZN14APSRelayEngine18processTransactionENSt3__110shared_ptrI18HTTPRequestMessageEENS1_IK8__CFDataEENS1_I17CoreSchedulingSetEENS1_IK10__CFStringEEdU13block_pointerFvNS1_I19HTTPResponseMessageEEP11objc_object13CFStreamErrorllE_block_invoke_3
PUBLIC b47ca 0 __copy_helper_block_
PUBLIC b4814 0 __destroy_helper_block_
PUBLIC b484e 0 APSRelayEngine::_saveMetrics()
PUBLIC b4c7e 0 APSRelayEngine::_parseResponse()
PUBLIC b519c 0 __copy_helper_block_.22
PUBLIC b522c 0 __destroy_helper_block_.23
PUBLIC b5292 0 __copy_helper_block_.25
PUBLIC b52ec 0 __destroy_helper_block_.26
PUBLIC b5329 0 ___ZN14APSRelayEngine12_saveMetricsEv_block_invoke
PUBLIC b53b1 0 initFTMessageDelivery_DualMode()
PUBLIC b53f7 0 FTMessageDelivery_DualModeFunction()
PUBLIC b5404 0 ___ZL14LoadFTServicesv_block_invoke
PUBLIC b5435 0 initFTURLRequestMessage()
PUBLIC b547b 0 FTURLRequestMessageFunction()
PUBLIC b5488 0 HTTPVersionMixedValue::~HTTPVersionMixedValue()
PUBLIC b54b8 0 std::__1::__shared_ptr_pointer<HTTPResponseMessage*, Deleter_release<HTTPResponseMessage>, std::__1::allocator<HTTPResponseMessage> >::~__shared_ptr_pointer()
PUBLIC b54d4 0 std::__1::shared_ptr<APSRelayEngine>::shared_ptr<APSRelayEngine>(std::__1::weak_ptr<APSRelayEngine> const&, std::__1::enable_if<is_convertible<APSRelayEngine*, APSRelayEngine*>::value, std::__1::shared_ptr<APSRelayEngine>::__nat>::type)
PUBLIC b550e 0 GetNextOffset(unsigned char const**, unsigned char const*, unsigned char const**)
PUBLIC b5596 0 LookupStringInFixedSet(unsigned char const*, unsigned long, char const*, unsigned long)
PUBLIC b5768 0 lookupDomains(__CFString const*)
PUBLIC b5907 0 ___Z8getDafsav_block_invoke
PUBLIC b5a46 0 -[__NSCFDummyQueue initWithDispatchQueue:]
PUBLIC b5a9c 0 -[__NSCFDummyQueue dealloc]
PUBLIC b5add 0 -[__NSCFDummyQueue addOperationWithBlock:]
PUBLIC b5af5 0 -[__NSCFDummyQueue maxConcurrentOperationCount]
PUBLIC b5b00 0 -[__NSCFURLProtocolClient_NS withCustomProtocolScheduling:]
PUBLIC b5c36 0 __59-[__NSCFURLProtocolClient_NS withCustomProtocolScheduling:]_block_invoke
PUBLIC b5c48 0 _copyPrivateProtocolSchedulingSet()
PUBLIC b5c79 0 __59-[__NSCFURLProtocolClient_NS withCustomProtocolScheduling:]_block_invoke_2
PUBLIC b5c9f 0 __copy_helper_block_
PUBLIC b5cb6 0 __destroy_helper_block_
PUBLIC b5cc9 0 __59-[__NSCFURLProtocolClient_NS withCustomProtocolScheduling:]_block_invoke.16
PUBLIC b5cf0 0 __copy_helper_block_.19
PUBLIC b5d28 0 __destroy_helper_block_.20
PUBLIC b5d54 0 __38-[__NSCFURLProtocolClient_NS teardown]_block_invoke
PUBLIC b5e1e 0 __copy_helper_block_.22
PUBLIC b5e35 0 __destroy_helper_block_.23
PUBLIC b5e48 0 -[__NSCFURLProtocolClient_NS challenge]
PUBLIC b5ea1 0 -[__NSCFURLProtocolClient_NS cfChallenge]
PUBLIC b5f01 0 -[__NSCFURLProtocolClient_NS URLProtocol:wasRedirectedToRequest:redirectResponse:]
PUBLIC b5f5a 0 __82-[__NSCFURLProtocolClient_NS URLProtocol:wasRedirectedToRequest:redirectResponse:]_block_invoke
PUBLIC b5fb7 0 __copy_helper_block_.31
PUBLIC b6001 0 __destroy_helper_block_.32
PUBLIC b603a 0 -[__NSCFURLProtocolClient_NS URLProtocol:cachedResponseIsValid:]
PUBLIC b608f 0 __64-[__NSCFURLProtocolClient_NS URLProtocol:cachedResponseIsValid:]_block_invoke
PUBLIC b60d6 0 __copy_helper_block_.36
PUBLIC b610e 0 __destroy_helper_block_.37
PUBLIC b613a 0 __80-[__NSCFURLProtocolClient_NS URLProtocol:didReceiveResponse:cacheStoragePolicy:]_block_invoke
PUBLIC b61b2 0 __copy_helper_block_.39
PUBLIC b61ea 0 __destroy_helper_block_.40
PUBLIC b6215 0 __54-[__NSCFURLProtocolClient_NS URLProtocol:didLoadData:]_block_invoke
PUBLIC b62cf 0 __copy_helper_block_.46
PUBLIC b6307 0 __destroy_helper_block_.47
PUBLIC b6333 0 __58-[__NSCFURLProtocolClient_NS URLProtocolDidFinishLoading:]_block_invoke
PUBLIC b637d 0 __copy_helper_block_.49
PUBLIC b6394 0 __destroy_helper_block_.50
PUBLIC b63a8 0 __59-[__NSCFURLProtocolClient_NS URLProtocol:didFailWithError:]_block_invoke
PUBLIC b63d3 0 __copy_helper_block_.52
PUBLIC b640b 0 __destroy_helper_block_.53
PUBLIC b6436 0 -[__NSCFURLProtocolClient_NS URLProtocol:didReceiveAuthenticationChallenge:]
PUBLIC b64ec 0 __76-[__NSCFURLProtocolClient_NS URLProtocol:didReceiveAuthenticationChallenge:]_block_invoke
PUBLIC b651b 0 __copy_helper_block_.57
PUBLIC b6532 0 __destroy_helper_block_.58
PUBLIC b6545 0 -[__NSCFURLProtocolClient_NS URLProtocol:didCancelAuthenticationChallenge:]
PUBLIC b654b 0 -[__NSURLSessionLocal copyWithZone:]
PUBLIC b656b 0 -[__NSURLSessionLocal connToTask:]
PUBLIC b6589 0 -[__NSURLSessionLocal replaceTask:withTask:]
PUBLIC b66c5 0 -[__NSURLSessionLocal addConnectionlessTask:]
PUBLIC b66e2 0 -[__NSURLSessionLocal removeConnectionlessTask:]
PUBLIC b6760 0 __48-[__NSURLSessionLocal removeConnectionlessTask:]_block_invoke
PUBLIC b6776 0 __copy_helper_block_.157
PUBLIC b678d 0 __destroy_helper_block_.158
PUBLIC b67a1 0 __87-[__NSURLSessionLocal _onqueue_connectUploadTask:strippedRequest:bodyStream:bodyParts:]_block_invoke
PUBLIC b6837 0 __87-[__NSURLSessionLocal _onqueue_connectUploadTask:strippedRequest:bodyStream:bodyParts:]_block_invoke_2
PUBLIC b6893 0 __copy_helper_block_.168
PUBLIC b68ef 0 __destroy_helper_block_.169
PUBLIC b6936 0 __copy_helper_block_.171
PUBLIC b6980 0 __destroy_helper_block_.172
PUBLIC b69b9 0 -[__NSURLSessionLocal _onqueue_canonicalizeTaskAndCreateConnection:]
PUBLIC b6b16 0 __68-[__NSURLSessionLocal _onqueue_canonicalizeTaskAndCreateConnection:]_block_invoke
PUBLIC b6b87 0 __68-[__NSURLSessionLocal _onqueue_canonicalizeTaskAndCreateConnection:]_block_invoke_2
PUBLIC b6bbf 0 __copy_helper_block_.203
PUBLIC b6c09 0 __destroy_helper_block_.204
PUBLIC b6c42 0 __copy_helper_block_.206
PUBLIC b6c7a 0 __destroy_helper_block_.207
PUBLIC b6ca5 0 -[__NSURLSessionLocal _onqueue_finishConnectUpRequest:task:]
PUBLIC b6d89 0 __copy_helper_block_.233
PUBLIC b6da0 0 __destroy_helper_block_.234
PUBLIC b6db3 0 __copy_helper_block_.236
PUBLIC b6deb 0 __destroy_helper_block_.237
PUBLIC b6e16 0 __75-[__NSURLSessionLocal taskForClass:request:uploadFile:bodyData:completion:]_block_invoke.258
PUBLIC b6eb1 0 __copy_helper_block_.265
PUBLIC b6f1f 0 __destroy_helper_block_.266
PUBLIC b6f74 0 __75-[__NSURLSessionLocal taskForClass:request:uploadFile:bodyData:completion:]_block_invoke.275
PUBLIC b6f8a 0 __copy_helper_block_.278
PUBLIC b6fa1 0 __destroy_helper_block_.279
PUBLIC b6fb5 0 __copy_helper_block_.283
PUBLIC b6fcc 0 __destroy_helper_block_.284
PUBLIC b6fe0 0 __copy_helper_block_.296
PUBLIC b6ff7 0 __destroy_helper_block_.297
PUBLIC b700a 0 __71-[__NSURLSessionLocal _onqueue_invalidateSession:withQueue:completion:]_block_invoke.299
PUBLIC b7020 0 __copy_helper_block_.300
PUBLIC b7037 0 __destroy_helper_block_.301
PUBLIC b704a 0 -[__NSURLSessionLocal _flushOrResetStorage:reset:]
PUBLIC b7238 0 __50-[__NSURLSessionLocal _flushOrResetStorage:reset:]_block_invoke
PUBLIC b725a 0 __copy_helper_block_.305
PUBLIC b7271 0 __destroy_helper_block_.306
PUBLIC b7284 0 __50-[__NSURLSessionLocal _flushOrResetStorage:reset:]_block_invoke.310
PUBLIC b72a6 0 __copy_helper_block_.311
PUBLIC b72bd 0 __destroy_helper_block_.312
PUBLIC b72d0 0 __50-[__NSURLSessionLocal _flushOrResetStorage:reset:]_block_invoke.316
PUBLIC b72f2 0 __copy_helper_block_.317
PUBLIC b7309 0 __destroy_helper_block_.318
PUBLIC b731c 0 __50-[__NSURLSessionLocal _flushOrResetStorage:reset:]_block_invoke.320
PUBLIC b7328 0 __copy_helper_block_.321
PUBLIC b733f 0 __destroy_helper_block_.322
PUBLIC b7352 0 -[__NSURLSessionLocal uploadTaskForRequest:uploadFile:bodyData:completion:]
PUBLIC b73b8 0 -[__NSURLSessionLocal downloadTaskForRequest:downloadFilePath:resumeData:completion:]
PUBLIC b7713 0 __85-[__NSURLSessionLocal downloadTaskForRequest:downloadFilePath:resumeData:completion:]_block_invoke
PUBLIC b7780 0 __85-[__NSURLSessionLocal downloadTaskForRequest:downloadFilePath:resumeData:completion:]_block_invoke_2
PUBLIC b7796 0 __copy_helper_block_.349
PUBLIC b77ad 0 __destroy_helper_block_.350
PUBLIC b77c0 0 __copy_helper_block_.352
PUBLIC b77f8 0 __destroy_helper_block_.353
PUBLIC b7823 0 __85-[__NSURLSessionLocal downloadTaskForRequest:downloadFilePath:resumeData:completion:]_block_invoke.358
PUBLIC b7847 0 __copy_helper_block_.359
PUBLIC b787f 0 __destroy_helper_block_.360
PUBLIC b78aa 0 __85-[__NSURLSessionLocal downloadTaskForRequest:downloadFilePath:resumeData:completion:]_block_invoke.362
PUBLIC b78d9 0 __copy_helper_block_.363
PUBLIC b78f0 0 __destroy_helper_block_.364
PUBLIC b7904 0 __copy_helper_block_.368
PUBLIC b791b 0 __destroy_helper_block_.369
PUBLIC b792e 0 -[__NSURLSessionLocal _onqueue_resetStorageWithCompletionHandler:]
PUBLIC b7945 0 -[__NSURLSessionLocal _onqueue_flushWithCompletionHandler:]
PUBLIC b7959 0 -[__NSURLSessionLocal _onqueue_getTasksWithCompletionHandler:]
PUBLIC b7b54 0 __62-[__NSURLSessionLocal _onqueue_getTasksWithCompletionHandler:]_block_invoke
PUBLIC b7b7f 0 __copy_helper_block_.373
PUBLIC b7bb7 0 __destroy_helper_block_.374
PUBLIC b7be3 0 __copy_helper_block_.382
PUBLIC b7bfa 0 __destroy_helper_block_.383
PUBLIC b7c0d 0 -[__NSURLSessionLocal _invalidateAllConnections]
PUBLIC b7c2e 0 -[__NSURLSessionLocal _purgeIdleConnections]
PUBLIC b7c50 0 XTubeManager::purgeIdleConnections()
PUBLIC b7c8d 0 -[__NSURLSessionLocal invalidateUnpurgeableConnectionsForConnectionCacheKey:]
PUBLIC b7cc0 0 XTubeManager::invalidateUnpurgeableConnectionsForKey(HTTPConnectionCacheKey*)
PUBLIC b7d3c 0 -[__NSURLSessionLocal copyBaseStorageForRequest:]
PUBLIC b7d4e 0 __copy_helper_block_.408
PUBLIC b7d86 0 __destroy_helper_block_.409
PUBLIC b7db2 0 -[__NSURLSessionLocal _withConnectionCache_setIOFallbackForKey:scheduling:]
PUBLIC b7e20 0 -[__NSURLSessionLocal _withConnectionCache_getPendingTubeForProtocol:withKey:scheduling:]
PUBLIC b7e6e 0 XTubeManager::getPendingTubeForProtocol(MetaConnectionCacheClient*, HTTPConnectionCacheKey const*, CoreSchedulingSet const*)
PUBLIC b7f1b 0 -[__NSURLSessionLocal _createCanonicalRequest:]
PUBLIC b7f63 0 -[__NSURLSessionLocal _proxyDataTaskForRequest:withDelegate:]
PUBLIC b7fbf 0 -[__NSURLSessionLocal _cacheOnlyDataTaskForRequest:withDelegate:]
PUBLIC b801b 0 -[__NSURLSessionLocal _delegateForTask:]
PUBLIC b8038 0 -[__NSURLSessionLocal _URLSession:companionAvailabilityChanged:]
PUBLIC b8073 0 -[__NSURLSessionLocal URLSession:didBecomeInvalidWithError:]
PUBLIC b80b2 0 -[__NSURLSessionLocal URLSession:dataTask:didReceiveResponse:completionHandler:]
PUBLIC b8109 0 -[__NSURLSessionLocal URLSession:task:willPerformHTTPRedirection:newRequest:completionHandler:]
PUBLIC b8160 0 -[__NSURLSessionLocal _URLSession:dataTask:didReceiveData:completionHandler:]
PUBLIC b81b7 0 -[__NSURLSessionLocal URLSession:task:didReceiveChallenge:completionHandler:]
PUBLIC b820e 0 -[__NSURLSessionLocal URLSession:task:didSendBodyData:totalBytesSent:totalBytesExpectedToSend:]
PUBLIC b8265 0 -[__NSURLSessionLocal URLSession:task:needNewBodyStream:]
PUBLIC b82ad 0 -[__NSURLSessionLocal URLSession:task:didFinishCollectingMetrics:]
PUBLIC b8343 0 -[__NSURLSessionLocal URLSession:task:didCompleteWithError:]
PUBLIC b83af 0 -[__NSURLSessionLocal URLSession:task:_isWaitingForConnectionWithReason:]
PUBLIC b83f7 0 -[__NSURLSessionLocal URLSession:task:_willSendRequestForEstablishedConnection:completionHandler:]
PUBLIC b844e 0 -[__NSURLSessionLocal URLSession:task:_conditionalRequirementsChanged:]
PUBLIC b8496 0 -[__NSURLSessionLocal _URLSession:task:getAuthHeadersForResponse:completionHandler:]
PUBLIC b84ed 0 -[__NSURLSessionLocal .cxx_destruct]
PUBLIC b8529 0 -[__NSURLSessionLocal .cxx_construct]
PUBLIC b85c3 0 ___ZL33_copyPrivateProtocolSchedulingSetv_block_invoke
PUBLIC b85dc 0 XTubeManager::~XTubeManager()
PUBLIC b85e6 0 RetainableTypedDict<CoreSchedulingSet const*, GlueTubeManager*>::~RetainableTypedDict()
PUBLIC b8606 0 ___ZN12XTubeManager20purgeIdleConnectionsEv_block_invoke
PUBLIC b866b 0 ___ZN12XTubeManager20purgeIdleConnectionsEv_block_invoke_2
PUBLIC b868d 0 ___ZN12XTubeManager38invalidateUnpurgeableConnectionsForKeyEP22HTTPConnectionCacheKey_block_invoke
PUBLIC b870b 0 ___ZN12XTubeManager38invalidateUnpurgeableConnectionsForKeyEP22HTTPConnectionCacheKey_block_invoke_2
PUBLIC b873d 0 __copy_helper_block_.698
PUBLIC b8754 0 __destroy_helper_block_.699
PUBLIC b8767 0 ___ZN12XTubeManager19setIOFallbackForKeyEPK22HTTPConnectionCacheKeyPK17CoreSchedulingSet_block_invoke
PUBLIC b877b 0 ___ZN12XTubeManager25enqueueRequestForProtocolEP25MetaConnectionCacheClientPK18HTTPRequestMessage21MetaConnectionOptionsPK17CoreSchedulingSet_block_invoke
PUBLIC b87b6 0 ___ZN12XTubeManager25getPendingTubeForProtocolEP25MetaConnectionCacheClientPK22HTTPConnectionCacheKeyPK17CoreSchedulingSet_block_invoke
PUBLIC b87e5 0 __copy_helper_block_.708
PUBLIC b87fc 0 __destroy_helper_block_.709
PUBLIC b8810 0 CFURLProtocol_NS::copyDebugDesc() const
PUBLIC b8836 0 CFURLProtocol_NS::~CFURLProtocol_NS()
PUBLIC b8840 0 CFURLProtocol_NS::_protocolInterface_haltLoad()
PUBLIC b8846 0 CFURLProtocol_NS::_protocolInterface_useCredential(_CFURLCredential const*, _CFURLAuthChallenge*)
PUBLIC b88d8 0 CFURLProtocol_NS::_protocolInterface_setIsDownload(unsigned char)
PUBLIC b88de 0 CFURLProtocol_NS::_protocolInterface_isCachedResponseValid(_CFCachedURLResponse const*, NSObject<OS_dispatch_queue>*, void (CacheResponseValidity) block_pointer)
PUBLIC b8944 0 URLProtocol::attemptRedirection(__CFHTTPMessage*)
PUBLIC b894c 0 CFURLProtocol_NS::ackOutstandingDataBytes(long long)
PUBLIC b8952 0 non-virtual thunk to CFURLProtocol_NS::~CFURLProtocol_NS()
PUBLIC b8960 0 non-virtual thunk to CFURLProtocol_NS::~CFURLProtocol_NS()
PUBLIC b896e 0 non-virtual thunk to CFURLProtocol_NS::~CFURLProtocol_NS()
PUBLIC b897c 0 non-virtual thunk to CFURLProtocol_NS::~CFURLProtocol_NS()
PUBLIC b898b 0 ___ZN16CFURLProtocol_NS28_protocolInterface_startLoadEPK20_CFCachedURLResponse_block_invoke
PUBLIC b8b07 0 ___ZN16CFURLProtocol_NS29_protocolInterface_cancelLoadEv_block_invoke
PUBLIC b8b52 0 ___ZN16CFURLProtocol_NS32_protocolInterface_useCredentialEPK16_CFURLCredentialP19_CFURLAuthChallenge_block_invoke
PUBLIC b8c82 0 ___ZN16CFURLProtocol_NS40_protocolInterface_isCachedResponseValidEPK20_CFCachedURLResponsePU28objcproto17OS_dispatch_queue8NSObjectU13block_pointerFv21CacheResponseValidityE_block_invoke
PUBLIC b8c93 0 __copy_helper_block_.748
PUBLIC b8caa 0 __destroy_helper_block_.749
PUBLIC b8cbd 0 _CFHostIsDomainTopLevelForCookiePolicy
PUBLIC b8cd9 0 _CFHostIsDomainTopLevelForCertificatePolicy
PUBLIC b8cf8 0 cf_nghttp2_send_callback(nghttp2_session*, unsigned char const*, unsigned long, int, void*)
PUBLIC b8d86 0 cf_nghttp2_recv_callback(nghttp2_session*, unsigned char*, unsigned long, int, void*)
PUBLIC b8de3 0 cf_nghttp2_on_frame_recv_callback(nghttp2_session*, nghttp2_frame const*, void*)
PUBLIC b8e57 0 ___Z33cf_nghttp2_on_frame_recv_callbackP15nghttp2_sessionPK13nghttp2_framePv_block_invoke
PUBLIC b8ecc 0 cf_nghttp2_on_invalid_frame_recv_callback(nghttp2_session*, nghttp2_frame const*, int, void*)
PUBLIC b8f3b 0 ___Z41cf_nghttp2_on_invalid_frame_recv_callbackP15nghttp2_sessionPK13nghttp2_frameiPv_block_invoke
PUBLIC b8fae 0 cf_nghttp2_on_data_chunk_recv_callback(nghttp2_session*, unsigned char, int, unsigned char const*, unsigned long, void*)
PUBLIC b912c 0 HTTP2ServerPushStream::safe_data_deleter(dispatch_object_s*)
PUBLIC b913d 0 cf_nghttp2_before_frame_send_callback(nghttp2_session*, nghttp2_frame const*, void*)
PUBLIC b914d 0 cf_nghttp2_on_frame_send_callback(nghttp2_session*, nghttp2_frame const*, void*)
PUBLIC b9274 0 ___Z33cf_nghttp2_on_frame_send_callbackP15nghttp2_sessionPK13nghttp2_framePv_block_invoke
PUBLIC b92e7 0 ___Z33cf_nghttp2_on_frame_send_callbackP15nghttp2_sessionPK13nghttp2_framePv_block_invoke_2
PUBLIC b935c 0 cf_nghttp2_on_frame_not_send_callback(nghttp2_session*, nghttp2_frame const*, int, void*)
PUBLIC b943c 0 ___Z37cf_nghttp2_on_frame_not_send_callbackP15nghttp2_sessionPK13nghttp2_frameiPv_block_invoke
PUBLIC b94af 0 cf_nghttp2_on_stream_close_callback(nghttp2_session*, int, unsigned int, void*)
PUBLIC b9545 0 cf_nghttp2_on_begin_headers_callback(nghttp2_session*, nghttp2_frame const*, void*)
PUBLIC b95b3 0 cf_nghttp2_on_header_callback(nghttp2_session*, nghttp2_frame const*, unsigned char const*, unsigned long, unsigned char const*, unsigned long, unsigned char, void*)
PUBLIC b9934 0 cf_nghttp2_data_source_read_callback(nghttp2_session*, int, unsigned char*, unsigned long, unsigned int*, nghttp2_data_source*, void*)
PUBLIC b99b6 0 cf_nghttp2_on_invalid_header_callback(nghttp2_session*, nghttp2_frame const*, unsigned char const*, unsigned long, unsigned char const*, unsigned long, unsigned char, void*)
PUBLIC b99e2 0 HTTP2Diagnostic::SETTING_NAMES(nghttp2_frame const*, unsigned long long)
PUBLIC b9e20 0 std::__1::basic_stringstream<char, std::__1::char_traits<char>, std::__1::allocator<char> >::~basic_stringstream()
PUBLIC b9ea4 0 HTTP2Diagnostic::FLAG_NAMES(unsigned char, unsigned char)
PUBLIC b9f96 0 std::__1::basic_stringstream<char, std::__1::char_traits<char>, std::__1::allocator<char> >::~basic_stringstream()
PUBLIC ba022 0 non-virtual thunk to std::__1::basic_stringstream<char, std::__1::char_traits<char>, std::__1::allocator<char> >::~basic_stringstream()
PUBLIC ba0a2 0 non-virtual thunk to std::__1::basic_stringstream<char, std::__1::char_traits<char>, std::__1::allocator<char> >::~basic_stringstream()
PUBLIC ba12a 0 virtual thunk to std::__1::basic_stringstream<char, std::__1::char_traits<char>, std::__1::allocator<char> >::~basic_stringstream()
PUBLIC ba1b4 0 virtual thunk to std::__1::basic_stringstream<char, std::__1::char_traits<char>, std::__1::allocator<char> >::~basic_stringstream()
PUBLIC ba246 0 std::__1::basic_stringbuf<char, std::__1::char_traits<char>, std::__1::allocator<char> >::str(std::__1::basic_string<char, std::__1::char_traits<char>, std::__1::allocator<char> > const&)
PUBLIC ba32a 0 std::__1::basic_stringbuf<char, std::__1::char_traits<char>, std::__1::allocator<char> >::~basic_stringbuf()
PUBLIC ba35e 0 std::__1::basic_stringbuf<char, std::__1::char_traits<char>, std::__1::allocator<char> >::~basic_stringbuf()
PUBLIC ba39a 0 std::__1::basic_stringbuf<char, std::__1::char_traits<char>, std::__1::allocator<char> >::seekoff(long long, std::__1::ios_base::seekdir, unsigned int)
PUBLIC ba50c 0 std::__1::basic_stringbuf<char, std::__1::char_traits<char>, std::__1::allocator<char> >::seekpos(std::__1::fpos<__mbstate_t>, unsigned int)
PUBLIC ba532 0 std::__1::basic_stringbuf<char, std::__1::char_traits<char>, std::__1::allocator<char> >::underflow()
PUBLIC ba574 0 std::__1::basic_stringbuf<char, std::__1::char_traits<char>, std::__1::allocator<char> >::pbackfail(int)
PUBLIC ba5ce 0 std::__1::basic_stringbuf<char, std::__1::char_traits<char>, std::__1::allocator<char> >::overflow(int)
PUBLIC ba746 0 std::__1::basic_stringbuf<char, std::__1::char_traits<char>, std::__1::allocator<char> >::str() const
PUBLIC ba888 0 HTTP2Diagnostic::FLAG_NAME(unsigned char, unsigned char)
PUBLIC baae8 0 ___ZN15HTTP2Connection31submitWindowUpdateForPushStreamEii_block_invoke
PUBLIC bab28 0 spdylay_buffer_free
PUBLIC bab59 0 spdylay_buffer_reader_uint16
PUBLIC bab82 0 _CFNetworkAgentFalseStartProbeGetPortNumber()
PUBLIC babaf 0 _CFNetworkAgentFalseStartProbeGetTimeout()
PUBLIC babe4 0 FalseStartQuery::FalseStartQuery(std::__1::basic_string<char, std::__1::char_traits<char>, std::__1::allocator<char> > const&, dispatch_queue_s*)
PUBLIC bac2c 0 FalseStartQuery::initializeRequest()
PUBLIC badb4 0 FalseStartQuery::FalseStartQuery(std::__1::basic_string<char, std::__1::char_traits<char>, std::__1::allocator<char> > const&, dispatch_queue_s*)
PUBLIC badbe 0 FalseStartQuery::~FalseStartQuery()
PUBLIC bae04 0 FalseStartQuery::~FalseStartQuery()
PUBLIC bae0e 0 FalseStartQuery::~FalseStartQuery()
PUBLIC bae2a 0 FalseStartQuery::execute()
PUBLIC bae5c 0 FalseStartQuery::setupTimer()
PUBLIC baf52 0 FalseStartQuery::setupStream()
PUBLIC bb0a6 0 ___ZN15FalseStartQuery10setupTimerEv_block_invoke
PUBLIC bb112 0 FalseStartQuery::handleTimeout()
PUBLIC bb155 0 readStreamCallback(__CFReadStream*, unsigned long, void*)
PUBLIC bb192 0 FalseStartQuery::readEventCallBack(__CFReadStream*, unsigned long)
PUBLIC bb264 0 FalseStartQuery::getQueryTypeID() const
PUBLIC bb270 0 FalseStartQuery::getQueryType() const
PUBLIC bb27e 0 FalseStartQuery::copyDebugDesc() const
PUBLIC bb28c 0 FalseStartQuery::setupTimer()::$_0::__invoke(dispatch_object_s*)
PUBLIC bb2b7 0 CFNA::_CFNetworkAgentGetServiceName()
PUBLIC bb2d7 0 CFNA::_CFNetworkAgentGetKeySpaceRoot()
PUBLIC bb2f7 0 CFNA::_CFNetworkAgentGetKeySpaceRootPattern()
PUBLIC bb317 0 CFNA::_CFNetworkAgentGetInactivityTimeout()
PUBLIC bb34c 0 CFNA::_CFNetworkAgentGetTTL()
PUBLIC bb381 0 CFNA::_CFNetworkAgentGetHostName()
PUBLIC bb3a1 0 CFNA::_CFNetworkAgentGetPortNumber()
PUBLIC bb3ce 0 CFNA::_CFNetworkAgentCopyOperationSupportStateFromDynamicStore(__CFString const*, char const*)
PUBLIC bb6ee 0 CFNA::handleError(__CFError*)
PUBLIC bb775 0 CFNA::xpcMessageTypeToString(long long)
PUBLIC bb79c 0 spdylay_session_fail_session
PUBLIC bb7af 0 spdylay_session_del
PUBLIC bb870 0 spdylay_free_streams
PUBLIC bb88f 0 spdylay_session_ob_pq_free
PUBLIC bb8d6 0 spdylay_session_add_rst_stream
PUBLIC bb953 0 spdylay_session_close_pushed_streams
PUBLIC bb9a1 0 spdylay_session_prep_credential
PUBLIC bbc89 0 spdylay_session_get_next_ob_item
PUBLIC bbd34 0 spdylay_session_send_async_pre
PUBLIC bbe48 0 spdylay_session_send_async_post
PUBLIC bbf11 0 spdylay_session_on_syn_stream_received
PUBLIC bc13b 0 spdylay_session_handle_invalid_stream
PUBLIC bc198 0 spdylay_session_on_rst_stream_received
PUBLIC bc216 0 spdylay_session_add_ping
PUBLIC bc28e 0 spdylay_session_on_goaway_received
PUBLIC bc2d3 0 spdylay_session_on_headers_received
PUBLIC bc424 0 spdylay_session_recv_async_pre
PUBLIC bc442 0 spdylay_session_recv_async_post
PUBLIC bc4c2 0 spdylay_session_add_goaway
PUBLIC bc542 0 spdylay_session_resume_data
PUBLIC bc58f 0 spdylay_outbound_item_compar
PUBLIC bc5b3 0 spdylay_update_initial_window_size_func
PUBLIC bc637 0 push_back_deferred_data_func
PUBLIC bc6a6 0 update_consumed_size
PUBLIC bc70a 0 PipelineQuery::PipelineQuery(std::__1::basic_string<char, std::__1::char_traits<char>, std::__1::allocator<char> > const&, dispatch_queue_s*)
PUBLIC bc76c 0 PipelineQuery::initializeRequest()
PUBLIC bcab2 0 PipelineQuery::PipelineQuery(std::__1::basic_string<char, std::__1::char_traits<char>, std::__1::allocator<char> > const&, dispatch_queue_s*)
PUBLIC bcabc 0 PipelineQuery::~PipelineQuery()
PUBLIC bcb56 0 PipelineQuery::~PipelineQuery()
PUBLIC bcb60 0 PipelineQuery::~PipelineQuery()
PUBLIC bcb7c 0 PipelineQuery::execute()
PUBLIC bcbae 0 PipelineQuery::createSocketStreams()
PUBLIC bcc30 0 PipelineQuery::setupWriteStream()
PUBLIC bccd3 0 writeStreamCallback(__CFWriteStream*, unsigned long, void*)
PUBLIC bcd10 0 PipelineQuery::writeEventCallBack(__CFWriteStream*, unsigned long)
PUBLIC bcefe 0 PipelineQuery::receiveResponse()
PUBLIC bcfac 0 PipelineQuery::initializeResponses()
PUBLIC bd005 0 readStreamCallback(__CFReadStream*, unsigned long, void*)
PUBLIC bd042 0 PipelineQuery::readEventCallBack(__CFReadStream*, unsigned long)
PUBLIC bd198 0 PipelineQuery::haveReceivedAllResponses()
PUBLIC bd272 0 PipelineQuery::shutdownReadStream()
PUBLIC bd2a2 0 PipelineQuery::validateServerResponse()
PUBLIC bd3f0 0 PipelineQuery::splitMessage(__CFData const*)
PUBLIC bd58a 0 PipelineQuery::getQueryTypeID() const
PUBLIC bd596 0 PipelineQuery::getQueryType() const
PUBLIC bd5a4 0 PipelineQuery::copyDebugDesc() const
PUBLIC bd5b1 0 StrictSecurity::getATSVersion(__CFDictionary const*)
PUBLIC bd5d7 0 StrictSecurity::cloneSecTrust(StrictSecurityPolicy::SessionStrengthPolicy, __SecTrust*)
PUBLIC bd6f1 0 StrictSecurity::performSystemTrustEvaluation(__CFData const*, CFNetworkTrust::CertificateTransparencyState, StrictSecurityPolicy::SessionStrengthPolicy, CFNetworkTrust::SignatureAlgorithmStrength, int*)
PUBLIC bd918 0 StrictSecurity::allowedToSetHSTS(_CFURLRequest const*, __CFString const*)
PUBLIC bda96 0 StrictSecurity::allowedToSetHSTS(__CFString const*, __CFString const*)
PUBLIC bdb54 0 _CFNetworkUnitTest_HSTSHostNameStorage
PUBLIC be16c 0 testNextLabel(char const*, char const*)
PUBLIC be209 0 testTLDPlusOne(char const*, char const*)
PUBLIC be2a6 0 testAllowedToSetHSTS(char const*, char const*)
PUBLIC be3e7 0 StrictSecurity::tldPlusOne(__CFString const*)
PUBLIC be4a4 0 StrictSecurity::nextLabel(__CFString const*)
PUBLIC be53a 0 HTTPRequestParserClient::HTTPRequestParserClient(__CFAllocator const*)
PUBLIC be57e 0 HTTPRequestParserClient::~HTTPRequestParserClient()
PUBLIC be588 0 HTTPRequestParserClient::~HTTPRequestParserClient()
PUBLIC be5a4 0 HTTPRequestParserClient::addHeader(HTTPHeaderKeyMixedValue const&, HTTPHeaderValueMixedValue const&)
PUBLIC be5ca 0 HTTPHeaderKeyMixedValue::~HTTPHeaderKeyMixedValue()
PUBLIC be5ea 0 HTTPRequestParserClient::copyRequestPath() const
PUBLIC be644 0 HTTPRequestParserClient::completeFirstLine(char const*, long)
PUBLIC be850 0 -[NSURLResponse init]
PUBLIC be873 0 __31-[NSURLResponse initWithCoder:]_block_invoke
PUBLIC be9ae 0 +[NSURLResponse getObjectKeyWithIndex:]
PUBLIC be9e5 0 +[NSURLResponse supportsSecureCoding]
PUBLIC be9f0 0 -[NSURLResponse description]
PUBLIC bea59 0 -[NSURLResponse suggestedFilename]
PUBLIC bea8a 0 -[NSURLResponse(NSURLResponsePrivate) _setExpectedContentLength:]
PUBLIC beaad 0 -[NSURLResponse(NSURLResponsePrivate) _setMIMEType:]
PUBLIC bead0 0 -[NSURLResponse(NSURLResponsePrivate) _lastModifiedDate]
PUBLIC beb14 0 -[NSURLResponse(NSURLResponsePrivate) _mustRevalidate]
PUBLIC beb38 0 -[NSURLResponse(NSURLResponsePrivate) _freshnessLifetime]
PUBLIC beb58 0 -[NSURLResponse(NSURLResponsePrivate) _calculatedExpiration]
PUBLIC beb79 0 -[NSURLResponse(NSURLResponsePrivate) _peerCertificateChain]
PUBLIC beb81 0 -[NSHTTPURLResponseInternal initWithCoder:]
PUBLIC bec61 0 -[NSHTTPURLResponseInternal encodeWithCoder:]
PUBLIC bec6a 0 -[NSHTTPURLResponse initWithURL:statusCode:headerFields:requestTime:]
PUBLIC bec8f 0 +[NSHTTPURLResponse supportsSecureCoding]
PUBLIC bec9a 0 -[NSHTTPURLResponse description]
PUBLIC bed1d 0 -[NSHTTPURLResponse _allHTTPHeaderFieldsAsArrays]
PUBLIC bed78 0 +[NSHTTPURLResponse localizedStringForStatusCode:]
PUBLIC bf0f0 0 +[NSHTTPURLResponse isErrorStatusCode:]
PUBLIC bf106 0 -[NSHTTPURLResponse _peerCertificateChain]
PUBLIC bf15b 0 -[NSHTTPURLResponse _clientCertificateChain]
PUBLIC bf1b3 0 -[NSHTTPURLResponse _clientCertificateState]
PUBLIC bf242 0 AuthBrokerAuthenticator::Class()
PUBLIC bf26e 0 ___ZN23AuthBrokerAuthenticator5ClassEv_block_invoke
PUBLIC bf29e 0 AuthBrokerAuthenticator::AuthBrokerAuthenticator()
PUBLIC bf378 0 AuthBrokerAuthenticator::AuthBrokerAuthenticator()
PUBLIC bf382 0 AuthBrokerAuthenticator::~AuthBrokerAuthenticator()
PUBLIC bf410 0 RetainableTypedDict<_CFURLProtectionSpace* const, NetworkProxyCredential*>::~RetainableTypedDict()
PUBLIC bf430 0 AuthBrokerAuthenticator::~AuthBrokerAuthenticator()
PUBLIC bf43a 0 non-virtual thunk to AuthBrokerAuthenticator::~AuthBrokerAuthenticator()
PUBLIC bf448 0 non-virtual thunk to AuthBrokerAuthenticator::~AuthBrokerAuthenticator()
PUBLIC bf456 0 AuthBrokerAuthenticator::~AuthBrokerAuthenticator()
PUBLIC bf460 0 non-virtual thunk to AuthBrokerAuthenticator::~AuthBrokerAuthenticator()
PUBLIC bf46e 0 non-virtual thunk to AuthBrokerAuthenticator::~AuthBrokerAuthenticator()
PUBLIC bf47c 0 AuthBrokerAuthenticator::createProxyAuthorizationElementData(__CFData const*)
PUBLIC bf7a4 0 AuthBrokerAuthenticator::copyProxyCredentials(NetworkProxyAuthorizationElements*)
PUBLIC bfabe 0 AuthBrokerAuthenticator::vetCredential(_CFURLProtectionSpace*, NetworkProxyCredential*)
PUBLIC bfbd4 0 AuthBrokerAuthenticator::persistCredentials(_CFURLCredential const*, _CFURLProtectionSpace*)
PUBLIC bfc43 0 otherHTTPTypeProtectionSpace(_CFURLProtectionSpace*)
PUBLIC bfd42 0 AuthBrokerAuthenticator::IsProtectionSpaceAllowed(_CFURLProtectionSpace*)
PUBLIC bfdfa 0 AuthBrokerAuthenticator::copyCachedCredential(NetworkProxyAuthorizationElements*, AuthBrokerAuthenticator::DeviceLockState*)
PUBLIC c013a 0 AuthBrokerAuthenticator::userHasPreviouslyDismissedPromptForProtectionSpace(_CFURLProtectionSpace*)
PUBLIC c0188 0 AuthBrokerAuthenticator::createCredential(__CFString const*, __CFString const*, _CFURLProtectionSpace*)
PUBLIC c031c 0 AuthBrokerAuthenticator::userDismissedPromptForProtectionSpace(_CFURLProtectionSpace*)
PUBLIC c0360 0 AuthBrokerAuthenticator::copyDebugDesc() const
PUBLIC c036e 0 AuthBrokerNotifier::copyDebugDesc() const
PUBLIC c037c 0 RetainableTypedDict<_CFURLProtectionSpace* const, NetworkProxyCredential*>::~RetainableTypedDict()
PUBLIC c03ac 0 AuthBrokerMessageHandler::HandleMessage(AuthBrokerMessageHandlerArgument*)
PUBLIC c03ff 0 MessageHandlerThreadInit()
PUBLIC c0506 0 AuthBrokerOperationQueue::enqueueAuthBrokerOperation(AuthBrokerMessageHandlerArgument*)
PUBLIC c05a8 0 AuthBrokerMessageHandler::WaitUntilDead()
PUBLIC c05f8 0 AuthBrokerMessageHandler::respondToClientRequestMessage(AuthBrokerMessageHandlerArgument*)
PUBLIC c07ee 0 AuthBrokerMessageHandler::~AuthBrokerMessageHandler()
PUBLIC c07f8 0 AuthBrokerMessageHandler::sendResponseMessage(AuthBrokerServerReceive_t, __CFData const*)
PUBLIC c08cc 0 AuthBrokerMessageHandler::~AuthBrokerMessageHandler()
PUBLIC c08e8 0 AuthBrokerMessageHandler::copyDebugDesc() const
PUBLIC c08f5 0 MessageHandlerThread_main(void*)
PUBLIC c09fc 0 AuthBrokerOperationQueue::~AuthBrokerOperationQueue()
PUBLIC c0a06 0 AuthBrokerOperationQueue::~AuthBrokerOperationQueue()
PUBLIC c0a22 0 non-virtual thunk to AuthBrokerOperationQueue::~AuthBrokerOperationQueue()
PUBLIC c0a30 0 non-virtual thunk to AuthBrokerOperationQueue::~AuthBrokerOperationQueue()
PUBLIC c0a54 0 AuthBrokerOperationQueue::~AuthBrokerOperationQueue()
PUBLIC c0ac4 0 AuthBrokerOperationQueue::nextAuthBrokerOperation()
PUBLIC c0b32 0 AuthBrokerOperationQueue::AuthBrokerOperationDescriptor::~AuthBrokerOperationDescriptor()
PUBLIC c0b60 0 AuthBrokerOperationQueue::AuthBrokerOperationDescriptor::~AuthBrokerOperationDescriptor()
PUBLIC c0b96 0 AuthBrokerMessageHandlerArgument::AuthBrokerMessageHandlerArgument(_OperationType, AuthBrokerAuthenticator*, AuthBrokerServerReceive_t)
PUBLIC c0c0a 0 AuthBrokerMessageHandlerArgument::~AuthBrokerMessageHandlerArgument()
PUBLIC c0c38 0 AuthBrokerMessageHandlerArgument::~AuthBrokerMessageHandlerArgument()
PUBLIC c0c66 0 AuthBrokerMessageHandlerArgument::Class()
PUBLIC c0c92 0 ___ZN32AuthBrokerMessageHandlerArgument5ClassEv_block_invoke
PUBLIC c0cc2 0 AuthBrokerMessageHandlerArgument::copyDebugDesc() const
PUBLIC c0ccf 0 getTimeout()
PUBLIC c0d43 0 __AuthBrokerMain
PUBLIC c0fec 0 ABUserNotification::~ABUserNotification()
PUBLIC c103e 0 AuthBrokerNotifier::AuthBrokerNotifier(_CFURLProtectionSpace*)
PUBLIC c10e4 0 AuthBrokerNotifier::AuthBrokerNotifier(_CFURLProtectionSpace*)
PUBLIC c10ee 0 AuthBrokerNotifier::promptUser(__CFString const*)
PUBLIC c12a2 0 ABSettingsPromptUserNotification::displayPrompt()
PUBLIC c1382 0 ABPasswordPromptUserNotification::displayPrompt()
PUBLIC c14ca 0 ABPasswordPromptUserNotification::~ABPasswordPromptUserNotification()
PUBLIC c1508 0 ABSettingsPromptUserNotification::~ABSettingsPromptUserNotification()
PUBLIC c1512 0 ABSettingsPromptUserNotification::ABSettingsPromptUserNotification(std::__1::shared_ptr<_CFURLProtectionSpace>, __CFString const*)
PUBLIC c1592 0 ABUserNotification::ABUserNotification(std::__1::shared_ptr<_CFURLProtectionSpace>, __CFString const*)
PUBLIC c168a 0 ___ZN32ABSettingsPromptUserNotificationC2ENSt3__110shared_ptrI21_CFURLProtectionSpaceEEPK10__CFString_block_invoke
PUBLIC c1714 0 ABSettingsPromptUserNotification::~ABSettingsPromptUserNotification()
PUBLIC c1730 0 ABSettingsPromptUserNotification::handleUserNotificationResponse(unsigned long, std::__1::shared_ptr<__CFUserNotification>)
PUBLIC c1864 0 ___ZN18ABUserNotificationC2ENSt3__110shared_ptrI21_CFURLProtectionSpaceEEPK10__CFString_block_invoke
PUBLIC c18ad 0 ___ZL6Bundlev_block_invoke
PUBLIC c18d4 0 ABUserNotification::displayUserNotification()
PUBLIC c1a48 0 std::__1::__shared_ptr_pointer<__CFUserNotification*, Deleter_CFRelease, std::__1::allocator<__CFUserNotification> >::~__shared_ptr_pointer()
PUBLIC c1a52 0 std::__1::__shared_ptr_pointer<__CFUserNotification*, Deleter_CFRelease, std::__1::allocator<__CFUserNotification> >::~__shared_ptr_pointer()
PUBLIC c1a6e 0 ABPasswordPromptUserNotification::ABPasswordPromptUserNotification(std::__1::shared_ptr<_CFURLProtectionSpace>, __CFString const*)
PUBLIC c1b08 0 ___ZN32ABPasswordPromptUserNotificationC2ENSt3__110shared_ptrI21_CFURLProtectionSpaceEEPK10__CFString_block_invoke
PUBLIC c1bb0 0 ABPasswordPromptUserNotification::~ABPasswordPromptUserNotification()
PUBLIC c1bf6 0 ABPasswordPromptUserNotification::handleUserNotificationResponse(unsigned long, std::__1::shared_ptr<__CFUserNotification>)
PUBLIC c1d88 0 std::__1::__shared_ptr_pointer<__CFString const*, Deleter_CFRelease, std::__1::allocator<__CFString const> >::~__shared_ptr_pointer()
PUBLIC c1da4 0 ABUserNotification::proxyTypeString() const
PUBLIC c1e82 0 std::__1::__shared_ptr_pointer<_CFURLProtectionSpace*, Deleter_CFRelease, std::__1::allocator<_CFURLProtectionSpace> >::~__shared_ptr_pointer()
PUBLIC c1e8c 0 std::__1::__shared_ptr_pointer<_CFURLProtectionSpace*, Deleter_CFRelease, std::__1::allocator<_CFURLProtectionSpace> >::~__shared_ptr_pointer()
PUBLIC c1ea8 0 CoreStreamImplementation::~CoreStreamImplementation()
PUBLIC c1eae 0 CoreStreamImplementation::~CoreStreamImplementation()
PUBLIC c1eb8 0 CoreStreamImplementation::_streamImpl_Retain()
PUBLIC c1ebe 0 CoreStreamImplementation::_streamImpl_Release()
PUBLIC c1ec4 0 CoreStreamImplementation::_streamImpl_Read(unsigned char*, long, CFStreamError*, unsigned char*)
PUBLIC c1ece 0 CoreStreamImplementation::_streamImpl_CanRead()
PUBLIC c1ed8 0 CoreStreamImplementation::_streamImpl_Write(unsigned char const*, long, CFStreamError*)
PUBLIC c1ee2 0 CoreStreamImplementation::_streamImpl_CanWrite()
PUBLIC c1eeb 0 CoreReadStreamScheduleWithRunLoop(__CoreReadStream*, __CFRunLoop*, __CFString const*)
PUBLIC c1f3c 0 CoreReadStreamUnscheduleFromRunLoop(__CoreReadStream*, __CFRunLoop*, __CFString const*)
PUBLIC c1f6d 0 CoreWriteStreamScheduleWithRunLoop(__CoreWriteStream*, __CFRunLoop*, __CFString const*)
PUBLIC c1fbe 0 CoreStreamImplementation::_streamImpl_workQueue()
PUBLIC c1fc6 0 CoreStreamImplementation::_streamImpl_openAsync(CoreSchedulingSet const*, void (CFStreamError) block_pointer)
PUBLIC c1fd0 0 CoreStreamImplementation::_streamImpl_readAsync(long, long, CoreSchedulingSet const*, void (dispatch_data_s*, CFStreamError) block_pointer)
PUBLIC c1fda 0 CoreStreamImplementation::_streamImpl_writeAsync(dispatch_data_s*, CoreSchedulingSet const*, void (CFStreamError) block_pointer)
PUBLIC c1fe4 0 CoreStreamImplementation::_streamImpl_deprecated_Schedule(__CFRunLoop*, __CFString const*)
PUBLIC c1ffa 0 CoreStreamImplementation::_streamImpl_deprecated_Unschedule(__CFRunLoop*, __CFString const*)
PUBLIC c2010 0 __CFStreamCreatePairWithSocketToCFHost(__CFAllocator const*, __CFHost*, int, __CFReadStream**, __CFWriteStream**, bool)
PUBLIC c211d 0 CFStreamCreatePairWithSocketToNetService
PUBLIC c21c7 0 _CFStreamCreatePairWithNativeSocket(__CFAllocator const*, int, __CFReadStream**, __CFWriteStream**)
PUBLIC c2271 0 _CFStreamCreatePairWithCFSocketSignaturePieces(__CFAllocator const*, int, int, int, __CFData const*, __CFReadStream**, __CFWriteStream**)
PUBLIC c234b 0 CFStreamCreatePairWithNetServicePieces
PUBLIC c239c 0 CFNCreateSelfSignedIdentity
PUBLIC c23b6 0 CFStreamCreatePairWithTCPListenerConnection
PUBLIC c2452 0 _CFSocketStreamCreateWithSignature(__CFAllocator const*, CFSocketSignature const*, __CFReadStream**, __CFWriteStream**)
PUBLIC c247e 0 TCFMutableObject<__SocketStream*, SocketStream>::~TCFMutableObject()
PUBLIC c2489 0 ___ZN9TCFObjectI12SocketStreamE5ClassEv_block_invoke
PUBLIC c24d4 0 CFReadStreamCreateHTTPStream
PUBLIC c250b 0 _CFHTTPFilterClearHTTPSAuthFlag(__CoreWriteStream*)
PUBLIC c2527 0 CFWriteStreamCreateHTTPStream
PUBLIC c2564 0 HSTSPolicy::~HSTSPolicy()
PUBLIC c25e4 0 HSTSPolicy::~HSTSPolicy()
PUBLIC c25ee 0 non-virtual thunk to HSTSPolicy::~HSTSPolicy()
PUBLIC c25fc 0 HSTSPolicy::~HSTSPolicy()
PUBLIC c2606 0 non-virtual thunk to HSTSPolicy::~HSTSPolicy()
PUBLIC c2614 0 HSTSPolicy::copyDebugDesc() const
PUBLIC c2650 0 HSTSPolicy::removeHSTSInfoFromStore(__CFString const*) const
PUBLIC c26e8 0 HSTSPolicy::copyExternalRepresentationOfHSTSPolicies() const
PUBLIC c2783 0 mapToExternalRepresentation(void const*, void const*, void*)
PUBLIC c27ee 0 HSTSPolicy::copyHSTSInfoFromStore(__CFString const*, unsigned char*) const
PUBLIC c280e 0 HSTSStorage::copyHSTSInfoDictionary(__CFString const*, unsigned char*)
PUBLIC c2932 0 HSTSPolicy::isKnownHSTSHost(unsigned char*, long, unsigned char*) const
PUBLIC c2b54 0 HSTSPolicy::isKnownHSTSHost(__CFURL const*, unsigned char*) const
PUBLIC c2cbe 0 HSTSPolicy::updateHSTSInfoForHost(__CFString const*, __CFDictionary const*) const
PUBLIC c2f42 0 HSTSPolicy::handleSTSHeader(__CFString const*, __CFURL const*) const
PUBLIC c2fe4 0 HSTSPolicy::resetHSTSHostsSinceDate(__CFDate const*)
PUBLIC c307c 0 HSTSPolicy::forgetStore()
PUBLIC c3091 0 _CFNetworkUnitTest_HSTSSchemeUpgrade
PUBLIC c314a 0 _CFNetworkUnitTest_HSTSSchemeUpgradeCancel
PUBLIC c318e 0 _CFNetworkUnitTest_HSTSSchemeUpgradeForbidInsecureLoad
PUBLIC c31d2 0 _CFNetworkUnitTest_HSTSSchemeUpgradeLoadOtherURL
PUBLIC c3216 0 _CFNetworkUnitTest_HSTSSchemeUpgradeLoadOtherHSTSURL
PUBLIC c325a 0 _CFNetworkUnitTest_HSTSSchemeUpgradeLoadOtherHSTSURLAndForbidInsecureLoad
PUBLIC c329e 0 _CFNetworkUnitTest_HSTSSchemeUpgradeRedirect
PUBLIC c32e2 0 _CFNetworkUnitTest_HSTSSchemeUpgradeApplePreloadHosts
PUBLIC c338a 0 ___ZN11HSTSStorage15modifyHSTSHostsEPK10__CFStringPK14__CFDictionaryPK8__CFDate_block_invoke
PUBLIC c33e4 0 ___ZN11HSTSStorage22copyHSTSInfoDictionaryEPK10__CFStringPh_block_invoke
PUBLIC c348c 0 ___ZN11HSTSStorage22copyHSTSInfoDictionaryEPK10__CFStringPh_block_invoke_2
PUBLIC c34f3 0 __copy_helper_block_
PUBLIC c352b 0 __destroy_helper_block_
PUBLIC c3556 0 __copy_helper_block_.39
PUBLIC c358e 0 __destroy_helper_block_.40
PUBLIC c35bc 0 -[UnitTestSchemeUpgradeTaskDelegate initWithTestDisposition:]
PUBLIC c3601 0 -[UnitTestSchemeUpgradeTaskDelegate URLSession:task:_schemeUpgraded:completionHandler:]
PUBLIC c3770 0 -[UnitTestSchemeUpgradeTaskDelegate URLSession:task:willPerformHTTPRedirection:newRequest:completionHandler:]
PUBLIC c3789 0 -[UnitTestSchemeUpgradeTaskDelegate testPassed:]
PUBLIC c388c 0 RunSchemeUpgradeTestWithURL
PUBLIC c394f 0 __RunSchemeUpgradeTestWithURL_block_invoke
PUBLIC c3ac0 0 __RunSchemeUpgradeTestWithURL_block_invoke_2
PUBLIC c3af5 0 __copy_helper_block_
PUBLIC c3b2d 0 __destroy_helper_block_
PUBLIC c3b58 0 __copy_helper_block_.134
PUBLIC c3b6f 0 __destroy_helper_block_.135
PUBLIC c3b82 0 spdylay_stream_defer_data
PUBLIC c3bb4 0 spdylay_stream_detach_deferred_data
PUBLIC c3bc6 0 spdylay_stream_update_initial_window_size
PUBLIC c3bd1 0 CFHTTPMessageCopySerializedMessage
PUBLIC c3c5a 0 _CFHTTPMessageSetResponseProxyURL
PUBLIC c3c94 0 _CFHTTPMessageCopyResponseProxyURL(__CFHTTPMessage*)
PUBLIC c3cd6 0 _CFHTTPMessageSetAuthentication(__CFHTTPMessage*, _CFHTTPAuthentication*, unsigned char)
PUBLIC c3d39 0 _CFHTTPMessageCopyLocalizedShortDescriptionForStatusCode
PUBLIC c3d49 0 _CFHTTPMessageCopyContentDispositionBytes
PUBLIC c3d8e 0 __copy_helper_block_
PUBLIC c3dc6 0 __destroy_helper_block_
PUBLIC c3df1 0 __copy_helper_block_.32
PUBLIC c3e29 0 __destroy_helper_block_.33
PUBLIC c3e54 0 -[__NSCFLocalUploadTask isKindOfClass:]
PUBLIC c3ec3 0 -[__NSCFLocalSessionTask initWithTask:]
PUBLIC c3f9e 0 -[__NSCFLocalSessionTask _onqueue_didReceiveResponse:completion:]
PUBLIC c3fa7 0 -[__NSCFLocalSessionTask description]
PUBLIC c4049 0 -[__NSCFLocalSessionTask _finishBecomeDownload:]
PUBLIC c40f0 0 -[__NSCFLocalSessionTask _finishBecomeStream:forConnection:completionHandler:]
PUBLIC c41e1 0 -[__NSCFLocalSessionTask _private_onqueue_becomeStreamTaskWithCompletionHandler:]
PUBLIC c448f 0 __81-[__NSCFLocalSessionTask _private_onqueue_becomeStreamTaskWithCompletionHandler:]_block_invoke
PUBLIC c44b2 0 __copy_helper_block_.126
PUBLIC c44ea 0 __destroy_helper_block_.127
PUBLIC c4515 0 __81-[__NSCFLocalSessionTask _private_onqueue_becomeStreamTaskWithCompletionHandler:]_block_invoke.133
PUBLIC c4538 0 __copy_helper_block_.134
PUBLIC c4570 0 __destroy_helper_block_.135
PUBLIC c459b 0 __81-[__NSCFLocalSessionTask _private_onqueue_becomeStreamTaskWithCompletionHandler:]_block_invoke.143
PUBLIC c46df 0 __81-[__NSCFLocalSessionTask _private_onqueue_becomeStreamTaskWithCompletionHandler:]_block_invoke_2
PUBLIC c4704 0 __copy_helper_block_.148
PUBLIC c4760 0 __destroy_helper_block_.149
PUBLIC c47a7 0 __copy_helper_block_.153
PUBLIC c4803 0 __destroy_helper_block_.154
PUBLIC c484c 0 __84-[__NSCFLocalSessionTask _private_onqueue_didReceiveResponseDisposition:completion:]_block_invoke
PUBLIC c4862 0 __copy_helper_block_.166
PUBLIC c4879 0 __destroy_helper_block_.167
PUBLIC c488c 0 __84-[__NSCFLocalSessionTask _private_onqueue_didReceiveResponseDisposition:completion:]_block_invoke.174
PUBLIC c4990 0 __84-[__NSCFLocalSessionTask _private_onqueue_didReceiveResponseDisposition:completion:]_block_invoke_2
PUBLIC c49ad 0 __copy_helper_block_.177
PUBLIC c49e5 0 __destroy_helper_block_.178
PUBLIC c4a10 0 __copy_helper_block_.180
PUBLIC c4a48 0 __destroy_helper_block_.181
PUBLIC c4a75 0 -[__NSCFLocalSessionTask _onqueue_didReceiveResponse:redirectRequest:withCompletion:]
PUBLIC c4b3e 0 __85-[__NSCFLocalSessionTask _onqueue_didReceiveResponse:redirectRequest:withCompletion:]_block_invoke
PUBLIC c4baf 0 __85-[__NSCFLocalSessionTask _onqueue_didReceiveResponse:redirectRequest:withCompletion:]_block_invoke_2
PUBLIC c4bc5 0 __copy_helper_block_.193
PUBLIC c4bfd 0 __destroy_helper_block_.194
PUBLIC c4c28 0 __copy_helper_block_.196
PUBLIC c4c60 0 __destroy_helper_block_.197
PUBLIC c4c8b 0 -[__NSCFLocalSessionTask _onqueue_didFinishCollectingMetrics:completion:]
PUBLIC c4d15 0 __copy_helper_block_.245
PUBLIC c4d5f 0 __destroy_helper_block_.246
PUBLIC c4d98 0 __49-[__NSCFLocalSessionTask _task_onqueue_didFinish]_block_invoke.250
PUBLIC c4e41 0 __copy_helper_block_.259
PUBLIC c4e58 0 __destroy_helper_block_.260
PUBLIC c4e6b 0 __49-[__NSCFLocalSessionTask _task_onqueue_didFinish]_block_invoke.271
PUBLIC c4ed1 0 __49-[__NSCFLocalSessionTask _task_onqueue_didFinish]_block_invoke_2
PUBLIC c4edd 0 __copy_helper_block_.272
PUBLIC c4ef4 0 __destroy_helper_block_.273
PUBLIC c4f07 0 __copy_helper_block_.275
PUBLIC c4f3f 0 __destroy_helper_block_.276
PUBLIC c4f6d 0 -[__NSCFLocalSessionTask _onqueue_needNewBodyStream:withCompletion:]
PUBLIC c4fee 0 -[__NSCFLocalSessionTask _onqueue_willSendRequestForEstablishedConnection:withCompletion:]
PUBLIC c51ec 0 __90-[__NSCFLocalSessionTask _onqueue_willSendRequestForEstablishedConnection:withCompletion:]_block_invoke
PUBLIC c5250 0 __copy_helper_block_.294
PUBLIC c5288 0 __destroy_helper_block_.295
PUBLIC c52b3 0 __90-[__NSCFLocalSessionTask _onqueue_willSendRequestForEstablishedConnection:withCompletion:]_block_invoke.297
PUBLIC c530b 0 __copy_helper_block_.304
PUBLIC c5343 0 __destroy_helper_block_.305
PUBLIC c536e 0 __90-[__NSCFLocalSessionTask _onqueue_willSendRequestForEstablishedConnection:withCompletion:]_block_invoke.307
PUBLIC c53d7 0 __90-[__NSCFLocalSessionTask _onqueue_willSendRequestForEstablishedConnection:withCompletion:]_block_invoke_2
PUBLIC c53ed 0 __copy_helper_block_.308
PUBLIC c5425 0 __destroy_helper_block_.309
PUBLIC c5450 0 __copy_helper_block_.311
PUBLIC c5488 0 __destroy_helper_block_.312
PUBLIC c54b3 0 -[__NSCFLocalSessionTask _onqueue_connectionWaitingWithReason:]
PUBLIC c55f9 0 -[__NSCFLocalSessionTask _onqueue_conditionalRequirementsChanged:]
PUBLIC c5671 0 -[__NSCFLocalSessionTask _onqueue_needConnectedSocketToHost:port:withCompletion:]
PUBLIC c5710 0 -[__NSCFLocalSessionTask _onqueue_cancel_with_error:]
PUBLIC c582b 0 -[__NSCFLocalSessionTask _onqueue_cancel]
PUBLIC c585e 0 -[__NSCFLocalSessionTask _onqueue_adjustPoolPriority]
PUBLIC c58c7 0 -[__NSCFLocalSessionTask _onqueue_adjustLoadingPoolPriority]
PUBLIC c58d9 0 -[__NSCFLocalSessionTask _onqueue_adjustBytesPerSecondLimit:]
PUBLIC c5932 0 -[__NSCFLocalSessionTask _onSessionQueue_disavow]
PUBLIC c599e 0 -[__NSCFLocalSessionTask cancel_with_error:]
PUBLIC c5a1c 0 __44-[__NSCFLocalSessionTask cancel_with_error:]_block_invoke
PUBLIC c5a39 0 __copy_helper_block_.384
PUBLIC c5a71 0 __destroy_helper_block_.385
PUBLIC c5a9c 0 -[__NSCFLocalSessionTask _askForConnectedSocketLater]
PUBLIC c5b6f 0 -[__NSCFLocalSessionTask error:code:]
PUBLIC c5be3 0 -[__NSCFLocalSessionTask nsurlError:]
PUBLIC c5bff 0 -[__NSCFLocalSessionTask canceledError]
PUBLIC c5c1f 0 -[__NSCFLocalSessionTask posixError:]
PUBLIC c5c3b 0 -[__NSCFLocalSessionTask timeoutErrorWithStreamErrorCode:]
PUBLIC c5e69 0 -[__NSCFLocalSessionTask resourceTimeoutError]
PUBLIC c5e80 0 -[__NSCFLocalSessionTask startTimeoutError]
PUBLIC c5e99 0 __44-[__NSCFLocalSessionTask startResourceTimer]_block_invoke
PUBLIC c5ecc 0 __copy_helper_block_.442
PUBLIC c5ee3 0 __destroy_helper_block_.443
PUBLIC c5ef8 0 __81-[__NSCFLocalSessionTask _onqueue_startTimer:withTimeoutInNanos:streamErrorCode:]_block_invoke
PUBLIC c5f5c 0 __copy_helper_block_.447
PUBLIC c5f73 0 __destroy_helper_block_.448
PUBLIC c5f86 0 __81-[__NSCFLocalSessionTask _onqueue_startTimer:withTimeoutInNanos:streamErrorCode:]_block_invoke.450
PUBLIC c5f9c 0 __copy_helper_block_.451
PUBLIC c5fb3 0 __destroy_helper_block_.452
PUBLIC c5fc7 0 -[__NSCFLocalSessionTask _onqueue_startPayloadTransmissionTimer]
PUBLIC c607b 0 -[__NSCFLocalSessionTask _onqueue_submitConnectionWork:]
PUBLIC c60a4 0 -[__NSCFLocalSessionTask _onqueue_suspendWorkQueue]
PUBLIC c6104 0 -[__NSCFLocalSessionTask _onqueue_resumeWorkQueue]
PUBLIC c615e 0 -[__NSCFLocalSessionTask connection:wasRedirected:newRequest:responseCallback:]
PUBLIC c621f 0 __79-[__NSCFLocalSessionTask connection:wasRedirected:newRequest:responseCallback:]_block_invoke
PUBLIC c6244 0 __copy_helper_block_.475
PUBLIC c62a0 0 __destroy_helper_block_.476
PUBLIC c62e9 0 __67-[__NSCFLocalSessionTask connection:didReceiveResponse:completion:]_block_invoke
PUBLIC c6365 0 __67-[__NSCFLocalSessionTask connection:didReceiveResponse:completion:]_block_invoke_2
PUBLIC c63aa 0 __copy_helper_block_.495
PUBLIC c63e2 0 __destroy_helper_block_.496
PUBLIC c640d 0 __copy_helper_block_.500
PUBLIC c6457 0 __destroy_helper_block_.501
PUBLIC c6492 0 __72-[__NSCFLocalSessionTask connection:willCacheResponse:responseCallback:]_block_invoke
PUBLIC c64b3 0 __copy_helper_block_.505
PUBLIC c64fd 0 __destroy_helper_block_.506
PUBLIC c6536 0 -[__NSCFLocalSessionTask connection:didFinishCollectingMetrics:completion:]
PUBLIC c65ec 0 __75-[__NSCFLocalSessionTask connection:didFinishCollectingMetrics:completion:]_block_invoke
PUBLIC c660d 0 __copy_helper_block_.510
PUBLIC c6657 0 __destroy_helper_block_.511
PUBLIC c6691 0 __54-[__NSCFLocalSessionTask connectionWillFinishLoading:]_block_invoke
PUBLIC c66a7 0 __copy_helper_block_.513
PUBLIC c66be 0 __destroy_helper_block_.514
PUBLIC c66d2 0 __63-[__NSCFLocalSessionTask connection:didFinishLoadingWithError:]_block_invoke
PUBLIC c66ef 0 __copy_helper_block_.516
PUBLIC c6727 0 __destroy_helper_block_.517
PUBLIC c6753 0 __66-[__NSCFLocalSessionTask connection:didReceiveConnectionCacheKey:]_block_invoke
PUBLIC c6790 0 __copy_helper_block_.519
PUBLIC c67a7 0 __destroy_helper_block_.520
PUBLIC c67ba 0 -[__NSCFLocalSessionTask connection:request:needsNewBodyStreamCallback:]
PUBLIC c6870 0 __72-[__NSCFLocalSessionTask connection:request:needsNewBodyStreamCallback:]_block_invoke
PUBLIC c6891 0 __copy_helper_block_.524
PUBLIC c68db 0 __destroy_helper_block_.525
PUBLIC c6916 0 __61-[__NSCFLocalSessionTask connection:challenged:authCallback:]_block_invoke
PUBLIC c6961 0 __copy_helper_block_.529
PUBLIC c69ab 0 __destroy_helper_block_.530
PUBLIC c69e6 0 __63-[__NSCFLocalSessionTask connection:didReceiveData:completion:]_block_invoke
PUBLIC c6a07 0 __copy_helper_block_.534
PUBLIC c6a51 0 __destroy_helper_block_.535
PUBLIC c6a8b 0 __76-[__NSCFLocalSessionTask connection:sentBodyBytes:totalBytes:expectedBytes:]_block_invoke
PUBLIC c6afd 0 __copy_helper_block_.541
PUBLIC c6b59 0 __destroy_helper_block_.542
PUBLIC c6ba0 0 -[__NSCFLocalSessionTask connection:_willSendRequestForEstablishedConnection:completion:]
PUBLIC c6c56 0 __89-[__NSCFLocalSessionTask connection:_willSendRequestForEstablishedConnection:completion:]_block_invoke
PUBLIC c6c77 0 __copy_helper_block_.546
PUBLIC c6cc1 0 __destroy_helper_block_.547
PUBLIC c6cfa 0 -[__NSCFLocalSessionTask connection:waitingWithReason:]
PUBLIC c6da5 0 __55-[__NSCFLocalSessionTask connection:waitingWithReason:]_block_invoke
PUBLIC c6dc2 0 __copy_helper_block_.551
PUBLIC c6dd9 0 __destroy_helper_block_.552
PUBLIC c6dec 0 -[__NSCFLocalSessionTask connection:_conditionalRequirementsChanged:]
PUBLIC c6e97 0 __69-[__NSCFLocalSessionTask connection:_conditionalRequirementsChanged:]_block_invoke
PUBLIC c6eb4 0 __copy_helper_block_.556
PUBLIC c6ecb 0 __destroy_helper_block_.557
PUBLIC c6ede 0 -[__NSCFLocalSessionTask connection:didReceiveSocketInputStream:outputStream:]
PUBLIC c6fc5 0 __78-[__NSCFLocalSessionTask connection:didReceiveSocketInputStream:outputStream:]_block_invoke
PUBLIC c701d 0 __copy_helper_block_.561
PUBLIC c7067 0 __destroy_helper_block_.562
PUBLIC c70a0 0 -[__NSCFLocalSessionTask connection:didReceiveTCPConnection:]
PUBLIC c713a 0 __61-[__NSCFLocalSessionTask connection:didReceiveTCPConnection:]_block_invoke
PUBLIC c718e 0 __copy_helper_block_.564
PUBLIC c71d0 0 __destroy_helper_block_.565
PUBLIC c71fe 0 -[__NSCFLocalSessionTask connection:needConnectedSocketToHost:port:completion:]
PUBLIC c725b 0 __79-[__NSCFLocalSessionTask connection:needConnectedSocketToHost:port:completion:]_block_invoke
PUBLIC c7280 0 __copy_helper_block_.569
PUBLIC c72ca 0 __destroy_helper_block_.570
PUBLIC c7306 0 -[__NSCFLocalSessionTask uploadFile]
PUBLIC c731e 0 -[__NSCFLocalSessionTask setPendingResponseDisposition_didFinish:]
PUBLIC c732e 0 -[__NSCFLocalSessionTask didIssueWaitingForConnectivity]
PUBLIC c7341 0 -[__NSCFLocalSessionTask setDidIssueWaitingForConnectivity:]
PUBLIC c7354 0 -[__NSCFLocalSessionTask .cxx_destruct]
PUBLIC c7371 0 -[__NSCFLocalSessionTask .cxx_construct]
PUBLIC c738c 0 SHTTP2ConnectionCache::~SHTTP2ConnectionCache()
PUBLIC c73fa 0 RetainableTypedDict<HTTPConnectionCacheKey const*, SHTTP2ConnectionCacheEntry*>::~RetainableTypedDict()
PUBLIC c741a 0 SHTTP2ConnectionCache::~SHTTP2ConnectionCache()
PUBLIC c7424 0 non-virtual thunk to SHTTP2ConnectionCache::~SHTTP2ConnectionCache()
PUBLIC c7432 0 SHTTP2ConnectionCache::~SHTTP2ConnectionCache()
PUBLIC c744e 0 non-virtual thunk to SHTTP2ConnectionCache::~SHTTP2ConnectionCache()
PUBLIC c7472 0 SHTTP2ConnectionCache::copyDebugDesc() const
PUBLIC c7494 0 ___ZN21SHTTP2ConnectionCache15initCacheTimersEv_block_invoke_2
PUBLIC c74e9 0 ___ZN21SHTTP2ConnectionCache15initCacheTimersEv_block_invoke_3
PUBLIC c750c 0 SHTTP2ConnectionCache::enqueueRequestForProtocol(MetaConnectionCacheClient*, HTTPRequestMessage const*, MetaConnectionOptions)
PUBLIC c756a 0 SHTTP2ConnectionCache::getPendingTubeForProtocolWithKey(MetaConnectionCacheClient*, HTTPConnectionCacheKey const*)
PUBLIC c7572 0 SHTTP2ConnectionCache::invalidateUnpurgeableConnectionsForKey(HTTPConnectionCacheKey const*)
PUBLIC c75e2 0 ___ZN21SHTTP2ConnectionCache38invalidateUnpurgeableConnectionsForKeyEPK22HTTPConnectionCacheKey_block_invoke
PUBLIC c7614 0 SHTTP2ConnectionCache::_onqueue_invalidateUnpurgeableConnectionsForKey(HTTPConnectionCacheKey const*)
PUBLIC c764c 0 SHTTP2ConnectionCache::invalidateAllConnections()
PUBLIC c76b2 0 ___ZN21SHTTP2ConnectionCache24invalidateAllConnectionsEv_block_invoke
PUBLIC c76de 0 SHTTP2ConnectionCache::_onqueue_removeAllConnections()
PUBLIC c7714 0 ___ZN21SHTTP2ConnectionCache32_onqueue_base_remove_connectionsEb_block_invoke
PUBLIC c7744 0 MetaConnectionCache::initWithSchedulingSet(CoreSchedulingSet const*, TubeManager*)
PUBLIC c774e 0 MetaConnectionCache::ingestTube(Tube*, bool)
PUBLIC c7758 0 RetainableTypedDict<HTTPConnectionCacheKey const*, SHTTP2ConnectionCacheEntry*>::~RetainableTypedDict()
PUBLIC c7789 0 _CFHSTSPolicyHandleSTSHeader
PUBLIC c77c4 0 _CFHSTSPolicyResetHSTSHostsSinceDate
PUBLIC c77f0 0 _CFHSTSPolicyUpdateHSTSInfoForHost
PUBLIC c7890 0 std::__1::__shared_ptr_pointer<__CFString*, Deleter_CFRelease, std::__1::allocator<__CFString> >::~__shared_ptr_pointer()
PUBLIC c789a 0 std::__1::__shared_ptr_pointer<__CFString*, Deleter_CFRelease, std::__1::allocator<__CFString> >::~__shared_ptr_pointer()
PUBLIC c78b6 0 _visit(void const*, void const*, void*)
PUBLIC c78d0 0 ___ZN13HSTSPreloader15CopyPreloadListEv_block_invoke
PUBLIC c7a88 0 HSTSPreloader::CopyPreloadHSTSHosts()
PUBLIC c7af2 0 HSTSPreloader::~HSTSPreloader()
PUBLIC c7b46 0 HSTSPreloader::~HSTSPreloader()
PUBLIC c7b50 0 non-virtual thunk to HSTSPreloader::~HSTSPreloader()
PUBLIC c7b5e 0 HSTSPreloader::~HSTSPreloader()
PUBLIC c7b68 0 non-virtual thunk to HSTSPreloader::~HSTSPreloader()
PUBLIC c7b76 0 HSTSPreloader::initialize()
PUBLIC c7bba 0 HSTSPreloader::createPreloadedHSTSCache(__CFAllocator const*, __CFDictionary const*, bool)
PUBLIC c7c59 0 ___ZN13HSTSPreloader24createPreloadedHSTSCacheEPK13__CFAllocatorPK14__CFDictionaryb_block_invoke
PUBLIC c7d5e 0 ___ZN13HSTSPreloader24createPreloadedHSTSCacheEPK13__CFAllocatorPK14__CFDictionaryb_block_invoke_2
PUBLIC c7d74 0 HSTSPreloader::initializePreloadHSTSStore(bool)
PUBLIC c7e8c 0 HSTSPreloader::migrateExistingCacheData(__CFAllocator const*, __CFDictionary const*)
PUBLIC c8102 0 __copy_helper_block_
PUBLIC c8119 0 __destroy_helper_block_
PUBLIC c812c 0 HSTSPreloader::mergeExistingEntriesWithPreloadEntries(__CFAllocator const*, __CFDictionary*, __CFDictionary const*, bool (void const*) block_pointer)
PUBLIC c81d5 0 ___ZN13HSTSPreloader24migrateExistingCacheDataEPK13__CFAllocatorPK14__CFDictionary_block_invoke
PUBLIC c81dd 0 ___ZN13HSTSPreloader24migrateExistingCacheDataEPK13__CFAllocatorPK14__CFDictionary_block_invoke_2
PUBLIC c8225 0 ___ZN13HSTSPreloader24migrateExistingCacheDataEPK13__CFAllocatorPK14__CFDictionary_block_invoke_3
PUBLIC c8244 0 HSTSPreloader::addHSTSInfoForKey(__CFAllocator const*, __CFDictionary*, void const*, void const*)
PUBLIC c838e 0 HSTSPreloader::addMetadataKeysToDictionary(__CFDictionary*)
PUBLIC c84ff 0 ___ZN13HSTSPreloader38mergeExistingEntriesWithPreloadEntriesEPK13__CFAllocatorP14__CFDictionaryPKS3_U13block_pointerFbPKvE_block_invoke
PUBLIC c8678 0 ___ZN13HSTSPreloader38mergeExistingEntriesWithPreloadEntriesEPK13__CFAllocatorP14__CFDictionaryPKS3_U13block_pointerFbPKvE_block_invoke_2
PUBLIC c86c2 0 __copy_helper_block_.19
PUBLIC c86d9 0 __destroy_helper_block_.20
PUBLIC c86ec 0 __copy_helper_block_.22
PUBLIC c8724 0 __destroy_helper_block_.23
PUBLIC c8750 0 HSTSPreloader::copyDebugDesc() const
PUBLIC c8782 0 HSTSPreloader::CopyPreloadHSTSInfo(__CFString const*)
PUBLIC c89bd 0 _CFNetworkUnitTest_HSTSPreloadEdgeCases
PUBLIC c8bb0 0 _CFNetworkUnitTest_HSTSPreloadEntryHSTSState
PUBLIC c8ea6 0 _CFNetworkUnitTest_HSTSPreloadLookups
PUBLIC c8f69 0 lookupPreloadHost(__CFString const*, void (bool, char const*) block_pointer)
PUBLIC c8fa8 0 -[__NSCFLocalDownloadTask explicitDownloadDirectory]
PUBLIC c9034 0 -[__NSCFLocalDownloadTask setupForNewDownload:]
PUBLIC c9221 0 -[__NSCFLocalDownloadTask initWithSession:request:ident:]
PUBLIC c923c 0 -[__NSCFLocalDownloadTask initWithSession:request:filePath:ident:]
PUBLIC c92da 0 -[__NSCFLocalDownloadTask _copySocketStreamProperties]
PUBLIC c93b0 0 +[__NSCFLocalDownloadTask _expandResumeData:]
PUBLIC c94e1 0 +[__NSCFLocalDownloadTask _requestFromResumeDataDictionary:key:]
PUBLIC c95e6 0 +[__NSCFLocalDownloadTask _requestFromResumeDataDictionary:]
PUBLIC c96c9 0 -[__NSCFLocalDownloadTask initWithSession:resumeData:ident:]
PUBLIC ca2d2 0 __60-[__NSCFLocalDownloadTask initWithSession:resumeData:ident:]_block_invoke
PUBLIC ca4a5 0 __copy_helper_block_
PUBLIC ca501 0 __destroy_helper_block_
PUBLIC ca548 0 -[__NSCFLocalDownloadTask initWithTask:]
PUBLIC ca5ec 0 -[__NSCFLocalDownloadTask dealloc]
PUBLIC ca69a 0 -[__NSCFLocalDownloadTask openItemForPath:mode:]
PUBLIC ca71d 0 -[__NSCFLocalDownloadTask _onqueue_completeInitialization]
PUBLIC ca95b 0 -[__NSCFLocalDownloadTask _onqueue_cancelByProducingResumeData:]
PUBLIC cab6a 0 __64-[__NSCFLocalDownloadTask _onqueue_cancelByProducingResumeData:]_block_invoke
PUBLIC cab8b 0 __copy_helper_block_.182
PUBLIC caba2 0 __destroy_helper_block_.183
PUBLIC cabb5 0 __64-[__NSCFLocalDownloadTask _onqueue_cancelByProducingResumeData:]_block_invoke.188
PUBLIC cabe9 0 __copy_helper_block_.189
PUBLIC cac21 0 __destroy_helper_block_.190
PUBLIC cac4c 0 __64-[__NSCFLocalDownloadTask _onqueue_cancelByProducingResumeData:]_block_invoke.193
PUBLIC cac5d 0 __copy_helper_block_.194
PUBLIC cac74 0 __destroy_helper_block_.195
PUBLIC cac87 0 -[__NSCFLocalDownloadTask cancelByProducingResumeData:]
PUBLIC cacf0 0 __55-[__NSCFLocalDownloadTask cancelByProducingResumeData:]_block_invoke
PUBLIC cad0d 0 __copy_helper_block_.203
PUBLIC cad45 0 __destroy_helper_block_.204
PUBLIC cad70 0 -[__NSCFLocalDownloadTask reportProgress:]
PUBLIC cae8e 0 __42-[__NSCFLocalDownloadTask reportProgress:]_block_invoke
PUBLIC caef4 0 __42-[__NSCFLocalDownloadTask reportProgress:]_block_invoke_2
PUBLIC caf94 0 __copy_helper_block_.216
PUBLIC cafab 0 __destroy_helper_block_.217
PUBLIC cafbe 0 __copy_helper_block_.219
PUBLIC cafd5 0 __destroy_helper_block_.220
PUBLIC cafe8 0 -[__NSCFLocalDownloadTask _private_posixError:]
PUBLIC cb050 0 -[__NSCFLocalDownloadTask _onqueue_willCacheResponse:withCompletion:]
PUBLIC cb060 0 -[__NSCFLocalDownloadTask writeAndResume]
PUBLIC cb1b7 0 countSegments(NSObject<OS_dispatch_data>*)
PUBLIC cb23d 0 __41-[__NSCFLocalDownloadTask writeAndResume]_block_invoke
PUBLIC cb334 0 __41-[__NSCFLocalDownloadTask writeAndResume]_block_invoke_2
PUBLIC cb36c 0 __copy_helper_block_.238
PUBLIC cb383 0 __destroy_helper_block_.239
PUBLIC cb396 0 __copy_helper_block_.241
PUBLIC cb3ad 0 __destroy_helper_block_.242
PUBLIC cb3c0 0 -[__NSCFLocalDownloadTask terminateExtractorWithError:]
PUBLIC cb5cb 0 __55-[__NSCFLocalDownloadTask terminateExtractorWithError:]_block_invoke
PUBLIC cb6fd 0 __copy_helper_block_.251
PUBLIC cb735 0 __destroy_helper_block_.252
PUBLIC cb760 0 -[__NSCFLocalDownloadTask suspendExtractor]
PUBLIC cb89b 0 __43-[__NSCFLocalDownloadTask suspendExtractor]_block_invoke
PUBLIC cb9cd 0 __copy_helper_block_.259
PUBLIC cba05 0 __destroy_helper_block_.260
PUBLIC cba30 0 -[__NSCFLocalDownloadTask createResumeInformation:]
PUBLIC cc10d 0 -[__NSCFLocalDownloadTask _private_errorCompletion]
PUBLIC cc475 0 __51-[__NSCFLocalDownloadTask _private_errorCompletion]_block_invoke
PUBLIC cc4cd 0 __copy_helper_block_.343
PUBLIC cc505 0 __destroy_helper_block_.344
PUBLIC cc530 0 -[__NSCFLocalDownloadTask _private_fileCompletion]
PUBLIC ccc5b 0 __50-[__NSCFLocalDownloadTask _private_fileCompletion]_block_invoke
PUBLIC ccc7e 0 __copy_helper_block_.366
PUBLIC cccb6 0 __destroy_helper_block_.367
PUBLIC ccce1 0 __50-[__NSCFLocalDownloadTask _private_fileCompletion]_block_invoke.369
PUBLIC ccd4e 0 __copy_helper_block_.370
PUBLIC ccd86 0 __destroy_helper_block_.371
PUBLIC ccdb1 0 __50-[__NSCFLocalDownloadTask _private_fileCompletion]_block_invoke.379
PUBLIC cce2c 0 __copy_helper_block_.380
PUBLIC cce76 0 __destroy_helper_block_.381
PUBLIC cceaf 0 __50-[__NSCFLocalDownloadTask _private_fileCompletion]_block_invoke.385
PUBLIC ccf04 0 __copy_helper_block_.386
PUBLIC ccf1b 0 __destroy_helper_block_.387
PUBLIC ccf2e 0 __50-[__NSCFLocalDownloadTask _private_fileCompletion]_block_invoke.389
PUBLIC ccfae 0 __50-[__NSCFLocalDownloadTask _private_fileCompletion]_block_invoke_2
PUBLIC cd027 0 __copy_helper_block_.390
PUBLIC cd03e 0 __destroy_helper_block_.391
PUBLIC cd051 0 __copy_helper_block_.395
PUBLIC cd089 0 __destroy_helper_block_.396
PUBLIC cd0b4 0 __50-[__NSCFLocalDownloadTask _private_fileCompletion]_block_invoke.398
PUBLIC cd0cf 0 __copy_helper_block_.399
PUBLIC cd0e6 0 __destroy_helper_block_.400
PUBLIC cd0f9 0 -[__NSCFLocalDownloadTask checkWrite]
PUBLIC cd30b 0 __37-[__NSCFLocalDownloadTask checkWrite]_block_invoke
PUBLIC cd3b4 0 __copy_helper_block_.414
PUBLIC cd3cb 0 __destroy_helper_block_.415
PUBLIC cd3de 0 -[__NSCFLocalDownloadTask _onqueue_didReceiveResponse:completion:]
PUBLIC cd6cd 0 -[__NSCFLocalDownloadTask _task_onqueue_didReceiveDispatchData:completionHandler:]
PUBLIC cdd50 0 __82-[__NSCFLocalDownloadTask _task_onqueue_didReceiveDispatchData:completionHandler:]_block_invoke
PUBLIC cdebb 0 __copy_helper_block_.459
PUBLIC cdf17 0 __destroy_helper_block_.460
PUBLIC cdf5e 0 __82-[__NSCFLocalDownloadTask _task_onqueue_didReceiveDispatchData:completionHandler:]_block_invoke.464
PUBLIC ce1d9 0 __82-[__NSCFLocalDownloadTask _task_onqueue_didReceiveDispatchData:completionHandler:]_block_invoke_2
PUBLIC ce332 0 __copy_helper_block_.465
PUBLIC ce37c 0 __destroy_helper_block_.466
PUBLIC ce3b5 0 __copy_helper_block_.470
PUBLIC ce3ff 0 __destroy_helper_block_.471
PUBLIC ce438 0 -[__NSCFLocalDownloadTask _task_onqueue_didFinish]
PUBLIC ce5db 0 __50-[__NSCFLocalDownloadTask _task_onqueue_didFinish]_block_invoke
PUBLIC ce72a 0 __copy_helper_block_.482
PUBLIC ce762 0 __destroy_helper_block_.483
PUBLIC ce78d 0 -[__NSCFLocalDownloadTask isKindOfClass:]
PUBLIC ce7fb 0 -[__NSCFLocalDownloadTask fileCompletion]
PUBLIC ce811 0 -[__NSCFLocalDownloadTask setFileCompletion:]
PUBLIC ce822 0 -[__NSCFLocalDownloadTask downloadFile]
PUBLIC ce838 0 -[__NSCFLocalDownloadTask setDownloadFile:]
PUBLIC ce849 0 -[__NSCFLocalDownloadTask resumeCallback]
PUBLIC ce85f 0 -[__NSCFLocalDownloadTask setResumeCallback:]
PUBLIC ce870 0 -[__NSCFLocalDownloadTask _afterDidReportProgressOnQueue]
PUBLIC ce886 0 -[__NSCFLocalDownloadTask set_afterDidReportProgressOnQueue:]
PUBLIC ce897 0 -[__NSCFLocalDownloadTask dataAckCompletion]
PUBLIC ce8ad 0 -[__NSCFLocalDownloadTask setDataAckCompletion:]
PUBLIC ce8be 0 _CFNetworkUnitTestPauseResumeData
PUBLIC cea44 0 ___CFNetworkUnitTestPauseResumeData_block_invoke
PUBLIC ceaa0 0 ___CFNetworkUnitTestPauseResumeData_block_invoke_2
PUBLIC ceb97 0 ___CFNetworkUnitTestPauseResumeData_block_invoke_3
PUBLIC cebd4 0 __copy_helper_block_.602
PUBLIC cebeb 0 __destroy_helper_block_.603
PUBLIC cebfe 0 __copy_helper_block_.611
PUBLIC cec36 0 __destroy_helper_block_.612
PUBLIC cec61 0 __copy_helper_block_.615
PUBLIC cecab 0 __destroy_helper_block_.616
PUBLIC cece4 0 -[myDeli dealloc]
PUBLIC ced2d 0 -[myDeli init]
PUBLIC ced81 0 -[myDeli URLSession:downloadTask:didWriteData:totalBytesWritten:totalBytesExpectedToWrite:]
PUBLIC cee4f 0 __91-[myDeli URLSession:downloadTask:didWriteData:totalBytesWritten:totalBytesExpectedToWrite:]_block_invoke
PUBLIC cef3e 0 __copy_helper_block_.632
PUBLIC cef76 0 __destroy_helper_block_.633
PUBLIC cefa1 0 -[myDeli URLSession:task:didCompleteWithError:]
PUBLIC cf085 0 -[myDeli someError]
PUBLIC cf09b 0 -[myDeli setSomeError:]
PUBLIC cf0ac 0 -[myDeli receivedResponse]
PUBLIC cf0bf 0 -[myDeli setReceivedResponse:]
PUBLIC cf0cf 0 -[myDeli hasCanceled]
PUBLIC cf0e2 0 -[myDeli setHasCanceled:]
PUBLIC cf0f2 0 _CFNetworkUnitTestPauseResumeDataDownload
PUBLIC cf23f 0 _CFNetworkUnitTestRangePauseResumeDataDownload
PUBLIC cf477 0 ___CFNetworkUnitTestRangePauseResumeDataDownload_block_invoke
PUBLIC cf4db 0 ___CFNetworkUnitTestRangePauseResumeDataDownload_block_invoke_2
PUBLIC cf5ec 0 ___CFNetworkUnitTestRangePauseResumeDataDownload_block_invoke_3
PUBLIC cf69b 0 __copy_helper_block_.702
PUBLIC cf6d3 0 __destroy_helper_block_.703
PUBLIC cf6fe 0 __copy_helper_block_.710
PUBLIC cf75a 0 __destroy_helper_block_.711
PUBLIC cf7a1 0 __copy_helper_block_.713
PUBLIC cf80f 0 __destroy_helper_block_.714
PUBLIC cf864 0 -[SZDelegate init]
PUBLIC cf8ad 0 -[SZDelegate dealloc]
PUBLIC cf8ee 0 -[SZDelegate getWaiter]
PUBLIC cf8ff 0 -[SZDelegate URLSession:downloadTask:didFinishDownloadingToURL:]
PUBLIC cf91b 0 -[SZDelegate URLSession:task:didCompleteWithError:]
PUBLIC cf97a 0 -[SZDelegate URLSession:downloadTask:didWriteData:totalBytesWritten:totalBytesExpectedToWrite:]
PUBLIC cf9a0 0 _CFNetworkUnitTestStreamingZip
PUBLIC cfb9b 0 -[MultiplePauseResumeDataDownloadDelegate init]
PUBLIC cfc0c 0 -[MultiplePauseResumeDataDownloadDelegate dealloc]
PUBLIC cfc4d 0 -[MultiplePauseResumeDataDownloadDelegate getWaiter]
PUBLIC cfc5e 0 -[MultiplePauseResumeDataDownloadDelegate getSizeOfEntity]
PUBLIC cfc6f 0 -[MultiplePauseResumeDataDownloadDelegate didTestPass]
PUBLIC cfc7f 0 -[MultiplePauseResumeDataDownloadDelegate URLSession:downloadTask:didFinishDownloadingToURL:]
PUBLIC cfd42 0 -[MultiplePauseResumeDataDownloadDelegate URLSession:task:didCompleteWithError:]
PUBLIC cfdc4 0 -[MultiplePauseResumeDataDownloadDelegate URLSession:downloadTask:didWriteData:totalBytesWritten:totalBytesExpectedToWrite:]
PUBLIC cfeaa 0 __124-[MultiplePauseResumeDataDownloadDelegate URLSession:downloadTask:didWriteData:totalBytesWritten:totalBytesExpectedToWrite:]_block_invoke
PUBLIC cfee5 0 __copy_helper_block_.769
PUBLIC cfefc 0 __destroy_helper_block_.770
PUBLIC cff0f 0 _CFNetworkUnitTestMultiplePauseResumeDataDownload
PUBLIC d00d6 0 ___ZL12plistClassesv_block_invoke
PUBLIC d01f8 0 ___ZL16LoadStreamingZipv_block_invoke
PUBLIC d0229 0 ___ZL13countSegmentsPU27objcproto16OS_dispatch_data8NSObject_block_invoke
PUBLIC d023d 0 __copy_helper_block_.831
PUBLIC d0254 0 __destroy_helper_block_.832
PUBLIC d0267 0 -[NSNetServicesInternal dealloc]
PUBLIC d03f8 0 -[NSNetServicesInternal finalize]
PUBLIC d0547 0 -[NSNetServicesInternal copyScheduledRunLoop:andMode:]
PUBLIC d05b4 0 -[NSNetServicesInternal setScheduledRunLoop:andMode:]
PUBLIC d0655 0 -[NSNetServicesInternal listener]
PUBLIC d0666 0 -[NSNetServicesInternal setListener:]
PUBLIC d06ba 0 -[NSNetServicesInternal monitors]
PUBLIC d06d0 0 -[NSNetServicesInternal setMonitors:]
PUBLIC d06e2 0 TunnelProxy<HTTPEngine>::TunnelProxy(NetworkProxyContext const&)
PUBLIC d083a 0 TunnelProxy<HTTPEngine>::TunnelProxy(NetworkProxyContext const&)
PUBLIC d0844 0 TunnelProxy<HTTPEngine>::~TunnelProxy()
PUBLIC d092c 0 NetworkProxy::~NetworkProxy()
PUBLIC d09ba 0 TunnelProxy<HTTPEngine>::~TunnelProxy()
PUBLIC d09c4 0 non-virtual thunk to TunnelProxy<HTTPEngine>::~TunnelProxy()
PUBLIC d09d2 0 TunnelProxy<HTTPEngine>::~TunnelProxy()
PUBLIC d09ee 0 non-virtual thunk to TunnelProxy<HTTPEngine>::~TunnelProxy()
PUBLIC d0a12 0 TunnelProxy<HTTPEngine>::establishProxyConnection(SmartBlockWithArgs<std::__1::shared_ptr<NetworkProxy>, bool, CFStreamError>)
PUBLIC d0b96 0 auto TunnelProxy<HTTPEngine>::hold_unmanaged_in_shared<HTTPEngine::HTTPEngineDelegate, TunnelProxy<HTTPEngine> >(TunnelProxy<HTTPEngine>*)
PUBLIC d0bf8 0 TunnelProxy<HTTPEngine>::createCONNECTRequest()
PUBLIC d0d22 0 TunnelProxy<HTTPEngine>::setTunnelEstablishedCompletion(SmartBlockWithArgs<std::__1::shared_ptr<NetworkProxy>, bool, CFStreamError>)
PUBLIC d0d8c 0 TunnelProxy<HTTPEngine>::establishTunnel()
PUBLIC d0e64 0 TunnelProxy<HTTPEngine>::continueProxyEstablishment(std::__1::shared_ptr<TCPIOConnection>, SmartBlockWithArgs<std::__1::shared_ptr<NetworkProxy>, bool, CFStreamError>)
PUBLIC d104a 0 auto TunnelProxy<HTTPEngine>::hold_unmanaged_in_shared<TunnelProxy<HTTPEngine>, TunnelProxy<HTTPEngine> >(TunnelProxy<HTTPEngine>*)
PUBLIC d10a0 0 TunnelProxy<HTTPEngine>::completeTask(bool, char const*)
PUBLIC d113a 0 TunnelProxy<HTTPEngine>::copyCONNECTEndpointProperties()
PUBLIC d11c4 0 TunnelProxy<HTTPEngine>::getType() const
PUBLIC d11d0 0 TunnelProxy<HTTPEngine>::prettyType() const
PUBLIC d11de 0 TunnelProxy<HTTPEngine>::proxyResponse() const
PUBLIC d11f6 0 TunnelProxy<HTTPEngine>::proxyResponseData() const
PUBLIC d1204 0 TunnelProxy<HTTPEngine>::errorOccurred(CFStreamError)
PUBLIC d1226 0 TunnelProxy<HTTPEngine>::newConnectionRequired()
PUBLIC d12d4 0 non-virtual thunk to TunnelProxy<HTTPEngine>::errorOccurred(CFStreamError)
PUBLIC d12f7 0 ___ZN11TunnelProxyI10HTTPEngineE15establishTunnelEv_block_invoke
PUBLIC d13ce 0 ___ZN11TunnelProxyI10HTTPEngineE15establishTunnelEv_block_invoke_2
PUBLIC d1444 0 TunnelProxy<HTTPEngine>::inspectProxyResponseHeaders()
PUBLIC d16f8 0 ___ZN11TunnelProxyI10HTTPEngineE15establishTunnelEv_block_invoke_3
PUBLIC d17ae 0 TunnelProxy<HTTPEngine>::bodyReadComplete()
PUBLIC d1960 0 TunnelProxy<HTTPEngine>::setAdditionalCONNECTHeaders(std::__1::unique_ptr<HTTPRequestMessage, Deleter_release<HTTPRequestMessage> >&)
PUBLIC d1a82 0 TunnelProxy<HTTPEngine>::handleProxyAuthentication()
PUBLIC d1c17 0 ___ZN11TunnelProxyI10HTTPEngineE25handleProxyAuthenticationEv_block_invoke
PUBLIC d1d77 0 ___ZN11TunnelProxyI10HTTPEngineE25handleProxyAuthenticationEv_block_invoke_2
PUBLIC d1d90 0 TunnelProxy<HTTPEngine>::invokeTunnelEstablishedCompletion(std::__1::shared_ptr<NetworkProxy>, bool, CFStreamError)
PUBLIC d1e9a 0 TunnelProxy<MockHTTPEngine>::TunnelProxy(NetworkProxyContext const&)
PUBLIC d1ff2 0 TunnelProxy<MockHTTPEngine>::TunnelProxy(NetworkProxyContext const&)
PUBLIC d1ffc 0 TunnelProxy<MockHTTPEngine>::~TunnelProxy()
PUBLIC d20e4 0 TunnelProxy<MockHTTPEngine>::~TunnelProxy()
PUBLIC d20ee 0 non-virtual thunk to TunnelProxy<MockHTTPEngine>::~TunnelProxy()
PUBLIC d20fc 0 TunnelProxy<MockHTTPEngine>::~TunnelProxy()
PUBLIC d2118 0 non-virtual thunk to TunnelProxy<MockHTTPEngine>::~TunnelProxy()
PUBLIC d213c 0 TunnelProxy<MockHTTPEngine>::establishProxyConnection(SmartBlockWithArgs<std::__1::shared_ptr<NetworkProxy>, bool, CFStreamError>)
PUBLIC d22b8 0 auto TunnelProxy<MockHTTPEngine>::hold_unmanaged_in_shared<HTTPEngine::HTTPEngineDelegate, TunnelProxy<MockHTTPEngine> >(TunnelProxy<MockHTTPEngine>*)
PUBLIC d231a 0 TunnelProxy<MockHTTPEngine>::createCONNECTRequest()
PUBLIC d2444 0 TunnelProxy<MockHTTPEngine>::setTunnelEstablishedCompletion(SmartBlockWithArgs<std::__1::shared_ptr<NetworkProxy>, bool, CFStreamError>)
PUBLIC d24ae 0 TunnelProxy<MockHTTPEngine>::establishTunnel()
PUBLIC d2586 0 TunnelProxy<MockHTTPEngine>::continueProxyEstablishment(std::__1::shared_ptr<TCPIOConnection>, SmartBlockWithArgs<std::__1::shared_ptr<NetworkProxy>, bool, CFStreamError>)
PUBLIC d2764 0 auto TunnelProxy<MockHTTPEngine>::hold_unmanaged_in_shared<TunnelProxy<MockHTTPEngine>, TunnelProxy<MockHTTPEngine> >(TunnelProxy<MockHTTPEngine>*)
PUBLIC d27ba 0 TunnelProxy<MockHTTPEngine>::completeTask(bool, char const*)
PUBLIC d2854 0 TunnelProxy<MockHTTPEngine>::copyCONNECTEndpointProperties()
PUBLIC d28de 0 TunnelProxy<MockHTTPEngine>::getType() const
PUBLIC d28ea 0 TunnelProxy<MockHTTPEngine>::prettyType() const
PUBLIC d28f8 0 TunnelProxy<MockHTTPEngine>::proxyResponse() const
PUBLIC d2910 0 TunnelProxy<MockHTTPEngine>::proxyResponseData() const
PUBLIC d291e 0 TunnelProxy<MockHTTPEngine>::errorOccurred(CFStreamError)
PUBLIC d2940 0 TunnelProxy<MockHTTPEngine>::newConnectionRequired()
PUBLIC d29ee 0 non-virtual thunk to TunnelProxy<MockHTTPEngine>::errorOccurred(CFStreamError)
PUBLIC d2a11 0 ___ZN11TunnelProxyI14MockHTTPEngineE15establishTunnelEv_block_invoke
PUBLIC d2ae8 0 ___ZN11TunnelProxyI14MockHTTPEngineE15establishTunnelEv_block_invoke_2
PUBLIC d2b5e 0 TunnelProxy<MockHTTPEngine>::inspectProxyResponseHeaders()
PUBLIC d2de2 0 ___ZN11TunnelProxyI14MockHTTPEngineE15establishTunnelEv_block_invoke_3
PUBLIC d2e98 0 TunnelProxy<MockHTTPEngine>::bodyReadComplete()
PUBLIC d303e 0 TunnelProxy<MockHTTPEngine>::setAdditionalCONNECTHeaders(std::__1::unique_ptr<HTTPRequestMessage, Deleter_release<HTTPRequestMessage> >&)
PUBLIC d3160 0 TunnelProxy<MockHTTPEngine>::handleProxyAuthentication()
PUBLIC d32f5 0 ___ZN11TunnelProxyI14MockHTTPEngineE25handleProxyAuthenticationEv_block_invoke
PUBLIC d3455 0 ___ZN11TunnelProxyI14MockHTTPEngineE25handleProxyAuthenticationEv_block_invoke_2
PUBLIC d346e 0 TunnelProxy<MockHTTPEngine>::invokeTunnelEstablishedCompletion(std::__1::shared_ptr<NetworkProxy>, bool, CFStreamError)
PUBLIC d3578 0 _CFNetworkUnitTestTunnelProxyNTLM
PUBLIC d35d5 0 run200OKTest(void (bool, char const*) block_pointer, char const*, __CFString const*, int)
PUBLIC d3725 0 _CFNetworkUnitTestTunnelProxyNTLMKeepAlive
PUBLIC d3787 0 _CFNetworkUnitTestTunnelProxyKerberos
PUBLIC d37f9 0 _CFNetworkUnitTestTunnelProxyNTLMHTTPResponseErrorCode
PUBLIC d3883 0 proxyConfig(__CFString const*, int)
PUBLIC d3948 0 _CFNetworkUnitTestTunnelProxySetCookie
PUBLIC d3b1e 0 ___CFNetworkUnitTestTunnelProxySetCookie_block_invoke_2
PUBLIC d3b6e 0 __copy_helper_block_.64
PUBLIC d3ba6 0 __destroy_helper_block_.65
PUBLIC d3bd1 0 _CFNetworkUnitTestTunnelProxyBasic
PUBLIC d3c37 0 _CFNetworkUnitTestTunnelProxyTransferEncodingSentToEndpoint
PUBLIC d3c98 0 run200AtProtocolTest(void (bool, char const*) block_pointer, void () block_pointer)
PUBLIC d3da1 0 ___CFNetworkUnitTestTunnelProxyTransferEncodingSentToEndpoint_block_invoke_2
PUBLIC d3db4 0 _CFNetworkUnitTestTunnelProxyCONNECTRequestHasCustomPortInHostHeader
PUBLIC d3e1a 0 _CFNetworkUnitTestTunnelProxyHTTPHeaderProxyConnectionClose
PUBLIC d3e7b 0 ___CFNetworkUnitTestTunnelProxyHTTPHeaderProxyConnectionClose_block_invoke_2
PUBLIC d3ecb 0 _CFNetworkUnitTestTunnelProxyHTTPHeaderConnectionClose
PUBLIC d3f50 0 _CFNetworkUnitTestTunnelProxyHTTPHeaderProxyConnectionCloseWithNon200Response
PUBLIC d3fd5 0 _CFNetworkUnitTestTunnelProxyHTTPHeaderConnectionCloseWith200OK
PUBLIC d4036 0 ___CFNetworkUnitTestTunnelProxyHTTPHeaderConnectionCloseWith200OK_block_invoke_2
PUBLIC d4086 0 NetworkProxy::getPort() const
PUBLIC d4090 0 NetworkProxy::host() const
PUBLIC d40bc 0 NetworkProxy::getEndpointHost() const
PUBLIC d40e8 0 NetworkProxy::getEndpointPort() const
PUBLIC d40f3 0 ___ZL12run200OKTestU13block_pointerFvbPKcES0_PK10__CFStringi_block_invoke_2
PUBLIC d4122 0 __copy_helper_block_.113
PUBLIC d4139 0 __destroy_helper_block_.114
PUBLIC d414e 0 std::__1::__tree_node_base<void*>*& std::__1::__tree<std::__1::__value_type<std::__1::unique_ptr<__CFString const, void (*)(__CFString const*)>, int>, std::__1::__map_value_compare<std::__1::unique_ptr<__CFString const, void (*)(__CFString const*)>, std::__1::__value_type<std::__1::unique_ptr<__CFString const, void (*)(__CFString const*)>, int>, CFStringRefComp, true>, std::__1::allocator<std::__1::__value_type<std::__1::unique_ptr<__CFString const, void (*)(__CFString const*)>, int> > >::__find_equal<std::__1::unique_ptr<__CFString const, void (*)(__CFString const*)> >(std::__1::__tree_end_node<std::__1::__tree_node_base<void*>*>*&, std::__1::unique_ptr<__CFString const, void (*)(__CFString const*)> const&)
PUBLIC d41d2 0 std::__1::__tree<std::__1::__value_type<long, std::__1::pair<std::__1::shared_ptr<__CFData const>, std::__1::shared_ptr<__CFData const> > >, std::__1::__map_value_compare<long, std::__1::__value_type<long, std::__1::pair<std::__1::shared_ptr<__CFData const>, std::__1::shared_ptr<__CFData const> > >, std::__1::less<long>, true>, std::__1::allocator<std::__1::__value_type<long, std::__1::pair<std::__1::shared_ptr<__CFData const>, std::__1::shared_ptr<__CFData const> > > > >::__insert_node_at(std::__1::__tree_end_node<std::__1::__tree_node_base<void*>*>*, std::__1::__tree_node_base<void*>*&, std::__1::__tree_node_base<void*>*)
PUBLIC d4213 0 void std::__1::__tree_left_rotate<std::__1::__tree_node_base<void*>*>(std::__1::__tree_node_base<void*>*)
PUBLIC d424f 0 ___ZL20run200AtProtocolTestU13block_pointerFvbPKcEU13block_pointerFvvE_block_invoke
PUBLIC d427e 0 __copy_helper_block_.125
PUBLIC d4295 0 __destroy_helper_block_.126
PUBLIC d42a8 0 std::__1::__shared_ptr_pointer<__CFDictionary const*, Deleter_CFRelease, std::__1::allocator<__CFDictionary const> >::~__shared_ptr_pointer()
PUBLIC d42b2 0 std::__1::shared_ptr<NetworkProxy>::shared_ptr<NetworkProxy>(std::__1::weak_ptr<NetworkProxy> const&, std::__1::enable_if<is_convertible<NetworkProxy*, NetworkProxy*>::value, std::__1::shared_ptr<NetworkProxy>::__nat>::type)
PUBLIC d42ec 0 std::__1::__shared_ptr_pointer<BlockHolderVar<std::__1::shared_ptr<NetworkProxy>, bool, CFStreamError>*, SmartBlockWithArgs<std::__1::shared_ptr<NetworkProxy>, bool, CFStreamError>::Deleter, std::__1::allocator<BlockHolderVar<std::__1::shared_ptr<NetworkProxy>, bool, CFStreamError> > >::~__shared_ptr_pointer()
PUBLIC d4308 0 std::__1::__shared_ptr_pointer<BlockHolderVar<std::__1::shared_ptr<NetworkProxy>, bool, CFStreamError>*, SmartBlockWithArgs<std::__1::shared_ptr<NetworkProxy>, bool, CFStreamError>::Deleter, std::__1::allocator<BlockHolderVar<std::__1::shared_ptr<NetworkProxy>, bool, CFStreamError> > >::__on_zero_shared()
PUBLIC d4392 0 BlockHolderVar<std::__1::shared_ptr<NetworkProxy>, bool, CFStreamError>::invoke_reseted(std::__1::shared_ptr<NetworkProxy>, bool, CFStreamError)
PUBLIC d4398 0 std::__1::shared_ptr<HTTPEngine> std::__1::shared_ptr<HTTPEngine>::make_shared<std::__1::shared_ptr<TCPIOConnection>&, std::__1::shared_ptr<HTTPEngine::HTTPEngineDelegate> >(std::__1::shared_ptr<TCPIOConnection>&&&, std::__1::shared_ptr<HTTPEngine::HTTPEngineDelegate>&&)
PUBLIC d4492 0 std::__1::__shared_ptr_emplace<HTTPEngine, std::__1::allocator<HTTPEngine> >::~__shared_ptr_emplace()
PUBLIC d44bc 0 std::__1::__shared_ptr_emplace<HTTPEngine, std::__1::allocator<HTTPEngine> >::~__shared_ptr_emplace()
PUBLIC d44ee 0 std::__1::__shared_ptr_pointer<HTTPRequestMessage*, Deleter_release<HTTPRequestMessage>, std::__1::allocator<HTTPRequestMessage> >::~__shared_ptr_pointer()
PUBLIC d44f8 0 std::__1::__shared_ptr_pointer<HTTPRequestMessage*, Deleter_release<HTTPRequestMessage>, std::__1::allocator<HTTPRequestMessage> >::~__shared_ptr_pointer()
PUBLIC d4514 0 std::__1::__shared_ptr_emplace<AuthLiaison, std::__1::allocator<AuthLiaison> >::~__shared_ptr_emplace()
PUBLIC d453e 0 std::__1::__shared_ptr_emplace<AuthLiaison, std::__1::allocator<AuthLiaison> >::~__shared_ptr_emplace()
PUBLIC d4570 0 std::__1::__shared_ptr_emplace<AuthLiaison, std::__1::allocator<AuthLiaison> >::__on_zero_shared()
PUBLIC d4580 0 std::__1::__shared_ptr_emplace<AuthLiaison, std::__1::allocator<AuthLiaison> >::__on_zero_shared_weak()
PUBLIC d458a 0 SmartBlockWithArgs<bool>::SmartBlockWithArgs(void (bool) block_pointer)
PUBLIC d4612 0 BlockHolderVar<bool>::invoke_initial(bool)
PUBLIC d4636 0 BlockHolderVar<bool>::invoke_normal(bool)
PUBLIC d4648 0 std::__1::__shared_ptr_pointer<BlockHolderVar<bool>*, SmartBlockWithArgs<bool>::Deleter, std::__1::allocator<BlockHolderVar<bool> > >::~__shared_ptr_pointer()
PUBLIC d4664 0 std::__1::__shared_ptr_pointer<BlockHolderVar<bool>*, SmartBlockWithArgs<bool>::Deleter, std::__1::allocator<BlockHolderVar<bool> > >::__on_zero_shared()
PUBLIC d46c4 0 SmartBlockWithArgs<std::__1::shared_ptr<HTTPRequestMessage>, CFStreamError>::SmartBlockWithArgs(void (std::__1::shared_ptr<HTTPRequestMessage>, CFStreamError) block_pointer)
PUBLIC d4748 0 BlockHolderVar<std::__1::shared_ptr<HTTPRequestMessage>, CFStreamError>::invoke_initial(std::__1::shared_ptr<HTTPRequestMessage>, CFStreamError)
PUBLIC d47ba 0 BlockHolderVar<std::__1::shared_ptr<HTTPRequestMessage>, CFStreamError>::invoke_normal(std::__1::shared_ptr<HTTPRequestMessage>, CFStreamError)
PUBLIC d481a 0 std::__1::__shared_ptr_pointer<BlockHolderVar<std::__1::shared_ptr<HTTPRequestMessage>, CFStreamError>*, SmartBlockWithArgs<std::__1::shared_ptr<HTTPRequestMessage>, CFStreamError>::Deleter, std::__1::allocator<BlockHolderVar<std::__1::shared_ptr<HTTPRequestMessage>, CFStreamError> > >::~__shared_ptr_pointer()
PUBLIC d4824 0 std::__1::__shared_ptr_pointer<BlockHolderVar<std::__1::shared_ptr<HTTPRequestMessage>, CFStreamError>*, SmartBlockWithArgs<std::__1::shared_ptr<HTTPRequestMessage>, CFStreamError>::Deleter, std::__1::allocator<BlockHolderVar<std::__1::shared_ptr<HTTPRequestMessage>, CFStreamError> > >::~__shared_ptr_pointer()
PUBLIC d4840 0 std::__1::__shared_ptr_pointer<BlockHolderVar<std::__1::shared_ptr<HTTPRequestMessage>, CFStreamError>*, SmartBlockWithArgs<std::__1::shared_ptr<HTTPRequestMessage>, CFStreamError>::Deleter, std::__1::allocator<BlockHolderVar<std::__1::shared_ptr<HTTPRequestMessage>, CFStreamError> > >::__on_zero_shared()
PUBLIC d48c8 0 std::__1::__shared_ptr_pointer<BlockHolderVar<std::__1::shared_ptr<HTTPRequestMessage>, CFStreamError>*, SmartBlockWithArgs<std::__1::shared_ptr<HTTPRequestMessage>, CFStreamError>::Deleter, std::__1::allocator<BlockHolderVar<std::__1::shared_ptr<HTTPRequestMessage>, CFStreamError> > >::__on_zero_shared_weak()
PUBLIC d48d2 0 BlockHolderVar<std::__1::shared_ptr<HTTPRequestMessage>, CFStreamError>::invoke_reseted(std::__1::shared_ptr<HTTPRequestMessage>, CFStreamError)
PUBLIC d48d8 0 std::__1::shared_ptr<MockHTTPEngine> std::__1::shared_ptr<MockHTTPEngine>::make_shared<std::__1::shared_ptr<TCPIOConnection>&, std::__1::shared_ptr<HTTPEngine::HTTPEngineDelegate> >(std::__1::shared_ptr<TCPIOConnection>&&&, std::__1::shared_ptr<HTTPEngine::HTTPEngineDelegate>&&)
PUBLIC d4994 0 std::__1::__shared_ptr_emplace<MockHTTPEngine, std::__1::allocator<MockHTTPEngine> >::~__shared_ptr_emplace()
PUBLIC d499e 0 std::__1::__shared_ptr_emplace<MockHTTPEngine, std::__1::allocator<MockHTTPEngine> >::~__shared_ptr_emplace()
PUBLIC d49ba 0 std::__1::__shared_ptr_emplace<MockHTTPEngine, std::__1::allocator<MockHTTPEngine> >::__on_zero_shared()
PUBLIC d49c0 0 std::__1::__shared_ptr_emplace<MockHTTPEngine, std::__1::allocator<MockHTTPEngine> >::__on_zero_shared_weak()
PUBLIC d49cc 0 _FTPConnectionReceiveResponse_noRecursive(_CFFTPStreamContext*, NetConnection_Classic*, _CFFTPNetConnectionContext*)
PUBLIC d4a58 0 _FTPResponseStreamCallBack(_CFFTPStreamContext*, __CoreReadStream*, unsigned long, NetConnection_Classic*, _CFFTPNetConnectionContext*)
PUBLIC d4c62 0 CFWriteStreamCreateWithFTPURL
PUBLIC d4fca 0 _CreateCFFTPHappyURL(__CFURL const*)
PUBLIC d50b9 0 _ValidFTPPathname(__CFURL const*)
PUBLIC d5219 0 _ValidFTPString(__CFString const*)
PUBLIC d5340 0 _FTPStreamFinalize(void const*, _CFFTPStreamContext*)
PUBLIC d53cf 0 _FTPStreamCopyDescription(void const*, _CFFTPStreamContext*)
PUBLIC d5427 0 _FTPStreamOpen(void const*, CFStreamError*, unsigned char*, _CFFTPStreamContext*)
PUBLIC d650b 0 _FTPStreamOpenCompleted(void const*, CFStreamError*, _CFFTPStreamContext*)
PUBLIC d67f1 0 _FTPStreamWrite(__CoreWriteStream*, unsigned char const*, long, CFStreamError*, _CFFTPStreamContext*)
PUBLIC d69c4 0 _FTPStreamCanWrite(__CoreWriteStream*, _CFFTPStreamContext*)
PUBLIC d6b7f 0 _FTPStreamClose(void const*, _CFFTPStreamContext*)
PUBLIC d6cde 0 _FTPStreamCopyProperty(void const*, __CFString const*, _CFFTPStreamContext*)
PUBLIC d7082 0 _FTPStreamSetProperty(void const*, __CFString const*, void const*, _CFFTPStreamContext*)
PUBLIC d75a4 0 _FTPStreamSchedule(void const*, __CFRunLoop*, __CFString const*, _CFFTPStreamContext*)
PUBLIC d762f 0 _FTPStreamUnschedule(void const*, __CFRunLoop*, __CFString const*, _CFFTPStreamContext*)
PUBLIC d76ba 0 CFReadStreamCreateWithFTPURL
PUBLIC d7a2c 0 _FTPStreamRead(__CoreReadStream*, unsigned char*, long, CFStreamError*, unsigned char*, _CFFTPStreamContext*)
PUBLIC d7d01 0 _FTPStreamCanRead(__CoreReadStream*, _CFFTPStreamContext*)
PUBLIC d7f5f 0 CFFTPCreateParsedResourceListing
PUBLIC d8ecf 0 _FindLine(unsigned char const*, long, unsigned char const**, unsigned char const**)
PUBLIC d8f5c 0 _ReadSize(unsigned char const*, unsigned long long*)
PUBLIC d8fd7 0 _ReportError(_CFFTPStreamContext*, CFStreamError*)
PUBLIC d910e 0 _HandleResponse(_CFFTPNetConnectionContext*, _CFFTPStreamContext*)
PUBLIC daa68 0 _ReleaseDataReadStream(_CFFTPStreamContext*)
PUBLIC daad2 0 _StartProcess(_CFFTPNetConnectionContext*, _CFFTPStreamContext*)
PUBLIC dac4f 0 _ConnectionComplete(_CFFTPNetConnectionContext*, _CFFTPStreamContext*)
PUBLIC dad74 0 _IsRoot(__CFURL const*)
PUBLIC dadcc 0 _CreatePathForContext(__CFAllocator const*, _CFFTPNetConnectionContext*, _CFFTPStreamContext*)
PUBLIC dae9b 0 _WriteCommand(_CFFTPNetConnectionContext*, _CFFTPStreamContext*, __CFString const*)
PUBLIC daffb 0 _CFURLCopyPathReplacingPercentEscapes(__CFURL const*)
PUBLIC db048 0 _FTPRequestStreamCallBack(_CFFTPStreamContext*, __CoreWriteStream*, unsigned long, NetConnection_Classic*, _CFFTPNetConnectionContext*)
PUBLIC db187 0 _FTPConnectionTransmitRequest(_CFFTPStreamContext*, NetConnection_Classic*, _CFFTPNetConnectionContext*)
PUBLIC db3f6 0 _GetProtocolFamily(_CFFTPStreamContext*, unsigned char*)
PUBLIC db4b9 0 _CoreSocketStreamCreateWithSignature(__CFAllocator const*, CFSocketSignature const*, __CoreReadStream**, __CoreWriteStream**)
PUBLIC db541 0 _DataStreamCallBack(void const*, unsigned long, _CFFTPStreamContext*)
PUBLIC db66c 0 _StreamPropertyApplier(void const*, void const*, void const*)
PUBLIC db6c1 0 _StartTransfer(_CFFTPNetConnectionContext*, _CFFTPStreamContext*)
PUBLIC db86e 0 _ProcessHTTPResponse(_CFFTPStreamContext*, CFStreamError*)
PUBLIC db99a 0 _RollOverHTTPRequest(_CFFTPStreamContext*, CFStreamError*)
PUBLIC db9ea 0 _SocketCallBack(__CFSocket*, unsigned long, __CFData const*, void const*, _CFFTPStreamContext*)
PUBLIC dbb4a 0 _InvalidateServer(_CFFTPStreamContext*)
PUBLIC dbb90 0 _CoreStreamCreatePairWithNativeSocket(__CFAllocator const*, int, __CoreReadStream**, __CoreWriteStream**)
PUBLIC dbc18 0 NetConnection_Classic::Cache::createKey(__CFAllocator const*, __CFString const*, int, unsigned int, __CFDictionary const*)
PUBLIC dbc7a 0 _FTPConnectionCacheExpiration(NetConnection_Classic*, __CFDate const*, __CFArray*)
PUBLIC dbcca 0 PACExecutionComplete_FTPStream(_CFFTPStreamContext*, __CFArray const*, __CFError*)
PUBLIC dbdba 0 PACTimerCallback_FTPStream(__CFRunLoopTimer*, _CFFTPStreamContext*)
PUBLIC dbe13 0 invalidatePacExecutionContext(_CFFTPStreamContext*)
PUBLIC dbe54 0 _CFFTPNetConnectionContextAllocate(__CFAllocator const*, _CFFTPNetConnectionContext const*)
PUBLIC dbeff 0 _CFFTPNetConnectionContextFinalize(__CFAllocator const*, _CFFTPNetConnectionContext const*)
PUBLIC dbf54 0 _FTPConnectionCreateStreams(__CFAllocator const*, _CFFTPNetConnectionContext const*, __CoreWriteStream**, __CoreReadStream**)
PUBLIC dc171 0 _FTPConnectionRequestStateChanged(_CFFTPStreamContext*, NetConnection::State, CFStreamError*, NetConnection_Classic*, _CFFTPNetConnectionContext*)
PUBLIC dc400 0 _FTPConnectionReceiveResponse(_CFFTPStreamContext*, NetConnection_Classic*, _CFFTPNetConnectionContext*)
PUBLIC dc502 0 _FTPCopyRunLoopArrayCallBack(_CFFTPStreamContext*, NetConnection_Classic*, _CFFTPNetConnectionContext*)
PUBLIC dc51e 0 _CFNetworkUnitTest_TLS_NoTLS
PUBLIC dc746 0 _CFNetworkUnitTest_TLS_BasicTLS
PUBLIC dc96e 0 _CFNetworkUnitTest_TLS_ClientCertsRequiredProvided
PUBLIC dcc03 0 _CFNetworkUnitTest_TLS_ClientCertsRequiredSkipped
PUBLIC dce95 0 _CFNetworkUnitTest_TLS_ClientCertsOptionalProvided
PUBLIC dd12a 0 _CFNetworkUnitTest_TLS_ClientCertsOptionalSkipped
PUBLIC dd3bc 0 _CFNetworkUnitTest_TLS_PSK
PUBLIC dd3c2 0 _CFNetworkUnitTest_TLS_ResumptionEnabled
PUBLIC dd72b 0 _CFNetworkUnitTest_TLS_ResumptionDisabled
PUBLIC ddab6 0 _CFNetworkUnitTest_TLS_VersionFallback_Graceful1210
PUBLIC ddd34 0 _CFNetworkUnitTest_TLS_VersionFallback_Incompatible1210
PUBLIC ddd3a 0 _CFNetworkUnitTest_TLS_Trust_PinningPositive
PUBLIC ddf58 0 _CFNetworkUnitTest_TLS_Trust_PinningNegative
PUBLIC de3a5 0 brotliResponse(bool)
PUBLIC de51c 0 verifyBrotliResponse(__CFData const*, bool)
PUBLIC de5b5 0 createAndStartServer(bool)
PUBLIC de6f4 0 _CFNetworkUnitTest_BrotliDecoding
PUBLIC de756 0 performTest(std::__1::shared_ptr<TLSServer>&, void (bool, char const*) block_pointer, bool)
PUBLIC de8d1 0 _CFNetworkUnitTest_BrotliDecodingHTTP
PUBLIC de93a 0 std::__1::__shared_ptr_pointer<__CFData const*, Deleter_CFRelease, std::__1::allocator<__CFData const> >::~__shared_ptr_pointer()
PUBLIC de944 0 std::__1::__shared_ptr_pointer<__CFData const*, Deleter_CFRelease, std::__1::allocator<__CFData const> >::~__shared_ptr_pointer()
PUBLIC de960 0 CFReadStreamCreateForStreamedHTTPRequest
PUBLIC deb7e 0 __CFReadStreamCreateForStreamedHTTPRequest_block_invoke
PUBLIC debf6 0 CFHTTPReadStreamSetRedirectsAutomatically
PUBLIC dec50 0 _boundPairReadingThread(void*)
PUBLIC ded12 0 ___ZL24_handleAlreadyOpenStreamPK13__CFAllocatorP15__CFHTTPMessageP14__CFReadStream_block_invoke
PUBLIC ded8a 0 GlueTubeManager::~GlueTubeManager()
PUBLIC ded94 0 non-virtual thunk to GlueTubeManager::~GlueTubeManager()
PUBLIC deda2 0 non-virtual thunk to GlueTubeManager::~GlueTubeManager()
PUBLIC dedc6 0 GlueTubeManager::setIOFallbackForKey(HTTPConnectionCacheKey const*)
PUBLIC def08 0 ___ZN15GlueTubeManager19setIOFallbackForKeyEPK22HTTPConnectionCacheKey_block_invoke
PUBLIC def7c 0 GlueTubeManager::_useTCPRWForRequest(HTTPRequestMessage const*, HTTPConnectionCacheKey*, MetaConnectionCacheClient*)
PUBLIC df007 0 ___ZN15GlueTubeManager22_getIOPathFromDefaultsEv_block_invoke
PUBLIC df100 0 GlueTubeManager::purgeIdleConnections()
PUBLIC df12e 0 GlueTubeManager::invalidateUnpurgeableConnectionsForKey(HTTPConnectionCacheKey const*)
PUBLIC df166 0 GlueTubeManager::getPendingTubeForProtocolWithKey(MetaConnectionCacheClient*, HTTPConnectionCacheKey const*)
PUBLIC df1b6 0 _CFServerGetTypeID
PUBLIC df1db 0 _ServerRelease(__CFServer*)
PUBLIC df1e5 0 _ServerCopyDescription(__CFServer*)
PUBLIC df25a 0 _CFServerCreate
PUBLIC df3a5 0 _tcp_listener_AcceptCallback(void*, tcp_connection*)
PUBLIC df42a 0 _tcp_listener_ErrorCallback(void*, int)
PUBLIC df4f6 0 _CFServerInvalidate
PUBLIC df5ac 0 _CFServerScheduleWithDispatchQueue
PUBLIC df5c9 0 _CFServerScheduleWithRunLoopAndMode
PUBLIC df5e7 0 _CFServerScheduleWithSchedulingSet(__CFServer*, CoreSchedulingSet const*)
PUBLIC df61c 0 _CFServerSetInterface
PUBLIC df6f0 0 _CFServerGetPort
PUBLIC df733 0 _CFServerCopyName
PUBLIC df74a 0 _CFServerCopyServiceType
PUBLIC df761 0 _CFServerStart
PUBLIC df9a1 0 ___ZL28_tcp_listener_AcceptCallbackPvP14tcp_connection_block_invoke
PUBLIC dfa38 0 ___ZL19_ServerHandleAcceptP6Serveri_block_invoke
PUBLIC dfa56 0 ___ZL18_ServerHandleErrorP6Serveri_block_invoke
PUBLIC dfa76 0 non-virtual thunk to ActualCredentialStorage::~ActualCredentialStorage()
PUBLIC dfa84 0 non-virtual thunk to ActualCredentialStorage::~ActualCredentialStorage()
PUBLIC dfa92 0 ActualCredentialStorage::~ActualCredentialStorage()
PUBLIC dfa9c 0 non-virtual thunk to ActualCredentialStorage::~ActualCredentialStorage()
PUBLIC dfaaa 0 non-virtual thunk to ActualCredentialStorage::~ActualCredentialStorage()
PUBLIC dfab8 0 ActualCredentialStorage::copyDebugDesc() const
PUBLIC dfaf4 0 ActualCredentialStorage::copyDebugSummary() const
PUBLIC dfb22 0 ActualCredentialStorage::mergeNameToCredentialsDicts(__CFDictionary const*, __CFDictionary const*)
PUBLIC dfcd2 0 ActualCredentialStorage::copyCredentialsForProtectionSpace(_CFURLProtectionSpace*)
PUBLIC dfd42 0 non-virtual thunk to ActualCredentialStorage::copyCredentialsForProtectionSpace(_CFURLProtectionSpace*)
PUBLIC dfd50 0 ActualCredentialStorage::copyAllCredentialsWithAccessControlGroupIncludeLegacyKeychain(__CFString const*, bool)
PUBLIC dfdc6 0 non-virtual thunk to ActualCredentialStorage::copyAllCredentialsWithAccessControlGroupIncludeLegacyKeychain(__CFString const*, bool)
PUBLIC dfdd8 0 ActualCredentialStorage::removeCredentialForProtectionSpace(_CFURLCredential const*, _CFURLProtectionSpace*)
PUBLIC dfe22 0 non-virtual thunk to ActualCredentialStorage::removeCredentialForProtectionSpace(_CFURLCredential const*, _CFURLProtectionSpace*)
PUBLIC dfe6c 0 ActualCredentialStorage::setCredentialForProtectionSpace(_CFURLCredential const*, _CFURLProtectionSpace*)
PUBLIC dff74 0 non-virtual thunk to ActualCredentialStorage::setCredentialForProtectionSpace(_CFURLCredential const*, _CFURLProtectionSpace*)
PUBLIC dff82 0 ActualCredentialStorage::copyDefaultCredentialForProtectionSpace(_CFURLProtectionSpace*)
PUBLIC dffc0 0 non-virtual thunk to ActualCredentialStorage::copyDefaultCredentialForProtectionSpace(_CFURLProtectionSpace*)
PUBLIC dfffe 0 ActualCredentialStorage::setDefaultCredentialForProtectionSpace(_CFURLCredential const*, _CFURLProtectionSpace*)
PUBLIC e0086 0 non-virtual thunk to ActualCredentialStorage::setDefaultCredentialForProtectionSpace(_CFURLCredential const*, _CFURLProtectionSpace*)
PUBLIC e0094 0 ActualCredentialStorage::setUseSystemKeychain(bool)
PUBLIC e00b2 0 ActualCredentialStorage::useSystemKeychain() const
PUBLIC e00ca 0 non-virtual thunk to ActualCredentialStorage::setUseSystemKeychain(bool)
PUBLIC e00e8 0 non-virtual thunk to ActualCredentialStorage::useSystemKeychain() const
PUBLIC e0100 0 RetainableTypedDict<_CFURLProtectionSpace*, __CFString const*>::~RetainableTypedDict()
PUBLIC e0120 0 RetainableTypedDict<_CFURLProtectionSpace*, __CFDictionary*>::~RetainableTypedDict()
PUBLIC e0140 0 MemoryCredentialStorage::~MemoryCredentialStorage()
PUBLIC e014a 0 non-virtual thunk to MemoryCredentialStorage::~MemoryCredentialStorage()
PUBLIC e0158 0 non-virtual thunk to MemoryCredentialStorage::~MemoryCredentialStorage()
PUBLIC e017c 0 MemoryCredentialStorage::copyCredentialsForProtectionSpace(_CFURLProtectionSpace*)
PUBLIC e01ae 0 non-virtual thunk to MemoryCredentialStorage::copyCredentialsForProtectionSpace(_CFURLProtectionSpace*)
PUBLIC e01bc 0 non-virtual thunk to MemoryCredentialStorage::copyAllCredentials()
PUBLIC e01d2 0 MemoryCredentialStorage::copyAllCredentialsWithAccessControlGroupIncludeLegacyKeychain(__CFString const*, bool)
PUBLIC e01de 0 non-virtual thunk to MemoryCredentialStorage::copyAllCredentialsWithAccessControlGroupIncludeLegacyKeychain(__CFString const*, bool)
PUBLIC e01ee 0 MemoryCredentialStorage::setCredentialForProtectionSpace(_CFURLCredential const*, _CFURLProtectionSpace*)
PUBLIC e02a2 0 non-virtual thunk to MemoryCredentialStorage::setCredentialForProtectionSpace(_CFURLCredential const*, _CFURLProtectionSpace*)
PUBLIC e02b0 0 MemoryCredentialStorage::removeCredentialForProtectionSpace(_CFURLCredential const*, _CFURLProtectionSpace*)
PUBLIC e0356 0 non-virtual thunk to MemoryCredentialStorage::removeCredentialForProtectionSpace(_CFURLCredential const*, _CFURLProtectionSpace*)
PUBLIC e0364 0 MemoryCredentialStorage::copyDefaultCredentialForProtectionSpace(_CFURLProtectionSpace*)
PUBLIC e03b8 0 non-virtual thunk to MemoryCredentialStorage::copyDefaultCredentialForProtectionSpace(_CFURLProtectionSpace*)
PUBLIC e03c6 0 MemoryCredentialStorage::setDefaultCredentialForProtectionSpace(_CFURLCredential const*, _CFURLProtectionSpace*)
PUBLIC e0432 0 non-virtual thunk to MemoryCredentialStorage::setDefaultCredentialForProtectionSpace(_CFURLCredential const*, _CFURLProtectionSpace*)
PUBLIC e0440 0 CredentialStorageBase::setUseSystemKeychain(bool)
PUBLIC e0446 0 CredentialStorageBase::useSystemKeychain() const
PUBLIC e044e 0 RetainableTypedDict<_CFURLProtectionSpace*, __CFDictionary*>::~RetainableTypedDict()
PUBLIC e047e 0 RetainableTypedDict<_CFURLProtectionSpace*, __CFString const*>::~RetainableTypedDict()
PUBLIC e04ad 0 -[NSURLAuthenticationChallengeInternal initWithProtectionSpace:proposedCredential:previousFailureCount:failureResponse:error:sender:]
PUBLIC e05a5 0 -[NSURLAuthenticationChallenge init]
PUBLIC e05d5 0 -[NSURLAuthenticationChallenge _initWithListOfProtectionSpaces:CurrentProtectionSpace:proposedCredential:previousFailureCount:failureResponse:error:sender:]
PUBLIC e063c 0 -[NSURLAuthenticationChallenge initWithAuthenticationChallenge:sender:]
PUBLIC e0730 0 -[NSURLAuthenticationChallenge encodeWithCoder:]
PUBLIC e07e8 0 -[NSURLAuthenticationChallenge initWithCoder:]
PUBLIC e08a5 0 +[NSURLAuthenticationChallenge supportsSecureCoding]
PUBLIC e08b0 0 +[NSURLAuthenticationChallenge(NSURLAuthenticationChallengeInternal) _createAuthenticationChallengeForCFAuthChallenge:sender:]
PUBLIC e08f7 0 -[NSURLAuthenticationChallenge(NSURLAuthenticationChallengeInternal) setSender:]
PUBLIC e095a 0 SPDYConnection::SPDYConnection(__CFAllocator const*, char const*)
PUBLIC e09a4 0 SPDYConnection::~SPDYConnection()
PUBLIC e0a78 0 SPDYConnection::cleanupConnection()
PUBLIC e0aba 0 SPDYConnection::~SPDYConnection()
PUBLIC e0ac4 0 non-virtual thunk to SPDYConnection::~SPDYConnection()
PUBLIC e0ad2 0 non-virtual thunk to SPDYConnection::~SPDYConnection()
PUBLIC e0ae0 0 SPDYConnection::~SPDYConnection()
PUBLIC e0afc 0 non-virtual thunk to SPDYConnection::~SPDYConnection()
PUBLIC e0b20 0 non-virtual thunk to SPDYConnection::~SPDYConnection()
PUBLIC e0b44 0 SPDYConnection::initialize(Tube*, int, SPDYConnectionCacheEntry*)
PUBLIC e0cf4 0 cbRetainSPDYStream(__CFAllocator const*, void const*)
PUBLIC e0d34 0 cbReleaseSPDYStream(__CFAllocator const*, void const*)
PUBLIC e0d68 0 ___ZN14SPDYConnection10initializeEP4TubeiP24SPDYConnectionCacheEntry_block_invoke
PUBLIC e0dbe 0 SPDYConnection::initSPDY(Tube*)
PUBLIC e0f56 0 SPDYConnection::initConnection(Tube*)
PUBLIC e105e 0 __copy_helper_block_
PUBLIC e1075 0 __destroy_helper_block_
PUBLIC e1088 0 ___ZN14SPDYConnection14initConnectionEP4Tube_block_invoke
PUBLIC e1097 0 cb_spdylay_send(spdylay_session*, unsigned char const*, unsigned long, int, void*)
PUBLIC e1120 0 cb_spdylay_recv(spdylay_session*, unsigned char*, unsigned long, int, void*)
PUBLIC e119c 0 cb_spdylay_on_ctrl_recv(spdylay_session*, spdylay_frame_type, spdylay_frame*, void*)
PUBLIC e15b8 0 cb_spdylay_on_invalid_ctrl_recv(spdylay_session*, spdylay_frame_type, spdylay_frame*, unsigned int, void*)
PUBLIC e15d7 0 cb_spdylay_on_data_chunk_recv(spdylay_session*, unsigned char, int, unsigned char const*, unsigned long, void*)
PUBLIC e1647 0 cb_spdylay_before_ctrl_send(spdylay_session*, spdylay_frame_type, spdylay_frame*, void*)
PUBLIC e199b 0 cb_spdylay_on_stream_close(spdylay_session*, int, spdylay_status_code, void*)
PUBLIC e1aa4 0 cb_spdylay_on_ctrl_recv_parse_error(spdylay_session*, spdylay_frame_type, unsigned char const*, unsigned long, unsigned char const*, unsigned long, int, void*)
PUBLIC e1abb 0 cb_spdylay_on_ctrl_send(spdylay_session*, spdylay_frame_type, spdylay_frame*, void*)
PUBLIC e1b91 0 cb_spdylay_on_data_send(spdylay_session*, unsigned char, int, int, void*)
PUBLIC e1bc0 0 cb_spdylay_on_data_recv(spdylay_session*, unsigned char, int, int, void*)
PUBLIC e1d50 0 SPDYConnection::connEventReadClose()
PUBLIC e1d5a 0 SPDYConnection::_onqueue_connectionLost()
PUBLIC e1dee 0 non-virtual thunk to SPDYConnection::connEventReadClose()
PUBLIC e1dfc 0 SPDYConnection::connEventDisconnected()
PUBLIC e1e06 0 non-virtual thunk to SPDYConnection::connEventDisconnected()
PUBLIC e1e14 0 SPDYConnection::connErrorOccurred(CFStreamError)
PUBLIC e1eec 0 non-virtual thunk to SPDYConnection::connErrorOccurred(CFStreamError)
PUBLIC e1efa 0 SPDYConnection::willEnqueueRequests()
PUBLIC e1f50 0 SPDYConnection::_onqueue_willEnqueueRequests()
PUBLIC e206a 0 SPDYConnection::shouldIdleClose(double, double)
PUBLIC e20fd 0 ___ZN14SPDYConnection15shouldIdleCloseEdd_block_invoke
PUBLIC e216c 0 SPDYConnection::countOutstandingRequests()
PUBLIC e217a 0 SPDYConnection::_onqueue_isCellular()
PUBLIC e21e7 0 __copy_helper_block_.11
PUBLIC e21fe 0 __destroy_helper_block_.12
PUBLIC e2212 0 SPDYConnection::stop()
PUBLIC e226a 0 ___ZN14SPDYConnection4stopEv_block_invoke
PUBLIC e228c 0 SPDYConnection::_onqueue_stop()
PUBLIC e2316 0 SPDYConnection::enqueue(HTTPRequestMessage const*, MetaConnectionCacheClient*, int, float, unsigned long long*)
PUBLIC e23fb 0 ___ZN14SPDYConnection7enqueueEPK18HTTPRequestMessageP25MetaConnectionCacheClientifPy_block_invoke
PUBLIC e2596 0 SPDYConnection::cfnPriorityToStreamPriority(int)
PUBLIC e2600 0 __copy_helper_block_.17
PUBLIC e2638 0 __destroy_helper_block_.18
PUBLIC e2664 0 SPDYConnection::isCellular()
PUBLIC e26b2 0 SPDYConnection::hasProxy()
PUBLIC e26f2 0 SPDYConnection::copyTrust()
PUBLIC e2777 0 ___ZN14SPDYConnection9copyTrustEv_block_invoke
PUBLIC e27af 0 __copy_helper_block_.23
PUBLIC e27c6 0 __destroy_helper_block_.24
PUBLIC e27da 0 SPDYConnection::startEnqueuedStream(SPDYStream*)
PUBLIC e288f 0 ___ZN14SPDYConnection19startEnqueuedStreamEP10SPDYStream_block_invoke
PUBLIC e2b2f 0 ___ZN14SPDYConnection19startEnqueuedStreamEP10SPDYStream_block_invoke_2
PUBLIC e2b64 0 SPDYConnection::_onqueue_closeStream(SPDYStream*)
PUBLIC e2d34 0 cb_spdylay_data_source_read(spdylay_session*, int, unsigned char*, unsigned long, int*, spdylay_data_source*, void*)
PUBLIC e2d8b 0 ___ZN14SPDYConnection19startEnqueuedStreamEP10SPDYStream_block_invoke_3
PUBLIC e2dbf 0 __copy_helper_block_.30
PUBLIC e2dd6 0 __destroy_helper_block_.31
PUBLIC e2dea 0 SPDYConnection::resumeRequestData(SPDYStream*)
PUBLIC e2eb2 0 ___ZN14SPDYConnection17resumeRequestDataEP10SPDYStream_block_invoke
PUBLIC e2f70 0 SPDYConnection::submitWindowUpdate(SPDYStream*, int)
PUBLIC e3043 0 ___ZN14SPDYConnection18submitWindowUpdateEP10SPDYStreami_block_invoke
PUBLIC e310a 0 SPDYConnection::cancelStream(SPDYStream*, bool)
PUBLIC e3189 0 ___ZN14SPDYConnection12cancelStreamEP10SPDYStreamb_block_invoke
PUBLIC e31cc 0 SPDYConnection::_onqueue_cancelStream(SPDYStream*, bool)
PUBLIC e32b8 0 SPDYConnection::_onqueue_updateWindow()
PUBLIC e3391 0 ___ZN14SPDYConnection21_onqueue_updateWindowEv_block_invoke
PUBLIC e341d 0 ___ZN14SPDYConnection10scheduleIOEv_block_invoke
PUBLIC e343e 0 SPDYConnection::_onqueue_scheduleIO()
PUBLIC e3688 0 SPDYConnection::_onqueue_handleDisconnect()
PUBLIC e3714 0 ___ZN14SPDYConnection19_onqueue_scheduleIOEv_block_invoke
PUBLIC e3738 0 ___ZN14SPDYConnection19_onqueue_scheduleIOEv_block_invoke_2
PUBLIC e375a 0 SPDYConnection::_onqueue_performWrite()
PUBLIC e37da 0 ___ZL15cb_spdylay_sendP15spdylay_sessionPKhmiPv_block_invoke
PUBLIC e3888 0 ___ZL15cb_spdylay_recvP15spdylay_sessionPhmiPv_block_invoke
PUBLIC e39fe 0 ___ZL15cb_spdylay_recvP15spdylay_sessionPhmiPv_block_invoke_2
PUBLIC e3a18 0 bool TCPIOConnection::isBooleanPropertySetAndTrue<std::__1::shared_ptr<TCPIOConnection> >(std::__1::shared_ptr<TCPIOConnection>&, __CFString const*)
PUBLIC e3a7a 0 std::__1::__shared_ptr_pointer<SPDYConnection*, Deleter_CustomBlock, std::__1::allocator<SPDYConnection> >::~__shared_ptr_pointer()
PUBLIC e3a84 0 std::__1::__shared_ptr_pointer<SPDYConnection*, Deleter_CustomBlock, std::__1::allocator<SPDYConnection> >::~__shared_ptr_pointer()
PUBLIC e3aa0 0 std::__1::__shared_ptr_pointer<SPDYConnection*, Deleter_CustomBlock, std::__1::allocator<SPDYConnection> >::__on_zero_shared()
PUBLIC e3ab2 0 PersistentCredentialStorage::~PersistentCredentialStorage()
PUBLIC e3b0e 0 PersistentCredentialStorage::~PersistentCredentialStorage()
PUBLIC e3b18 0 non-virtual thunk to PersistentCredentialStorage::~PersistentCredentialStorage()
PUBLIC e3b26 0 PersistentCredentialStorage::~PersistentCredentialStorage()
PUBLIC e3b42 0 non-virtual thunk to PersistentCredentialStorage::~PersistentCredentialStorage()
PUBLIC e3b66 0 PersistentCredentialStorage::copyCredentialsForProtectionSpace(_CFURLProtectionSpace*)
PUBLIC e3c3c 0 PersistentCredentialStorage::copyIdentityCredentialForProtectionSpace(URLProtectionSpace const*)
PUBLIC e3cd8 0 StorageQuery::copyNameAndCredsDictForProtectionSpace(URLProtectionSpace const*)
PUBLIC e3d78 0 StorageQuery::~StorageQuery()
PUBLIC e3d82 0 non-virtual thunk to PersistentCredentialStorage::copyCredentialsForProtectionSpace(_CFURLProtectionSpace*)
PUBLIC e3d90 0 non-virtual thunk to PersistentCredentialStorage::copyAllCredentials()
PUBLIC e3d9e 0 PersistentCredentialStorage::copyAllCredentialsWithAccessControlGroupIncludeLegacyKeychain(__CFString const*, bool)
PUBLIC e3ed4 0 StorageQuery::addAccessControlGroupIncludeLegacyKeychain(__CFString const*, bool)
PUBLIC e3f33 0 _merge_dictionaries(void const*, void const*, void*)
PUBLIC e3f8a 0 non-virtual thunk to PersistentCredentialStorage::copyAllCredentialsWithAccessControlGroupIncludeLegacyKeychain(__CFString const*, bool)
PUBLIC e3f9c 0 PersistentCredentialStorage::setIdentityCredentialForProtectionSpace(URLCredentialClientCertificate const*, URLProtectionSpace const*)
PUBLIC e4018 0 PersistentCredentialStorage::removeIdentityPreferenceForProtectionSpace(URLProtectionSpace const*)
PUBLIC e4050 0 PersistentCredentialStorage::setCredentialForProtectionSpace(_CFURLCredential const*, _CFURLProtectionSpace*)
PUBLIC e4106 0 PersistentCredentialStorage::updateOrAddCredential(URLCredential const*, URLProtectionSpace const*, unsigned char)
PUBLIC e42dc 0 non-virtual thunk to PersistentCredentialStorage::setCredentialForProtectionSpace(_CFURLCredential const*, _CFURLProtectionSpace*)
PUBLIC e42ea 0 PersistentCredentialStorage::removeCredentialForProtectionSpace(_CFURLCredential const*, _CFURLProtectionSpace*)
PUBLIC e44b6 0 updateAttrsWithValuesForModifyingStore(__CFDictionary*, URLProtectionSpace const*, URLCredential const*, bool, bool)
PUBLIC e46ce 0 non-virtual thunk to PersistentCredentialStorage::removeCredentialForProtectionSpace(_CFURLCredential const*, _CFURLProtectionSpace*)
PUBLIC e46dc 0 PersistentCredentialStorage::copyDefaultCredentialForProtectionSpace(_CFURLProtectionSpace*)
PUBLIC e4764 0 StorageQuery::copyCredentialForDefaultUsername(URLProtectionSpace const*)
PUBLIC e47ce 0 non-virtual thunk to PersistentCredentialStorage::copyDefaultCredentialForProtectionSpace(_CFURLProtectionSpace*)
PUBLIC e47dc 0 PersistentCredentialStorage::setDefaultCredentialForProtectionSpace(_CFURLCredential const*, _CFURLProtectionSpace*)
PUBLIC e4a46 0 createQueryFromProtectionSpaceAndCred(__CFAllocator const*, URLProtectionSpace const*, URLCredential const*, bool)
PUBLIC e4c50 0 createAttrsFromProtectionSpaceAndCred(__CFAllocator const*, URLProtectionSpace const*, URLCredential const*, unsigned char, bool)
PUBLIC e4fac 0 non-virtual thunk to PersistentCredentialStorage::setDefaultCredentialForProtectionSpace(_CFURLCredential const*, _CFURLProtectionSpace*)
PUBLIC e4fba 0 _CFNetworkUnitTestBackgroundSessionTaskDoesNotQueryKeychainForServerTrust
PUBLIC e5060 0 PersistentCredentialStorage::setUseSystemKeychain(bool)
PUBLIC e506a 0 PersistentCredentialStorage::useSystemKeychain() const
PUBLIC e5074 0 non-virtual thunk to PersistentCredentialStorage::setUseSystemKeychain(bool)
PUBLIC e507e 0 non-virtual thunk to PersistentCredentialStorage::useSystemKeychain() const
PUBLIC e5088 0 StorageQuery::StorageQuery(__CFAllocator const*, URLProtectionSpace const*, bool)
PUBLIC e5188 0 StorageQuery::addProtectionSpaceToQuery(URLProtectionSpace const*)
PUBLIC e5296 0 StorageQuery::~StorageQuery()
PUBLIC e52b2 0 StorageQuery::addPasswordAttributesToQuery()
PUBLIC e52fc 0 StorageQuery::newCredentialFromAttributes(__CFDictionary const*)
PUBLIC e53ac 0 StorageQuery::newInternetPasswordWhichUsedToBeTheOnlyWay(__CFString const*, __CFDictionary const*)
PUBLIC e5450 0 gss_init_sec_context
PUBLIC e54f6 0 returns_bad_int_return()
PUBLIC e5501 0 gss_delete_sec_context
PUBLIC e558b 0 gss_import_name(unsigned int*, gss_buffer_desc_struct*, gss_OID_desc_struct*, gss_name_t_desc_struct**)
PUBLIC e561a 0 gss_release_name
PUBLIC e5695 0 gss_release_buffer
PUBLIC e5710 0 gss_acquire_cred
PUBLIC e57b6 0 gss_release_cred
PUBLIC e5831 0 gss_iter_creds
PUBLIC e58c0 0 gss_destroy_cred
PUBLIC e593b 0 gss_aapl_initial_cred
PUBLIC e59d9 0 GSSCreateCredentialFromUUID
PUBLIC e5a4f 0 GetSvcTicketForHostWithPassword
PUBLIC e5de1 0 DestroyAllKerberosTickets
PUBLIC e5e03 0 __DestroyAllKerberosTickets_block_invoke
PUBLIC e5e27 0 ListAllKerberosTickets
PUBLIC e5e49 0 __ListAllKerberosTickets_block_invoke
PUBLIC e5e56 0 CFURLCredentialStorageGetTypeID
PUBLIC e5e65 0 CFURLCredentialStorageCopyCredentialsForProtectionSpace
PUBLIC e604a 0 __CFURLCredentialStorageCopyCredentialsForProtectionSpace_block_invoke
PUBLIC e60bd 0 __CFURLCredentialStorageCopyAllCredentials_block_invoke
PUBLIC e6130 0 _CFURLCredentialStorageCopyAllCredentialsWithAccessControlGroupIncludeLegacyKeychain
PUBLIC e6290 0 ___CFURLCredentialStorageCopyAllCredentialsWithAccessControlGroupIncludeLegacyKeychain_block_invoke
PUBLIC e6303 0 CFURLCredentialStorageSetCredentialForProtectionSpace
PUBLIC e6586 0 __CFURLCredentialStorageSetCredentialForProtectionSpace_block_invoke
PUBLIC e65f9 0 CFURLCredentialStorageRemoveCredentialForProtectionSpace
PUBLIC e6873 0 __CFURLCredentialStorageRemoveCredentialForProtectionSpace_block_invoke
PUBLIC e68e6 0 CFURLCredentialStorageRemoveCredentialForProtectionSpaceWithOptions
PUBLIC e6c17 0 __CFURLCredentialStorageRemoveCredentialForProtectionSpaceWithOptions_block_invoke
PUBLIC e6c8a 0 CFURLCredentialStorageCopyDefaultCredentialForProtectionSpace
PUBLIC e6ee3 0 __CFURLCredentialStorageCopyDefaultCredentialForProtectionSpace_block_invoke
PUBLIC e6f56 0 CFURLCredentialStorageSetDefaultCredentialForProtectionSpace
PUBLIC e71d9 0 __CFURLCredentialStorageSetDefaultCredentialForProtectionSpace_block_invoke
PUBLIC e724c 0 _CFURLCredentialStorageHasCredentials
PUBLIC e7257 0 CreateSanitizedPACURL
PUBLIC e7435 0 _CFNetworkUnitTestPACSanitizedHostname
PUBLIC e78d8 0 validateSanitizedURL(__CFString const*, __CFString const*, void (bool, char const*) block_pointer)
PUBLIC e79a6 0 URLCredentialStorage::~URLCredentialStorage()
PUBLIC e79b0 0 non-virtual thunk to URLCredentialStorage::~URLCredentialStorage()
PUBLIC e79be 0 non-virtual thunk to URLCredentialStorage::~URLCredentialStorage()
PUBLIC e79cc 0 URLCredentialStorage::~URLCredentialStorage()
PUBLIC e79d6 0 non-virtual thunk to URLCredentialStorage::~URLCredentialStorage()
PUBLIC e79e4 0 non-virtual thunk to URLCredentialStorage::~URLCredentialStorage()
PUBLIC e79f2 0 creatEnqueue(HTTPNetConnection*, __CFHTTPMessage*, __CFReadStream*)
PUBLIC e7a86 0 ___Z12creatEnqueueP17HTTPNetConnectionP15__CFHTTPMessageP14__CFReadStream_block_invoke
PUBLIC e7b00 0 __copy_helper_block_
PUBLIC e7b17 0 __destroy_helper_block_
PUBLIC e7b2a 0 CFHTTPConnectionEnqueue(HTTPNetConnection*, __CFHTTPMessage*)
PUBLIC e7b34 0 CFHTTPConnectionCreate(__CFAllocator const*, __CFString const*, int, unsigned int, __CFDictionary const*)
PUBLIC e7be0 0 deserializeUint32
PUBLIC e7c04 0 appendUint32
PUBLIC e7c35 0 appendSecBuf
PUBLIC e7cb6 0 secBufOffset
PUBLIC e7d02 0 ntlmParseSecBuffer
PUBLIC e7d9a 0 ntlmStringToLE
PUBLIC e7e0b 0 ntlmStringFlatten
PUBLIC e7f82 0 ntlmRand
PUBLIC e7fde 0 ntlmHostName
PUBLIC e8055 0 ntlmAppendTimestamp
PUBLIC e8127 0 md5Hash
PUBLIC e8171 0 ntlmMakeDesKey
PUBLIC e81fb 0 ntlmDesCrypt
PUBLIC e8365 0 ntlmHmacMD5
PUBLIC e84af 0 lmPasswordHash
PUBLIC e85b0 0 ntlmPasswordHash
PUBLIC e8618 0 ntlmResponse
PUBLIC e86e6 0 std::__1::unique_ptr<__CFString const, Deleter_CFRelease>::~unique_ptr()
PUBLIC e8702 0 PAC::JavaScript::_JSDnsResolveFunctionCallback(OpaqueJSContext const*, OpaqueJSValue*, OpaqueJSValue*, unsigned long, OpaqueJSValue const* const*, OpaqueJSValue const**)
PUBLIC e8903 0 PAC::JavaScript::_JSArrayFromCFArrayOfCFStrings(__CFAllocator const*, OpaqueJSContext const*, __CFArray const*)
PUBLIC e89a9 0 PAC::JavaScript::CallFindProxyForURL(__CFAllocator const*, OpaqueJSContext const*, __CFURL const*, __CFString const*)
PUBLIC e8b74 0 CreateJSContextForAutoConfigurationScript
PUBLIC e8f3e 0 __CreateJSContextForAutoConfigurationScript_block_invoke
PUBLIC e8fb1 0 PAC::JavaScript::_createJSRuntime(__CFAllocator const*, __CFString const*, __CFString const*)
PUBLIC e92c7 0 CallFindProxyForURL
PUBLIC e92d1 0 PAC::JavaScript::_ReadStreamClientCallBack(__CFReadStream*, unsigned long, void*)
PUBLIC e9391 0 PAC::JavaScript::_RunLoopTimerCallBack(__CFRunLoopTimer*, unsigned char*)
PUBLIC e939a 0 ___ZN3PAC10JavaScriptL16_createJSRuntimeEPK13__CFAllocatorPK10__CFStringS6__block_invoke
PUBLIC e940d 0 ___ZN3PAC10JavaScriptL16_createJSRuntimeEPK13__CFAllocatorPK10__CFStringS6__block_invoke_2
PUBLIC e9480 0 ___ZN3PAC10JavaScriptL16_createJSRuntimeEPK13__CFAllocatorPK10__CFStringS6__block_invoke_3
PUBLIC e94f3 0 PAC::JavaScript::_JSPrimaryIpv4AddressesFunctionCallback(OpaqueJSContext const*, OpaqueJSValue*, OpaqueJSValue*, unsigned long, OpaqueJSValue const* const*, OpaqueJSValue const**)
PUBLIC e9690 0 _GLOBAL__sub_I_PACJavaScript.cpp
PUBLIC e96e7 0 RunHTTPSConnectionWithURLWithErrror
PUBLIC e97fb 0 __RunHTTPSConnectionWithURLWithErrror_block_invoke
PUBLIC e98d3 0 __RunHTTPSConnectionWithURLWithErrror_block_invoke_2
PUBLIC e9926 0 __copy_helper_block_
PUBLIC e995e 0 __destroy_helper_block_
PUBLIC e9989 0 __copy_helper_block_.13
PUBLIC e99c1 0 __destroy_helper_block_.14
PUBLIC e99ec 0 RunHTTPSConnectionWithURL
PUBLIC e99f8 0 -[UnitTestPOSTTaskDelegate URLSession:task:needNewBodyStream:]
PUBLIC e9a4f 0 RunPOSTRequestURL
PUBLIC e9b09 0 __RunPOSTRequestURL_block_invoke
PUBLIC e9d22 0 __RunPOSTRequestURL_block_invoke_2
PUBLIC e9d30 0 __copy_helper_block_.124
PUBLIC e9d47 0 __destroy_helper_block_.125
PUBLIC e9d5a 0 __copy_helper_block_.129
PUBLIC e9d71 0 __destroy_helper_block_.130
PUBLIC e9d84 0 -[UnitTestRedirectTaskDelegate URLSession:task:willPerformHTTPRedirection:newRequest:completionHandler:]
PUBLIC e9dfb 0 -[UnitTestRedirectTaskDelegate correctRequestURLSent]
PUBLIC e9e0e 0 -[UnitTestRedirectTaskDelegate setCorrectRequestURLSent:]
PUBLIC e9e1e 0 RunRedirectTestWithURL
PUBLIC e9ed8 0 __RunRedirectTestWithURL_block_invoke
PUBLIC ea03b 0 __RunRedirectTestWithURL_block_invoke_2
PUBLIC ea06d 0 __copy_helper_block_.151
PUBLIC ea0a5 0 __destroy_helper_block_.152
PUBLIC ea0d0 0 __copy_helper_block_.154
PUBLIC ea0e7 0 __destroy_helper_block_.155
PUBLIC ea0fa 0 NtlmGeneratorCreate
PUBLIC ea15e 0 NtlmGeneratorRelease
PUBLIC ea194 0 NtlmCreateClientRequest
PUBLIC ea234 0 NtlmCreateClientResponse
PUBLIC ea2d9 0 _NtlmGeneratePasswordHashes(__CFAllocator const*, NtlmGenerator*, __CFString const*, __CFData const**, __CFData const**)
PUBLIC ea37e 0 _NtlmCreateClientResponse
PUBLIC eae02 0 NtlmGetNegotiatedVersion
PUBLIC eae0b 0 NtlmGeneratePasswordHashes
PUBLIC eae84 0 MetaConnectionCache::~MetaConnectionCache()
PUBLIC eae8e 0 MetaConnectionCache::~MetaConnectionCache()
PUBLIC eaeaa 0 MetaConnectionCache::copyDebugDesc() const
PUBLIC eaecc 0 MetaConnectionCache::equals(CFAllocatedReferenceCountedObject const*) const
PUBLIC eaed8 0 MetaConnectionCache::hash() const
PUBLIC eaee2 0 MetaConnectionCache::useFastPathForCacheEntryWithKey(HTTPConnectionCacheKey const*)
PUBLIC eaee8 0 MetaConnectionCache::initWithSchedulingSet(CoreSchedulingSet const*, STubeManager*)
PUBLIC eaef4 0 MetaConnectionCache::ingestTube(STube*)
PUBLIC eaefe 0 MetaConnectionCache::getPendingTubeForProtocolWithKey(MetaConnectionCacheClient*, HTTPConnectionCacheKey const*)
PUBLIC eaf07 0 CFNetServiceBrowserGetTypeID
PUBLIC eaf27 0 _CFNetServiceBrowserRegisterClass()
PUBLIC eaf6d 0 CFNetServiceBrowserCreate
PUBLIC eb0f6 0 CFNetServiceBrowserInvalidate
PUBLIC eb1ac 0 CFNetServiceBrowserSearchForDomains
PUBLIC eb3e6 0 _DomainEnumReply(_DNSServiceRef_t*, unsigned int, unsigned int, int, char const*, void*)
PUBLIC eb51f 0 _SocketCallBack(__CFSocket*, unsigned long, __CFData const*, void const*, void*)
PUBLIC eb580 0 _BrowserBlockUntilComplete(__CFNetServiceBrowser*)
PUBLIC eb617 0 _CFNetServiceBrowserSearchForServices
PUBLIC eb9ad 0 _BrowseReply(_DNSServiceRef_t*, unsigned int, unsigned int, int, char const*, char const*, char const*, void*)
PUBLIC ebe16 0 CFNetServiceBrowserSearchForServices
PUBLIC ebe6b 0 CFNetServiceBrowserStopSearch
PUBLIC ec01e 0 _BrowserCancel(__CFNetServiceBrowser*)
PUBLIC ec0c0 0 CFNetServiceBrowserScheduleWithRunLoop
PUBLIC ec117 0 CFNetServiceBrowserUnscheduleFromRunLoop
PUBLIC ec16e 0 _NetServiceBrowserDestroy(__CFNetServiceBrowser*)
PUBLIC ec216 0 AuthLiaison::AuthLiaison()
PUBLIC ec240 0 AuthLiaison::~AuthLiaison()
PUBLIC ec296 0 AuthLiaison::~AuthLiaison()
PUBLIC ec2a0 0 AuthLiaison::~AuthLiaison()
PUBLIC ec2bc 0 AuthLiaison::negotiateAuthentication(std::__1::shared_ptr<MetaAuthClient>, std::__1::shared_ptr<NetworkProxy>, std::__1::shared_ptr<HTTPRequestMessage>, std::__1::shared_ptr<HTTPResponseMessage>, SmartBlockWithArgs<std::__1::shared_ptr<HTTPRequestMessage>, CFStreamError>)
PUBLIC ec7ad 0 __Block_byref_object_copy_
PUBLIC ec7c3 0 __Block_byref_object_dispose_
PUBLIC ec7c9 0 ___ZN11AuthLiaison23negotiateAuthenticationENSt3__110shared_ptrI14MetaAuthClientEENS1_I12NetworkProxyEENS1_I18HTTPRequestMessageEENS1_I19HTTPResponseMessageEE18SmartBlockWithArgsIJS7_13CFStreamErrorEE_block_invoke
PUBLIC eca4b 0 __copy_helper_block_
PUBLIC ecaa7 0 __destroy_helper_block_
PUBLIC ecae4 0 -[NSURLSessionDownloadTask cancelByProducingResumeData:]
PUBLIC ecb75 0 __56-[NSURLSessionDownloadTask cancelByProducingResumeData:]_block_invoke
PUBLIC ecb92 0 __copy_helper_block_
PUBLIC ecbca 0 __destroy_helper_block_
PUBLIC ecbf5 0 CFNetServiceCreate
PUBLIC ecd90 0 CFNetServiceCreateCopy
PUBLIC ecf1e 0 _DictionaryApplier(void const*, void const*, void*)
PUBLIC ecfbe 0 CFNetServiceGetDomain
PUBLIC ecff2 0 CFNetServiceGetInfo
PUBLIC ed033 0 CFNetServiceGetType
PUBLIC ed06a 0 CFNetServiceGetName
PUBLIC ed0a1 0 CFNetServiceGetAddressing
PUBLIC ed0d8 0 CFNetServiceGetTargetHost
PUBLIC ed10f 0 CFNetServiceGetPortNumber
PUBLIC ed118 0 CFNetServiceGetTXTData
PUBLIC ed171 0 CFNetServiceSetTXTData
PUBLIC ed18b 0 CFNetServiceSetInfo
PUBLIC ed19a 0 CFNetServiceRegisterWithOptions
PUBLIC ed649 0 _UnscheduleSources(__CFArray const*, __CFArray const*)
PUBLIC ed690 0 _InvalidateSources(__CFArray*)
PUBLIC ed6d9 0 _RegisterReply(_DNSServiceRef_t*, unsigned int, int, char const*, char const*, char const*, void*)
PUBLIC ed845 0 _AddRecords(void const*, void const*, void*)
PUBLIC ed8d4 0 _SocketCallBack_NetService(__CFSocket*, unsigned long, __CFData const*, void const*, void*)
PUBLIC ed972 0 _ScheduleSources(__CFArray const*, __CFArray const*)
PUBLIC ed9b9 0 _ServiceBlockUntilComplete(__CFNetService*)
PUBLIC eda57 0 CFNetServiceResolveWithTimeout
PUBLIC eddc1 0 _ServiceCreateQuery_NoLock(__CFNetService*, unsigned int, unsigned short, char const*, char const*, char const*, unsigned char)
PUBLIC ee085 0 _LongTimerCallBack(__CFRunLoopTimer*, void*)
PUBLIC ee12a 0 CFNetServiceCancel
PUBLIC ee297 0 _ServiceCancel(__CFNetService*)
PUBLIC ee347 0 _CleanupService_NoLock(__CFNetService*)
PUBLIC ee3b4 0 CFNetServiceSetClient
PUBLIC ee4b1 0 CFNetServiceScheduleWithRunLoop
PUBLIC ee535 0 CFNetServiceUnscheduleFromRunLoop
PUBLIC ee5b9 0 CFNetServiceCreateDictionaryWithTXTData
PUBLIC ee7a1 0 TXTDictionaryKeyRetain(__CFAllocator const*, __CFString const*)
PUBLIC ee7ae 0 TXTDictionaryKeyRelease(__CFAllocator const*, __CFString const*)
PUBLIC ee7bb 0 TXTDictionaryKeyEqual(__CFString const*, __CFString const*)
PUBLIC ee7d5 0 TXTDictionaryKeyHash(__CFString const*)
PUBLIC ee7df 0 CFNetServiceCreateTXTDataWithDictionary
PUBLIC eeae5 0 _ServiceSetInfo(__CFNetService*, unsigned int, void const*, unsigned char)
PUBLIC eed36 0 _CFNetServiceSetInfoNoPublish
PUBLIC eed42 0 _CFNetServiceCreateFromServiceName
PUBLIC eef00 0 _CFNetServiceCreateFromURL
PUBLIC eef41 0 _CFNetServiceGetProtocolSpecificInformation
PUBLIC ef062 0 _CFNetServiceSetProtocolSpecificInformation
PUBLIC ef193 0 CFNetServiceSetProtocolSpecificInformation
PUBLIC ef19d 0 CFNetServiceGetProtocolSpecificInformation
PUBLIC ef1a7 0 CFNetServiceRegister
PUBLIC ef1c0 0 CFNetServiceResolve
PUBLIC ef1cd 0 _ServiceDestroy(__CFNetService*)
PUBLIC ef254 0 _ServiceEqual(__CFNetService*, __CFNetService*)
PUBLIC ef40d 0 _ServiceHash(__CFNetService*)
PUBLIC ef48f 0 _ServiceCopyDebugDesc(__CFNetService*)
PUBLIC ef55a 0 _ResolveReply(_DNSServiceRef_t*, unsigned int, unsigned int, int, char const*, char const*, unsigned short, unsigned short, unsigned char const*, void*)
PUBLIC ef7c4 0 _QueryRecordReply_NetService(_DNSServiceRef_t*, unsigned int, unsigned int, int, char const*, unsigned short, unsigned short, unsigned short, void const*, unsigned int, void*)
PUBLIC efa7b 0 _DelayResolveCallBack_NoLock(__CFNetService*, double)
PUBLIC efb1d 0 _ShortTimerCallBack(__CFRunLoopTimer*, void*)
PUBLIC efba4 0 CFNetServiceMonitorGetTypeID
PUBLIC efbc4 0 _CFNetServiceMonitorRegisterClass()
PUBLIC efc0a 0 CFNetServiceMonitorCreate
PUBLIC efd50 0 CFNetServiceMonitorInvalidate
PUBLIC efdfb 0 CFNetServiceMonitorStart
PUBLIC f0271 0 _QueryRecordReply(_DNSServiceRef_t*, unsigned int, unsigned int, int, char const*, unsigned short, unsigned short, unsigned short, void const*, unsigned int, void*)
PUBLIC f0446 0 _SocketCallBack_Mon(__CFSocket*, unsigned long, __CFData const*, void const*, void*)
PUBLIC f049b 0 CFNetServiceMonitorStop
PUBLIC f0633 0 _MonitorCancel(__CFNetServiceMonitor*)
PUBLIC f06d7 0 CFNetServiceMonitorScheduleWithRunLoop
PUBLIC f072e 0 CFNetServiceMonitorUnscheduleFromRunLoop
PUBLIC f0785 0 _MonitorDestroy(__CFNetServiceMonitor*)
PUBLIC f0824 0 CFNetDiagnosticCreateBasic
PUBLIC f091a 0 CFNetDiagnosticCreateWithURL
PUBLIC f0a4a 0 _CFNetDiagnosticSetDictionaryKeyAndReleaseIfNotNull(__CFString const*, void const*, __CFDictionary*)
PUBLIC f0a81 0 CFNetDiagnosticSetName
PUBLIC f0a9f 0 CFNetDiagnosticSetProtocol
PUBLIC f0abd 0 CFNetDiagnosticSetServiceID
PUBLIC f0adb 0 CFNetDiagnosticDiagnoseProblemInteractively
PUBLIC f0b07 0 __CFNetDiagnosticDiagnoseProblemInteractively_block_invoke
PUBLIC f0b64 0 CFNetDiagnosticCopyNetworkStatusActively
PUBLIC f1065 0 _CFNetDiagnosticCopyLocalizedDescription(long)
PUBLIC f1120 0 TrustExceptionManager::TrustExceptionManager()
PUBLIC f118e 0 TrustExceptionManager::~TrustExceptionManager()
PUBLIC f11d2 0 TrustExceptionManager::~TrustExceptionManager()
PUBLIC f11dc 0 TrustExceptionManager::~TrustExceptionManager()
PUBLIC f11f8 0 TrustExceptionManager::sharedTrustExceptionManager()
PUBLIC f1224 0 ___ZN21TrustExceptionManager27sharedTrustExceptionManagerEv_block_invoke
PUBLIC f124e 0 TrustExceptionManager::storeTrustExceptions(__CFData const*, __SecTrust*)
PUBLIC f12a4 0 TrustExceptionManager::_setTrustExceptions(__CFData const*, __CFData const*)
PUBLIC f133a 0 TrustExceptionManager::applyTrustExceptions(__CFData const*, __SecTrust*, bool*)
PUBLIC f137a 0 TrustExceptionManager::_copyTrustExceptions(__CFData const*)
PUBLIC f13fe 0 RetainableTypedDict<__CFData const*, __CFData const*>::~RetainableTypedDict()
PUBLIC f141e 0 RetainableTypedDict<__CFData const*, __CFData const*>::~RetainableTypedDict()
PUBLIC f144f 0 CFHostCreateWithName
PUBLIC f1530 0 CFHostSetClient
PUBLIC f156b 0 _CFHostSetClientInfoCallback
PUBLIC f15a9 0 CFHostGetReachability
PUBLIC f15be 0 CFHostGetSRVRecords
PUBLIC f1616 0 _CFHostStartInfoResolutionForInterface
PUBLIC f1654 0 CFHostCancelInfoResolution
PUBLIC f1698 0 _CFHostSetDispatchQueue
PUBLIC f16c4 0 CFHostScheduleWithRunLoop
PUBLIC f1700 0 CFHostUnscheduleFromRunLoop
PUBLIC f173c 0 CFNetDiagnosticPingWithOptions
PUBLIC f1f0c 0 CFNetDiagnosticPing
PUBLIC f1fd1 0 copyMIMETypeForExtension
PUBLIC f209c 0 initializeMappings()
PUBLIC f234c 0 getPreferredExtensionForMIMEType
PUBLIC f23f1 0 createSanitizedFileNameFromString
PUBLIC f25ff 0 cdParseFilenameParameter(__CFString const*, CFStringInlineBuffer&, long, long&, __CFString const*&)
PUBLIC f2cd0 0 cdParseExtendedFilenameParameter(__CFString const*, CFStringInlineBuffer&, long, long&, __CFString const*&)
PUBLIC f3345 0 createFilenameFromContentDispositionHeader
PUBLIC f3ac5 0 createExtensionFromFilename
PUBLIC f3b9a 0 _CFURLCopyPathExtension_WorksWithMoreSchemes
PUBLIC f3cc4 0 _CFNetworkIsConnectedToInternet
PUBLIC f3dcb 0 _CFNetworkIsKnownHSTSHost
PUBLIC f3dd7 0 _CFNetworkCopyHSTSPolicies
PUBLIC f3e13 0 _CFNetworkResetHSTS
PUBLIC f3e6a 0 _CFNetworkResetHSTSHostsSinceDate
PUBLIC f3ea6 0 _CFNetworkResetHSTSHostsWithSession
PUBLIC f3eb2 0 _CFNetworkResetHSTSHosts
PUBLIC f3ec0 0 populateMimeTypeMap(__CFDictionary*, __CFDictionary const*, bool)
PUBLIC f4042 0 createMimeTypeMapFromUtiDeclarations(__CFArray const*, bool)
PUBLIC f427e 0 invertKeyAndValueArray_CFDictionaryApplier(void const*, void const*, void*)
PUBLIC f42f4 0 trimArrayValuesToSingleObject_CFDictionaryApplier(void const*, void const*, void*)
PUBLIC f4353 0 overrideExistingValues_CFDictionaryApplier(void const*, void const*, void*)
PUBLIC f436c 0 +[_AWDMetricsReporter getAWDServerConnectionForCFNetwork]
PUBLIC f4398 0 __57+[_AWDMetricsReporter getAWDServerConnectionForCFNetwork]_block_invoke
PUBLIC f43fe 0 +[_AWDMetricsReporter _reportTimingDataToAWD:request:]
PUBLIC f46dc 0 PerformanceTiming::fillW3NavigationTimingAWDMetrics(PerformanceTimingAWDMetrics*)
PUBLIC f4b8c 0 __54+[_AWDMetricsReporter _reportTimingDataToAWD:request:]_block_invoke
PUBLIC f4c3b 0 __copy_helper_block_
PUBLIC f4c52 0 __destroy_helper_block_
PUBLIC f4c65 0 +[_AWDMetricsReporter _reportStreamTaskTimingDataToAWD:]
PUBLIC f4e60 0 PerformanceTiming::fillStreamTaskTimingAWDMetrics(StreamTaskTimingAWDMetrics*)
PUBLIC f5295 0 __56+[_AWDMetricsReporter _reportStreamTaskTimingDataToAWD:]_block_invoke
PUBLIC f52fc 0 +[_AWDMetricsReporter _reportCacheMetricsToAWD:]
PUBLIC f5444 0 __48+[_AWDMetricsReporter _reportCacheMetricsToAWD:]_block_invoke
PUBLIC f54d4 0 dns_async_start
PUBLIC f557c 0 returns_int32()
PUBLIC f5587 0 dns_async_handle_reply
PUBLIC f55fd 0 dns_free_reply
PUBLIC f5673 0 returns_void()
PUBLIC f5679 0 dns_parse_packet
PUBLIC f56f4 0 returns_NULL_dnsreply()
PUBLIC f56fc 0 CFNetworkExecuteProxyAutoConfigurationURL
PUBLIC f5713 0 _CFNetworkExecuteProxyAutoConfigurationURLDelegated
PUBLIC f57f7 0 UseLegacyPAC()
PUBLIC f582e 0 CFNetworkExecuteProxyAutoConfigurationScript
PUBLIC f5874 0 CFNetworkProxyAutoConfigurationSetAuthentication
PUBLIC f58b3 0 _CFNetworkUnitTestPACURL
PUBLIC f5a6e 0 PAC::UnitTest::PACAPIClient::copyPACTicket(void (*)(void*, __CFArray const*, __CFError*))
PUBLIC f5b06 0 PAC::UnitTest::PACAPIClient::PACResultCallback(void*, __CFArray const*, __CFError*)
PUBLIC f5b1e 0 PAC::UnitTest::PACAPIClient::validate(void (bool, char const*) block_pointer) const
PUBLIC f5b68 0 PAC::UnitTest::PACAPIClient::~PACAPIClient()
PUBLIC f5b72 0 _CFNetworkUnitTestPACURLLargeFile
PUBLIC f5d29 0 _CFNetworkUnitTestPACFTPURL
PUBLIC f5f07 0 _CFNetworkUnitTestPACInvalidURL
PUBLIC f5f52 0 runInvalidPACURLAndExpectError(char const*, void (bool, char const*) block_pointer)
PUBLIC f6196 0 _CFNetworkUnitTestPACDelegated
PUBLIC f71f4 0 PAC::UnitTest::PACSPIClient::copyPACTicket(void (*)(void*, __CFArray const*, __CFError*))
PUBLIC f7391 0 ___CFNetworkUnitTestPACDelegated_block_invoke_3
PUBLIC f73c0 0 __copy_helper_block_
PUBLIC f73d7 0 __destroy_helper_block_
PUBLIC f73eb 0 ___CFNetworkUnitTestPACDelegated_block_invoke.22
PUBLIC f741a 0 __copy_helper_block_.25
PUBLIC f7431 0 __destroy_helper_block_.26
PUBLIC f7444 0 ___CFNetworkUnitTestPACDelegated_block_invoke.33
PUBLIC f7473 0 __copy_helper_block_.36
PUBLIC f748a 0 __destroy_helper_block_.37
PUBLIC f749d 0 ___CFNetworkUnitTestPACDelegated_block_invoke.42
PUBLIC f74cc 0 __copy_helper_block_.45
PUBLIC f74e3 0 __destroy_helper_block_.46
PUBLIC f74f6 0 PAC::UnitTest::PACSPIClient::~PACSPIClient()
PUBLIC f7541 0 _CFNetworkUnitTestPACURLTwoClientThreads
PUBLIC f771e 0 PAC::UnitTest::threadEntry(void (bool, char const*) block_pointer)
PUBLIC f78df 0 _CFNetworkUnitTestPACInvalidateTicketInCallback
PUBLIC f7a92 0 PACResultInvalidateSourceCallback(void*, __CFArray const*, __CFError*)
PUBLIC f7ad3 0 _CFNetworkUnitTestPACInvalidateImmediately
PUBLIC f7c71 0 _CFNetworkUnitTestPACString
PUBLIC f7cf0 0 ProxyAutoConfigTestCallback(void*, __CFArray const*, __CFError*)
PUBLIC f7d02 0 _CFNetworkUnitTestPACTicketInvalidateOnMultipleThreads
PUBLIC f81fc 0 ___ZL12UseLegacyPACv_block_invoke
PUBLIC f82ca 0 PAC::UnitTest::PACAPIClient::~PACAPIClient()
PUBLIC f82e6 0 PAC::UnitTest::PACAPIClient::proxyResult(__CFArray const*, __CFError*)
PUBLIC f8342 0 PAC::UnitTest::PACAPIClient::~PACAPIClient()
PUBLIC f83a8 0 PAC::UnitTest::PACSPIClient::PACSPIClient(std::__1::basic_string<char, std::__1::char_traits<char>, std::__1::allocator<char> >, std::__1::basic_string<char, std::__1::char_traits<char>, std::__1::allocator<char> >, std::__1::basic_string<char, std::__1::char_traits<char>, std::__1::allocator<char> >, std::__1::basic_string<char, std::__1::char_traits<char>, std::__1::allocator<char> >)
PUBLIC f8482 0 PAC::UnitTest::PACSPIClient::~PACSPIClient()
PUBLIC f84d6 0 std::__1::__vector_base<std::__1::thread, std::__1::allocator<std::__1::thread> >::~__vector_base()
PUBLIC f851c 0 std::__1::thread::thread<void* (&)(void (bool, char const*) block_pointer), void (bool, char const*) block_pointer&, void>(void* (&&&)(void (bool, char const*) block_pointer), void (bool, char const*) block_pointer&&&)
PUBLIC f858d 0 void* std::__1::__thread_proxy<std::__1::tuple<std::__1::unique_ptr<std::__1::__thread_struct, std::__1::default_delete<std::__1::__thread_struct> >, void* (*)(void (bool, char const*) block_pointer), void (bool, char const*) block_pointer> >(void*)
PUBLIC f85e4 0 void* std::__1::__thread_proxy<std::__1::tuple<std::__1::unique_ptr<std::__1::__thread_struct, std::__1::default_delete<std::__1::__thread_struct> >, _CFNetworkUnitTestPACTicketInvalidateOnMultipleThreads::$_0> >(void*)
PUBLIC f868a 0 std::__1::__split_buffer<ReadBuffer*, std::__1::allocator<ReadBuffer*>&>::__split_buffer(unsigned long, unsigned long, std::__1::allocator<ReadBuffer*>&)
PUBLIC f86ea 0 std::__1::__split_buffer<std::__1::thread, std::__1::allocator<std::__1::thread>&>::~__split_buffer()
PUBLIC f8726 0 PAC::PACExecutor::PACExecutor()
PUBLIC f87e0 0 PAC::PACExecutor::PACExecutor()
PUBLIC f87ea 0 PAC::PACExecutor::executePAC(std::__1::shared_ptr<PAC::PACQuery>, std::__1::shared_ptr<PAC::PACFetcher>)
PUBLIC f8903 0 ___ZN3PAC11PACExecutor10executePACENSt3__110shared_ptrINS_8PACQueryEEENS2_INS_10PACFetcherEEE_block_invoke
PUBLIC f8cbc 0 SmartBlockWithArgs<std::__1::shared_ptr<__CFArray const>, std::__1::shared_ptr<__CFError> >::operator()(std::__1::shared_ptr<__CFArray const>, std::__1::shared_ptr<__CFError>) const
PUBLIC f8da3 0 ___ZN3PAC11PACExecutor10executePACENSt3__110shared_ptrINS_8PACQueryEEENS2_INS_10PACFetcherEEE_block_invoke_2
PUBLIC f8e4b 0 __copy_helper_block_
PUBLIC f8e6f 0 __destroy_helper_block_
PUBLIC f8e84 0 PAC::PACExecutor::executePACQuery(std::__1::shared_ptr<PAC::PACQuery>, std::__1::shared_ptr<PAC::PACFetcher>)
PUBLIC f8f6b 0 __copy_helper_block_.2
PUBLIC f8fcf 0 __destroy_helper_block_.3
PUBLIC f900c 0 PAC::PACExecutor::executePACScript(__CFString const*, std::__1::shared_ptr<PAC::PACQuery>)
PUBLIC f910e 0 PAC::PACExecutor::executePACURL(std::__1::shared_ptr<PAC::PACQuery>, std::__1::shared_ptr<PAC::PACFetcher>)
PUBLIC f9261 0 ___ZN3PAC11PACExecutor16executePACScriptEPK10__CFStringNSt3__110shared_ptrINS_8PACQueryEEE_block_invoke
PUBLIC f92fa 0 PAC::PACExecutor::deliverPACResultToClients(std::__1::shared_ptr<__CFArray const>, std::__1::shared_ptr<__CFError>)
PUBLIC f93cc 0 ___ZN3PAC11PACExecutor13executePACURLENSt3__110shared_ptrINS_8PACQueryEEENS2_INS_10PACFetcherEEE_block_invoke
PUBLIC f95ff 0 __copy_helper_block_.7
PUBLIC f9649 0 __destroy_helper_block_.8
PUBLIC f9678 0 PAC::PACExecutor::isExpired()
PUBLIC f96c4 0 std::__1::__shared_ptr_pointer<dispatch_queue_s*, void (*)(dispatch_object_s*), std::__1::allocator<dispatch_queue_s> >::~__shared_ptr_pointer()
PUBLIC f96ce 0 std::__1::__shared_ptr_pointer<dispatch_queue_s*, void (*)(dispatch_object_s*), std::__1::allocator<dispatch_queue_s> >::~__shared_ptr_pointer()
PUBLIC f96ea 0 std::__1::__shared_ptr_pointer<dispatch_data_s*, void (*)(dispatch_object_s*), std::__1::allocator<dispatch_data_s> >::__on_zero_shared()
PUBLIC f96fa 0 std::__1::shared_ptr<PAC::PACExecutor>::shared_ptr<PAC::PACExecutor>(std::__1::weak_ptr<PAC::PACExecutor> const&, std::__1::enable_if<is_convertible<PAC::PACExecutor*, PAC::PACExecutor*>::value, std::__1::shared_ptr<PAC::PACExecutor>::__nat>::type)
PUBLIC f9734 0 SmartBlockWithArgs<std::__1::shared_ptr<__CFArray const>, std::__1::shared_ptr<__CFError> >::SmartBlockWithArgs(void (std::__1::shared_ptr<__CFArray const>, std::__1::shared_ptr<__CFError>) block_pointer)
PUBLIC f97bc 0 BlockHolderVar<std::__1::shared_ptr<__CFArray const>, std::__1::shared_ptr<__CFError> >::invoke_initial(std::__1::shared_ptr<__CFArray const>, std::__1::shared_ptr<__CFError>)
PUBLIC f9848 0 BlockHolderVar<std::__1::shared_ptr<__CFArray const>, std::__1::shared_ptr<__CFError> >::invoke_normal(std::__1::shared_ptr<__CFArray const>, std::__1::shared_ptr<__CFError>)
PUBLIC f98c2 0 std::__1::__shared_ptr_pointer<BlockHolderVar<std::__1::shared_ptr<__CFArray const>, std::__1::shared_ptr<__CFError> >*, SmartBlockWithArgs<std::__1::shared_ptr<__CFArray const>, std::__1::shared_ptr<__CFError> >::Deleter, std::__1::allocator<BlockHolderVar<std::__1::shared_ptr<__CFArray const>, std::__1::shared_ptr<__CFError> > > >::~__shared_ptr_pointer()
PUBLIC f98cc 0 std::__1::__shared_ptr_pointer<BlockHolderVar<std::__1::shared_ptr<__CFArray const>, std::__1::shared_ptr<__CFError> >*, SmartBlockWithArgs<std::__1::shared_ptr<__CFArray const>, std::__1::shared_ptr<__CFError> >::Deleter, std::__1::allocator<BlockHolderVar<std::__1::shared_ptr<__CFArray const>, std::__1::shared_ptr<__CFError> > > >::~__shared_ptr_pointer()
PUBLIC f98e8 0 std::__1::__shared_ptr_pointer<BlockHolderVar<std::__1::shared_ptr<__CFArray const>, std::__1::shared_ptr<__CFError> >*, SmartBlockWithArgs<std::__1::shared_ptr<__CFArray const>, std::__1::shared_ptr<__CFError> >::Deleter, std::__1::allocator<BlockHolderVar<std::__1::shared_ptr<__CFArray const>, std::__1::shared_ptr<__CFError> > > >::__on_zero_shared()
PUBLIC f9982 0 BlockHolderVar<std::__1::shared_ptr<__CFArray const>, std::__1::shared_ptr<__CFError> >::invoke_reseted(std::__1::shared_ptr<__CFArray const>, std::__1::shared_ptr<__CFError>)
PUBLIC f9988 0 void std::__1::vector<SmartBlockWithArgs<std::__1::shared_ptr<__CFArray const>, std::__1::shared_ptr<__CFError> >, std::__1::allocator<SmartBlockWithArgs<std::__1::shared_ptr<__CFArray const>, std::__1::shared_ptr<__CFError> > > >::__emplace_back_slow_path<SmartBlockWithArgs<std::__1::shared_ptr<__CFArray const>, std::__1::shared_ptr<__CFError> > >(SmartBlockWithArgs<std::__1::shared_ptr<__CFArray const>, std::__1::shared_ptr<__CFError> >&&)
PUBLIC f9a3c 0 std::__1::vector<std::__1::weak_ptr<PropertyObserver>, std::__1::allocator<std::__1::weak_ptr<PropertyObserver> > >::__swap_out_circular_buffer(std::__1::__split_buffer<std::__1::weak_ptr<PropertyObserver>, std::__1::allocator<std::__1::weak_ptr<PropertyObserver> >&>&)
PUBLIC f9ab0 0 std::__1::__split_buffer<std::__1::weak_ptr<PropertyObserver>, std::__1::allocator<std::__1::weak_ptr<PropertyObserver> >&>::__split_buffer(unsigned long, unsigned long, std::__1::allocator<std::__1::weak_ptr<PropertyObserver> >&)
PUBLIC f9b14 0 std::__1::__split_buffer<SmartBlockWithArgs<bool>, std::__1::allocator<SmartBlockWithArgs<bool> >&>::~__split_buffer()
PUBLIC f9b64 0 _ZN3PAC10JavaScript12JavaScripter8_contextMUlPK15OpaqueJSContextE_8__invokeES4_
PUBLIC f9b6e 0 SmartBlockWithArgs<std::__1::shared_ptr<__CFString const>, double, std::__1::shared_ptr<__CFError> >::SmartBlockWithArgs(void (std::__1::shared_ptr<__CFString const>, double, std::__1::shared_ptr<__CFError>) block_pointer)
PUBLIC f9bf6 0 BlockHolderVar<std::__1::shared_ptr<__CFString const>, double, std::__1::shared_ptr<__CFError> >::invoke_initial(std::__1::shared_ptr<__CFString const>, double, std::__1::shared_ptr<__CFError>)
PUBLIC f9c8c 0 BlockHolderVar<std::__1::shared_ptr<__CFString const>, double, std::__1::shared_ptr<__CFError> >::invoke_normal(std::__1::shared_ptr<__CFString const>, double, std::__1::shared_ptr<__CFError>)
PUBLIC f9d10 0 std::__1::__shared_ptr_pointer<BlockHolderVar<std::__1::shared_ptr<__CFString const>, double, std::__1::shared_ptr<__CFError> >*, SmartBlockWithArgs<std::__1::shared_ptr<__CFString const>, double, std::__1::shared_ptr<__CFError> >::Deleter, std::__1::allocator<BlockHolderVar<std::__1::shared_ptr<__CFString const>, double, std::__1::shared_ptr<__CFError> > > >::~__shared_ptr_pointer()
PUBLIC f9d1a 0 std::__1::__shared_ptr_pointer<BlockHolderVar<std::__1::shared_ptr<__CFString const>, double, std::__1::shared_ptr<__CFError> >*, SmartBlockWithArgs<std::__1::shared_ptr<__CFString const>, double, std::__1::shared_ptr<__CFError> >::Deleter, std::__1::allocator<BlockHolderVar<std::__1::shared_ptr<__CFString const>, double, std::__1::shared_ptr<__CFError> > > >::~__shared_ptr_pointer()
PUBLIC f9d36 0 std::__1::__shared_ptr_pointer<BlockHolderVar<std::__1::shared_ptr<__CFString const>, double, std::__1::shared_ptr<__CFError> >*, SmartBlockWithArgs<std::__1::shared_ptr<__CFString const>, double, std::__1::shared_ptr<__CFError> >::Deleter, std::__1::allocator<BlockHolderVar<std::__1::shared_ptr<__CFString const>, double, std::__1::shared_ptr<__CFError> > > >::__on_zero_shared()
PUBLIC f9dd4 0 BlockHolderVar<std::__1::shared_ptr<__CFString const>, double, std::__1::shared_ptr<__CFError> >::invoke_reseted(std::__1::shared_ptr<__CFString const>, double, std::__1::shared_ptr<__CFError>)
PUBLIC f9dda 0 _newConnPropsForHTTPSProxy(__CFAllocator const*, __CFHTTPMessage*, __CFString const*, __CFNumber const*)
PUBLIC f9fb3 0 _CFNetworkUserAgentString()
PUBLIC f9fd3 0 cleanUpRequest(__CFHTTPMessage*, long long, unsigned char, unsigned char, void*)
PUBLIC fa57e 0 isIPV6LiteralAddress(__CFString const*)
PUBLIC fa58a 0 hasTokenInList(__CFString const*, __CFString const*)
PUBLIC fa66f 0 emptyPerform(void*)
PUBLIC fa675 0 requestHasUpgradeHeader(_CFURLRequest const*)
PUBLIC fa6ae 0 -[NSURLCredential initWithUser:password:initialAccess:]
PUBLIC fa741 0 -[NSURLCredential _initWithUser:password:initialAccess:persistence:]
PUBLIC fa7e1 0 -[NSURLCredential initWithUser:password:persistence:]
PUBLIC fa879 0 -[NSURLCredential _initWithCFURLCredential:]
PUBLIC fa8c3 0 -[NSURLCredential initWithIdentity:certificates:persistence:]
PUBLIC fa959 0 +[NSURLCredential credentialWithUser:password:persistence:]
PUBLIC fa9b2 0 +[NSURLCredential credentialWithIdentity:certificates:persistence:]
PUBLIC faa0b 0 -[NSURLCredential dealloc]
PUBLIC faa54 0 -[NSURLCredential _cfurlcredential]
PUBLIC faa65 0 -[NSURLCredential _CFURLCredential]
PUBLIC faa76 0 -[NSURLCredential user]
PUBLIC faab4 0 -[NSURLCredential password]
PUBLIC faad9 0 -[NSURLCredential hasPassword]
PUBLIC faaf2 0 -[NSURLCredential persistence]
PUBLIC fab0c 0 -[NSURLCredential copyWithZone:]
PUBLIC fab1e 0 -[NSURLCredential description]
PUBLIC fabac 0 -[NSURLCredential hash]
PUBLIC fabc1 0 -[NSURLCredential isEqual:]
PUBLIC fac36 0 -[NSURLCredential identity]
PUBLIC fac4b 0 -[NSURLCredential certificates]
PUBLIC fac60 0 -[NSURLCredential initWithTrust:]
PUBLIC facdf 0 +[NSURLCredential credentialForTrust:]
PUBLIC fad24 0 -[NSURLCredential encodeWithCoder:]
PUBLIC fadbb 0 -[NSURLCredential initWithCoder:]
PUBLIC fae74 0 +[NSURLCredential supportsSecureCoding]
PUBLIC fae7f 0 -[NSURLCredential _hasSWCACreatorAttribute]
PUBLIC fae98 0 -[NSURLCredential _removeSWCACreatorAttribute]
PUBLIC faead 0 _CFURLRequestCreateCopyReplacingURL
PUBLIC faefa 0 CFURLRequestCreateHTTPRequest
PUBLIC faf07 0 _constructRequestFromParts(__CFAllocator const*, __CFHTTPMessage*, __CFArray const*, CFURLRequestCachePolicy, double, __CFURL const*, unsigned char)
PUBLIC fafe8 0 CFURLRequestCreateMutableHTTPRequest
PUBLIC faff8 0 CFURLRequestGetProxySettings
PUBLIC fb02d 0 CFURLRequestGetSSLProperties
PUBLIC fb062 0 CFURLRequestCopyHTTPRequestBodyParts
PUBLIC fb0b0 0 CFURLRequestCopyHTTPCookieStorage
PUBLIC fb15a 0 CFURLRequestGetHTTPCookieStorageAcceptPolicy
PUBLIC fb1c5 0 CFURLRequestSetMaximumPermissibleContentLength
PUBLIC fb1cc 0 CFURLRequestSetProxySettings
PUBLIC fb236 0 CFURLRequestSetSSLProperties
PUBLIC fb2a0 0 CFURLRequestSetAdditionalHTTPCookies
PUBLIC fb2cc 0 CFURLRequestSetHTTPCookieStorage
PUBLIC fb37b 0 ___CFURLRequestSetProtocolProperty_block_invoke
PUBLIC fb382 0 CFURLRequestSetShouldPipelineHTTP
PUBLIC fb420 0 _CFURLRequestSetShouldPipelineNonIdempotentHTTP
PUBLIC fb4a8 0 _CFURLRequestSetShouldSkipPipelineProbe
PUBLIC fb530 0 CFURLRequestGetShouldPipelineHTTP
PUBLIC fb563 0 CFURLRequestSetShouldStartSynchronously
PUBLIC fb58f 0 CFURLRequestShouldStartSynchronously
PUBLIC fb5c4 0 CFURLRequestIsIdempotent
PUBLIC fb660 0 CFURLRequestGetPreventsIdleSystemSleep
PUBLIC fb692 0 CFURLRequestSetPreventsIdleSystemSleep
PUBLIC fb6e5 0 _CFURLRequestSetBoundInterfaceIdentifier
PUBLIC fb712 0 URLRequest::setBoundInterfaceIdentifier(__CFString const*)
PUBLIC fb757 0 _CFURLRequestSetStorageSession
PUBLIC fb783 0 _CFURLRequestSetATSOverrides
PUBLIC fb7af 0 _CFURLRequestGetATSOverrides
PUBLIC fb7d6 0 _CFURLRequestSetAllowedProtocolTypes
PUBLIC fb7fc 0 _CFURLRequestCopyStorageSession
PUBLIC fb824 0 CFURLResponseGetCreationTime
PUBLIC fb84b 0 CFURLResponseSetExpiration
PUBLIC fb88a 0 _CFURLResponseSetCreationTime
PUBLIC fb8b9 0 _CFURLResponseGetFreshnessLifetime
PUBLIC fb8f4 0 CFURLResponseCopySuggestedFilename
PUBLIC fb91b 0 +[_NSCFTranslatedFileURLProtocol pimpl]
PUBLIC fb923 0 _CFURLProtocolSendDidFailCallback
PUBLIC fb963 0 +[_NSCFTranslatedFileURLProtocol requestIsCacheEquivalent:toRequest:]
PUBLIC fb96b 0 +[_NSCFTranslatedFileURLProtocol_PIMPL_3 pimpl]
PUBLIC fb978 0 +[_NSCFTranslatedFileURLProtocol_PIMPL_4 pimpl]
PUBLIC fb985 0 +[_NSCFTranslatedFileURLProtocol_PIMPL_5 pimpl]
PUBLIC fb992 0 +[_NSCFTranslatedFileURLProtocol_PIMPL_6 pimpl]
PUBLIC fb99f 0 +[_NSCFTranslatedFileURLProtocol_PIMPL_7 pimpl]
PUBLIC fb9ac 0 -[_NSCFWikipediaProtocol initWithRequest:cachedResponse:client:]
PUBLIC fba63 0 -[_NSCFWikipediaProtocol dealloc]
PUBLIC fbaba 0 +[_NSCFWikipediaProtocol canInitWithRequest:]
PUBLIC fbaed 0 +[_NSCFWikipediaProtocol canonicalRequestForRequest:]
PUBLIC fbaf6 0 +[_NSCFWikipediaProtocol requestIsCacheEquivalent:toRequest:]
PUBLIC fbafe 0 -[_NSCFWikipediaProtocol startLoading]
PUBLIC fbb1f 0 -[_NSCFWikipediaProtocol stopLoading]
PUBLIC fbb40 0 -[_NSCFWikipediaProtocol scheduleOnRunloop:mode:]
PUBLIC fbb6b 0 -[_NSCFWikipediaProtocol unscheduleOnRunloop:mode:]
PUBLIC fbb96 0 CFURLProtocolUnregisterImplementation
PUBLIC fbb9c 0 CFURLProtocolCanHandleRequest
PUBLIC fbc07 0 _CFURLProtocolSendCacheResponseIsValidCallback
PUBLIC fbc0d 0 CFURLProtocolGetCachedResponse
PUBLIC fbc15 0 _CFACLocateCachingServer
PUBLIC fbd62 0 acLog
PUBLIC fbea4 0 ___CFACLocateCachingServer_block_invoke
PUBLIC fc38b 0 ___CFACLocateCachingServer_block_invoke_2
PUBLIC fc439 0 ___CFACLocateCachingServer_block_invoke_3
PUBLIC fc469 0 __copy_helper_block_
PUBLIC fc480 0 __destroy_helper_block_
PUBLIC fc493 0 __copy_helper_block_.7
PUBLIC fc4aa 0 __destroy_helper_block_.8
PUBLIC fc4bd 0 acErrorCreate
PUBLIC fc677 0 ___CFACLocateCachingServer_block_invoke.13
PUBLIC fcfa9 0 ___CFACLocateCachingServer_block_invoke_2.14
PUBLIC fcfd1 0 __copy_helper_block_.15
PUBLIC fd009 0 __destroy_helper_block_.16
PUBLIC fd034 0 ___CFACLocateCachingServer_block_invoke_2.33
PUBLIC fd076 0 __copy_helper_block_.34
PUBLIC fd08d 0 __destroy_helper_block_.35
PUBLIC fd0a0 0 __copy_helper_block_.37
PUBLIC fd0d8 0 __destroy_helper_block_.38
PUBLIC fd103 0 ___CFACLocateCachingServer_block_invoke_2.42
PUBLIC fd12b 0 __copy_helper_block_.43
PUBLIC fd163 0 __destroy_helper_block_.44
PUBLIC fd18e 0 ___CFACLocateCachingServer_block_invoke.50
PUBLIC fd1be 0 __copy_helper_block_.51
PUBLIC fd1d5 0 __destroy_helper_block_.52
PUBLIC fd1e8 0 __copy_helper_block_.54
PUBLIC fd1ff 0 __destroy_helper_block_.55
PUBLIC fd212 0 __acInit_block_invoke
PUBLIC fd273 0 __acGetSharedLocatorConnection_block_invoke
PUBLIC fd2df 0 __acGetSharedLocatorConnection_block_invoke_2
PUBLIC fd352 0 SPDYConnectionCacheEntry::Class()
PUBLIC fd37e 0 ___ZN24SPDYConnectionCacheEntry5ClassEv_block_invoke
PUBLIC fd3ae 0 SPDYConnectionCacheEntry::SPDYConnectionCacheEntry(CoreSchedulingSet const*, TubeManager*, SPDYConnectionCache*)
PUBLIC fd49a 0 SPDYConnectionCacheEntry::SPDYConnectionCacheEntry(CoreSchedulingSet const*, TubeManager*, SPDYConnectionCache*)
PUBLIC fd4a4 0 SPDYConnectionCacheEntry::~SPDYConnectionCacheEntry()
PUBLIC fd566 0 SPDYConnectionCacheEntry::stopConnections()
PUBLIC fd5de 0 SPDYConnectionCacheEntry::removeAllConnections()
PUBLIC fd65e 0 SPDYConnectionCacheEntry::~SPDYConnectionCacheEntry()
PUBLIC fd668 0 non-virtual thunk to SPDYConnectionCacheEntry::~SPDYConnectionCacheEntry()
PUBLIC fd676 0 SPDYConnectionCacheEntry::~SPDYConnectionCacheEntry()
PUBLIC fd680 0 non-virtual thunk to SPDYConnectionCacheEntry::~SPDYConnectionCacheEntry()
PUBLIC fd68e 0 SPDYConnectionCacheEntry::initialize(HTTPConnectionCacheKey const*, int)
PUBLIC fd6d8 0 SPDYConnectionCacheEntry::ingestTube(Tube*, bool)
PUBLIC fd8ce 0 ___ZN24SPDYConnectionCacheEntry10ingestTubeEP4Tubeb_block_invoke
PUBLIC fd901 0 __copy_helper_block_
PUBLIC fd918 0 __destroy_helper_block_
PUBLIC fd92c 0 SPDYConnectionCacheEntry::createSPDYConnectionFromTube(Tube*)
PUBLIC fd9a0 0 SPDYConnectionCacheEntry::enqueueRequestForProtocol(MetaConnectionCacheClient*, HTTPRequestMessage const*, MetaConnectionOptions)
PUBLIC fdcda 0 void HTTPProtocol::fillPreconnectMetrics<std::__1::shared_ptr<TCPIOConnection> >(PerformanceTiming*, std::__1::shared_ptr<TCPIOConnection>, __CFString const*, bool)
PUBLIC fdf7b 0 ___ZN24SPDYConnectionCacheEntry15stopConnectionsEv_block_invoke
PUBLIC fdf88 0 SPDYConnectionCacheEntry::shouldIdleClose(double, double)
PUBLIC fe03b 0 ___ZN24SPDYConnectionCacheEntry15shouldIdleCloseEdd_block_invoke
PUBLIC fe07b 0 __copy_helper_block_.15
PUBLIC fe092 0 __destroy_helper_block_.16
PUBLIC fe0a6 0 SPDYConnectionCacheEntry::getKey()
PUBLIC fe0b0 0 SPDYConnectionCacheEntry::cbConnectionClosed(SPDYConnection*)
PUBLIC fe11a 0 ___ZN24SPDYConnectionCacheEntry18cbConnectionClosedEP14SPDYConnection_block_invoke
PUBLIC fe142 0 SPDYConnectionCacheEntry::_onqueue_cbConnectionClosed(SPDYConnection*)
PUBLIC fe1f6 0 SPDYConnectionCacheEntry::removeConnection(SPDYConnection*)
PUBLIC fe26e 0 SPDYConnectionCacheEntry::copyDebugDesc() const
PUBLIC fe3aa 0 SPDYConnectionCacheEntry::equals(CFObject const&) const
PUBLIC fe42e 0 SPDYConnectionCacheEntry::hash() const
PUBLIC fe43e 0 RetainableTypedArray<SPDYConnection*>::_invoke(void const*, void*)
PUBLIC fe452 0 CFURLCredentialGetTypeID
PUBLIC fe461 0 CFURLCredentialCreate
PUBLIC fe4d6 0 CFURLCredentialCreateWithIdentityAndCertificateArray
PUBLIC fe541 0 _CFURLCredentialCreateWithInitialAccess
PUBLIC fe5b8 0 _CFURLCredentialGetInitialAccess
PUBLIC fe5e0 0 _CFURLCredentialCreateWithInitialAccessAndPersistencePolicy
PUBLIC fe661 0 CFURLCredentialCreateWithTrust
PUBLIC fe6b8 0 _CFURLCredentialCreateForKerberosTicketWithUUID(__CFAllocator const*, __CFString const*, __CFString const*, __CFDictionary const*, __CFUUID const*)
PUBLIC fe732 0 _CFURLCredentialCreateForKerberosTicket
PUBLIC fe73f 0 _CFURLCredentialCreateXMobileMeAuthToken
PUBLIC fe7aa 0 _CFURLCredentialCreateOAuth2
PUBLIC fe810 0 _CFURLCredentialCreateOAuth1
PUBLIC fe87b 0 CFURLCredentialCreateCopy
PUBLIC fe8a0 0 CFURLCredentialGetPersistence
PUBLIC fe8c3 0 CFURLCredentialGetUsername
PUBLIC fe8df 0 CFURLCredentialCopyPassword
PUBLIC fe8fb 0 CFURLCredentialContainsPassword
PUBLIC fe917 0 _CFURLCredentialHasSWCACreatorAttribute
PUBLIC fe94b 0 _CFURLCredentialRemoveSWCACreatorAttribute
PUBLIC fe97d 0 CFURLCredentialGetCertificateArray
PUBLIC fe9b2 0 CFURLCredentialGetCertificateIdentity
PUBLIC fe9e7 0 _CFURLCredentialCreateArchive
PUBLIC fea15 0 _CFURLCredentialCopyOAuthToken
PUBLIC fea4a 0 _CFURLCredentialCopyOAuth1Account(_CFURLCredential const*)
PUBLIC fea7f 0 _CFURLCredentialGetOAuth1PID(_CFURLCredential const*)
PUBLIC feab7 0 _CFURLCredentialCreateFromArchive
PUBLIC feacd 0 CFURLCredentialCopyProperties
PUBLIC feafb 0 CFURLCredentialCreateWithProperties
PUBLIC feb11 0 __ABOpenSettings
PUBLIC feb84 0 initNSWorkspace
PUBLIC febca 0 __LoadAppKit_block_invoke
PUBLIC febfb 0 NSWorkspaceFunction
PUBLIC fec08 0 CFURLProtectionSpaceGetTypeID
PUBLIC fec17 0 CFURLProtectionSpaceCreateCopy
PUBLIC fec7c 0 CFURLProtectionSpaceReceivesCredentialSecurely
PUBLIC fecc1 0 CFURLProtectionSpaceGetDistinguishedNames
PUBLIC fece5 0 CFURLProtectionSpaceGetServerTrust
PUBLIC fed09 0 CFURLProtectionSpaceCopyProperties
PUBLIC fed32 0 CFURLProtectionSpaceCreateWithProperties
PUBLIC fed8e 0 _CFURLProtectionSpaceCreateArchive
PUBLIC fedec 0 Archiver<URLProtectionSpace, _CFURLProtectionSpace*>::archive(_CFURLProtectionSpace*)
PUBLIC fee30 0 Archiver<URLProtectionSpace, _CFURLProtectionSpace*>::~Archiver()
PUBLIC fee46 0 Dearchiver<URLProtectionSpace, _CFURLProtectionSpace*>::~Dearchiver()
PUBLIC fee5c 0 Archiver<URLProtectionSpace, _CFURLProtectionSpace*>::~Archiver()
PUBLIC fee82 0 Dearchiver<URLProtectionSpace, _CFURLProtectionSpace*>::~Dearchiver()
PUBLIC feea7 0 -[NSURLProtectionSpace initWithHost:port:protocol:realm:authenticationMethod:]
PUBLIC fefbc 0 authMethodToAuthScheme(NSString*)
PUBLIC ff112 0 -[NSURLProtectionSpace initWithProxyHost:port:type:realm:authenticationMethod:]
PUBLIC ff22a 0 -[NSURLProtectionSpace init]
PUBLIC ff241 0 -[NSURLProtectionSpace description]
PUBLIC ff36b 0 -[NSURLProtectionSpace receivesCredentialSecurely]
PUBLIC ff387 0 -[NSURLProtectionSpace proxyType]
PUBLIC ff41c 0 -[NSURLProtectionSpace copyWithZone:]
PUBLIC ff42e 0 -[NSURLProtectionSpace hash]
PUBLIC ff443 0 -[NSURLProtectionSpace isEqual:]
PUBLIC ff4b8 0 -[NSURLProtectionSpace distinguishedNames]
PUBLIC ff4cd 0 -[NSURLProtectionSpace serverTrust]
PUBLIC ff4e2 0 -[NSURLProtectionSpace encodeWithCoder:]
PUBLIC ff57e 0 CFURLAuthChallengeGetTypeID
PUBLIC ff58d 0 _CFURLAuthChallengeCreateArchive
PUBLIC ff5ea 0 Archiver<URLAuthChallenge, _CFURLAuthChallenge*>::archive(_CFURLAuthChallenge*)
PUBLIC ff62e 0 Archiver<URLAuthChallenge, _CFURLAuthChallenge*>::~Archiver()
PUBLIC ff643 0 _CFURLAuthChallengeCreateFromArchive
PUBLIC ff6a2 0 Dearchiver<URLAuthChallenge, _CFURLAuthChallenge*>::dearchive()
PUBLIC ff700 0 Dearchiver<URLAuthChallenge, _CFURLAuthChallenge*>::~Dearchiver()
PUBLIC ff716 0 Archiver<URLAuthChallenge, _CFURLAuthChallenge*>::~Archiver()
PUBLIC ff73c 0 Dearchiver<URLAuthChallenge, _CFURLAuthChallenge*>::~Dearchiver()
PUBLIC ff762 0 non-virtual thunk to SHTTP2ConnectionCacheEntry::~SHTTP2ConnectionCacheEntry()
PUBLIC ff770 0 SHTTP2ConnectionCacheEntry::~SHTTP2ConnectionCacheEntry()
PUBLIC ff77a 0 non-virtual thunk to SHTTP2ConnectionCacheEntry::~SHTTP2ConnectionCacheEntry()
PUBLIC ff789 0 __copy_helper_block_
PUBLIC ff7a0 0 __destroy_helper_block_
PUBLIC ff7b5 0 ___ZN26SHTTP2ConnectionCacheEntry21releaseAllConnectionsEv_block_invoke
PUBLIC ff7c4 0 SHTTP2ConnectionCacheEntry::enqueueRequestForProtocol(MetaConnectionCacheClient*, HTTPRequestMessage const*, MetaConnectionOptions)
PUBLIC ff9aa 0 ___ZN26SHTTP2ConnectionCacheEntry23shouldOpenNewConnectionEv_block_invoke
PUBLIC ff9dd 0 __copy_helper_block_.13
PUBLIC ff9f4 0 __destroy_helper_block_.14
PUBLIC ffa08 0 SHTTP2ConnectionCacheEntry::hash() const
PUBLIC ffa18 0 SHTTP2ConnectionCacheEntry::copyDebugDesc() const
PUBLIC ffa5c 0 SHTTP2ConnectionCacheEntry::equals(CFObject const&) const
PUBLIC ffae1 0 _CFHTTPParsedCookiesWithResponseHeaderFields
PUBLIC ffb75 0 _createCookiesWithCookieStrings(__CFAllocator const*, __CFArray const*, __CFURL const*, __CFString const*, WhichKindOfCookieParser)
PUBLIC fff25 0 _createCookiesWithCookieStringsAndPartition(__CFAllocator const*, __CFArray const*, __CFURL const*, __CFString const*)
PUBLIC fff35 0 _CFHTTPCookieCreateWithStringAndPartition
PUBLIC fffcc 0 _CFHTTPCookieCreateCookiesWithResponseMessage
PUBLIC 10006b 0 CFHTTPCookie_domainMatches
PUBLIC 1001d0 0 CFHTTPCookieCopyProperties
PUBLIC 1001f5 0 CFHTTPCookieIsSecure
PUBLIC 100203 0 CFHTTPCookieGetVersion
PUBLIC 10024a 0 createCookieString(void const*, unsigned char const*)
PUBLIC 10027c 0 CFHTTPCookieCopyValue
PUBLIC 1002b9 0 CFHTTPCookieGetExpirationTime
PUBLIC 100355 0 __CFHTTPCookieGetExpirationTime_block_invoke
PUBLIC 100375 0 CFHTTPCookieCopyDomain
PUBLIC 1003b2 0 CFHTTPCookieCopyPath
PUBLIC 1003ef 0 CFHTTPCookieCopyComment
PUBLIC 100429 0 CFHTTPCookieCopyCommentURL
PUBLIC 100495 0 CFHTTPCookieGetCreationTime
PUBLIC 1004ef 0 CFHTTPCookieCopyPortArray
PUBLIC 1005fe 0 void std::__1::vector<int, std::__1::allocator<int> >::__emplace_back_slow_path<unsigned int&>(unsigned int&&&)
PUBLIC 1006d2 0 std::__1::vector<std::__1::pair<void*, int>, std::__1::allocator<std::__1::pair<void*, int> > >::__swap_out_circular_buffer(std::__1::__split_buffer<std::__1::pair<void*, int>, std::__1::allocator<std::__1::pair<void*, int> >&>&)
PUBLIC 100738 0 CookieHostName::CookieHostName(__CFAllocator const*, __CFString const*)
PUBLIC 100768 0 CookieHostName::~CookieHostName()
PUBLIC 10079e 0 CFTypedBufferPossiblyOnStack<768l, unsigned short>::~CFTypedBufferPossiblyOnStack()
PUBLIC 1007a8 0 CookieUtils::looksLikeDomainName(unsigned char const*)
PUBLIC 1009ae 0 CookieUtils::shouldSetSecureCookie(OpaqueCFHTTPCookie const*, __CFURL const*)
PUBLIC 100a28 0 CookieUtils::addToSortedArray(__CFArray*, OpaqueCFHTTPCookie const*, CFAbsoluteTimeAsSpecified)
PUBLIC 100b62 0 _cookiePathDomainAndNameComparator(void const*, void const*, void*)
PUBLIC 100d4c 0 CFBufferPossiblyOnStack<1536l>::CFBufferPossiblyOnStack(__CFAllocator const*, long)
PUBLIC 100da4 0 CFTypedBufferPossiblyOnStack<768l, unsigned short>::~CFTypedBufferPossiblyOnStack()
PUBLIC 100dc0 0 CFBufferPossiblyOnStack<1536l>::~CFBufferPossiblyOnStack()
PUBLIC 100dca 0 CFBufferPossiblyOnStack<1536l>::~CFBufferPossiblyOnStack()
PUBLIC 100de6 0 CFBufferPossiblyOnStack<1536l>::~CFBufferPossiblyOnStack()
PUBLIC 100e1e 0 CFNObjC::ObjCMsgSend(objc_object*, objc_selector*)
PUBLIC 100e28 0 CFNObjC::ObjCMsgSend(objc_object*, objc_object*, objc_object*, objc_object*, objc_selector*)
PUBLIC 100e42 0 CFNObjC::Release(objc_object*)
PUBLIC 100e7f 0 ___ZN7CFNObjC7ReleaseEP11objc_object_block_invoke
PUBLIC 100e98 0 CFNObjC::Retain(objc_object*)
PUBLIC 100ed5 0 ___ZN7CFNObjC6RetainEP11objc_object_block_invoke
PUBLIC 100eee 0 CFNObjC::InitFromClassNameWithCFURLRequestRef(char const*, _CFURLRequest const*)
PUBLIC 100f5c 0 ___ZN7CFNObjC36InitFromClassNameWithCFURLRequestRefEPKcPK13_CFURLRequest_block_invoke
PUBLIC 100f88 0 CFNObjC::InitFromClassNameWithAccount(char const*, objc_object*)
PUBLIC 100ff6 0 ___ZN7CFNObjC28InitFromClassNameWithAccountEPKcP11objc_object_block_invoke
PUBLIC 101022 0 HSTSServer::ForgetStorageForIdentifier(__CFString const*, unsigned char)
PUBLIC 10106a 0 HSTSServer::createOrFindHSTSServerForIdentifier(__CFString const*, unsigned char)
PUBLIC 101195 0 ___ZN10HSTSServer35createOrFindHSTSServerForIdentifierEPK10__CFStringh_block_invoke
PUBLIC 1011f6 0 HSTSServer::initialize(unsigned char)
PUBLIC 101326 0 HSTSServer::~HSTSServer()
PUBLIC 10139a 0 HSTSServer::~HSTSServer()
PUBLIC 1013a4 0 non-virtual thunk to HSTSServer::~HSTSServer()
PUBLIC 1013b2 0 HSTSServer::~HSTSServer()
PUBLIC 1013ce 0 non-virtual thunk to HSTSServer::~HSTSServer()
PUBLIC 1013f2 0 HSTSServer::attachClient(NSObject<OS_xpc_object>*)
PUBLIC 101400 0 HSTSServer::detachClient(NSObject<OS_xpc_object>*)
PUBLIC 10142c 0 HSTSServer::copyHSTSDataWithCompletion(void (__CFData const*) block_pointer)
PUBLIC 101480 0 ___ZN10HSTSServer26copyHSTSDataWithCompletionEU13block_pointerFvPK8__CFDataE_block_invoke
PUBLIC 1014ba 0 __copy_helper_block_
PUBLIC 1014d1 0 __destroy_helper_block_
PUBLIC 1014e4 0 HSTSServer::modifyHSTSHost(__CFString const*, __CFDictionary const*, __CFDate const*)
PUBLIC 101581 0 ___ZN10HSTSServer14modifyHSTSHostEPK10__CFStringPK14__CFDictionaryPK8__CFDate_block_invoke
PUBLIC 1016a4 0 HSTSServer::copyDebugDesc() const
PUBLIC 1016ce 0 HSTSServer::getStorageServerType()
PUBLIC 1016d9 0 ___ZN11HSTSStorage15modifyHSTSHostsEPK10__CFStringPK14__CFDictionaryPK8__CFDate_block_invoke
PUBLIC 101734 0 RetainableTypedDict<__CFString const*, HSTSServer*>::~RetainableTypedDict()
PUBLIC 101754 0 RetainableTypedDict<__CFString const*, HSTSServer*>::~RetainableTypedDict()
PUBLIC 101783 0 formCopyProperty(__CFReadStream*, __CFString const*, void*)
PUBLIC 1017ce 0 FilePathStorage<unsigned char>::FilePathStorage(__CFURL const*, FilePathStorage<unsigned char>::ParentDirectoryRules, FilePathStorage<unsigned char>::CreateParentDirectoryRules, FilePathStorage<unsigned char>::ResolutionRules)
PUBLIC 1018e4 0 isEqualClass(objc_class*, objc_class*)
PUBLIC 10192b 0 +[__NSCFURLLocalStreamTaskWorkBlockOp opWithBlock:description:]
PUBLIC 101998 0 -[__NSCFURLLocalStreamTaskWorkBlockOp executeBlock]
PUBLIC 1019b2 0 -[__NSCFURLLocalStreamTaskWorkBlockOp shouldWaitForTLS]
PUBLIC 1019c3 0 -[__NSCFURLLocalStreamTaskWorkBlockOp markBlockAsWaitingOnTls:]
PUBLIC 1019d6 0 -[__NSCFURLLocalStreamTaskWorkBlockOp dealloc]
PUBLIC 101a28 0 -[__NSCFURLLocalStreamTaskWorkWrite dealloc]
PUBLIC 101a7a 0 -[__NSCFURLLocalStreamTaskWorkRead dealloc]
PUBLIC 101acc 0 -[__NSCFURLLocalStreamTaskWork initWithDescription:]
PUBLIC 101af9 0 -[__NSCFURLLocalStreamTaskWork _static_description]
PUBLIC 101b0a 0 -[__NSCFURLLocalStreamTaskWork description]
PUBLIC 101b63 0 CFCachedURLResponseGetTypeID
PUBLIC 101b84 0 __CFURLCache::AddCachedResponseIntoMemoryCache(_CFCachedURLResponse const*, __CFString const*)
PUBLIC 101c3c 0 __CFURLCache::AddCacheTask(std::__1::unique_ptr<__CFURLCacheNode, std::__1::default_delete<__CFURLCacheNode> >&)
PUBLIC 101c88 0 __CFURLCache::AddCacheTask0(std::__1::unique_ptr<__CFURLCacheNode, std::__1::default_delete<__CFURLCacheNode> >&)
PUBLIC 101f0c 0 __CFCachedURLResponse::SetRequest(_CFURLRequest const*)
PUBLIC 101f40 0 __CFURLCache::RemoveCachedResponseForRequest(_CFURLRequest const*, __CFString const*)
PUBLIC 10201f 0 __CFURLCacheCreateInternal(__CFAllocator const*, long, long, __CFString const*, bool, bool)
PUBLIC 1023c8 0 ___Z26__CFURLCacheCreateInternalPK13__CFAllocatorllPK10__CFStringbb_block_invoke
PUBLIC 1023fc 0 __CFURLCache::readCacheCacheSetFromDisk()
PUBLIC 10262e 0 ___Z26__CFURLCacheCreateInternalPK13__CFAllocatorllPK10__CFStringbb_block_invoke_2
PUBLIC 102660 0 __CFURLCache::writeCacheCacheSetToDisk()
PUBLIC 10289b 0 _CFURLCacheCreateFromSessionIdentifier
PUBLIC 1029ec 0 __CFURLCache::CopyResponseForRequestWithCompletionHandler(_CFURLRequest const*, bool, NSURLSession const*, void (_CFCachedURLResponse const*) block_pointer)
PUBLIC 102c9e 0 __copy_helper_block_
PUBLIC 102cd6 0 __destroy_helper_block_
PUBLIC 102d01 0 _CFURLCacheDisableTimeRelativeLookup
PUBLIC 102d1c 0 _CFURLCacheCopyAllHostNamesInPersistentStoreForPartition
PUBLIC 102d34 0 __CFURLCache::copyAllHostNamesInPersistentStoreForPartition(__CFString const*)
PUBLIC 102fab 0 _CFURLCacheCopyAllHostNamesInPersistentStore
PUBLIC 102fc4 0 _CFURLCacheDeleteHostNamesInPersistentStore
PUBLIC 102fe0 0 __CFURLCache::deleteAllHostNamesInPersistentStoreForPartition(__CFArray const*, __CFString const*)
PUBLIC 103088 0 _CFURLCacheDeleteHostNamesInPersistentStoreForPartition
PUBLIC 1030a2 0 _CFURLCacheCopyAllPartitionNames
PUBLIC 1030c8 0 __CFURLCache::copyAllPartitionNames(void (__CFArray const*) block_pointer)
PUBLIC 103338 0 ___Z53__CFURLCacheCopyResponseForRequestInternalWithSessionPK11_CFURLCachePK13_CFURLRequesthPK12NSURLSession_block_invoke
PUBLIC 103366 0 __copy_helper_block_.13
PUBLIC 10337d 0 __destroy_helper_block_.14
PUBLIC 103390 0 CFCachedURLResponseGetNSCachedURLResponse
PUBLIC 10342a 0 __CFURLCacheIsVaryHeaderSupportEnabled
PUBLIC 1034a8 0 __CFURLCacheVaryStateForURL
PUBLIC 103522 0 __CFURLCache::_varyStateForURL(__CFString const*)
PUBLIC 1036d7 0 __CFURLCacheUpdateVaryStateForURL
PUBLIC 10375c 0 __CFURLCache::_updateVaryStateForURL(__CFString const*, __CFString const*)
PUBLIC 1038ff 0 __CFURLCacheAddCachedResponseForRequestWithSession(_CFURLCache const*, NSURLSession const*, _CFCachedURLResponse const*, _CFURLRequest const*, void const*)
PUBLIC 103cd0 0 ___Z50__CFURLCacheAddCachedResponseForRequestWithSessionPK11_CFURLCachePK12NSURLSessionPK20_CFCachedURLResponsePK13_CFURLRequestPKv_block_invoke
PUBLIC 103d43 0 _CFURLCacheAddCachedResponseForRequestWithSession(_CFURLCache const*, NSURLSession const*, _CFCachedURLResponse const*, _CFURLRequest const*, void const*)
PUBLIC 103de1 0 CFURLCacheRemoveCachedResponseForRequest
PUBLIC 103f62 0 CFURLCacheRemoveAllCachedResponses
PUBLIC 103fce 0 __CFURLCache::removeCachedResponsesSinceDate(__CFDate const*)
PUBLIC 10405c 0 _CFURLCacheSetMemoryLimit
PUBLIC 10411b 0 _CFURLCacheSetCacheEventCallBackBlock
PUBLIC 1041ab 0 _CFURLCacheSetMinSizeForVMCachedResource
PUBLIC 1041c0 0 __CFURLCache::setMinSizeForVMCachedResource(long)
PUBLIC 10425a 0 _CFURLCacheSetMaxSingleEntryPercentage
PUBLIC 1042b9 0 _CFURLCacheIsResponseDataMemMapped
PUBLIC 10433d 0 _CFCachedURLResponseSetBecameFileBackedCallBackBlock
PUBLIC 104534 0 ___CFCachedURLResponseSetBecameFileBackedCallBackBlock_block_invoke
PUBLIC 1045bb 0 __copy_helper_block_.49
PUBLIC 1045d2 0 __destroy_helper_block_.50
PUBLIC 1045e5 0 _CFCachedURLResponseGetMemMappedData
PUBLIC 104608 0 CFURLCacheCurrentMemoryUsage
PUBLIC 104669 0 CFURLCacheCurrentDiskUsage
PUBLIC 1046cc 0 CFCachedURLResponseCreateWithData
PUBLIC 104750 0 _CFCachedURLResponseSetWrappedRequest
PUBLIC 104789 0 _CFCachedURLResponseSetKey
PUBLIC 10479e 0 CFCachedURLResponseGetReceiverData
PUBLIC 1047b7 0 CFCachedURLResponseCopyReceiverData
PUBLIC 1047ce 0 __CFCachedURLResponse::CopyReceiverData()
PUBLIC 10481a 0 CFCachedURLResponseSetStoragePolicy
PUBLIC 10482c 0 __CFCachedURLResponse::__CFCachedURLResponse(_CFURLResponse*, __CFData const*)
PUBLIC 10490c 0 __CFCachedURLResponse::~__CFCachedURLResponse()
PUBLIC 104916 0 __CFCachedURLResponse::EncodeUserInfo()
PUBLIC 1049d6 0 __CFURLCache::__CFURLCache(_CFURLCache const*, long, long, __CFString const*, __CFString const*, bool)
PUBLIC 104f4d 0 ___ZN12__CFURLCacheC2EPK11_CFURLCachellPK10__CFStringS5_b_block_invoke
PUBLIC 105148 0 __CFURLCache::_createVaryStateTable()
PUBLIC 1051c4 0 __CFURLCache::~__CFURLCache()
PUBLIC 1054f4 0 __CFURLCache::~__CFURLCache()
PUBLIC 1054fe 0 __CFURLCache::~__CFURLCache()
PUBLIC 10551b 0 __Block_byref_object_copy_
PUBLIC 105533 0 __Block_byref_object_dispose_
PUBLIC 105548 0 ___ZN12__CFURLCache21copyAllPartitionNamesEU13block_pointerFvPK9__CFArrayE_block_invoke
PUBLIC 1055dc 0 __copy_helper_block_.115
PUBLIC 10562e 0 __destroy_helper_block_.116
PUBLIC 10566a 0 ___ZN12__CFURLCache45copyAllHostNamesInPersistentStoreForPartitionEPK10__CFString_block_invoke
PUBLIC 1056d5 0 __copy_helper_block_.125
PUBLIC 105717 0 __destroy_helper_block_.126
PUBLIC 105746 0 ___ZN12__CFURLCache13logCacheEventE19CFURLCacheEventTypePK13_CFURLRequest_block_invoke
PUBLIC 10579c 0 __CFURLCache::testCacheCacheSetForIndex(unsigned long)
PUBLIC 1057fe 0 __CFURLCache::calloutForAsyncDiskCache(__CFString const*, _CFURLRequest const*, NSURLSession const*, void (_CFCachedURLResponse const*) block_pointer)
PUBLIC 105bbd 0 ___ZN12__CFURLCache43CopyResponseForRequestWithCompletionHandlerEPK13_CFURLRequestbPK12NSURLSessionU13block_pointerFvPK20_CFCachedURLResponseE_block_invoke
PUBLIC 105bfb 0 __copy_helper_block_.144
PUBLIC 105c33 0 __destroy_helper_block_.145
PUBLIC 105c5e 0 __CFURLCache::PurgeMemoryCache()
PUBLIC 105cda 0 __CFURLCache::PurgePersistentCache()
PUBLIC 105e66 0 __CFURLCache::CurrentDiskUsage()
PUBLIC 105ee2 0 __CFURLCache::removeCacheCacheSetFromDisk()
PUBLIC 105f74 0 ___ZN12__CFURLCache20PurgePersistentCacheEv_block_invoke
PUBLIC 105f8a 0 __CFURLCache::setCacheCacheSetFilePath(char const*)
PUBLIC 105fde 0 __CFURLCache::getCacheCacheSetFile()
PUBLIC 106077 0 ___ZN12__CFURLCache20getCacheCacheSetFileEv_block_invoke
PUBLIC 10616a 0 __copy_helper_block_.177
PUBLIC 106181 0 __destroy_helper_block_.178
PUBLIC 106194 0 std::__1::basic_istream<char, std::__1::char_traits<char> >& std::__1::operator>><char, std::__1::char_traits<char>, 32768ul>(std::__1::basic_istream<char, std::__1::char_traits<char> >&, std::__1::bitset<32768ul>&)
PUBLIC 106380 0 std::__1::basic_ifstream<char, std::__1::char_traits<char> >::~basic_ifstream()
PUBLIC 1063d2 0 std::__1::basic_ostream<char, std::__1::char_traits<char> >& std::__1::operator<<<char, std::__1::char_traits<char>, 32768ul>(std::__1::basic_ostream<char, std::__1::char_traits<char> >&, std::__1::bitset<32768ul> const&)
PUBLIC 1064f2 0 std::__1::basic_ofstream<char, std::__1::char_traits<char> >::~basic_ofstream()
PUBLIC 106544 0 __CFURLCache::updateCacheCacheSetForIndex(unsigned long)
PUBLIC 1065b6 0 __Block_byref_object_copy_.182
PUBLIC 1065cd 0 __Block_byref_object_dispose_.183
PUBLIC 1065e0 0 ___ZN12__CFURLCache23CreateAndStoreCacheNodeEP16__CFURLCacheNodePK20_CFCachedURLResponsePK10__CFStringPK13_CFURLRequestPKvbRb_block_invoke
PUBLIC 107079 0 __copy_helper_block_.194
PUBLIC 1070e7 0 __destroy_helper_block_.195
PUBLIC 10713c 0 __CFURLCache::PersistMemoryCacheNow()
PUBLIC 1071a2 0 ___ZN12__CFURLCache33RemoveResponseFromCacheContainersEP16__CFURLCacheNodePK20_CFCachedURLResponsePK10__CFStringb_block_invoke
PUBLIC 1071b0 0 __copy_helper_block_.197
PUBLIC 1071c7 0 __destroy_helper_block_.198
PUBLIC 1071da 0 __CFURLCacheNode::~__CFURLCacheNode()
PUBLIC 1071e5 0 __copy_helper_block_.203
PUBLIC 1071fc 0 __destroy_helper_block_.204
PUBLIC 10720f 0 ___ZN12__CFURLCache24DelayWriteOperationQueueEv_block_invoke.206
PUBLIC 1072e7 0 __copy_helper_block_.207
PUBLIC 10731f 0 __destroy_helper_block_.208
PUBLIC 10734a 0 ___ZN12__CFURLCache16_varyStateForURLEPK10__CFString_block_invoke
PUBLIC 107360 0 select_callback(void*, int, char**, char**)
PUBLIC 1074cd 0 ___ZN12__CFURLCache22_updateVaryStateForURLEPK10__CFStringS2__block_invoke
PUBLIC 1074e3 0 _CFURLCachePurgeMemoryCache
PUBLIC 1074f1 0 _CFURLCacheLoadMemoryFromDiskNow
PUBLIC 1074f7 0 _CFURLCachePersistMemoryToDiskNow
PUBLIC 10754f 0 shim_CFURLResponseCopyPropertyList
PUBLIC 107578 0 shim_CFURLRequestCopyPropertyList
PUBLIC 107582 0 _CFCachedURLResponseGetHashedKey
PUBLIC 10759f 0 _CFCachedURLGetEncodedUserInfoPtr
PUBLIC 1075c4 0 _CFURLCacheCreateFS1
PUBLIC 10761c 0 _CFURLCacheCreateFS3
PUBLIC 107680 0 _CFCachedURLResponseStoragePolicy
PUBLIC 107699 0 _CFCachedURLResponseGetEncodedReceiverDataLength
PUBLIC 1076b5 0 _CFCachedURLResponseGetEncodedUserInfoLength
PUBLIC 1076da 0 _CFCachedURLResponseGetSizeOfData
PUBLIC 1076f1 0 _CreateCanonicalURL
PUBLIC 1076fc 0 _CFURLCacheDeallocate(void const*)
PUBLIC 107711 0 _CFURLCacheEqual(void const*, void const*)
PUBLIC 107724 0 _CFURLCacheHash(void const*)
PUBLIC 107735 0 _CFURLCacheCopyDescription(void const*)
PUBLIC 107777 0 _CFCachedURLResponseEqual(void const*, void const*)
PUBLIC 10778a 0 _CFCachedURLResponseHash(void const*)
PUBLIC 107798 0 _CFCachedURLResponseCopyDescription(void const*)
PUBLIC 1077da 0 ___ZN21__CFCachedURLResponse22GetNSCachedURLResponseEv_block_invoke
PUBLIC 1077ec 0 std::__1::__deque_base<__CFURLCacheNode*, std::__1::allocator<__CFURLCacheNode*> >::~__deque_base()
PUBLIC 10782e 0 std::__1::__deque_base<__CFURLCacheNode*, std::__1::allocator<__CFURLCacheNode*> >::clear()
PUBLIC 107906 0 std::__1::__split_buffer<__CFURLCacheNode**, std::__1::allocator<__CFURLCacheNode**> >::~__split_buffer()
PUBLIC 10793c 0 std::__1::__hash_table<std::__1::__hash_value_type<int, __CFURLCacheNode*>, std::__1::__unordered_map_hasher<int, std::__1::__hash_value_type<int, __CFURLCacheNode*>, __CFURLCache__::HashFunc, true>, std::__1::__unordered_map_equal<int, std::__1::__hash_value_type<int, __CFURLCacheNode*>, std::__1::equal_to<int>, true>, std::__1::allocator<std::__1::__hash_value_type<int, __CFURLCacheNode*> > >::~__hash_table()
PUBLIC 10797a 0 virtual thunk to std::__1::basic_ifstream<char, std::__1::char_traits<char> >::~basic_ifstream()
PUBLIC 1079d6 0 virtual thunk to std::__1::basic_ifstream<char, std::__1::char_traits<char> >::~basic_ifstream()
PUBLIC 107a3a 0 std::__1::basic_filebuf<char, std::__1::char_traits<char> >::~basic_filebuf()
PUBLIC 107a44 0 std::__1::basic_filebuf<char, std::__1::char_traits<char> >::underflow()
PUBLIC 107c6c 0 std::__1::basic_filebuf<char, std::__1::char_traits<char> >::pbackfail(int)
PUBLIC 107cb4 0 std::__1::basic_filebuf<char, std::__1::char_traits<char> >::overflow(int)
PUBLIC 107eba 0 std::__1::basic_filebuf<char, std::__1::char_traits<char> >::__read_mode()
PUBLIC 107f12 0 std::__1::basic_filebuf<char, std::__1::char_traits<char> >::__write_mode()
PUBLIC 107f8c 0 virtual thunk to std::__1::basic_ofstream<char, std::__1::char_traits<char> >::~basic_ofstream()
PUBLIC 107fe8 0 std::__1::basic_ofstream<char, std::__1::char_traits<char> >::~basic_ofstream()
PUBLIC 108042 0 virtual thunk to std::__1::basic_ofstream<char, std::__1::char_traits<char> >::~basic_ofstream()
PUBLIC 1080a6 0 ___ZL55createEncodedCachedResponseAndRequestForXPCTransmissionPK20_CFCachedURLResponsePK13_CFURLRequest_block_invoke
PUBLIC 1080c3 0 ___ZL39notifyCachedURLResponseBecameFileBackedPK20_CFCachedURLResponse_block_invoke
PUBLIC 108102 0 std::__1::__shared_ptr_pointer<__CFArray const*, Deleter_CFRelease, std::__1::allocator<__CFArray const> >::~__shared_ptr_pointer()
PUBLIC 10810c 0 std::__1::shared_ptr<__CFURLCache> std::__1::shared_ptr<__CFURLCache>::make_shared<_CFURLCache const*&, long&, long&, __CFString const*&, __CFString const*&, bool&>(_CFURLCache const*&&&, long&&&, long&&&, __CFString const*&&&, __CFString const*&&&, bool&&&)
PUBLIC 108204 0 std::__1::__shared_ptr_emplace<__CFURLCache, std::__1::allocator<__CFURLCache> >::~__shared_ptr_emplace()
PUBLIC 108232 0 std::__1::__shared_ptr_emplace<__CFURLCache, std::__1::allocator<__CFURLCache> >::~__shared_ptr_emplace()
PUBLIC 108268 0 SmartBlockWithArgs<__CFArray const*>::SmartBlockWithArgs(void (__CFArray const*) block_pointer)
PUBLIC 108302 0 BlockHolderVar<__CFArray const*>::invoke_initial(__CFArray const*)
PUBLIC 108322 0 BlockHolderVar<__CFArray const*>::invoke_normal(__CFArray const*)
PUBLIC 108330 0 std::__1::__shared_ptr_pointer<BlockHolderVar<__CFArray const*>*, SmartBlockWithArgs<__CFArray const*>::Deleter, std::__1::allocator<BlockHolderVar<__CFArray const*> > >::~__shared_ptr_pointer()
PUBLIC 10833a 0 std::__1::__shared_ptr_pointer<BlockHolderVar<__CFArray const*>*, SmartBlockWithArgs<__CFArray const*>::Deleter, std::__1::allocator<BlockHolderVar<__CFArray const*> > >::~__shared_ptr_pointer()
PUBLIC 108356 0 std::__1::__shared_ptr_pointer<BlockHolderVar<__CFArray const*>*, SmartBlockWithArgs<__CFArray const*>::Deleter, std::__1::allocator<BlockHolderVar<__CFArray const*> > >::__on_zero_shared()
PUBLIC 1083b6 0 BlockHolderVar<__CFArray const*>::invoke_reseted(__CFArray const*)
PUBLIC 1083bc 0 std::__1::__shared_ptr_pointer<NSObject<OS_dispatch_semaphore>*, __CFURLCache::copyAllPartitionNames(void (__CFArray const*) block_pointer)::$_0, std::__1::allocator<NSObject<OS_dispatch_semaphore> > >::~__shared_ptr_pointer()
PUBLIC 1083c6 0 std::__1::__shared_ptr_pointer<NSObject<OS_dispatch_semaphore>*, __CFURLCache::copyAllPartitionNames(void (__CFArray const*) block_pointer)::$_0, std::__1::allocator<NSObject<OS_dispatch_semaphore> > >::~__shared_ptr_pointer()
PUBLIC 1083e2 0 std::__1::__shared_ptr_pointer<NSObject<OS_dispatch_semaphore>*, __CFURLCache::copyAllPartitionNames(void (__CFArray const*) block_pointer)::$_0, std::__1::allocator<NSObject<OS_dispatch_semaphore> > >::__on_zero_shared()
PUBLIC 1083f8 0 std::__1::__shared_ptr_pointer<NSObject<OS_dispatch_semaphore>*, __CFURLCache::copyAllPartitionNames(void (__CFArray const*) block_pointer)::$_0, std::__1::allocator<NSObject<OS_dispatch_semaphore> > >::__on_zero_shared_weak()
PUBLIC 108402 0 std::__1::__shared_ptr_pointer<NSObject<OS_dispatch_semaphore>*, __CFURLCache::copyAllHostNamesInPersistentStoreForPartition(__CFString const*)::$_1, std::__1::allocator<NSObject<OS_dispatch_semaphore> > >::~__shared_ptr_pointer()
PUBLIC 10840c 0 std::__1::__shared_ptr_pointer<NSObject<OS_dispatch_semaphore>*, __CFURLCache::copyAllHostNamesInPersistentStoreForPartition(__CFString const*)::$_1, std::__1::allocator<NSObject<OS_dispatch_semaphore> > >::~__shared_ptr_pointer()
PUBLIC 108428 0 std::__1::__shared_ptr_pointer<NSObject<OS_dispatch_semaphore>*, __CFURLCache::copyAllHostNamesInPersistentStoreForPartition(__CFString const*)::$_1, std::__1::allocator<NSObject<OS_dispatch_semaphore> > >::__on_zero_shared()
PUBLIC 10843e 0 std::__1::__shared_ptr_pointer<NSObject<OS_dispatch_semaphore>*, __CFURLCache::copyAllHostNamesInPersistentStoreForPartition(__CFString const*)::$_1, std::__1::allocator<NSObject<OS_dispatch_semaphore> > >::__on_zero_shared_weak()
PUBLIC 108448 0 std::__1::shared_ptr<ConditionalConnectionSIMScheduler>::shared_ptr<ConditionalConnectionSIMScheduler>(std::__1::weak_ptr<ConditionalConnectionSIMScheduler> const&, std::__1::enable_if<is_convertible<ConditionalConnectionSIMScheduler*, ConditionalConnectionSIMScheduler*>::value, std::__1::shared_ptr<ConditionalConnectionSIMScheduler>::__nat>::type)
PUBLIC 108482 0 std::__1::__hash_table<std::__1::__hash_value_type<int, __CFURLCacheNode*>, std::__1::__unordered_map_hasher<int, std::__1::__hash_value_type<int, __CFURLCacheNode*>, __CFURLCache__::HashFunc, true>, std::__1::__unordered_map_equal<int, std::__1::__hash_value_type<int, __CFURLCacheNode*>, std::__1::equal_to<int>, true>, std::__1::allocator<std::__1::__hash_value_type<int, __CFURLCacheNode*> > >::clear()
PUBLIC 1084e0 0 std::__1::bitset<32768ul>::bitset<char, std::__1::char_traits<char>, std::__1::allocator<char> >(std::__1::basic_string<char, std::__1::char_traits<char>, std::__1::allocator<char> > const&, std::__1::basic_string<char, std::__1::char_traits<char>, std::__1::allocator<char> >::size_type, std::__1::basic_string<char, std::__1::char_traits<char>, std::__1::allocator<char> >::size_type, char, char)
PUBLIC 108621 0 void std::__1::__fill_n_false<std::__1::__bitset<512ul, 32768ul> >(std::__1::__bit_iterator<std::__1::__bitset<512ul, 32768ul>, false, 0>, std::__1::__bitset<512ul, 32768ul>::size_type)
PUBLIC 1086cc 0 std::__1::ostreambuf_iterator<char, std::__1::char_traits<char> > std::__1::__pad_and_output<char, std::__1::char_traits<char> >(std::__1::ostreambuf_iterator<char, std::__1::char_traits<char> >, char const*, char const*, char const*, std::__1::ios_base&, char)
PUBLIC 108830 0 std::__1::basic_string<char, std::__1::char_traits<char>, std::__1::allocator<char> > std::__1::bitset<32768ul>::to_string<char, std::__1::char_traits<char>, std::__1::allocator<char> >(char, char) const
PUBLIC 1088d8 0 std::__1::__hash_table<std::__1::__hash_value_type<int, __CFURLCacheNode*>, std::__1::__unordered_map_hasher<int, std::__1::__hash_value_type<int, __CFURLCacheNode*>, __CFURLCache__::HashFunc, true>, std::__1::__unordered_map_equal<int, std::__1::__hash_value_type<int, __CFURLCacheNode*>, std::__1::equal_to<int>, true>, std::__1::allocator<std::__1::__hash_value_type<int, __CFURLCacheNode*> > >::rehash(unsigned long)
PUBLIC 1089e6 0 std::__1::__hash_table<std::__1::__hash_value_type<int, __CFURLCacheNode*>, std::__1::__unordered_map_hasher<int, std::__1::__hash_value_type<int, __CFURLCacheNode*>, __CFURLCache__::HashFunc, true>, std::__1::__unordered_map_equal<int, std::__1::__hash_value_type<int, __CFURLCacheNode*>, std::__1::equal_to<int>, true>, std::__1::allocator<std::__1::__hash_value_type<int, __CFURLCacheNode*> > >::__rehash(unsigned long)
PUBLIC 108b2e 0 std::__1::__split_buffer<__CFURLCacheNode**, std::__1::allocator<__CFURLCacheNode**> >::push_front(__CFURLCacheNode** const&)
PUBLIC 108c8a 0 std::__1::__split_buffer<__CFURLCacheNode**, std::__1::allocator<__CFURLCacheNode**> >::push_front(__CFURLCacheNode**&&)
PUBLIC 108de6 0 std::__1::__split_buffer<__CFURLCacheNode**, std::__1::allocator<__CFURLCacheNode**> >::push_back(__CFURLCacheNode**&&)
PUBLIC 108f40 0 std::__1::__split_buffer<__CFURLCacheNode**, std::__1::allocator<__CFURLCacheNode**>&>::__split_buffer(unsigned long, unsigned long, std::__1::allocator<__CFURLCacheNode**>&)
PUBLIC 108f9f 0 std::__1::__deque_iterator<__CFURLCacheNode*, __CFURLCacheNode**, __CFURLCacheNode*&, __CFURLCacheNode***, long, 512l> std::__1::move_backward<__CFURLCacheNode*, __CFURLCacheNode**, __CFURLCacheNode*&, __CFURLCacheNode***, long, 512l, __CFURLCacheNode*, __CFURLCacheNode**, __CFURLCacheNode*&, __CFURLCacheNode***, long, 512l>(std::__1::__deque_iterator<__CFURLCacheNode*, __CFURLCacheNode**, __CFURLCacheNode*&, __CFURLCacheNode***, long, 512l>, std::__1::__deque_iterator<__CFURLCacheNode*, __CFURLCacheNode**, __CFURLCacheNode*&, __CFURLCacheNode***, long, 512l>, std::__1::__deque_iterator<__CFURLCacheNode*, __CFURLCacheNode**, __CFURLCacheNode*&, __CFURLCacheNode***, long, 512l>)
PUBLIC 1090c5 0 std::__1::__deque_iterator<__CFURLCacheNode*, __CFURLCacheNode**, __CFURLCacheNode*&, __CFURLCacheNode***, long, 512l> std::__1::move<__CFURLCacheNode*, __CFURLCacheNode**, __CFURLCacheNode*&, __CFURLCacheNode***, long, 512l, __CFURLCacheNode*, __CFURLCacheNode**, __CFURLCacheNode*&, __CFURLCacheNode***, long, 512l>(std::__1::__deque_iterator<__CFURLCacheNode*, __CFURLCacheNode**, __CFURLCacheNode*&, __CFURLCacheNode***, long, 512l>, std::__1::__deque_iterator<__CFURLCacheNode*, __CFURLCacheNode**, __CFURLCacheNode*&, __CFURLCacheNode***, long, 512l>, std::__1::__deque_iterator<__CFURLCacheNode*, __CFURLCacheNode**, __CFURLCacheNode*&, __CFURLCacheNode***, long, 512l>)
PUBLIC 1091cd 0 std::__1::__deque_iterator<__CFURLCacheNode*, __CFURLCacheNode**, __CFURLCacheNode*&, __CFURLCacheNode***, long, 512l> std::__1::move_backward<__CFURLCacheNode**, __CFURLCacheNode*, __CFURLCacheNode**, __CFURLCacheNode*&, __CFURLCacheNode***, long, 512l>(__CFURLCacheNode**, __CFURLCacheNode**, std::__1::__deque_iterator<__CFURLCacheNode*, __CFURLCacheNode**, __CFURLCacheNode*&, __CFURLCacheNode***, long, 512l>, std::__1::enable_if<__is_random_access_iterator<__CFURLCacheNode**>::value, void>::type*)
PUBLIC 109330 0 std::__1::__deque_iterator<__CFURLCacheNode*, __CFURLCacheNode**, __CFURLCacheNode*&, __CFURLCacheNode***, long, 512l> std::__1::move<__CFURLCacheNode**, __CFURLCacheNode*, __CFURLCacheNode**, __CFURLCacheNode*&, __CFURLCacheNode***, long, 512l>(__CFURLCacheNode**, __CFURLCacheNode**, std::__1::__deque_iterator<__CFURLCacheNode*, __CFURLCacheNode**, __CFURLCacheNode*&, __CFURLCacheNode***, long, 512l>, std::__1::enable_if<__is_random_access_iterator<__CFURLCacheNode**>::value, void>::type*)
PUBLIC 109418 0 unsigned long std::__1::__hash_table<std::__1::__hash_value_type<int, __CFURLCacheNode*>, std::__1::__unordered_map_hasher<int, std::__1::__hash_value_type<int, __CFURLCacheNode*>, __CFURLCache__::HashFunc, true>, std::__1::__unordered_map_equal<int, std::__1::__hash_value_type<int, __CFURLCacheNode*>, std::__1::equal_to<int>, true>, std::__1::allocator<std::__1::__hash_value_type<int, __CFURLCacheNode*> > >::__erase_unique<int>(int const&)
PUBLIC 109446 0 std::__1::__hash_iterator<std::__1::__hash_node<std::__1::__hash_value_type<int, __CFURLCacheNode*>, void*>*> std::__1::__hash_table<std::__1::__hash_value_type<int, __CFURLCacheNode*>, std::__1::__unordered_map_hasher<int, std::__1::__hash_value_type<int, __CFURLCacheNode*>, __CFURLCache__::HashFunc, true>, std::__1::__unordered_map_equal<int, std::__1::__hash_value_type<int, __CFURLCacheNode*>, std::__1::equal_to<int>, true>, std::__1::allocator<std::__1::__hash_value_type<int, __CFURLCacheNode*> > >::find<int>(int const&)
PUBLIC 1094d0 0 std::__1::__hash_table<std::__1::__hash_value_type<int, __CFURLCacheNode*>, std::__1::__unordered_map_hasher<int, std::__1::__hash_value_type<int, __CFURLCacheNode*>, __CFURLCache__::HashFunc, true>, std::__1::__unordered_map_equal<int, std::__1::__hash_value_type<int, __CFURLCacheNode*>, std::__1::equal_to<int>, true>, std::__1::allocator<std::__1::__hash_value_type<int, __CFURLCacheNode*> > >::erase(std::__1::__hash_const_iterator<std::__1::__hash_node<std::__1::__hash_value_type<int, __CFURLCacheNode*>, void*>*>)
PUBLIC 109514 0 std::__1::__hash_table<std::__1::__hash_value_type<int, __CFURLCacheNode*>, std::__1::__unordered_map_hasher<int, std::__1::__hash_value_type<int, __CFURLCacheNode*>, __CFURLCache__::HashFunc, true>, std::__1::__unordered_map_equal<int, std::__1::__hash_value_type<int, __CFURLCacheNode*>, std::__1::equal_to<int>, true>, std::__1::allocator<std::__1::__hash_value_type<int, __CFURLCacheNode*> > >::remove(std::__1::__hash_const_iterator<std::__1::__hash_node<std::__1::__hash_value_type<int, __CFURLCacheNode*>, void*>*>)
PUBLIC 109606 0 -[TheServerPorterHolderOfPower initWithPort:]
PUBLIC 10965c 0 -[TheServerPorterHolderOfPower serverPort]
PUBLIC 10966c 0 -[TheServerPorterHolderOfPower setServerPort:]
PUBLIC 10967c 0 -[TestDelegate24722429 URLSession:task:didReceiveChallenge:completionHandler:]
PUBLIC 1096d1 0 -[TestDelegate24722429 URLSession:task:willPerformHTTPRedirection:newRequest:completionHandler:]
PUBLIC 1096e3 0 _CFNetworkUnitTestQueryStringPreventsAuth_24722429
PUBLIC 109c8c 0 TCPServer::respondToReplies(std::__1::vector<std::__1::basic_string<char, std::__1::char_traits<char>, std::__1::allocator<char> >, std::__1::allocator<std::__1::basic_string<char, std::__1::char_traits<char>, std::__1::allocator<char> > > >&&)
PUBLIC 109d17 0 -[TestDelegate24725687 URLSession:task:didCompleteWithError:]
PUBLIC 109e66 0 _CFNetworkUnitTestQueryStringPreventsAuth_24725687
PUBLIC 10a3f3 0 -[TestDelegateParentDirAuthCheck URLSession:task:didReceiveChallenge:completionHandler:]
PUBLIC 10a4d0 0 -[TestDelegateParentDirAuthCheck URLSession:task:didCompleteWithError:]
PUBLIC 10a5b7 0 _CFNetworkUnitTestParentDirAuthCheck
PUBLIC 10aa91 0 -[TestDelegatetAuthSlashFirstRequest URLSession:task:didReceiveChallenge:completionHandler:]
PUBLIC 10ab6e 0 -[TestDelegatetAuthSlashFirstRequest URLSession:task:didCompleteWithError:]
PUBLIC 10ac55 0 _CFNetworkUnitTestAuthSlashFirstRequest
PUBLIC 10b0e6 0 _CFNetworkUnitTestDigestAuthNonceCount
PUBLIC 10b452 0 DigestTCPServer::respondToReplies(std::__1::vector<std::__1::basic_string<char, std::__1::char_traits<char>, std::__1::allocator<char> >, std::__1::allocator<std::__1::basic_string<char, std::__1::char_traits<char>, std::__1::allocator<char> > > >&&)
PUBLIC 10b4dd 0 ___CFNetworkUnitTestDigestAuthNonceCount_block_invoke
PUBLIC 10b52b 0 __copy_helper_block_
PUBLIC 10b575 0 __destroy_helper_block_
PUBLIC 10b5ae 0 void std::__1::vector<std::__1::basic_string<char, std::__1::char_traits<char>, std::__1::allocator<char> >, std::__1::allocator<std::__1::basic_string<char, std::__1::char_traits<char>, std::__1::allocator<char> > > >::__push_back_slow_path<std::__1::basic_string<char, std::__1::char_traits<char>, std::__1::allocator<char> > const&>(std::__1::basic_string<char, std::__1::char_traits<char>, std::__1::allocator<char> > const&&&)
PUBLIC 10b706 0 std::__1::__split_buffer<std::__1::basic_string<char, std::__1::char_traits<char>, std::__1::allocator<char> >, std::__1::allocator<std::__1::basic_string<char, std::__1::char_traits<char>, std::__1::allocator<char> > >&>::__split_buffer(unsigned long, unsigned long, std::__1::allocator<std::__1::basic_string<char, std::__1::char_traits<char>, std::__1::allocator<char> > >&)
PUBLIC 10b779 0 void* std::__1::__thread_proxy<std::__1::tuple<std::__1::unique_ptr<std::__1::__thread_struct, std::__1::default_delete<std::__1::__thread_struct> >, void (TCPServer::*)(), TCPServer*> >(void*)
PUBLIC 10b824 0 std::__1::__vector_base<std::__1::basic_string<char, std::__1::char_traits<char>, std::__1::allocator<char> >, std::__1::allocator<std::__1::basic_string<char, std::__1::char_traits<char>, std::__1::allocator<char> > > >::~__vector_base()
PUBLIC 10b876 0 std::__1::vector<std::__1::basic_string<char, std::__1::char_traits<char>, std::__1::allocator<char> >, std::__1::allocator<std::__1::basic_string<char, std::__1::char_traits<char>, std::__1::allocator<char> > > >::vector(std::__1::vector<std::__1::basic_string<char, std::__1::char_traits<char>, std::__1::allocator<char> >, std::__1::allocator<std::__1::basic_string<char, std::__1::char_traits<char>, std::__1::allocator<char> > > > const&)
PUBLIC 10b904 0 std::__1::vector<std::__1::basic_string<char, std::__1::char_traits<char>, std::__1::allocator<char> >, std::__1::allocator<std::__1::basic_string<char, std::__1::char_traits<char>, std::__1::allocator<char> > > >::allocate(unsigned long)
PUBLIC 10b948 0 DigestTCPServer::requestReplyLoop()
PUBLIC 10bf90 0 DigestTCPServer::checkNonceCountValueFromRequest(std::__1::basic_string<char, std::__1::char_traits<char>, std::__1::allocator<char> >, int&)
PUBLIC 10c19e 0 std::__1::thread::thread<void (DigestTCPServer::*)(), DigestTCPServer*, void>(void (DigestTCPServer::*&&)(), DigestTCPServer*&&)
PUBLIC 10c265 0 void* std::__1::__thread_proxy<std::__1::tuple<std::__1::unique_ptr<std::__1::__thread_struct, std::__1::default_delete<std::__1::__thread_struct> >, void (DigestTCPServer::*)(), DigestTCPServer*> >(void*)
PUBLIC 10c310 0 ___ZN19TCPIOConnectionTest20observablePropertiesEv_block_invoke
PUBLIC 10c340 0 HTTP2Connection::Class()
PUBLIC 10c36c 0 ___ZN15HTTP2Connection5ClassEv_block_invoke
PUBLIC 10c39c 0 HTTP2Connection::HTTP2Connection(__CFAllocator const*)
PUBLIC 10c550 0 HTTP2Connection::HTTP2Connection(__CFAllocator const*)
PUBLIC 10c55a 0 HTTP2Connection::~HTTP2Connection()
PUBLIC 10c6ce 0 RetainableTypedDict<__CFNumber const*, __CFDictionary*>::~RetainableTypedDict()
PUBLIC 10c6ee 0 HTTP2Connection::~HTTP2Connection()
PUBLIC 10c6f8 0 non-virtual thunk to HTTP2Connection::~HTTP2Connection()
PUBLIC 10c706 0 non-virtual thunk to HTTP2Connection::~HTTP2Connection()
PUBLIC 10c714 0 HTTP2Connection::~HTTP2Connection()
PUBLIC 10c71e 0 non-virtual thunk to HTTP2Connection::~HTTP2Connection()
PUBLIC 10c72c 0 non-virtual thunk to HTTP2Connection::~HTTP2Connection()
PUBLIC 10c73a 0 HTTP2Connection::copyDebugDesc() const
PUBLIC 10c75c 0 HTTP2Connection::equals(CFObject const&) const
PUBLIC 10c7b2 0 HTTP2Connection::hash() const
PUBLIC 10c7bc 0 HTTP2Connection::initialize(Tube*, int, HTTP2ConnectionCacheEntry*)
PUBLIC 10ca13 0 HTTP2StreamRetainCallBack(__CFAllocator const*, void const*)
PUBLIC 10ca2f 0 HTTP2StreamReleaseCallBack(__CFAllocator const*, void const*)
PUBLIC 10ca3d 0 HTTP2StreamEqualCallBack(void const*, void const*)
PUBLIC 10ca74 0 ___ZN15HTTP2Connection10initializeEP4TubeiP25HTTP2ConnectionCacheEntry_block_invoke
PUBLIC 10cac4 0 HTTP2Connection::initializeIOConnectionWrapper(Tube*)
PUBLIC 10cb94 0 HTTP2Connection::initializeHTTP2()
PUBLIC 10cc7e 0 HTTP2Connection::initializeConnection()
PUBLIC 10ceed 0 __copy_helper_block_
PUBLIC 10cf04 0 __destroy_helper_block_
PUBLIC 10cf18 0 IOConnWrapper::isUsingQUIC() const
PUBLIC 10cf5a 0 HTTP2Connection::isCell()
PUBLIC 10cf66 0 HTTP2Connection::shouldIdleClose(double, double)
PUBLIC 10cfd2 0 HTTP2Connection::countOutstandingRequests()
PUBLIC 10d03c 0 HTTP2Connection::willEnqueueRequests()
PUBLIC 10d074 0 HTTP2Connection::createStreamAndEnqueue(HTTPRequestMessage const*, MetaConnectionCacheClient*, int, float)
PUBLIC 10d10c 0 ___ZN15HTTP2Connection22createStreamAndEnqueueEPK18HTTPRequestMessageP25MetaConnectionCacheClientif_block_invoke
PUBLIC 10d1bd 0 __copy_helper_block_.14
PUBLIC 10d1d4 0 __destroy_helper_block_.15
PUBLIC 10d1e8 0 HTTP2Connection::stop()
PUBLIC 10d246 0 ___ZN15HTTP2Connection4stopEv_block_invoke
PUBLIC 10d26c 0 HTTP2Connection::_onqueue_closeConnection(bool)
PUBLIC 10d486 0 ___ZN15HTTP2Connection27stopIfNoOutstandingRequestsEv_block_invoke
PUBLIC 10d4c4 0 HTTP2Connection::_onqueue_terminateSession(nghttp2_error_code, bool)
PUBLIC 10d510 0 HTTP2Connection::_onqueue_scheduleIO()
PUBLIC 10d63a 0 HTTP2Connection::copyTrust()
PUBLIC 10d6bf 0 ___ZN15HTTP2Connection9copyTrustEv_block_invoke
PUBLIC 10d6f8 0 IOConnWrapper::copyProperty(__CFString const*)
PUBLIC 10d733 0 __copy_helper_block_.19
PUBLIC 10d74a 0 __destroy_helper_block_.20
PUBLIC 10d760 0 HTTP2Connection::submitRequest(std::__1::shared_ptr<HTTP2Stream>, void () block_pointer)
PUBLIC 10da3e 0 HTTP2Connection::http2ErrorCodeToCFStreamError(unsigned int)
PUBLIC 10db34 0 ___ZN15HTTP2Connection13submitRequestENSt3__110shared_ptrI11HTTP2StreamEEU13block_pointerFvvE_block_invoke
PUBLIC 10e81e 0 ___ZN15HTTP2Connection13submitRequestENSt3__110shared_ptrI11HTTP2StreamEEU13block_pointerFvvE_block_invoke_2
PUBLIC 10ea3a 0 ___ZN15HTTP2Connection13submitRequestENSt3__110shared_ptrI11HTTP2StreamEEU13block_pointerFvvE_block_invoke_3
PUBLIC 10eaaf 0 __copy_helper_block_.31
PUBLIC 10ead3 0 __destroy_helper_block_.32
PUBLIC 10eae8 0 ___ZN15HTTP2Connection13submitRequestENSt3__110shared_ptrI11HTTP2StreamEEU13block_pointerFvvE_block_invoke.35
PUBLIC 10eb5b 0 ___ZN15HTTP2Connection13submitRequestENSt3__110shared_ptrI11HTTP2StreamEEU13block_pointerFvvE_block_invoke_2.39
PUBLIC 10ebce 0 ___ZN15HTTP2Connection13submitRequestENSt3__110shared_ptrI11HTTP2StreamEEU13block_pointerFvvE_block_invoke_3.43
PUBLIC 10ec04 0 __Block_byref_object_copy_
PUBLIC 10ec1a 0 __Block_byref_object_dispose_
PUBLIC 10ec38 0 ___ZN15HTTP2Connection13submitRequestENSt3__110shared_ptrI11HTTP2StreamEEU13block_pointerFvvE_block_invoke.46
PUBLIC 10eca4 0 __copy_helper_block_.47
PUBLIC 10ecdc 0 __destroy_helper_block_.48
PUBLIC 10ed07 0 __copy_helper_block_.51
PUBLIC 10ed6b 0 __destroy_helper_block_.52
PUBLIC 10edb6 0 HTTP2Connection::cancelStream(std::__1::shared_ptr<HTTP2Stream>)
PUBLIC 10ee26 0 HTTP2Connection::sendRSTStream(std::__1::shared_ptr<HTTP2Stream>, nghttp2_error_code)
PUBLIC 10eed8 0 HTTP2Connection::_onqueue_removeStream(std::__1::shared_ptr<HTTP2Stream>)
PUBLIC 10f006 0 HTTP2Connection::didCloseStream(std::__1::shared_ptr<HTTP2Stream>)
PUBLIC 10f09d 0 ___ZN15HTTP2Connection14didCloseStreamENSt3__110shared_ptrI11HTTP2StreamEE_block_invoke
PUBLIC 10f0ff 0 __copy_helper_block_.54
PUBLIC 10f123 0 __destroy_helper_block_.55
PUBLIC 10f138 0 HTTP2Connection::_onqueue_closeStream(HTTP2Stream*)
PUBLIC 10f182 0 HTTP2Connection::resumeDataForStream(std::__1::shared_ptr<HTTP2Stream>)
PUBLIC 10f219 0 ___ZN15HTTP2Connection19resumeDataForStreamENSt3__110shared_ptrI11HTTP2StreamEE_block_invoke
PUBLIC 10f25b 0 __copy_helper_block_.57
PUBLIC 10f27f 0 __destroy_helper_block_.58
PUBLIC 10f294 0 IOConnWrapper::setConnectionDelegate(std::__1::shared_ptr<TCPIOConnection::ConnectionDelegate>&)
PUBLIC 10f2ce 0 void HTTP2Connection::setupWriteCompletionBlock<std::__1::shared_ptr<HTTP2Connection> >(std::__1::shared_ptr<HTTP2Connection>)
PUBLIC 10f34e 0 void HTTP2Connection::setupReadCompletionBlock<std::__1::shared_ptr<HTTP2Connection> >(std::__1::shared_ptr<HTTP2Connection>)
PUBLIC 10f3ce 0 void HTTP2Connection::setupScheduleIOBlock<std::__1::shared_ptr<HTTP2Connection> >(std::__1::shared_ptr<HTTP2Connection>)
PUBLIC 10f44e 0 ___ZN15HTTP2Connection20initializeConnectionEv_block_invoke
PUBLIC 10f533 0 __copy_helper_block_.60
PUBLIC 10f557 0 __destroy_helper_block_.61
PUBLIC 10f56c 0 IOConnWrapper::registerForPropertyUpdates(__CFString const*, std::__1::shared_ptr<PropertyObserver>, void const* () block_pointer)
PUBLIC 10f61f 0 ___ZN15HTTP2Connection20initializeConnectionEv_block_invoke.64
PUBLIC 10f639 0 ___ZN15HTTP2Connection15initializeHTTP2Ev_block_invoke
PUBLIC 10f748 0 HTTP2Connection::_onqueue_submitSettingsFrame()
PUBLIC 10f9ed 0 ___ZN15HTTP2Connection13sendRSTStreamENSt3__110shared_ptrI11HTTP2StreamEE18nghttp2_error_code_block_invoke
PUBLIC 10fa5c 0 HTTP2Connection::_onqueue_sendRSTStream(std::__1::shared_ptr<HTTP2Stream>, nghttp2_error_code)
PUBLIC 10fb05 0 __copy_helper_block_.69
PUBLIC 10fb29 0 __destroy_helper_block_.70
PUBLIC 10fb40 0 HTTP2Connection::onGOAWAYSend(unsigned int)
PUBLIC 10fc0e 0 HTTP2Connection::changeStreamPriority(std::__1::shared_ptr<HTTP2Stream>, long)
PUBLIC 10fcb2 0 ___ZN15HTTP2Connection20changeStreamPriorityENSt3__110shared_ptrI11HTTP2StreamEEl_block_invoke
PUBLIC 10fd2e 0 HTTP2Connection::_onqueue_changeStreamPriority(std::__1::shared_ptr<HTTP2Stream>, long)
PUBLIC 10fdad 0 __copy_helper_block_.72
PUBLIC 10fdd1 0 __destroy_helper_block_.73
PUBLIC 10fde6 0 HTTP2Connection::handleFrame(nghttp2_frame const*)
PUBLIC 10fe68 0 HTTP2Connection::handleHEADERSFrame(nghttp2_frame const*)
PUBLIC 1101b2 0 HTTP2Connection::handleRSTSTREAMFrame(nghttp2_frame const*)
PUBLIC 110366 0 HTTP2Connection::handleSETTINGSFrame(nghttp2_frame const*)
PUBLIC 1104b4 0 HTTP2Connection::handleGOAWAYFrame(nghttp2_frame const*)
PUBLIC 1105f2 0 HTTP2Connection::handleDATAFrame(nghttp2_frame const*)
PUBLIC 110816 0 HTTP2Connection::handlePUSHPROMISEframe(nghttp2_frame const*)
PUBLIC 1109be 0 HTTP2Connection::flushBatchedDataForStream(HTTP2Stream*)
PUBLIC 110a66 0 HTTP2Connection::_onqueue_setErrorOnAllStreams(unsigned int)
PUBLIC 110afb 0 ___ZN15HTTP2Connection20setErrorOnAllStreamsEj_block_invoke
PUBLIC 110b22 0 HTTP2Connection::cancelAllStreamsWithStreamIDHigherThan(unsigned int)
PUBLIC 110bf0 0 HTTP2Connection::manageConnectionWindow(unsigned long)
PUBLIC 110c59 0 ___ZN15HTTP2Connection22manageConnectionWindowEm_block_invoke
PUBLIC 110c96 0 HTTP2Connection::updateWindow(std::__1::shared_ptr<HTTP2Stream>, unsigned int)
PUBLIC 110d3a 0 ___ZN15HTTP2Connection12updateWindowENSt3__110shared_ptrI11HTTP2StreamEEj_block_invoke
PUBLIC 110daa 0 HTTP2Connection::_onqueue_updateWindow(std::__1::shared_ptr<HTTP2Stream>, unsigned int)
PUBLIC 110dff 0 __copy_helper_block_.81
PUBLIC 110e23 0 __destroy_helper_block_.82
PUBLIC 110e38 0 HTTP2Connection::isHeaderValid(unsigned char const*, unsigned long, unsigned char const*, unsigned long)
PUBLIC 110e70 0 HTTP2Diagnostic::APPEND_RECV_HEADER(std::__1::basic_string<char, std::__1::char_traits<char>, std::__1::allocator<char> >&, std::__1::basic_string<char, std::__1::char_traits<char>, std::__1::allocator<char> > const&, std::__1::basic_string<char, std::__1::char_traits<char>, std::__1::allocator<char> > const&, int, unsigned long long)
PUBLIC 110fc1 0 ___ZN15HTTP2Connection22handlePUSHPROMISEframeEPK13nghttp2_frame_block_invoke
PUBLIC 111034 0 ___ZN15HTTP2Connection18handleHEADERSFrameEPK13nghttp2_frame_block_invoke
PUBLIC 1110a7 0 ___ZN15HTTP2Connection19handleSETTINGSFrameEPK13nghttp2_frame_block_invoke
PUBLIC 111100 0 HTTP2Connection::handleBeforeFrameSend(nghttp2_frame const*)
PUBLIC 111430 0 IOConnWrapper::isProxyConfigured() const
PUBLIC 111473 0 ___ZN15HTTP2Connection24removeServerPushedStreamEi_block_invoke
PUBLIC 1114a1 0 ___ZN15HTTP2Connection15closeConnectionEb_block_invoke
PUBLIC 1114ca 0 IOConnWrapper::rstConnectionDelegate()
PUBLIC 111504 0 IOConnWrapper::close()
PUBLIC 11153e 0 HTTP2Connection::handleReadStreamError(CFStreamError, HTTP2Connection*)
PUBLIC 1115b0 0 HTTP2Connection::_canWrite()
PUBLIC 1115be 0 HTTP2Connection::_onqueue_performWrite()
PUBLIC 11163a 0 HTTP2Connection::_hasDataAvailable()
PUBLIC 11166e 0 HTTP2Connection::_onqueue_performRead()
PUBLIC 111716 0 HTTP2Connection::flushAllBatchedData()
PUBLIC 1117b8 0 HTTP2Connection::connEventReadClose()
PUBLIC 111836 0 non-virtual thunk to HTTP2Connection::connEventReadClose()
PUBLIC 111844 0 HTTP2Connection::connEventWriteClose()
PUBLIC 11184a 0 non-virtual thunk to HTTP2Connection::connEventWriteClose()
PUBLIC 111850 0 HTTP2Connection::connEventDisconnected()
PUBLIC 1118e6 0 non-virtual thunk to HTTP2Connection::connEventDisconnected()
PUBLIC 1118f4 0 HTTP2Connection::connErrorOccurred(CFStreamError)
PUBLIC 111964 0 non-virtual thunk to HTTP2Connection::connErrorOccurred(CFStreamError)
PUBLIC 111972 0 HTTP2Connection::_enqueueRead()
PUBLIC 1119a2 0 IOConnWrapper::read(unsigned long, unsigned long, void (dispatch_data_s*, CFStreamError) block_pointer)
PUBLIC 1119fe 0 HTTP2Connection::_getDataAvailabe(unsigned char*, unsigned long)
PUBLIC 111b94 0 ___ZN15HTTP2Connection16_getDataAvailabeEPhm_block_invoke
PUBLIC 111bea 0 __copy_helper_block_.102
PUBLIC 111c22 0 __destroy_helper_block_.103
PUBLIC 111c4e 0 HTTP2Connection::_writeData(std::__1::unique_ptr<dispatch_data_s, void (*)(dispatch_object_s*)>&)
PUBLIC 111c82 0 IOConnWrapper::write(dispatch_data_s*, void (CFStreamError) block_pointer)
PUBLIC 111cd2 0 HTTP2Connection::batchDataForStream(unsigned char const*, unsigned long, HTTP2Stream*)
PUBLIC 111e53 0 void _release_dispatch_safe<dispatch_data_s*>(dispatch_data_s*)
PUBLIC 111e64 0 _CFNetworkUnitTestHTTP2ConnectionEquality
PUBLIC 111fd9 0 _CFNetworkUnitTestHTTP2ConnectionIdleTimer
PUBLIC 11221a 0 ___CFNetworkUnitTestHTTP2ConnectionIdleTimer_block_invoke
PUBLIC 11226d 0 __copy_helper_block_.112
PUBLIC 1122a5 0 __destroy_helper_block_.113
PUBLIC 1122d0 0 UnitTestNotificationCenter::shared()
PUBLIC 112376 0 HTTP2Connection::HTTP2Connection(__CFAllocator const*)::$_0::__invoke(HTTP2Stream const*, HTTP2Stream const*)
PUBLIC 11239a 0 std::__1::__tree<std::__1::__value_type<HTTP2Stream*, std::__1::shared_ptr<dispatch_data_s> >, std::__1::__map_value_compare<HTTP2Stream*, std::__1::__value_type<HTTP2Stream*, std::__1::shared_ptr<dispatch_data_s> >, bool (*)(HTTP2Stream const*, HTTP2Stream const*), false>, std::__1::allocator<std::__1::__value_type<HTTP2Stream*, std::__1::shared_ptr<dispatch_data_s> > > >::destroy(std::__1::__tree_node<std::__1::__value_type<HTTP2Stream*, std::__1::shared_ptr<dispatch_data_s> >, void*>*)
PUBLIC 1123e2 0 std::__1::__hash_table<std::__1::__hash_value_type<std::__1::basic_string<char, std::__1::char_traits<char>, std::__1::allocator<char> >, std::__1::basic_string<char, std::__1::char_traits<char>, std::__1::allocator<char> > >, std::__1::__unordered_map_hasher<std::__1::basic_string<char, std::__1::char_traits<char>, std::__1::allocator<char> >, std::__1::__hash_value_type<std::__1::basic_string<char, std::__1::char_traits<char>, std::__1::allocator<char> >, std::__1::basic_string<char, std::__1::char_traits<char>, std::__1::allocator<char> > >, std::__1::hash<std::__1::basic_string<char, std::__1::char_traits<char>, std::__1::allocator<char> > >, true>, std::__1::__unordered_map_equal<std::__1::basic_string<char, std::__1::char_traits<char>, std::__1::allocator<char> >, std::__1::__hash_value_type<std::__1::basic_string<char, std::__1::char_traits<char>, std::__1::allocator<char> >, std::__1::basic_string<char, std::__1::char_traits<char>, std::__1::allocator<char> > >, std::__1::equal_to<std::__1::basic_string<char, std::__1::char_traits<char>, std::__1::allocator<char> > >, true>, std::__1::allocator<std::__1::__hash_value_type<std::__1::basic_string<char, std::__1::char_traits<char>, std::__1::allocator<char> >, std::__1::basic_string<char, std::__1::char_traits<char>, std::__1::allocator<char> > > > >::~__hash_table()
PUBLIC 112410 0 std::__1::__hash_table<std::__1::__hash_value_type<std::__1::basic_string<char, std::__1::char_traits<char>, std::__1::allocator<char> >, std::__1::basic_string<char, std::__1::char_traits<char>, std::__1::allocator<char> > >, std::__1::__unordered_map_hasher<std::__1::basic_string<char, std::__1::char_traits<char>, std::__1::allocator<char> >, std::__1::__hash_value_type<std::__1::basic_string<char, std::__1::char_traits<char>, std::__1::allocator<char> >, std::__1::basic_string<char, std::__1::char_traits<char>, std::__1::allocator<char> > >, std::__1::hash<std::__1::basic_string<char, std::__1::char_traits<char>, std::__1::allocator<char> > >, true>, std::__1::__unordered_map_equal<std::__1::basic_string<char, std::__1::char_traits<char>, std::__1::allocator<char> >, std::__1::__hash_value_type<std::__1::basic_string<char, std::__1::char_traits<char>, std::__1::allocator<char> >, std::__1::basic_string<char, std::__1::char_traits<char>, std::__1::allocator<char> > >, std::__1::equal_to<std::__1::basic_string<char, std::__1::char_traits<char>, std::__1::allocator<char> > >, true>, std::__1::allocator<std::__1::__hash_value_type<std::__1::basic_string<char, std::__1::char_traits<char>, std::__1::allocator<char> >, std::__1::basic_string<char, std::__1::char_traits<char>, std::__1::allocator<char> > > > >::__deallocate_node(std::__1::__hash_node_base<std::__1::__hash_node<std::__1::__hash_value_type<std::__1::basic_string<char, std::__1::char_traits<char>, std::__1::allocator<char> >, std::__1::basic_string<char, std::__1::char_traits<char>, std::__1::allocator<char> > >, void*>*>*)
PUBLIC 112456 0 std::__1::__hash_table<std::__1::reference_wrapper<HTTP2ServerPushStream const>, HTTP2ServerPushStream::Hasher, HTTP2ServerPushStream::Predicate, std::__1::allocator<std::__1::reference_wrapper<HTTP2ServerPushStream const> > >::~__hash_table()
PUBLIC 112494 0 TCPIOConnectionTest::read(unsigned long, unsigned long, void (dispatch_data_s*, CFStreamError) block_pointer)
PUBLIC 11251a 0 TCPIOConnectionTest::deliverReads()
PUBLIC 112614 0 std::__1::shared_ptr<TCPIOConnectionTest::EnqueedRead> std::__1::shared_ptr<TCPIOConnectionTest::EnqueedRead>::make_shared<unsigned long&, unsigned long&, void (dispatch_data_s*, CFStreamError) block_pointer&>(unsigned long&&&, unsigned long&&&, void (dispatch_data_s*, CFStreamError) block_pointer&&&)
PUBLIC 112696 0 std::__1::__shared_ptr_emplace<TCPIOConnectionTest::EnqueedRead, std::__1::allocator<TCPIOConnectionTest::EnqueedRead> >::~__shared_ptr_emplace()
PUBLIC 1126ca 0 std::__1::__shared_ptr_emplace<TCPIOConnectionTest::EnqueedRead, std::__1::allocator<TCPIOConnectionTest::EnqueedRead> >::~__shared_ptr_emplace()
PUBLIC 112706 0 std::__1::__shared_ptr_emplace<TCPIOConnectionTest::EnqueedRead, std::__1::allocator<TCPIOConnectionTest::EnqueedRead> >::__on_zero_shared()
PUBLIC 11271e 0 std::__1::list<std::__1::shared_ptr<TCPIOConnectionTest::EnqueedRead>, std::__1::allocator<std::__1::shared_ptr<TCPIOConnectionTest::EnqueedRead> > >::pop_front()
PUBLIC 11275a 0 HTTP2Server::read(dispatch_data_s*, void (CFStreamError) block_pointer)
PUBLIC 112824 0 HTTP2Server::write()
PUBLIC 11288e 0 std::__1::__tree_iterator<std::__1::__value_type<std::__1::unique_ptr<__CFString const, void (*)(__CFString const*)>, int>, std::__1::__tree_node<std::__1::__value_type<std::__1::unique_ptr<__CFString const, void (*)(__CFString const*)>, int>, void*>*, long> std::__1::__tree<std::__1::__value_type<std::__1::unique_ptr<__CFString const, void (*)(__CFString const*)>, int>, std::__1::__map_value_compare<std::__1::unique_ptr<__CFString const, void (*)(__CFString const*)>, std::__1::__value_type<std::__1::unique_ptr<__CFString const, void (*)(__CFString const*)>, int>, CFStringRefComp, true>, std::__1::allocator<std::__1::__value_type<std::__1::unique_ptr<__CFString const, void (*)(__CFString const*)>, int> > >::find<std::__1::unique_ptr<__CFString const, void (*)(__CFString const*)> >(std::__1::unique_ptr<__CFString const, void (*)(__CFString const*)> const&)
PUBLIC 112890 0 std::__1::__tree_iterator<std::__1::__value_type<std::__1::unique_ptr<__CFString const, void (*)(__CFString const*)>, std::__1::unique_ptr<std::__1::vector<std::__1::weak_ptr<PropertyObserver>, std::__1::allocator<std::__1::weak_ptr<PropertyObserver> > >, std::__1::default_delete<std::__1::vector<std::__1::weak_ptr<PropertyObserver>, std::__1::allocator<std::__1::weak_ptr<PropertyObserver> > > > > >, std::__1::__tree_node<std::__1::__value_type<std::__1::unique_ptr<__CFString const, void (*)(__CFString const*)>, std::__1::unique_ptr<std::__1::vector<std::__1::weak_ptr<PropertyObserver>, std::__1::allocator<std::__1::weak_ptr<PropertyObserver> > >, std::__1::default_delete<std::__1::vector<std::__1::weak_ptr<PropertyObserver>, std::__1::allocator<std::__1::weak_ptr<PropertyObserver> > > > > >, void*>*, long> std::__1::__tree<std::__1::__value_type<std::__1::unique_ptr<__CFString const, void (*)(__CFString const*)>, std::__1::unique_ptr<std::__1::vector<std::__1::weak_ptr<PropertyObserver>, std::__1::allocator<std::__1::weak_ptr<PropertyObserver> > >, std::__1::default_delete<std::__1::vector<std::__1::weak_ptr<PropertyObserver>, std::__1::allocator<std::__1::weak_ptr<PropertyObserver> > > > > >, std::__1::__map_value_compare<std::__1::unique_ptr<__CFString const, void (*)(__CFString const*)>, std::__1::__value_type<std::__1::unique_ptr<__CFString const, void (*)(__CFString const*)>, std::__1::unique_ptr<std::__1::vector<std::__1::weak_ptr<PropertyObserver>, std::__1::allocator<std::__1::weak_ptr<PropertyObserver> > >, std::__1::default_delete<std::__1::vector<std::__1::weak_ptr<PropertyObserver>, std::__1::allocator<std::__1::weak_ptr<PropertyObserver> > > > > >, CFStringRefComp, true>, std::__1::allocator<std::__1::__value_type<std::__1::unique_ptr<__CFString const, void (*)(__CFString const*)>, std::__1::unique_ptr<std::__1::vector<std::__1::weak_ptr<PropertyObserver>, std::__1::allocator<std::__1::weak_ptr<PropertyObserver> > >, std::__1::default_delete<std::__1::vector<std::__1::weak_ptr<PropertyObserver>, std::__1::allocator<std::__1::weak_ptr<PropertyObserver> > > > > > > >::find<std::__1::unique_ptr<__CFString const, void (*)(__CFString const*)> >(std::__1::unique_ptr<__CFString const, void (*)(__CFString const*)> const&)
PUBLIC 1128dc 0 std::__1::pair<std::__1::__tree_iterator<std::__1::__value_type<std::__1::unique_ptr<__CFString const, void (*)(__CFString const*)>, std::__1::unique_ptr<std::__1::vector<std::__1::weak_ptr<PropertyObserver>, std::__1::allocator<std::__1::weak_ptr<PropertyObserver> > >, std::__1::default_delete<std::__1::vector<std::__1::weak_ptr<PropertyObserver>, std::__1::allocator<std::__1::weak_ptr<PropertyObserver> > > > > >, std::__1::__tree_node<std::__1::__value_type<std::__1::unique_ptr<__CFString const, void (*)(__CFString const*)>, std::__1::unique_ptr<std::__1::vector<std::__1::weak_ptr<PropertyObserver>, std::__1::allocator<std::__1::weak_ptr<PropertyObserver> > >, std::__1::default_delete<std::__1::vector<std::__1::weak_ptr<PropertyObserver>, std::__1::allocator<std::__1::weak_ptr<PropertyObserver> > > > > >, void*>*, long>, bool> std::__1::__tree<std::__1::__value_type<std::__1::unique_ptr<__CFString const, void (*)(__CFString const*)>, std::__1::unique_ptr<std::__1::vector<std::__1::weak_ptr<PropertyObserver>, std::__1::allocator<std::__1::weak_ptr<PropertyObserver> > >, std::__1::default_delete<std::__1::vector<std::__1::weak_ptr<PropertyObserver>, std::__1::allocator<std::__1::weak_ptr<PropertyObserver> > > > > >, std::__1::__map_value_compare<std::__1::unique_ptr<__CFString const, void (*)(__CFString const*)>, std::__1::__value_type<std::__1::unique_ptr<__CFString const, void (*)(__CFString const*)>, std::__1::unique_ptr<std::__1::vector<std::__1::weak_ptr<PropertyObserver>, std::__1::allocator<std::__1::weak_ptr<PropertyObserver> > >, std::__1::default_delete<std::__1::vector<std::__1::weak_ptr<PropertyObserver>, std::__1::allocator<std::__1::weak_ptr<PropertyObserver> > > > > >, CFStringRefComp, true>, std::__1::allocator<std::__1::__value_type<std::__1::unique_ptr<__CFString const, void (*)(__CFString const*)>, std::__1::unique_ptr<std::__1::vector<std::__1::weak_ptr<PropertyObserver>, std::__1::allocator<std::__1::weak_ptr<PropertyObserver> > >, std::__1::default_delete<std::__1::vector<std::__1::weak_ptr<PropertyObserver>, std::__1::allocator<std::__1::weak_ptr<PropertyObserver> > > > > > > >::__emplace_unique_key_args<std::__1::unique_ptr<__CFString const, void (*)(__CFString const*)>, std::__1::pair<std::__1::unique_ptr<__CFString const, void (*)(__CFString const*)>, std::__1::unique_ptr<std::__1::vector<std::__1::weak_ptr<PropertyObserver>, std::__1::allocator<std::__1::weak_ptr<PropertyObserver> > >, std::__1::default_delete<std::__1::vector<std::__1::weak_ptr<PropertyObserver>, std::__1::allocator<std::__1::weak_ptr<PropertyObserver> > > > > > >(std::__1::unique_ptr<__CFString const, void (*)(__CFString const*)> const&, std::__1::pair<std::__1::unique_ptr<__CFString const, void (*)(__CFString const*)>, std::__1::unique_ptr<std::__1::vector<std::__1::weak_ptr<PropertyObserver>, std::__1::allocator<std::__1::weak_ptr<PropertyObserver> > >, std::__1::default_delete<std::__1::vector<std::__1::weak_ptr<PropertyObserver>, std::__1::allocator<std::__1::weak_ptr<PropertyObserver> > > > > >&&)
PUBLIC 11295c 0 void std::__1::__tree_right_rotate<std::__1::__tree_node_base<void*>*>(std::__1::__tree_node_base<void*>*)
PUBLIC 112998 0 std::__1::__shared_ptr_pointer<HTTP2Connection*, Deleter_release<HTTP2Connection>, std::__1::allocator<HTTP2Connection> >::~__shared_ptr_pointer()
PUBLIC 1129a2 0 std::__1::__shared_ptr_pointer<HTTP2Connection*, Deleter_release<HTTP2Connection>, std::__1::allocator<HTTP2Connection> >::~__shared_ptr_pointer()
PUBLIC 1129be 0 RetainableTypedDict<__CFNumber const*, __CFDictionary*>::~RetainableTypedDict()
PUBLIC 1129ee 0 std::__1::shared_ptr<IOConnWrapper> std::__1::shared_ptr<IOConnWrapper>::make_shared<IOConnType&>(IOConnType&&&)
PUBLIC 112a6c 0 std::__1::__shared_ptr_emplace<IOConnWrapper, std::__1::allocator<IOConnWrapper> >::~__shared_ptr_emplace()
PUBLIC 112a9a 0 std::__1::__shared_ptr_emplace<IOConnWrapper, std::__1::allocator<IOConnWrapper> >::~__shared_ptr_emplace()
PUBLIC 112ad0 0 std::__1::__shared_ptr_emplace<IOConnWrapper, std::__1::allocator<IOConnWrapper> >::__on_zero_shared()
PUBLIC 112ae0 0 IOConnWrapper::~IOConnWrapper()
PUBLIC 112b28 0 std::__1::__hash_table<std::__1::__hash_value_type<std::__1::basic_string<char, std::__1::char_traits<char>, std::__1::allocator<char> >, std::__1::basic_string<char, std::__1::char_traits<char>, std::__1::allocator<char> > >, std::__1::__unordered_map_hasher<std::__1::basic_string<char, std::__1::char_traits<char>, std::__1::allocator<char> >, std::__1::__hash_value_type<std::__1::basic_string<char, std::__1::char_traits<char>, std::__1::allocator<char> >, std::__1::basic_string<char, std::__1::char_traits<char>, std::__1::allocator<char> > >, std::__1::hash<std::__1::basic_string<char, std::__1::char_traits<char>, std::__1::allocator<char> > >, true>, std::__1::__unordered_map_equal<std::__1::basic_string<char, std::__1::char_traits<char>, std::__1::allocator<char> >, std::__1::__hash_value_type<std::__1::basic_string<char, std::__1::char_traits<char>, std::__1::allocator<char> >, std::__1::basic_string<char, std::__1::char_traits<char>, std::__1::allocator<char> > >, std::__1::equal_to<std::__1::basic_string<char, std::__1::char_traits<char>, std::__1::allocator<char> > >, true>, std::__1::allocator<std::__1::__hash_value_type<std::__1::basic_string<char, std::__1::char_traits<char>, std::__1::allocator<char> >, std::__1::basic_string<char, std::__1::char_traits<char>, std::__1::allocator<char> > > > >::rehash(unsigned long)
PUBLIC 112c36 0 std::__1::__murmur2_or_cityhash<unsigned long, 64ul>::operator()(void const*, unsigned long)
PUBLIC 112ece 0 std::__1::__murmur2_or_cityhash<unsigned long, 64ul>::__hash_len_0_to_16(char const*, unsigned long)
PUBLIC 112fac 0 std::__1::__murmur2_or_cityhash<unsigned long, 64ul>::__hash_len_17_to_32(char const*, unsigned long)
PUBLIC 113056 0 std::__1::__murmur2_or_cityhash<unsigned long, 64ul>::__hash_len_33_to_64(char const*, unsigned long)
PUBLIC 113126 0 std::__1::__hash_table<std::__1::__hash_value_type<std::__1::basic_string<char, std::__1::char_traits<char>, std::__1::allocator<char> >, std::__1::unordered_set<std::__1::basic_string<char, std::__1::char_traits<char>, std::__1::allocator<char> >, std::__1::hash<std::__1::basic_string<char, std::__1::char_traits<char>, std::__1::allocator<char> > >, std::__1::equal_to<std::__1::basic_string<char, std::__1::char_traits<char>, std::__1::allocator<char> > >, std::__1::allocator<std::__1::basic_string<char, std::__1::char_traits<char>, std::__1::allocator<char> > > > >, std::__1::__unordered_map_hasher<std::__1::basic_string<char, std::__1::char_traits<char>, std::__1::allocator<char> >, std::__1::__hash_value_type<std::__1::basic_string<char, std::__1::char_traits<char>, std::__1::allocator<char> >, std::__1::unordered_set<std::__1::basic_string<char, std::__1::char_traits<char>, std::__1::allocator<char> >, std::__1::hash<std::__1::basic_string<char, std::__1::char_traits<char>, std::__1::allocator<char> > >, std::__1::equal_to<std::__1::basic_string<char, std::__1::char_traits<char>, std::__1::allocator<char> > >, std::__1::allocator<std::__1::basic_string<char, std::__1::char_traits<char>, std::__1::allocator<char> > > > >, std::__1::hash<std::__1::basic_string<char, std::__1::char_traits<char>, std::__1::allocator<char> > >, true>, std::__1::__unordered_map_equal<std::__1::basic_string<char, std::__1::char_traits<char>, std::__1::allocator<char> >, std::__1::__hash_value_type<std::__1::basic_string<char, std::__1::char_traits<char>, std::__1::allocator<char> >, std::__1::unordered_set<std::__1::basic_string<char, std::__1::char_traits<char>, std::__1::allocator<char> >, std::__1::hash<std::__1::basic_string<char, std::__1::char_traits<char>, std::__1::allocator<char> > >, std::__1::equal_to<std::__1::basic_string<char, std::__1::char_traits<char>, std::__1::allocator<char> > >, std::__1::allocator<std::__1::basic_string<char, std::__1::char_traits<char>, std::__1::allocator<char> > > > >, std::__1::equal_to<std::__1::basic_string<char, std::__1::char_traits<char>, std::__1::allocator<char> > >, true>, std::__1::allocator<std::__1::__hash_value_type<std::__1::basic_string<char, std::__1::char_traits<char>, std::__1::allocator<char> >, std::__1::unordered_set<std::__1::basic_string<char, std::__1::char_traits<char>, std::__1::allocator<char> >, std::__1::hash<std::__1::basic_string<char, std::__1::char_traits<char>, std::__1::allocator<char> > >, std::__1::equal_to<std::__1::basic_string<char, std::__1::char_traits<char>, std::__1::allocator<char> > >, std::__1::allocator<std::__1::basic_string<char, std::__1::char_traits<char>, std::__1::allocator<char> > > > > > >::__rehash(unsigned long)
PUBLIC 11338c 0 std::__1::__shared_ptr_pointer<BlockHolderVar<bool>*, SmartBlockWithArgs<bool>::Deleter, std::__1::allocator<BlockHolderVar<bool> > >::~__shared_ptr_pointer()
PUBLIC 113398 0 BlockHolderVar<bool>::invoke_reseted(bool)
PUBLIC 11339e 0 std::__1::__shared_ptr_emplace<TCPIOConnectionTest, std::__1::allocator<TCPIOConnectionTest> >::~__shared_ptr_emplace()
PUBLIC 1133cc 0 std::__1::__shared_ptr_emplace<TCPIOConnectionTest, std::__1::allocator<TCPIOConnectionTest> >::~__shared_ptr_emplace()
PUBLIC 113402 0 std::__1::__shared_ptr_emplace<TCPIOConnectionTest, std::__1::allocator<TCPIOConnectionTest> >::__on_zero_shared()
PUBLIC 113412 0 TCPIOConnectionTest::TCPIOConnectionTest()
PUBLIC 11355a 0 ___ZN19TCPIOConnectionTestC2Ev_block_invoke
PUBLIC 11360e 0 HTTP2Server::HTTP2Server()
PUBLIC 113679 0 ___ZN11HTTP2ServerC2Ev_block_invoke
