MODULE mac x86_64 F320589A860032449B55A645F7EAAB350 CoreFoundation
PUBLIC 17a0 0 +[NSObject(NSObject) load]
PUBLIC 17f0 0 __26+[NSObject(NSObject) load]_block_invoke
PUBLIC 1810 0 __CFInitialize
PUBLIC 2810 0 __exceptionInit
PUBLIC 2840 0 _CFStringGetUserDefaultEncoding
PUBLIC 2b20 0 __CFgetenv
PUBLIC 2b90 0 _CFRuntimeRegisterClass
PUBLIC 2c30 0 __CFAllocatorInitialize
PUBLIC 2c60 0 ____CFAllocatorInitialize_block_invoke
PUBLIC 2d90 0 _CFRuntimeSetInstanceTypeID
PUBLIC 2e20 0 CFBasicHashGetTypeID
PUBLIC 2e60 0 __CFBasicHashGetTypeID_block_invoke
PUBLIC 2e80 0 CFBagGetTypeID
PUBLIC 2ec0 0 __CFBagGetTypeID_block_invoke
PUBLIC 2ee0 0 CFBasicHashCreate
PUBLIC 32f0 0 _CFRuntimeCreateInstance
PUBLIC 35b0 0 CFAllocatorAllocate
PUBLIC 3640 0 __CFAllocatorSystemAllocate
PUBLIC 3660 0 CFBasicHashGetPtrIndex
PUBLIC 3740 0 __CFBasicHashGetPtrIndex_block_invoke
PUBLIC 37d0 0 CFBasicHashSetCapacity
PUBLIC 3800 0 __CFBasicHashRehash
PUBLIC 4530 0 CFGetAllocator
PUBLIC 45c0 0 CFAllocatorDeallocate
PUBLIC 4650 0 __CFStringInitialize
PUBLIC 4680 0 ____CFStringInitialize_block_invoke
PUBLIC 46a0 0 CFNullGetTypeID
PUBLIC 46e0 0 __CFNullGetTypeID_block_invoke
PUBLIC 4710 0 _CFRuntimeSetInstanceTypeIDAndIsa
PUBLIC 4800 0 CFSetGetTypeID
PUBLIC 4840 0 __CFSetGetTypeID_block_invoke
PUBLIC 4860 0 CFDictionaryGetTypeID
PUBLIC 48a0 0 __CFDictionaryGetTypeID_block_invoke
PUBLIC 48c0 0 CFArrayGetTypeID
PUBLIC 4900 0 __CFArrayGetTypeID_block_invoke
PUBLIC 4920 0 CFDataGetTypeID
PUBLIC 4960 0 __CFDataGetTypeID_block_invoke
PUBLIC 4980 0 CFBooleanGetTypeID
PUBLIC 49c0 0 __CFBooleanGetTypeID_block_invoke
PUBLIC 4a00 0 CFNumberGetTypeID
PUBLIC 4a40 0 __CFNumberGetTypeID_block_invoke
PUBLIC 4ad0 0 _CFExecutableLinkedOnOrAfter
PUBLIC 4fe0 0 CFBinaryHeapGetTypeID
PUBLIC 5020 0 __CFBinaryHeapGetTypeID_block_invoke
PUBLIC 5040 0 CFBitVectorGetTypeID
PUBLIC 5080 0 __CFBitVectorGetTypeID_block_invoke
PUBLIC 50a0 0 __CFCharacterSetInitialize
PUBLIC 50d0 0 ____CFCharacterSetInitialize_block_invoke
PUBLIC 51b0 0 _CFGetTSD
PUBLIC 5250 0 CFStorageGetTypeID
PUBLIC 5290 0 __CFStorageGetTypeID_block_invoke
PUBLIC 52b0 0 CFErrorGetTypeID
PUBLIC 52f0 0 __CFErrorGetTypeID_block_invoke
PUBLIC 5310 0 CFTreeGetTypeID
PUBLIC 5350 0 __CFTreeGetTypeID_block_invoke
PUBLIC 5370 0 CFURLGetTypeID
PUBLIC 53b0 0 __CFURLGetTypeID_block_invoke
PUBLIC 53d0 0 CFBundleGetTypeID
PUBLIC 5410 0 __CFBundleGetTypeID_block_invoke
PUBLIC 5430 0 _CFBundleResourcesInitialize
PUBLIC 55b0 0 CFStringCreateWithCString
PUBLIC 5610 0 __CFStringCreateImmutableFunnel3
PUBLIC 63a0 0 __CFStringComputeEightBitStringEncoding
PUBLIC 64b0 0 __CFSearchStringROM
PUBLIC 6550 0 __CFStrHashEightBit2
PUBLIC 67a0 0 __CFPFactoryInitialize
PUBLIC 67d0 0 ____CFPFactoryInitialize_block_invoke
PUBLIC 67f0 0 __CFPlugInInitialize
PUBLIC 6800 0 CFPlugInInstanceGetTypeID
PUBLIC 6840 0 __CFPlugInInstanceGetTypeID_block_invoke
PUBLIC 6860 0 CFUUIDGetTypeID
PUBLIC 68a0 0 __CFUUIDGetTypeID_block_invoke
PUBLIC 68c0 0 CFMessagePortGetTypeID
PUBLIC 6900 0 __CFMessagePortGetTypeID_block_invoke
PUBLIC 6920 0 CFMachPortGetTypeID
PUBLIC 6960 0 __CFMachPortGetTypeID_block_invoke
PUBLIC 6980 0 CFMachPortBoostGetTypeID
PUBLIC 69c0 0 __CFMachPortBoostGetTypeID_block_invoke
PUBLIC 69e0 0 __CFStreamInitialize
PUBLIC 6a10 0 ____CFStreamInitialize_block_invoke
PUBLIC 6a40 0 __CFXPreferencesInitialize
PUBLIC 6a70 0 ____CFXPreferencesInitialize_block_invoke
PUBLIC 6a80 0 CFStringTokenizerGetTypeID
PUBLIC 6ac0 0 __CFStringTokenizerGetTypeID_block_invoke
PUBLIC 6ae0 0 _CFKeyedArchiverUIDGetTypeID
PUBLIC 6b20 0 ___CFKeyedArchiverUIDGetTypeID_block_invoke
PUBLIC 6b40 0 CFDateGetTypeID
PUBLIC 6b80 0 __CFDateGetTypeID_block_invoke
PUBLIC 6bf0 0 CFRunLoopGetTypeID
PUBLIC 6c30 0 __CFRunLoopGetTypeID_block_invoke
PUBLIC 6c60 0 CFRunLoopObserverGetTypeID
PUBLIC 6ca0 0 __CFRunLoopObserverGetTypeID_block_invoke
PUBLIC 6cc0 0 CFRunLoopSourceGetTypeID
PUBLIC 6d00 0 __CFRunLoopSourceGetTypeID_block_invoke
PUBLIC 6d20 0 CFRunLoopTimerGetTypeID
PUBLIC 6d60 0 __CFRunLoopTimerGetTypeID_block_invoke
PUBLIC 6d80 0 CFAttributedStringGetTypeID
PUBLIC 6dc0 0 __CFAttributedStringGetTypeID_block_invoke
PUBLIC 6de0 0 CFLocaleGetTypeID
PUBLIC 6e20 0 __CFLocaleGetTypeID_block_invoke
PUBLIC 6ea0 0 CFCalendarGetTypeID
PUBLIC 6ee0 0 __CFCalendarGetTypeID_block_invoke
PUBLIC 6f00 0 CFCharacterSetGetTypeID
PUBLIC 6f10 0 CFReadStreamGetTypeID
PUBLIC 6f20 0 CFWriteStreamGetTypeID
PUBLIC 6f30 0 CFArrayCreate
PUBLIC 7010 0 ____FoundationPresent_block_invoke
PUBLIC 7030 0 +[NSArray allocWithZone:]
PUBLIC 70d0 0 +[__NSPlaceholderArray initialize]
PUBLIC 7100 0 __34+[__NSPlaceholderArray initialize]_block_invoke
PUBLIC 7150 0 __CFAllocateObject2
PUBLIC 71f0 0 +[__NSPlaceholderArray immutablePlaceholder]
PUBLIC 7200 0 -[__NSPlaceholderArray initWithObjects:count:]
PUBLIC 7330 0 CFRetain
PUBLIC 73b0 0 _CFRetain
PUBLIC 74c0 0 _CFProcessPath
PUBLIC 75e0 0 __CFProcessIsRestricted
PUBLIC 75f0 0 __CFOAInitialize
PUBLIC 76d0 0 __CFStringInitializeSystemEncoding
PUBLIC 76f0 0 CFStringGetSystemEncoding
PUBLIC 77b0 0 CFStringEncodingGetConverter
PUBLIC 77d0 0 __CFGetConverter
PUBLIC 7b80 0 __CFSetCharToUniCharFunc
PUBLIC 7d00 0 __CFFromMacRoman
PUBLIC 7d30 0 __CFMakeNSBlockClasses
PUBLIC 7ec0 0 +[__NSDictionary0 _alloc]
PUBLIC 7ef0 0 +[NSDictionary allocWithZone:]
PUBLIC 7f90 0 -[__NSDictionary0 _init]
PUBLIC 7ff0 0 +[__NSArray0 _alloc]
PUBLIC 8020 0 -[__NSArray0 _init]
PUBLIC 8080 0 CFSetCreate
PUBLIC 81f0 0 CFBasicHashAddValue
PUBLIC 8f50 0 CFHash
PUBLIC 90d0 0 __CFStringHash
PUBLIC 9ac0 0 __CFBasicHashAddValue
PUBLIC a310 0 __CFTypeCollectionRetain
PUBLIC a390 0 _CFSetOutOfMemoryErrorCallBack
PUBLIC a3a0 0 CFDictionaryCreateMutable
PUBLIC a4d0 0 +[__NSPlaceholderDictionary initialize]
PUBLIC a500 0 __39+[__NSPlaceholderDictionary initialize]_block_invoke
PUBLIC a550 0 +[__NSPlaceholderDictionary mutablePlaceholder]
PUBLIC a560 0 -[__NSPlaceholderDictionary init]
PUBLIC a5b0 0 -[__NSPlaceholderDictionary initWithCapacity:]
PUBLIC a650 0 +[__NSDictionaryM initialize]
PUBLIC a680 0 __29+[__NSDictionaryM initialize]_block_invoke
PUBLIC a6b0 0 +[__NSDictionaryM __new:::::]
PUBLIC aa20 0 CFDictionarySetValue
PUBLIC ab90 0 CFBasicHashSetValue
PUBLIC b890 0 CFDictionaryGetValue
PUBLIC b960 0 CFBasicHashFindBucket
PUBLIC c800 0 _CFSetTSD
PUBLIC c8d0 0 CFNumberCreate
PUBLIC cdd0 0 __CFNumberHash
PUBLIC cf80 0 __CFNumberGetValue
PUBLIC d8a0 0 CFRelease
PUBLIC d910 0 -[__NSDictionaryM setObject:forKey:]
PUBLIC dd00 0 -[__NSCFNumber hash]
PUBLIC dd10 0 -[__NSCFNumber copyWithZone:]
PUBLIC dd30 0 -[__NSCFNumber retain]
PUBLIC dd50 0 +[NSDictionary dictionaryWithObjects:forKeys:count:]
PUBLIC ddb0 0 +[__NSPlaceholderDictionary immutablePlaceholder]
PUBLIC ddc0 0 -[__NSPlaceholderDictionary initWithObjects:forKeys:count:]
PUBLIC df40 0 CFStringConvertEncodingToNSStringEncoding
PUBLIC e0a0 0 +[NSTaggedPointerString _setAsTaggedStringClass]
PUBLIC e0b0 0 _CFStringInitializeTaggedStrings
PUBLIC e100 0 -[__NSCFString hash]
PUBLIC e110 0 -[__NSCFConstantString copyWithZone:]
PUBLIC e120 0 -[NSDictionary allKeys]
PUBLIC e290 0 -[__NSDictionaryI count]
PUBLIC e2b0 0 -[__NSDictionaryI getObjects:andKeys:count:]
PUBLIC e3b0 0 +[NSArray arrayWithObjects:count:]
PUBLIC e400 0 _CFAppVersionCheckLessThan
PUBLIC e490 0 ___bundleInfo_block_invoke
PUBLIC e550 0 CFBundleGetMainBundle
PUBLIC e700 0 CFStringCreateWithFileSystemRepresentation
PUBLIC e730 0 CFStringFileSystemEncoding
PUBLIC e750 0 CFURLCreateWithFileSystemPath
PUBLIC e760 0 _CFURLCreateWithFileSystemPath
PUBLIC f540 0 CFStringGetLength
PUBLIC f600 0 CFStringGetCharacterAtIndex
PUBLIC f6d0 0 CFStringHasPrefix
PUBLIC f720 0 CFStringFindWithOptionsAndLocale
PUBLIC 12c90 0 __CFStringFillCharacterSetInlineBuffer
PUBLIC 12ef0 0 CFStringGetCStringPtr
PUBLIC 13100 0 CFStringGetFileSystemRepresentation
PUBLIC 13120 0 CFStringGetCharactersPtr
PUBLIC 131c0 0 CreateStringFromFileSystemRepresentationByAddingPercentEscapes
PUBLIC 134d0 0 __AddAuthorityToFileURL_block_invoke
PUBLIC 134f0 0 CFStringCreateWithBytes
PUBLIC 13520 0 CFStringCreateCopy
PUBLIC 13720 0 _CFBundleCopyBundleURLForExecutableURL
PUBLIC 13950 0 _CFBundleCopyResolvedURLForExecutableURL
PUBLIC 13b30 0 CFURLCopyAbsoluteURL
PUBLIC 13e00 0 CFURLCopyFileSystemPath
PUBLIC 140b0 0 CanonicalFileURLStringToFileSystemRepresentation
PUBLIC 142d0 0 CFStringGetBytes
PUBLIC 14610 0 CFStringGetCharacters
PUBLIC 146f0 0 __CFStrConvertBytesToUnicode
PUBLIC 14790 0 _CFLengthAfterDeletingLastPathComponent
PUBLIC 14830 0 CFStringCreateWithCharacters
PUBLIC 14870 0 CFURLCreateWithFileSystemPathRelativeToBase
PUBLIC 14880 0 -[NSTaggedPointerString length]
PUBLIC 148a0 0 -[NSTaggedPointerString characterAtIndex:]
PUBLIC 14ac0 0 -[NSTaggedPointerString _fastCharacterContents]
PUBLIC 14ad0 0 -[NSTaggedPointerString _fastCStringContents:]
PUBLIC 14ae0 0 -[NSTaggedPointerString getCharacters:range:]
PUBLIC 14e00 0 CFUniCharDecompose
PUBLIC 14e40 0 __CFUniCharLoadDecompositionTable
PUBLIC 14f40 0 CFUniCharGetMappingData
PUBLIC 150c0 0 __CFUniCharLoadFile
PUBLIC 151e0 0 CFUniCharGetBitmapPtrForPlane
PUBLIC 15260 0 __CFUniCharLoadBitmapData
PUBLIC 15480 0 CFUniCharGetNumberOfPlanesForUnicodePropertyData
PUBLIC 154c0 0 __CFUniCharGetUnicodePropertyDataForPlane_block_invoke
PUBLIC 15660 0 CFUniCharGetUnicodePropertyDataForPlane
PUBLIC 156c0 0 -[NSTaggedPointerString copyWithZone:]
PUBLIC 156d0 0 CFURLIsFileReferenceURL
PUBLIC 15840 0 resolveAbsoluteURLString
PUBLIC 15960 0 resolveAbsoluteURLStringBuffer
PUBLIC 16560 0 CFStringCreateMutable
PUBLIC 166a0 0 _netLocationRange
PUBLIC 16800 0 _resolvedPath
PUBLIC 16ad0 0 CFStringCreateWithCharactersNoCopy
PUBLIC 16b10 0 __CFStringDeallocate
PUBLIC 16c30 0 __CFAllocatorSystemDeallocate
PUBLIC 16c50 0 CFStringAppendCharacters
PUBLIC 16fe0 0 __CFStringChangeSizeMultiple
PUBLIC 17de0 0 _CFURLCreateWithURLString
PUBLIC 18770 0 _parseComponents
PUBLIC 19c60 0 constructBuffers
PUBLIC 19de0 0 __CFURLDeallocate
PUBLIC 19e60 0 CFURLCreateStringWithFileSystemPath
PUBLIC 1a5e0 0 _retainedComponentString
PUBLIC 1a9b0 0 CFStringCreateWithSubstring
PUBLIC 1ab60 0 CFURLCreateStringByReplacingPercentEscapes
PUBLIC 1b3a0 0 CFStringGetMaximumSizeForEncoding
PUBLIC 1b4c0 0 CFURLHasDirectoryPath
PUBLIC 1b5b0 0 _CFStartOfLastPathComponent
PUBLIC 1b610 0 _CFBundleGetPlatformExecutablesSubdirectoryName
PUBLIC 1b620 0 CFEqual
PUBLIC 1b8d0 0 CFStringGetTypeID
PUBLIC 1b8e0 0 -[NSTaggedPointerString isEqual:]
PUBLIC 1b930 0 -[__NSCFString isNSString__]
PUBLIC 1b940 0 isEqualToString
PUBLIC 1bb60 0 -[__NSCFString length]
PUBLIC 1bb70 0 _CFStringGetLength2
PUBLIC 1bbc0 0 -[__NSCFString getCharacters:range:]
PUBLIC 1bc40 0 _CFStringCheckAndGetCharacters
PUBLIC 1bd50 0 _CFBundleCreate
PUBLIC 1c590 0 CFURLGetFileSystemRepresentation
PUBLIC 1c990 0 CFURLCreateFromFileSystemRepresentation
PUBLIC 1c9a0 0 _CFURLCreateWithFileSystemRepresentation
PUBLIC 1cd70 0 _CFBundleGetBundleVersionForURL
PUBLIC 1d600 0 CFURLGetString
PUBLIC 1d6f0 0 CFStringHasSuffix
PUBLIC 1d740 0 _CFIterateDirectory
PUBLIC 1db70 0 ___CFBundleGetBundleVersionForURL_block_invoke
PUBLIC 1dc40 0 CFStringCompareWithOptions
PUBLIC 1dc50 0 CFStringCompareWithOptionsAndLocale
PUBLIC 20210 0 CFBundleGetInfoDictionary
PUBLIC 20610 0 _CFBundleCopyInfoDictionaryInDirectoryWithVersion
PUBLIC 20b20 0 CFURLCreateWithString
PUBLIC 20b90 0 ___CFBundleCopyInfoDictionaryInDirectoryWithVersion_block_invoke
PUBLIC 20c90 0 CFURLCreateDataAndPropertiesFromResource
PUBLIC 214b0 0 CFURLCopyScheme
PUBLIC 21620 0 CFStringCompare
PUBLIC 21660 0 _CFReadBytesFromFile
PUBLIC 218b0 0 _CFStringGetFileSystemRepresentation
PUBLIC 218d0 0 CFDataCreateWithBytesNoCopy
PUBLIC 21930 0 __CFDataInit
PUBLIC 21cf0 0 CFPropertyListCreateWithData
PUBLIC 21d70 0 __initStatics_block_invoke
PUBLIC 21df0 0 _CFPropertyListCreateWithData
PUBLIC 22480 0 CFDataGetLength
PUBLIC 22530 0 __CFTryParseBinaryPlist
PUBLIC 22650 0 CFDataGetBytePtr
PUBLIC 22710 0 __CFBinaryPlistGetTopLevelInfo
PUBLIC 22b80 0 _CFPropertyListCreateFromUTF8Data
PUBLIC 237a0 0 CFBurstTrieCreate
PUBLIC 23890 0 CFDictionaryGetValueIfPresent
PUBLIC 23980 0 CFNumberGetValue
PUBLIC 23bb0 0 __CFDictionaryDeallocate
PUBLIC 23bc0 0 __CFBasicHashDeallocate
PUBLIC 23bf0 0 __CFBasicHashDrain
PUBLIC 23e50 0 CFArrayCreateMutable
PUBLIC 23f20 0 +[__NSPlaceholderArray mutablePlaceholder]
PUBLIC 23f30 0 -[__NSPlaceholderArray initWithCapacity:]
PUBLIC 23fc0 0 createTopLevelKeypaths
PUBLIC 24140 0 parseXMLElement
PUBLIC 26660 0 getContentObject
PUBLIC 26940 0 __CFPropertyListCreateSplitKeypaths
PUBLIC 26c40 0 parseStringTag
PUBLIC 27660 0 _createUniqueStringWithUTF8Bytes
PUBLIC 27730 0 CFBurstTrieContainsUTF8String
PUBLIC 27860 0 traverseCFBurstTrieWithCursor
PUBLIC 27a30 0 CFArrayGetCount
PUBLIC 27ad0 0 -[__NSArrayM count]
PUBLIC 27b20 0 CFBurstTrieAddUTF8String
PUBLIC 27b40 0 CFBurstTrieAddUTF8StringWithWeight
PUBLIC 27eb0 0 CFArrayAppendValue
PUBLIC 27f80 0 -[__NSArrayM addObject:]
PUBLIC 27fe0 0 -[__NSArrayM insertObject:atIndex:]
PUBLIC 28500 0 checkForCloseTag
PUBLIC 28790 0 _CFDictionarySetCapacity
PUBLIC 28830 0 findCFBurstTrieList
PUBLIC 28930 0 __CFStringEqual
PUBLIC 28e50 0 CFDictionaryGetCount
PUBLIC 28f00 0 CFBasicHashGetCount
PUBLIC 28fb0 0 containsKey
PUBLIC 28fc0 0 CFArrayGetValueAtIndex
PUBLIC 28fe0 0 -[__NSArrayM objectAtIndex:]
PUBLIC 29090 0 __CFStringDecodeByteStream3
PUBLIC 2a7a0 0 __CFFromUTF8
PUBLIC 2ac40 0 -[NSTaggedPointerString hash]
PUBLIC 2adf0 0 CFStringHashISOLatin1CString
PUBLIC 2b4b0 0 CFBurstTrieRelease
PUBLIC 2b500 0 finalizeCFBurstTrie
PUBLIC 2b580 0 -[__NSArrayM dealloc]
PUBLIC 2b5e0 0 CFGetTypeID
PUBLIC 2b6c0 0 __CFDataDeallocate
PUBLIC 2b760 0 _CFBundleInfoPlistProcessInfoDictionary
PUBLIC 2be60 0 CFDictionaryGetKeysAndValues
PUBLIC 2bf40 0 CFBasicHashGetElements
PUBLIC 2c050 0 CFBasicHashGetBucket
PUBLIC 2c1a0 0 CFStringFind
PUBLIC 2c200 0 CFBundleGetIdentifier
PUBLIC 2c230 0 ___useUnsafeUnretainedTables_block_invoke
PUBLIC 2c250 0 __CFArrayCreateMutable0
PUBLIC 2c270 0 __CFArrayInit
PUBLIC 2c490 0 _CFArrayReplaceValues
PUBLIC 2cbf0 0 __CFURLHash
PUBLIC 2cc10 0 _CFBundleGrokBinaryType
PUBLIC 2cc90 0 _CFBundleGrokFileType
PUBLIC 30780 0 _CFBundleInitializeMainBundleInfoDictionaryAlreadyLocked
PUBLIC 30990 0 _CFBundleCopyExecutableName
PUBLIC 30ad0 0 CFStringGetCString
PUBLIC 30d90 0 _CFBundleCheckWorkarounds
PUBLIC 30f40 0 CFStringGetDoubleValue
PUBLIC 31070 0 __CFStringScanDouble
PUBLIC 31490 0 -[__NSArrayI count]
PUBLIC 314b0 0 -[__NSArrayI objectAtIndex:]
PUBLIC 31510 0 -[__NSCFNumber isEqual:]
PUBLIC 31560 0 -[__NSCFNumber isNSNumber__]
PUBLIC 31570 0 -[__NSCFNumber isEqualToNumber:]
PUBLIC 315a0 0 -[__NSCFNumber compare:]
PUBLIC 317d0 0 -[__NSCFNumber objCType]
PUBLIC 31800 0 _CFNumberGetType2
PUBLIC 31930 0 -[__NSCFNumber longLongValue]
PUBLIC 31950 0 -[__NSArrayI dealloc]
PUBLIC 319d0 0 CFPreferencesGetAppBooleanValue
PUBLIC 319f0 0 _CFPreferencesGetAppBooleanValueWithContainer
PUBLIC 31c30 0 _CFPreferencesCopyAppValueWithContainer
PUBLIC 31cd0 0 _CFPrefsGetCacheStringForBundleID
PUBLIC 31de0 0 -[CFPrefsSearchListSource addManagedSourceForIdentifier:user:]
PUBLIC 31e50 0 CFStringCreateWithFormat
PUBLIC 31f70 0 _CFStringCreateWithFormatAndArgumentsAux2
PUBLIC 32020 0 __CFStringAppendFormatCore
PUBLIC 36380 0 _CFStringGetFormatSpecifierConfiguration
PUBLIC 363d0 0 __CFStringAppendBytes
PUBLIC 36a00 0 __CFCopyFormattingDescription
PUBLIC 36be0 0 __CFStringCopyFormattingDescription
PUBLIC 36c10 0 CFStringAppend
PUBLIC 36e80 0 _CFPrefsDirectMode
PUBLIC 36f00 0 _CFPrefsCurrentProcessIsCFPrefsD
PUBLIC 36f10 0 ___CFPrefsDirectMode_block_invoke
PUBLIC 36fe0 0 __isOnDirectModeBlackList_block_invoke
PUBLIC 370b0 0 -[CFPrefsPlistSource setDomainIdentifier:]
PUBLIC 37180 0 CFStringCreateMutableCopy
PUBLIC 37380 0 -[CFPrefsPlistSource setUserIdentifier:]
PUBLIC 37440 0 -[CFPrefsPlistSource setContainer:]
PUBLIC 374a0 0 __62-[CFPrefsSearchListSource addManagedSourceForIdentifier:user:]_block_invoke
PUBLIC 374c0 0 -[CFPrefsSearchListSource addSource:]
PUBLIC 37570 0 CFArrayContainsValue
PUBLIC 376c0 0 -[CFPrefsSearchListSource addNamedVolatileSourceForIdentifier:]
PUBLIC 37730 0 __63-[CFPrefsSearchListSource addNamedVolatileSourceForIdentifier:]_block_invoke
PUBLIC 37750 0 -[CFPrefsSearchListSource addSourceForIdentifier:user:byHost:container:]
PUBLIC 377c0 0 CFCopyHomeDirectoryURLForUser
PUBLIC 37910 0 __CFGetUGIDs
PUBLIC 37a00 0 _CFCopyHomeDirURLForUser
PUBLIC 37b40 0 _CFGetFileProperties
PUBLIC 37bf0 0 _CFGetPathProperties
PUBLIC 37db0 0 __72-[CFPrefsSearchListSource addSourceForIdentifier:user:byHost:container:]_block_invoke
PUBLIC 37dd0 0 -[CFPrefsSearchListSource addSuiteSourceForIdentifier:user:]
PUBLIC 37e40 0 -[CFPrefsSearchListSource freeze]
PUBLIC 37ee0 0 __60-[CFPrefsSearchListSource addSuiteSourceForIdentifier:user:]_block_invoke
PUBLIC 37f00 0 -[CFPrefsSearchListSource addCompatibilitySource]
PUBLIC 37f40 0 _CFPrefsGetCompatibilitySource
PUBLIC 38060 0 -[CFPrefsSearchListSource alreadylocked_copyValueForKey:]
PUBLIC 383e0 0 -[CFPrefsSearchListSource alreadylocked_copyDictionary]
PUBLIC 38750 0 CFArrayGetValues
PUBLIC 38880 0 -[__NSArrayM getObjects:range:]
PUBLIC 38ad0 0 generationCountFromListOfSources
PUBLIC 38ca0 0 -[CFPrefsSearchListSource createRequestNewContentMessageForDaemon:]
PUBLIC 38ef0 0 -[CFPrefsPlistSource createRequestNewContentMessageForDaemon:]
PUBLIC 392c0 0 -[CFPrefsPlistSource userIdentifier]
PUBLIC 392e0 0 __62-[CFPrefsPlistSource createRequestNewContentMessageForDaemon:]_block_invoke
PUBLIC 393d0 0 ___CFPrefsInstalliWorkWorkaround_block_invoke
PUBLIC 39440 0 -[CFPrefsPlistSource volatilizeIfInvalidHomeDir]
PUBLIC 39510 0 _CFGetCachedUnsandboxedHomeDirectoryForUser
PUBLIC 39580 0 ___CFGetCachedUnsandboxedHomeDirectoryForUser_block_invoke
PUBLIC 397d0 0 -[CFPrefsPlistSource createSynchronizeMessage]
PUBLIC 39b00 0 -[CFPrefsPlistSource domainIdentifier]
PUBLIC 39b20 0 -[CFPrefsManagedSource managed]
PUBLIC 39b30 0 -[CFPrefsPlistSource container]
PUBLIC 39b50 0 -[CFPrefsPlistSource attachAccessTokenToMessage:accessType:]
PUBLIC 39bf0 0 -[CFPrefsPlistSource addPIDImpersonationIfNecessary:]
PUBLIC 39c50 0 -[CFPrefsSource createRequestNewContentMessageForDaemon:]
PUBLIC 39ca0 0 -[CFPrefsSource managed]
PUBLIC 39cb0 0 lockDaemon
PUBLIC 39cd0 0 _CFGetProcessPath
PUBLIC 39cf0 0 unlockDaemon
PUBLIC 39d10 0 -[CFPrefsSearchListSource handleReply:toRequestNewDataMessage:onConnection:retryCount:error:]
PUBLIC 39e70 0 __93-[CFPrefsSearchListSource handleReply:toRequestNewDataMessage:onConnection:retryCount:error:]_block_invoke
PUBLIC 39f30 0 -[CFPrefsPlistSource handleReply:toRequestNewDataMessage:onConnection:retryCount:error:]
PUBLIC 3a6d0 0 -[CFPrefsPlistSource handleErrorReply:retryCount:retryContinuation:]
PUBLIC 3a700 0 -[CFPrefsPlistSource handleErrorReply:fromMessageSettingKey:toValue:retryCount:retryContinuation:]
PUBLIC 3ad80 0 __CFBinaryPlistCreateObjectFiltered
PUBLIC 3d0f0 0 __CFDictionaryCreateTransfer
PUBLIC 3d240 0 CFBasicHashSuppressRC
PUBLIC 3d250 0 CFBasicHashUnsuppressRC
PUBLIC 3d260 0 __CFTypeCollectionRelease
PUBLIC 3d2e0 0 CFDictionaryCreateMutableCopy
PUBLIC 3d580 0 CFBasicHashCreateCopy
PUBLIC 3daa0 0 CFDateCreate
PUBLIC 3dae0 0 +[NSDate allocWithZone:]
PUBLIC 3db60 0 +[__NSPlaceholderDate initialize]
PUBLIC 3db90 0 __33+[__NSPlaceholderDate initialize]_block_invoke
PUBLIC 3dc10 0 +[__NSPlaceholderDate immutablePlaceholder]
PUBLIC 3dc20 0 -[__NSPlaceholderDate initWithTimeIntervalSinceReferenceDate:]
PUBLIC 3dca0 0 __CFArrayCreateTransfer
PUBLIC 3ddc0 0 +[__NSTaggedDate __new:]
PUBLIC 3de00 0 CFDataCreate
PUBLIC 3de20 0 CFDataReplaceBytes
PUBLIC 3e070 0 CFDataGetMutableBytePtr
PUBLIC 3e130 0 +[__NSDate __new:]
PUBLIC 3e160 0 __CFAllocateObject
PUBLIC 3e200 0 -[CFPrefsSource alreadylocked_copyDictionary]
PUBLIC 3e280 0 CFDictionaryApplyFunction
PUBLIC 3e390 0 CFBasicHashApply
PUBLIC 3e440 0 __CFDictionaryApplyFunction_block_invoke
PUBLIC 3e460 0 CFDictionaryAddValue
PUBLIC 3e5d0 0 CFDictionaryCreate
PUBLIC 3e770 0 _CFPrefsCopyBackstopAppleLocaleOrLanguageForKey
PUBLIC 3e810 0 CFPreferencesGetAppIntegerValue
PUBLIC 3e830 0 _CFPreferencesGetAppIntegerValueWithContainer
PUBLIC 3ea20 0 +[NSMutableArray arrayWithCapacity:]
PUBLIC 3ea60 0 _CFAutoreleasePoolPush
PUBLIC 3ea80 0 -[__NSPlaceholderArray init]
PUBLIC 3eac0 0 CFMakeCollectable
PUBLIC 3ead0 0 -[__NSCFConstantString autorelease]
PUBLIC 3eae0 0 -[NSArray mutableCopyWithZone:]
PUBLIC 3eb70 0 -[NSArray initWithArray:range:copyItems:]
PUBLIC 3ee10 0 -[NSArray isNSArray__]
PUBLIC 3ee20 0 -[__NSArrayI getObjects:range:]
PUBLIC 3ef60 0 -[__NSArrayM replaceObjectAtIndex:withObject:]
PUBLIC 3f110 0 -[__NSArrayM copyWithZone:]
PUBLIC 3f250 0 -[NSArray initWithArray:copyItems:]
PUBLIC 3f2a0 0 _CFXPreferencesReplaceValuesInNamedVolatileSource
PUBLIC 3f330 0 -[CFPrefsSource lock]
PUBLIC 3f350 0 -[CFPrefsSource alreadylocked_copyKeyList]
PUBLIC 3f540 0 -[__NSArray0 retain]
PUBLIC 3f550 0 -[__NSArray0 count]
PUBLIC 3f560 0 -[__NSArray0 release]
PUBLIC 3f570 0 -[CFPrefsSource unlock]
PUBLIC 3f590 0 CFPreferencesCopyAppValue
PUBLIC 3f630 0 -[NSArray containsObject:]
PUBLIC 3f7c0 0 -[__NSCFArray countByEnumeratingWithState:objects:count:]
PUBLIC 3f820 0 _CFArrayFastEnumeration
PUBLIC 3f8d0 0 -[__NSCFString isEqual:]
PUBLIC 3fa20 0 -[NSTaggedPointerString isNSString__]
PUBLIC 3fa30 0 +[NSLocale currentLocale]
PUBLIC 3fa50 0 CFLocaleCopyCurrent
PUBLIC 3fa70 0 _CFLocaleCopyCurrentGuts
PUBLIC 40210 0 __CFXPreferencesCopyCurrentApplicationState
PUBLIC 40380 0 ____CFXPreferencesCopyCurrentApplicationState_block_invoke
PUBLIC 403b0 0 -[CFPrefsSource copyDictionary]
PUBLIC 40400 0 CFLocaleCreateCanonicalLocaleIdentifierFromString
PUBLIC 40680 0 -[NSTaggedPointerString _getCString:maxLength:encoding:]
PUBLIC 408a0 0 _CompareTestEntryToTableEntryKey
PUBLIC 408b0 0 _UpdateFullLocaleString
PUBLIC 40f80 0 _CompareLowerTestEntryPrefixToTableEntryKey
PUBLIC 41040 0 _CompareTestEntryPrefixToTableEntryKey
PUBLIC 410b0 0 _AppendKeyValueString
PUBLIC 411b0 0 CFNotificationCenterGetLocalCenter
PUBLIC 411f0 0 __CFNotificationCenterGetLocalCenter_block_invoke
PUBLIC 412e0 0 __CFXNotificationCenterCreate
PUBLIC 414b0 0 __CFNotificationCenterGetTypeID_block_invoke
PUBLIC 414d0 0 -[_CFXNotificationRegistrar initWithOptions:]
PUBLIC 41600 0 -[_CFXNotificationRegistrationContainer initWithParent:]
PUBLIC 41660 0 +[_CFXNotificationRegistrar childClass]
PUBLIC 41680 0 +[_CFXNotificationNameRegistration keyCallbacks]
PUBLIC 41690 0 -[_CFXNotificationRegistrationContainer initWithParent:childKeyCallbacks:]
PUBLIC 416f0 0 -[_CFXNotificationRegistrationBase initWithParent:]
PUBLIC 41770 0 +[_CFXNotificationRegistrationBase keyCallbacks]
PUBLIC 41780 0 __CFNotificationCenterGetDarwinNotifyCenter_block_invoke
PUBLIC 417b0 0 +[_CFXNotificationObjectRegistration stringKeyCallbacks]
PUBLIC 417f0 0 __56+[_CFXNotificationObjectRegistration stringKeyCallbacks]_block_invoke
PUBLIC 41830 0 _CFXNotificationRegisterObserver
PUBLIC 41850 0 +[_CFXNotificationTokenRegistration createTokenRegistration:token:connection:notifyToken:options:queue:handler:]
PUBLIC 419d0 0 -[_CFXNotificationDarwinTokenRegistration initWithToken:notifyToken:options:queue:handler:]
PUBLIC 41a20 0 -[_CFXNotificationTokenRegistration initWithToken:options:queue:handler:]
PUBLIC 41ac0 0 -[_CFXNotificationRegistrationBase init]
PUBLIC 41ae0 0 -[_CFXNotificationTokenRegistration setQueue:]
PUBLIC 41af0 0 -[NSBlock copy]
PUBLIC 41b00 0 +[_CFXNotificationTokenRegistration keyCallbacks]
PUBLIC 41b10 0 -[_CFXNotificationRegistrar add:object:observer:tokenRegistration:]
PUBLIC 41dd0 0 -[_CFXNotificationRegistrar acquireWildcardObject:]
PUBLIC 41f00 0 -[_CFXNotificationNameRegistration initWithName:options:parent:]
PUBLIC 41fe0 0 +[_CFXNotificationNameWildcardObjectRegistration childClass]
PUBLIC 42000 0 -[_CFXNotificationNameRegistration key]
PUBLIC 42020 0 _CFXNotificationChildrenAddValue
PUBLIC 421e0 0 __CFStringCollectionCopy
PUBLIC 42200 0 -[_CFXNotificationTokenRegistration options]
PUBLIC 42220 0 -[_CFXNotificationNameWildcardObjectRegistration acquireObserver:options:]
PUBLIC 423d0 0 -[_CFXNotificationObserverRegistration initWithObserver:parent:]
PUBLIC 42440 0 +[_CFXNotificationObserverRegistration childClass]
PUBLIC 42460 0 -[_CFXNotificationObserverRegistration key]
PUBLIC 42480 0 -[_CFXNotificationTokenRegistration addToObserver:]
PUBLIC 424c0 0 -[_CFXNotificationRegistrationContainer addChild:]
PUBLIC 42700 0 -[_CFXNotificationRegistrationBase setParent:]
PUBLIC 42720 0 -[_CFXNotificationTokenRegistration key]
PUBLIC 42730 0 _CFXNotificationTokenRefHash
PUBLIC 42750 0 -[_CFXNotificationRegistrar addChild:]
PUBLIC 42880 0 _CFAutoreleasePoolPop
PUBLIC 428b0 0 __initDayChangedNotification
PUBLIC 428e0 0 ____initDayChangedNotification_block_invoke
PUBLIC 429b0 0 __postAndResetMidnight
PUBLIC 42ae0 0 +[NSLocale allocWithZone:]
PUBLIC 42ba0 0 -[_NSPlaceholderLocale initWithLocaleIdentifier:]
PUBLIC 42bc0 0 CFLocaleCreate
PUBLIC 42e10 0 -[__NSCFLocale objectForKey:]
PUBLIC 42e20 0 CFLocaleGetValue
PUBLIC 43250 0 __CFLocaleCopyCodes
PUBLIC 43300 0 CFLocaleCreateComponentsFromLocaleIdentifier
PUBLIC 43740 0 __CFStringEncodeByteStream
PUBLIC 44b50 0 CFStringEncodingIsValidEncoding
PUBLIC 44b70 0 CFStringEncodingUnicodeToBytes
PUBLIC 455f0 0 __CFToBytesCheapEightBitWrapper
PUBLIC 45680 0 __CFToASCII
PUBLIC 456b0 0 CFDictionaryCreateCopy
PUBLIC 457d0 0 -[__NSCFLocale displayNameForKey:value:]
PUBLIC 457f0 0 CFLocaleCopyDisplayNameForPropertyValue
PUBLIC 45d20 0 __CFLocaleLanguageName
PUBLIC 45dc0 0 -[NSTaggedPointerString autorelease]
PUBLIC 45dd0 0 -[__NSCFArray count]
PUBLIC 45e20 0 -[__NSDictionaryM objectForKey:]
PUBLIC 45f50 0 _CFXPreferencesRegisterDefaultValues
PUBLIC 45fd0 0 -[__NSDictionaryM count]
PUBLIC 46020 0 -[NSDictionary getObjects:andKeys:]
PUBLIC 460d0 0 -[__NSDictionaryM getObjects:andKeys:count:]
PUBLIC 46200 0 _CFPrefsValidateValueForKey
PUBLIC 46350 0 CFPropertyListIsValid
PUBLIC 463a0 0 __CFPropertyListIsValidAux
PUBLIC 465a0 0 CFSetCreateMutable
PUBLIC 466a0 0 CFSetAddValue
PUBLIC 46780 0 CFArrayApplyFunction
PUBLIC 467e0 0 __CFPropertyListIsArrayPlistAux
PUBLIC 46840 0 CFSetRemoveValue
PUBLIC 46920 0 CFBasicHashRemoveValue
PUBLIC 47400 0 __CFBasicHashRemoveValue
PUBLIC 47650 0 __CFSetDeallocate
PUBLIC 47660 0 CFPropertyListCreateDeepCopy
PUBLIC 47c70 0 _arrayDeepImmutableCopy
PUBLIC 47e30 0 -[__NSDictionaryM dealloc]
PUBLIC 47e90 0 -[__NSCFLocale release]
PUBLIC 47ea0 0 -[__NSCFArray release]
PUBLIC 47eb0 0 _CFXPreferencesSetUserDefaultsPointer
PUBLIC 47ec0 0 mergeFunc
PUBLIC 47f30 0 +[NSMutableSet setWithCapacity:]
PUBLIC 47f70 0 +[NSSet allocWithZone:]
PUBLIC 48010 0 +[__NSPlaceholderSet initialize]
PUBLIC 48040 0 __32+[__NSPlaceholderSet initialize]_block_invoke
PUBLIC 480b0 0 +[__NSPlaceholderSet mutablePlaceholder]
PUBLIC 480c0 0 -[__NSPlaceholderSet initWithCapacity:]
PUBLIC 48150 0 +[__NSSetM initialize]
PUBLIC 48180 0 __22+[__NSSetM initialize]_block_invoke
PUBLIC 481b0 0 +[__NSSetM __new:::]
PUBLIC 48430 0 -[__NSSetM addObject:]
PUBLIC 48740 0 -[__NSGlobalBlock retain]
PUBLIC 48750 0 -[__NSArrayI countByEnumeratingWithState:objects:count:]
PUBLIC 487e0 0 CFBundleGetBundleWithIdentifier
PUBLIC 48960 0 _CFBundleCopyLoadedImagePathForPointer
PUBLIC 48990 0 _CFBundleEnsureBundleExistsForImagePath
PUBLIC 48a50 0 __CFBundleCopyFrameworkURLForExecutablePath
PUBLIC 48e10 0 CFStringCreateMutableWithExternalCharactersNoCopy
PUBLIC 48ff0 0 _CFLengthAfterDeletingPathExtension
PUBLIC 49050 0 CFStringSetExternalCharactersNoCopy
PUBLIC 49080 0 __CFURLEqual
PUBLIC 49100 0 __CFStringFoldCharacterClusterAtIndex
PUBLIC 49f90 0 CFArrayReplaceValues
PUBLIC 4a080 0 -[NSMutableArray replaceObjectsInRange:withObjects:count:]
PUBLIC 4a2e0 0 -[__NSArrayM _mutate]
PUBLIC 4a360 0 -[NSTaggedPointerString retain]
PUBLIC 4a370 0 -[NSTaggedPointerString release]
PUBLIC 4a380 0 _CFBundleDlfcnCheckLoaded
PUBLIC 4a430 0 CFBundleCopyExecutableURL
PUBLIC 4a450 0 _CFBundleCopyExecutableURLInDirectory2
PUBLIC 4a710 0 _CFBundleCopyExecutableURLRaw
PUBLIC 4a890 0 __CFgetenvIfNotRestricted
PUBLIC 4a910 0 CFURLCopyPath
PUBLIC 4a9c0 0 URLPathToPOSIXPath
PUBLIC 4aa50 0 CFURLCreateStringByReplacingPercentEscapesUsingEncoding
PUBLIC 4afe0 0 _CFBundleDYLDCopyLoadedImagePathsForHint
PUBLIC 4b240 0 CFStringFindWithOptions
PUBLIC 4b260 0 -[NSTaggedPointerString substringWithRange:]
PUBLIC 4b550 0 -[NSTaggedPointerString getBytes:maxLength:usedLength:encoding:options:range:remainingRange:]
PUBLIC 4b950 0 CFBundleCopyBundleURL
PUBLIC 4b980 0 +[NSURL __unurl]
PUBLIC 4b9c0 0 __16+[NSURL __unurl]_block_invoke
PUBLIC 4b9f0 0 -[__NSPlaceholderSet init]
PUBLIC 4ba30 0 CFStringConvertNSStringEncodingToEncoding
PUBLIC 4ba90 0 CFStringIsEncodingAvailable
PUBLIC 4bb20 0 __CFStringDecodeByteStream2
PUBLIC 4bb40 0 CFStringHashCharacters
PUBLIC 4c260 0 __rehashs
PUBLIC 4c370 0 CFBundleCreate
PUBLIC 4c3f0 0 CFBundleGetLocalInfoDictionary
PUBLIC 4c550 0 CFBundleCopyResourceURL
PUBLIC 4c580 0 _CFBundleCopyFindResources
PUBLIC 4d010 0 _CFCreateLastPathComponent
PUBLIC 4d120 0 -[NSTaggedPointerString fastestEncoding]
PUBLIC 4d130 0 _CFBundleLayoutVersion
PUBLIC 4d140 0 _copyResourceURLsFromBundle
PUBLIC 4d930 0 _copyQueryTable
PUBLIC 4daf0 0 _CFBundleCopyLanguageSearchListInBundle
PUBLIC 4ddb0 0 CFBundleCopyBundleLocalizations
PUBLIC 4e3f0 0 CFBundleCopyResourcesDirectoryURL
PUBLIC 4e460 0 _CFBundleCopyLProjDirectoriesForURL
PUBLIC 4e570 0 ___CFBundleCopyLProjDirectoriesForURL_block_invoke
PUBLIC 4e630 0 CFBundleGetDevelopmentRegion
PUBLIC 4e6a0 0 __CFBundleGetDevelopmentRegion_block_invoke
PUBLIC 4e740 0 ___CFBundleCopyUserLanguages_block_invoke
PUBLIC 4e860 0 _CFBundleCopyPreferredLanguagesInList
PUBLIC 4eb00 0 __CFBundleAllowMixedLocalizations_block_invoke
PUBLIC 4eb20 0 _CFBundleGetInfoDictionaryBoolean
PUBLIC 4ec10 0 __CFBundleFollowParentLocalization_block_invoke
PUBLIC 4ec30 0 _CFBundleCreateMutableArrayOfFallbackLanguages
PUBLIC 4ee20 0 ___CFBundleCreateMutableArrayOfFallbackLanguages_block_invoke
PUBLIC 4ef20 0 _createQueryTableAtPath
PUBLIC 4f390 0 _CFGetProductName
PUBLIC 4f3a0 0 _CFGetPlatformName
PUBLIC 4f3b0 0 _CFAppendPathComponent2
PUBLIC 4f3e0 0 _CFAppendTrailingPathSlash2
PUBLIC 4f4c0 0 ___CFBundleReadDirectory_block_invoke
PUBLIC 4f900 0 _CFBundleAddValueForType
PUBLIC 4fa00 0 CFCopyDescription
PUBLIC 4fc90 0 -[NSObject(NSObject) _copyDescription]
PUBLIC 4fcf0 0 CFStringDelete
PUBLIC 4fd90 0 _CFAppendPathExtension2
PUBLIC 500a0 0 _CFBundleReadDirectory
PUBLIC 50250 0 __CFBasicHashReplaceValue
PUBLIC 504a0 0 -[__NSCFDictionary retain]
PUBLIC 504c0 0 -[__NSCFDictionary objectForKey:]
PUBLIC 50520 0 -[__NSCFString retain]
PUBLIC 50540 0 -[__NSCFString UTF8String]
PUBLIC 50590 0 __CFStringMtbl
PUBLIC 505a0 0 CFRunLoopGetCurrent
PUBLIC 505e0 0 _CFRunLoopGet0
PUBLIC 50730 0 __CFRunLoopCreate
PUBLIC 50a50 0 __CFRunLoopFindMode
PUBLIC 50f70 0 CFSetGetValue
PUBLIC 51040 0 __CFRunLoopModeHash
PUBLIC 51050 0 CFRunLoopSourceCreate
PUBLIC 51210 0 CFRunLoopAddSource
PUBLIC 515c0 0 CFSetCreateCopy
PUBLIC 516e0 0 __CFRunLoopSourceHash
PUBLIC 51700 0 CFSetApplyFunction
PUBLIC 51810 0 __CFSetApplyFunction_block_invoke
PUBLIC 51830 0 __CFRunLoopAddItemToCommonModes
PUBLIC 51940 0 __CFRunLoopModeEqual
PUBLIC 51960 0 CFSetContainsValue
PUBLIC 51a20 0 CFBasicHashGetCountOfKey
PUBLIC 52620 0 CFBagCreateMutable
PUBLIC 52720 0 CFBagAddValue
PUBLIC 52770 0 __CFBasicHashIncSlotCount
PUBLIC 539d0 0 -[__NSCFType retain]
PUBLIC 539f0 0 -[__NSSetM removeObject:]
PUBLIC 53c70 0 -[__NSCFDictionary release]
PUBLIC 53c80 0 +[NSDictionary dictionaryWithObjectsAndKeys:]
PUBLIC 540e0 0 __CFNumberGetValueCompat
PUBLIC 54ae0 0 _CFXNotificationGetTaskCenter
PUBLIC 54b20 0 _CFXNotificationPost
PUBLIC 555f0 0 -[__NSCFConstantString retain]
PUBLIC 55600 0 -[_CFXNotificationRegistrar find:object:observer:enumerator:]
PUBLIC 55e60 0 -[__NSCFConstantString release]
PUBLIC 55e70 0 -[__NSCFString release]
PUBLIC 55e80 0 -[_CFXNotificationObjcObserverRegistration initWithObserver:parent:]
PUBLIC 55f00 0 _NSObjectStoreWeak
PUBLIC 55f80 0 -[NSObject(__NSCFType) _cfTypeID]
PUBLIC 55f90 0 CFTypeGetTypeID
PUBLIC 55fa0 0 +[NSDate dateWithTimeIntervalSinceNow:]
PUBLIC 56020 0 -[__NSMallocBlock retain]
PUBLIC 56040 0 -[__NSDate timeIntervalSinceReferenceDate]
PUBLIC 56060 0 CFRunLoopTimerCreate
PUBLIC 566b0 0 CFAbsoluteTimeGetCurrent
PUBLIC 566f0 0 __CFTimeIntervalToTSR
PUBLIC 56780 0 CFRunLoopAddTimer
PUBLIC 56a80 0 __CFRepositionTimerInMode
PUBLIC 56b40 0 __CFRunLoopInsertionIndexInTimerArray
PUBLIC 56c70 0 CFArrayInsertValueAtIndex
PUBLIC 56d50 0 __CFArmNextTimerInMode
PUBLIC 56fe0 0 __CFTSRToNanoseconds
PUBLIC 57050 0 __CFTSRToDispatchTime
PUBLIC 570d0 0 -[__NSCFTimer retain]
PUBLIC 570e0 0 -[__NSMallocBlock release]
PUBLIC 570f0 0 -[__NSCFString isEqualToString:]
PUBLIC 57240 0 copyBlocks
PUBLIC 573a0 0 _CFGetSlash
PUBLIC 573b0 0 CFPropertyListCreateFromXMLData
PUBLIC 574e0 0 __CFToUTF8
PUBLIC 577b0 0 __CFPropertyListCreateError
PUBLIC 57910 0 CFStringCreateWithFormatAndArguments
PUBLIC 579a0 0 CFErrorCreate
PUBLIC 57a50 0 __CFCreateOldStylePropertyListOrStringsFile
PUBLIC 58050 0 parsePlistObject
PUBLIC 58c30 0 parseQuotedPlistString
PUBLIC 593b0 0 _uniqueStringForCharacters
PUBLIC 59580 0 parsePlistDictContent
PUBLIC 59e00 0 __CFErrorDeallocate
PUBLIC 59e30 0 CFCharacterSetGetPredefined
PUBLIC 59f40 0 -[__NSCFCharacterSet retain]
PUBLIC 59f50 0 -[__NSCFCharacterSet invertedSet]
PUBLIC 59f80 0 CFCharacterSetCreateInvertedSet
PUBLIC 5a040 0 __CFCharacterSetCreateCopy
PUBLIC 5a650 0 CFCharacterSetInvert
PUBLIC 5a9b0 0 CFStringFindCharacterFromSet
PUBLIC 5aff0 0 CFCharacterSetInitInlineBuffer
PUBLIC 5b2d0 0 -[__NSCFCharacterSet release]
PUBLIC 5b2e0 0 -[__NSCFString substringWithRange:]
PUBLIC 5b410 0 CFCharacterSetIsLongCharacterMember
PUBLIC 5b490 0 CFUniCharIsMemberOf
PUBLIC 5b750 0 -[__NSCFString getCString:maxLength:encoding:]
PUBLIC 5b7e0 0 CFAllocatorCreate
PUBLIC 5bac0 0 +[NSArray array]
PUBLIC 5bb00 0 __CFStartSearchPathEnumeration
PUBLIC 5bb10 0 -[NSEnumerator countByEnumeratingWithState:objects:count:]
PUBLIC 5bb80 0 __CFGetNextSearchPathEnumeration
PUBLIC 5bc10 0 -[__NSCFString hasPrefix:]
PUBLIC 5bc90 0 +[NSArray arrayWithArray:]
PUBLIC 5bcf0 0 -[__NSPlaceholderDictionary initWithContentsOfFile:]
PUBLIC 5bd60 0 -[NSDictionary isNSDictionary__]
PUBLIC 5bd70 0 -[__NSCFString replaceOccurrencesOfString:withString:options:range:]
PUBLIC 5c060 0 CFStringFindAndReplace
PUBLIC 5c610 0 CFStringCreateWithBytesNoCopy
PUBLIC 5c640 0 __CFCharacterSetDeallocate
PUBLIC 5c750 0 -[__NSCFTimer release]
PUBLIC 5c760 0 -[__NSDate dealloc]
PUBLIC 5c790 0 -[__NSDictionaryI dealloc]
PUBLIC 5c850 0 -[__NSCFNumber release]
PUBLIC 5c870 0 CFRunLoopAddCommonMode
PUBLIC 5c960 0 __CFRunLoopAddItemsToCommonMode
PUBLIC 5ca70 0 CFNotificationCenterGetDistributedCenter
PUBLIC 5cad0 0 __CFNotificationCenterGetDistributedCenter_block_invoke
PUBLIC 5cb00 0 __CFXNotificationCenterSetupConnection
PUBLIC 5cc90 0 CFNotificationCenterAddObserver
PUBLIC 5cdb0 0 __checkDelivImmed
PUBLIC 5cf70 0 _CFSuddenTerminationDisable
PUBLIC 5cfa0 0 ____send_xpc_message_block_invoke
PUBLIC 5cfb0 0 -[_CFXNotificationDistributedTokenRegistration initWithToken:connection:options:queue:handler:]
PUBLIC 5d030 0 _CFSuddenTerminationEnable
PUBLIC 5d0a0 0 _CFXNotificationTokenRefEqual
PUBLIC 5d0d0 0 _CFBundleInitPlugIn
PUBLIC 5d2b0 0 __CFBundleGetPlugInData
PUBLIC 5d2c0 0 _registerFactory
PUBLIC 5d370 0 CFUUIDCreateFromString
PUBLIC 5e050 0 __LOCKED_block_invoke
PUBLIC 5e080 0 ____CFUUIDCreateWithBytesPrimitive_block_invoke
PUBLIC 5e220 0 __CFhashUUIDBytes
PUBLIC 5e230 0 CFHashBytes
PUBLIC 5e3d0 0 CFPlugInRegisterFactoryFunctionByName
PUBLIC 5e410 0 _CFPFactoryCreateByName
PUBLIC 5e4a0 0 _CFPFactoryCommonCreate
PUBLIC 5e600 0 _CFPlugInAddFactory
PUBLIC 5e640 0 _registerType
PUBLIC 5e7f0 0 -[NSArray _cfTypeID]
PUBLIC 5e800 0 __CFisEqualUUIDBytes
PUBLIC 5e890 0 CFPlugInRegisterPlugInType
PUBLIC 5e8c0 0 _CFPFactoryFind
PUBLIC 5e920 0 _CFPFactoryAddType
PUBLIC 5ea10 0 -[NSDictionary initWithObjectsAndKeys:]
PUBLIC 5ee40 0 CFDictionaryContainsKey
PUBLIC 5ef00 0 -[NSDictionary containsKey:]
PUBLIC 5ef70 0 -[__NSCFString fastestEncoding]
PUBLIC 5ef90 0 CFStringGetFastestEncoding
PUBLIC 5f020 0 CFStringGetMaximumSizeOfFileSystemRepresentation
PUBLIC 5f090 0 __CFSetLastAllocationEventName
PUBLIC 5f0b0 0 -[NSCache init]
PUBLIC 5f190 0 -[NSCache setEvictsObjectsWithDiscardedContent:]
PUBLIC 5f1d0 0 -[NSCache setName:]
PUBLIC 5f2a0 0 -[__NSCFString copyWithZone:]
PUBLIC 5f2c0 0 __CFBinaryPlistGetOffsetForValueFromDictionary3
PUBLIC 5fda0 0 __CFBinaryPlistCreateObject
PUBLIC 5fdc0 0 __CFBinaryPlistGetOffsetForValueFromArray2
PUBLIC 601d0 0 -[__NSCFBoolean release]
PUBLIC 601f0 0 -[NSDictionary initWithObjects:forKeys:]
PUBLIC 604e0 0 CFDictionaryRemoveValue
PUBLIC 60630 0 CFNumberIsFloatType
PUBLIC 60650 0 CFNumberGetType
PUBLIC 60780 0 -[NSArray initWithArray:]
PUBLIC 607d0 0 -[__NSDictionaryI objectForKey:]
PUBLIC 608d0 0 -[NSCache objectForKey:]
PUBLIC 609d0 0 __NSCacheKeyHash
PUBLIC 609e0 0 -[NSCache evictsObjectsWithDiscardedContent]
PUBLIC 60a00 0 CFCopySearchPathForDirectoriesInDomains
PUBLIC 60be0 0 computeSanitizedString
PUBLIC 60ff0 0 scanCharacters
PUBLIC 61520 0 CFDictionaryContainsValue
PUBLIC 615e0 0 CFBasicHashGetCountOfValue
PUBLIC 62380 0 __CFBasicHashGetCountOfValue_block_invoke
PUBLIC 623e0 0 CFDataCreateCopy
PUBLIC 626e0 0 -[NSCache setObject:forKey:]
PUBLIC 62720 0 __NSCheckReentrancy
PUBLIC 627b0 0 -[NSCache setObject:forKey:cost:]
PUBLIC 62930 0 __NSCacheKeyRetain
PUBLIC 62950 0 __NSCacheValueRetain
PUBLIC 62960 0 CFLocaleGetIdentifier
PUBLIC 62a00 0 -[NSDictionary _cfTypeID]
PUBLIC 62a10 0 -[__NSDictionaryI __apply:context:]
PUBLIC 62af0 0 __CFPropertyListIsDictPlistAux
PUBLIC 62c40 0 _CFXNotificationGetHostCenter
PUBLIC 62ca0 0 -[__NSArray0 autorelease]
PUBLIC 62cb0 0 _CFDoExceptionOperation
PUBLIC 62f20 0 CFRunLoopTimerCreateWithHandler
PUBLIC 62f70 0 CFRunLoopGetMain
PUBLIC 62fc0 0 __CFRunLoopSetOptionsReason
PUBLIC 641b0 0 ____CFRunLoopSetOptionsReason_block_invoke
PUBLIC 641e0 0 ____CFAppSleepInit1_block_invoke
PUBLIC 64230 0 -[NSTaggedPointerString isEqualToString:]
PUBLIC 64260 0 _CFBundleGetMainBundleIfLooksLikeBundle
PUBLIC 64290 0 CFBundleGetValueForInfoDictionaryKey
PUBLIC 642f0 0 CFURLCopyLastPathComponent
PUBLIC 64590 0 _rangeOfLastPathComponent
PUBLIC 64670 0 CFAllocatorGetDefault
PUBLIC 64690 0 _CFXPCCreateXPCObjectFromCFObject
PUBLIC 64c10 0 CFURLGetBaseURL
PUBLIC 64cb0 0 CFDateGetAbsoluteTime
PUBLIC 64cd0 0 -[__NSTaggedDate timeIntervalSinceReferenceDate]
PUBLIC 64d20 0 _CFXPCCreateCFObjectFromXPCObject
PUBLIC 65500 0 CFUUIDCreateFromUUIDBytes
PUBLIC 655d0 0 __CFRunLoopSetOptions
PUBLIC 655e0 0 ____CFRunLoopSetOptionsReason_block_invoke_2
PUBLIC 65ca0 0 _CFGetProgname
PUBLIC 65cc0 0 _CFAppSleepSetupLaunchServices
PUBLIC 65ef0 0 CFArrayCreateCopy
PUBLIC 66030 0 _CFArrayIsMutable
PUBLIC 66040 0 _CFAppSleepSetupCoreGraphics
PUBLIC 662d0 0 CFStringLowercase
PUBLIC 667d0 0 _CFStrGetLanguageIdentifierForLocale
PUBLIC 669a0 0 __CFLocaleGetNullLocale
PUBLIC 66a50 0 __CFLocaleCopyCollatorID
PUBLIC 66bd0 0 CFLocaleCreateCanonicalLanguageIdentifierFromString
PUBLIC 66f90 0 __CFLocaleSetNullLocale
PUBLIC 67040 0 _CFAppSleepSetupAppSleepDebug
PUBLIC 670c0 0 ___CFAppSleepSetupAppSleepDebug_block_invoke
PUBLIC 670f0 0 ____CFRunLoopSetOptionsReason_block_invoke_5
PUBLIC 67290 0 CFURLCopyPathExtension
PUBLIC 67350 0 CFURLCopyResourcePropertyForKey
PUBLIC 674e0 0 _CFURLHasFileURLScheme
PUBLIC 676e0 0 __CFURLResourceInfoPtr
PUBLIC 677a0 0 __CFLookupCoreServicesInternalFunction
PUBLIC 677f0 0 CFBooleanGetValue
PUBLIC 678a0 0 _CFURLIsFileURL
PUBLIC 678b0 0 _CFURLCopyResourcePropertyForKeyFromCache
PUBLIC 67a10 0 _CFURLRegisterFilePropertyProvider
PUBLIC 67a80 0 _CFURLRegisterFilePropertyWithOptions
PUBLIC 67b00 0 __CFURLSetResourceInfoPtr
PUBLIC 67bd0 0 _CFURLFileCacheGetPropertyValueForKey
PUBLIC 67c30 0 _CFGetPathExtensionRangesFromPathComponent
PUBLIC 68240 0 _CFURLFileCacheGetFlags
PUBLIC 682c0 0 _CFURLGetObjectInformationNoIO
PUBLIC 68330 0 CFURLCreateResourcePropertyForKeyFromBookmarkData
PUBLIC 68390 0 _CFURLIsFileReferenceURL
PUBLIC 683a0 0 CFURLCreateFileReferenceURL
PUBLIC 68640 0 CFURLCopyNetLocation
PUBLIC 68800 0 CFURLCopyResourceSpecifier
PUBLIC 68b90 0 _CFURLCopyFileReferenceURLPath
PUBLIC 69030 0 CFStringCreateByCombiningStrings
PUBLIC 69650 0 _CFCopySystemVersionDictionary
PUBLIC 69690 0 _CFCopyVersionDictionary
PUBLIC 698d0 0 _CFCopyLocalizedVersionKey
PUBLIC 699c0 0 CFBundleCopyLocalizedString
PUBLIC 699d0 0 CFBundleCopyLocalizedStringForLocalization
PUBLIC 69d20 0 CFBundleAllowMixedLocalizations
PUBLIC 69d60 0 _CFBundleCopyBundleDevelopmentRegionFromVersResource
PUBLIC 6a040 0 __CFBundleGetResourceData
PUBLIC 6a050 0 _CFStartOfLastPathComponent2
PUBLIC 6a0f0 0 _CFLengthAfterDeletingPathExtension2
PUBLIC 6a120 0 _CFStartOfPathExtension2
PUBLIC 6a1f0 0 CFStringAppendFormat
PUBLIC 6a2c0 0 _CFIsResourceAtPath
PUBLIC 6a390 0 _CFBundleGetStringsFilesShared
PUBLIC 6a3a0 0 _CFDataCreateFromURL
PUBLIC 6a420 0 __CFBundleCopyLocalizedStringForLocalization_block_invoke_2
PUBLIC 6a4a0 0 CFDataCreateMutable
PUBLIC 6a4d0 0 CFDataAppendBytes
PUBLIC 6a5a0 0 CFNotificationCenterGetDarwinNotifyCenter
PUBLIC 6a600 0 CFPreferencesCopyValue
PUBLIC 6a6b0 0 _CFPreferencesCopyValueWithContainer
PUBLIC 6a760 0 -[CFPrefsPlistSource copyValueForKey:]
PUBLIC 6a7c0 0 _copyValueForKey
PUBLIC 6ac20 0 _CFURLFileCacheSetPropertyValueForKey
PUBLIC 6ac80 0 CFURLCreateCopyDeletingLastPathComponent
PUBLIC 6b030 0 -[NSURL getResourceValue:forKey:error:]
PUBLIC 6b150 0 __CFURLBeginResourcePropertyCacheAccess
PUBLIC 6b260 0 __CFURLEndResourcePropertyCacheAccess
PUBLIC 6b370 0 CFRunLoopObserverCreate
PUBLIC 6b580 0 CFRunLoopAddObserver
PUBLIC 6b840 0 -[__NSCFBoolean boolValue]
PUBLIC 6b860 0 _CFBundleCreateUnique
PUBLIC 6b880 0 __CFBundleDeallocate
PUBLIC 6bb10 0 CFBundleUnloadExecutable
PUBLIC 6bbf0 0 _CFBundleUnloadScheduledBundles
PUBLIC 6bca0 0 _CFBundleDeallocatePlugIn
PUBLIC 6bd40 0 CFCharacterSetCreateMutable
PUBLIC 6bde0 0 CFCharacterSetAddCharactersInRange
PUBLIC 6c490 0 __CFCSetMakeBitmap
PUBLIC 6c970 0 __CFCSetGetBitmap
PUBLIC 6cd40 0 __CFCSetAddNonBMPPlanesInRange
PUBLIC 6d120 0 CFWriteStreamCreateWithAllocatedBuffers
PUBLIC 6d150 0 _CFStreamCreateWithConstantCallbacks
PUBLIC 6d250 0 writeDataCreate
PUBLIC 6d330 0 CFWriteStreamOpen
PUBLIC 6d3b0 0 _CFStreamOpen
PUBLIC 6d5f0 0 _CFStreamGetStatus
PUBLIC 6d7f0 0 writeDataOpen
PUBLIC 6d850 0 CFPropertyListWriteToStream
PUBLIC 6d980 0 CFPropertyListWrite
PUBLIC 6dbf0 0 __CFBinaryPlistWrite
PUBLIC 6dc10 0 __CFBinaryPlistWriteOrPresize
PUBLIC 6e0a0 0 _CFArraySetCapacity
PUBLIC 6e350 0 _CFSetSetCapacity
PUBLIC 6e3f0 0 _flattenPlist
PUBLIC 6e720 0 CFSetGetCount
PUBLIC 6e7d0 0 bufferWrite
PUBLIC 6e940 0 _appendObject
PUBLIC 6f2b0 0 _appendString
PUBLIC 6f6d0 0 __CFArrayDeallocate
PUBLIC 6f6f0 0 __CFArrayReleaseValues
PUBLIC 6f970 0 writeBytes
PUBLIC 6fa90 0 CFWriteStreamWrite
PUBLIC 6fdf0 0 dataWrite
PUBLIC 6ff40 0 CFWriteStreamCopyProperty
PUBLIC 6fff0 0 dataCopyProperty
PUBLIC 700b0 0 CFWriteStreamClose
PUBLIC 70120 0 _CFStreamClose
PUBLIC 703d0 0 __CFStreamDeallocate
PUBLIC 704d0 0 writeDataFinalize
PUBLIC 70550 0 CFRunLoopPerformBlock
PUBLIC 708a0 0 CFRunLoopWakeUp
PUBLIC 70a70 0 CFStringCreateWithCStringNoCopy
PUBLIC 70ad0 0 CFMachPortCreateWithPort
PUBLIC 70ae0 0 _CFMachPortCreateWithPort2
PUBLIC 70f60 0 ___CFMachPortQueue_block_invoke
PUBLIC 70fa0 0 CFMachPortIsValid
PUBLIC 71080 0 _CFMachPortSetOptions
PUBLIC 710c0 0 CFMachPortGetPort
PUBLIC 71190 0 CFMachPortCreateRunLoopSource
PUBLIC 712d0 0 CFRunLoopContainsSource
PUBLIC 713b0 0 __CFRunLoopSourceEqual
PUBLIC 71450 0 __CFMachPortHash
PUBLIC 71460 0 __CFMachPortGetPort
PUBLIC 71470 0 _CFRuntimeBridgeClasses
PUBLIC 714c0 0 _CFGetExecutableLinkedLibraryVersion
PUBLIC 71510 0 _CFLibraryVersionCompare
PUBLIC 715b0 0 _CFXNotificationCenterCreate
PUBLIC 715f0 0 -[__NSGlobalBlock copy]
PUBLIC 71600 0 -[_CFXNotificationDistributedTokenQueueRegistration setQueue:]
PUBLIC 71620 0 -[_CFXNotificationRegistrar acquireName:]
PUBLIC 71760 0 -[_CFXNotificationNameRegistration acquireObject:]
PUBLIC 71890 0 -[_CFXNotificationObjectRegistration initWithObject:parent:]
PUBLIC 718e0 0 +[_CFXNotificationObjectRegistration childClass]
PUBLIC 71900 0 -[_CFXNotificationObjectRegistration key]
PUBLIC 71920 0 -[_CFXNotificationObjectRegistration acquireObserver:options:]
PUBLIC 71c60 0 -[_CFXNotificationObserverRegistration observer]
PUBLIC 71c80 0 CFRunLoopSourceGetContext
PUBLIC 71ce0 0 -[NSDictionary objectForKeyedSubscript:]
PUBLIC 71d30 0 CFURLCreateCopyAppendingPathComponent
PUBLIC 71fd0 0 CFURLCreateStringByAddingPercentEscapes
PUBLIC 726c0 0 _stringContainsCharacter
PUBLIC 72830 0 CFStringInsert
PUBLIC 72a50 0 CFURLCreateCopyAppendingPathExtension
PUBLIC 72c90 0 CFURLResourceIsReachable
PUBLIC 72d90 0 __CFDictionaryEqual
PUBLIC 72da0 0 __CFBasicHashEqual
PUBLIC 72db0 0 CFBasicHashesAreEqual
PUBLIC 73070 0 _CFURLCreateStandardError
PUBLIC 73100 0 _CFErrorCreateEmptyDictionary
PUBLIC 731f0 0 CFErrorCreateWithUserInfoKeysAndValues
PUBLIC 732b0 0 CFErrorGetCode
PUBLIC 73360 0 CFDataCreateMutableCopy
PUBLIC 73510 0 CFDataSetLength
PUBLIC 73680 0 CFArraySortValues
PUBLIC 73bc0 0 CFQSortArray
PUBLIC 73f40 0 CFSortIndexes
PUBLIC 742c0 0 __CFSimpleMergeSort
PUBLIC 74820 0 __CFQSortArray_block_invoke
PUBLIC 74850 0 __CFArrayCompareValues
PUBLIC 74870 0 CFSetSetValue
PUBLIC 74950 0 CFUUIDCreateString
PUBLIC 74d10 0 __CFUUIDDeallocate
PUBLIC 74d80 0 ____CFUUIDDeallocate_block_invoke
PUBLIC 74db0 0 -[NSArray firstObject]
PUBLIC 74e20 0 +[_CFXNotificationNameRegistration childClass]
PUBLIC 74e40 0 -[__NSCFNumber floatValue]
PUBLIC 74e70 0 -[__NSCFNumber doubleValue]
PUBLIC 74ea0 0 _CFAppVersionCheck
PUBLIC 74f10 0 CFStringOpenUText
PUBLIC 74f70 0 __CFStringClone
PUBLIC 75040 0 __CFStringLength
PUBLIC 75050 0 __CFStringAccess
PUBLIC 75060 0 doAccess
PUBLIC 753f0 0 __CFStringClose
PUBLIC 75450 0 -[__NSArrayM countByEnumeratingWithState:objects:count:]
PUBLIC 754f0 0 -[__NSCFDictionary count]
PUBLIC 75540 0 +[NSNull null]
PUBLIC 75550 0 -[NSSet initWithArray:]
PUBLIC 755a0 0 -[NSSet initWithArray:range:copyItems:]
PUBLIC 75840 0 -[NSArray getObjects:range:]
PUBLIC 75990 0 -[__NSPlaceholderSet initWithObjects:count:]
PUBLIC 75ac0 0 +[NSSet setWithObject:]
PUBLIC 75b00 0 +[__NSPlaceholderSet immutablePlaceholder]
PUBLIC 75b10 0 -[NSArray lastObject]
PUBLIC 75b80 0 __CFBundleCopyLocalizedStringForLocalization_block_invoke
PUBLIC 75bb0 0 -[__NSSingleObjectSetI dealloc]
PUBLIC 75c10 0 -[__NSCFString hasSuffix:]
PUBLIC 75c90 0 -[__NSPlaceholderDictionary initWithContentsOfURL:]
PUBLIC 75d30 0 +[NSDictionary dictionary]
PUBLIC 75d70 0 +[NSDictionary dictionaryWithDictionary:]
PUBLIC 75db0 0 -[NSDictionary initWithDictionary:copyItems:]
PUBLIC 76060 0 -[NSCache setMinimumObjectCount:]
PUBLIC 76070 0 _CFStringCreateWithBytesNoCopy
PUBLIC 760a0 0 CFStringGetPascalStringPtr
PUBLIC 762d0 0 -[__NSCFData release]
PUBLIC 762e0 0 -[NSArray initWithObjects:]
PUBLIC 765c0 0 __NSCacheKeyEqual
PUBLIC 765d0 0 CFArrayCreateMutableCopy
PUBLIC 76700 0 CFAutorelease
PUBLIC 76740 0 -[__NSCFType release]
PUBLIC 76750 0 -[NSMutableArray addObjectsFromArray:]
PUBLIC 76a00 0 -[NSMutableArray insertObjectsFromArray:range:atIndex:]
PUBLIC 76ca0 0 -[NSMutableArray insertObjects:count:atIndex:]
PUBLIC 76e40 0 -[NSSet initWithObjects:]
PUBLIC 77130 0 -[NSSet containsObject:]
PUBLIC 771a0 0 -[__NSSetI member:]
PUBLIC 77280 0 -[__NSDictionaryM keyEnumerator]
PUBLIC 77300 0 +[__NSFastEnumerationEnumerator allocWithZone:]
PUBLIC 77320 0 -[__NSFastEnumerationEnumerator initWithObject:]
PUBLIC 775e0 0 -[__NSFastEnumerationEnumerator nextObject]
PUBLIC 77780 0 -[__NSDictionaryM countByEnumeratingWithState:objects:count:]
PUBLIC 778b0 0 -[NSMutableDictionary addEntriesFromDictionary:]
PUBLIC 77ab0 0 -[__NSDictionaryM _mutate]
PUBLIC 77b30 0 -[__NSDictionaryM copyWithZone:]
PUBLIC 77c10 0 -[__NSDictionary0 retain]
PUBLIC 77c20 0 -[__NSDictionaryM removeAllObjects]
PUBLIC 77f90 0 -[NSDictionary countByEnumeratingWithState:objects:count:]
PUBLIC 78130 0 -[__NSDictionary0 count]
PUBLIC 78140 0 -[__NSDictionary0 keyEnumerator]
PUBLIC 78150 0 -[__NSSetM count]
PUBLIC 781a0 0 -[__NSSetM dealloc]
PUBLIC 78200 0 -[__NSFastEnumerationEnumerator dealloc]
PUBLIC 78270 0 -[__NSDictionary0 release]
PUBLIC 78280 0 -[__NSArrayM indexOfObjectIdenticalTo:]
PUBLIC 78330 0 -[NSArray componentsJoinedByString:]
PUBLIC 78560 0 -[__NSDictionary0 objectForKey:]
PUBLIC 78570 0 __CFAllocateObjectArray
PUBLIC 78610 0 __CFFreeObjectArray
PUBLIC 78640 0 -[__NSCFNumber integerValue]
PUBLIC 78660 0 -[__NSCFNumber longValue]
PUBLIC 78680 0 __hashPtr
PUBLIC 78690 0 -[__NSDictionaryI copyWithZone:]
PUBLIC 786b0 0 -[__NSCFDictionary setObject:forKey:]
PUBLIC 787b0 0 _CFDictionaryIsMutable
PUBLIC 78850 0 -[__NSCFBoolean retain]
PUBLIC 78870 0 -[__NSCFString classForCoder]
PUBLIC 788a0 0 -[NSTaggedPointerString compare:options:range:locale:]
PUBLIC 78cf0 0 CFReadStreamCreateWithFile
PUBLIC 78d70 0 fileCreate
PUBLIC 78de0 0 CFReadStreamOpen
PUBLIC 78e60 0 fileOpen
PUBLIC 78fb0 0 CFPropertyListCreateWithStream
PUBLIC 792c0 0 CFReadStreamRead
PUBLIC 79630 0 fileRead
PUBLIC 79710 0 CFAllocatorReallocate
PUBLIC 798a0 0 CFReadStreamClose
PUBLIC 79910 0 fileClose
PUBLIC 79960 0 fileFinalize
PUBLIC 799e0 0 CFStringConvertEncodingToIANACharSetName
PUBLIC 79b40 0 __CFStringEncodingGetCanonicalName
PUBLIC 79d70 0 +[NSDictionary dictionaryWithObject:forKey:]
PUBLIC 79dc0 0 -[__NSCFBoolean intValue]
PUBLIC 79de0 0 __CFToISOLatin1
PUBLIC 79e10 0 CFCopyUserName
PUBLIC 79ea0 0 +[NSMethodSignature signatureWithObjCTypes:]
PUBLIC 7aa50 0 __NSMS1
PUBLIC 7bbe0 0 __NSGetSizeAndAlignment
PUBLIC 7c7d0 0 __NSMS4
PUBLIC 7c810 0 typeStringHash
PUBLIC 7c830 0 CFStringHashCString
PUBLIC 7ca80 0 typeStringRetain
PUBLIC 7ca90 0 +[NSSet setWithObjects:]
PUBLIC 7cdb0 0 -[NSMethodSignature numberOfArguments]
PUBLIC 7cdd0 0 -[NSMethodSignature _frameDescriptor]
PUBLIC 7cdf0 0 -[NSMethodSignature _argInfo:]
PUBLIC 7ce40 0 -[NSMethodSignature _classForObjectAtArgumentIndex:]
PUBLIC 7ceb0 0 -[NSMethodSignature _signatureForBlockAtArgumentIndex:]
PUBLIC 7cf90 0 typeStringEqual
PUBLIC 7cfb0 0 -[NSMethodSignature _typeString]
PUBLIC 7d150 0 _CFAutoreleasePoolAddObject
PUBLIC 7d190 0 -[NSTaggedPointerString UTF8String]
PUBLIC 7d3f0 0 -[NSMutableSet unionSet:]
PUBLIC 7d7c0 0 -[__NSSetM _mutate]
PUBLIC 7d840 0 -[NSSet isNSSet__]
PUBLIC 7d850 0 -[__NSSetI count]
PUBLIC 7d870 0 -[__NSSetI getObjects:count:]
PUBLIC 7d940 0 -[NSSet countForObject:]
PUBLIC 7d9a0 0 -[__NSSetI countByEnumeratingWithState:objects:count:]
PUBLIC 7da80 0 -[NSBlock copyWithZone:]
PUBLIC 7da90 0 __forwarding_prep_0___
PUBLIC 7db90 0 ___forwarding___
PUBLIC 7e140 0 +[NSInvocation _invocationWithMethodSignature:frame:]
PUBLIC 7e290 0 -[NSMethodSignature frameLength]
PUBLIC 7e2b0 0 -[NSInvocation methodSignature]
PUBLIC 7e2d0 0 -[NSInvocation selector]
PUBLIC 7e300 0 -[NSInvocation getArgument:atIndex:]
PUBLIC 7e4f0 0 __NSI1
PUBLIC 7e680 0 __NSI0
PUBLIC 7ea00 0 -[NSInvocation setArgument:atIndex:]
PUBLIC 7ec80 0 __NSICreateBackingForArgumentIfNeeded
PUBLIC 7ee60 0 __NSI2
PUBLIC 7f000 0 -[__NSSetM member:]
PUBLIC 7f140 0 -[NSMethodSignature methodReturnType]
PUBLIC 7f170 0 -[NSMethodSignature isEqual:]
PUBLIC 7f210 0 +[NSInvocation invocationWithMethodSignature:]
PUBLIC 7f230 0 -[__NSCFNumber charValue]
PUBLIC 7f250 0 -[NSInvocation setTarget:]
PUBLIC 7f280 0 -[NSInvocation invoke]
PUBLIC 7f460 0 __invoking___
PUBLIC 7f520 0 -[NSInvocation dealloc]
PUBLIC 7f610 0 -[__NSGlobalBlock copyWithZone:]
PUBLIC 7f620 0 -[_CFXNotificationTokenQueueRegistration setQueue:]
PUBLIC 7f640 0 -[__NSCFNumber intValue]
PUBLIC 7f660 0 +[NSSet set]
PUBLIC 7f6a0 0 -[NSArray indexOfObject:]
PUBLIC 7f850 0 -[NSDictionary enumerateKeysAndObjectsUsingBlock:]
PUBLIC 7f8d0 0 -[NSDictionary enumerateKeysAndObjectsWithOptions:usingBlock:]
PUBLIC 7f970 0 __NSDictionaryEnumerate
PUBLIC 7fd80 0 -[NSMutableDictionary setObject:forKeyedSubscript:]
PUBLIC 7fe10 0 -[__NSDictionaryM enumerateKeysAndObjectsWithOptions:usingBlock:]
PUBLIC 7ffd0 0 -[__NSCFArray retain]
PUBLIC 7ffe0 0 -[__NSStackBlock retain]
PUBLIC 7fff0 0 -[__NSStackBlock release]
PUBLIC 80000 0 _CFBundleSetupXPCBootstrap
PUBLIC 80150 0 CFRunLoopSourceSignal
PUBLIC 801a0 0 CFPropertyListCreateData
PUBLIC 80330 0 -[NSTaggedPointerStringCStringContainer release]
PUBLIC 803c0 0 __CFDictionaryHash
PUBLIC 803d0 0 __CFBasicHashHash
PUBLIC 80480 0 -[NSArray hash]
PUBLIC 804d0 0 -[NSArray isEqual:]
PUBLIC 80550 0 -[NSArray isEqualToArray:]
PUBLIC 80760 0 -[__NSCFType isEqual:]
PUBLIC 80790 0 CFRunLoopTimerIsValid
PUBLIC 80860 0 CFLocaleCopyPreferredLanguages
PUBLIC 808a0 0 CFBundleGetLocalizationInfoForLocalization
PUBLIC 80ba0 0 CFLocaleGetLanguageRegionEncodingForLocaleIdentifier
PUBLIC 80ea0 0 CompareLocaleToLegacyCodesEntries
PUBLIC 80eb0 0 CFBundleCopyLocalizationForLocalizationInfo
PUBLIC 810f0 0 -[NSTaggedPointerString lowercaseStringWithLocale:]
PUBLIC 81430 0 -[__NSCFString replaceCharactersInRange:withString:]
PUBLIC 81470 0 __CFStringCheckAndReplace
PUBLIC 81740 0 CFRunLoopRunInMode
PUBLIC 817d0 0 CFRunLoopRunSpecific
PUBLIC 81a90 0 __CFRunLoopModeIsEmpty
PUBLIC 81c50 0 __CFRunLoopRun
PUBLIC 829b0 0 __CFRunLoopDoBlocks
PUBLIC 82c10 0 __CFRunLoopDoSources0
PUBLIC 82dc0 0 __CFRunLoopCollectSources0
PUBLIC 82ea0 0 __CFRunLoopServiceMachPort
PUBLIC 83130 0 CFPreferencesAppSynchronize
PUBLIC 83230 0 -[CFPrefsSearchListSource synchronize]
PUBLIC 83250 0 -[CFPrefsSearchListSource alreadylocked_requestNewData]
PUBLIC 832d0 0 -[CFPrefsPlistSource synchronize]
PUBLIC 834a0 0 -[CFPrefsSource synchronize]
PUBLIC 834b0 0 -[__NSCFNumber unsignedIntegerValue]
PUBLIC 834d0 0 -[__NSCFNumber unsignedLongValue]
PUBLIC 834f0 0 +[NSDate date]
PUBLIC 83560 0 +[NSArray arrayWithObjects:]
PUBLIC 83860 0 -[__NSArrayI copyWithZone:]
PUBLIC 83880 0 -[__NSCFData retain]
PUBLIC 83890 0 -[__NSCFData copyWithZone:]
PUBLIC 83900 0 __CFDataMtbl
PUBLIC 83910 0 +[NSArray arrayWithObject:]
PUBLIC 83950 0 -[NSArray arrayByAddingObjectsFromArray:]
PUBLIC 83b40 0 -[__NSCFString characterAtIndex:]
PUBLIC 83bc0 0 _CFStringCheckAndGetCharacterAtIndex
PUBLIC 83cc0 0 -[NSDictionary allValues]
PUBLIC 83e30 0 +[NSMutableDictionary dictionaryWithCapacity:]
PUBLIC 83e70 0 __CFXPCDictionaryApplier
PUBLIC 83f40 0 CFStringReplaceAll
PUBLIC 841b0 0 CFStringCapitalize
PUBLIC 84880 0 -[__NSDictionaryI keyEnumerator]
PUBLIC 848d0 0 -[__NSDictionaryI countByEnumeratingWithState:objects:count:]
PUBLIC 849b0 0 -[NSSet makeObjectsPerformSelector:]
PUBLIC 84b20 0 -[__NSSetM countByEnumeratingWithState:objects:count:]
PUBLIC 84c40 0 -[__NSCFCharacterSet characterIsMember:]
PUBLIC 84c50 0 CFCharacterSetIsCharacterMember
PUBLIC 84e40 0 -[NSTaggedPointerString uppercaseStringWithLocale:]
PUBLIC 85180 0 -[NSArray makeObjectsPerformSelector:withObject:]
PUBLIC 85420 0 _CFXNotificationRemoveObservers
PUBLIC 85510 0 -[_CFXNotificationRegistrar match:object:observer:enumerator:]
PUBLIC 86050 0 -[_CFXNotificationNameRegistration match:observer:matching:]
PUBLIC 862e0 0 -[_CFXNotificationObjectRegistration match:matching:]
PUBLIC 86520 0 -[__NSArrayM removeObjectAtIndex:]
PUBLIC 86580 0 _CFBundleCopyFrameworkURLForExecutablePath
PUBLIC 86590 0 _CFXPCCreateCFObjectFromXPCMessage
PUBLIC 865d0 0 __CFBinaryPlistCreate15
PUBLIC 867f0 0 __readObject15
PUBLIC 87aa0 0 __CFLookUpClass
PUBLIC 87b80 0 +[NSDictionary newDictionaryWithObjects:forKeys:count:]
PUBLIC 87d60 0 CFMakeUncollectable
PUBLIC 87d70 0 +[NSArray newArrayWithObjects:count:]
PUBLIC 87f00 0 -[NSDate timeIntervalSinceNow]
PUBLIC 87f60 0 -[__NSCFTimer setTolerance:]
PUBLIC 87f70 0 CFRunLoopTimerSetTolerance
PUBLIC 88080 0 _CFRunLoopGet2
PUBLIC 88120 0 +[NSLocale preferredLanguages]
PUBLIC 88140 0 -[NSArray enumerateObjectsUsingBlock:]
PUBLIC 881c0 0 -[__NSArrayM enumerateObjectsWithOptions:usingBlock:]
PUBLIC 883f0 0 __CFToMacRoman
PUBLIC 88470 0 CFStringCreateFromExternalRepresentation
PUBLIC 884d0 0 CFCharacterSetCreateWithCharactersInString
PUBLIC 887c0 0 CFCharacterSetAddCharactersInString
PUBLIC 88dd0 0 __CFCreateCompactBitmap
PUBLIC 88fe0 0 -[__NSCFCharacterSet mutableCopyWithZone:]
PUBLIC 89000 0 CFCharacterSetCreateMutableCopy
PUBLIC 89020 0 -[__NSCFCharacterSet removeCharactersInString:]
PUBLIC 89030 0 CFCharacterSetRemoveCharactersInString
PUBLIC 895e0 0 -[NSArray objectEnumerator]
PUBLIC 89630 0 +[NSDate timeIntervalSinceReferenceDate]
PUBLIC 89670 0 -[NSSet isEqual:]
PUBLIC 896f0 0 -[__NSCFDictionary copyWithZone:]
PUBLIC 89760 0 -[__NSDictionaryI enumerateKeysAndObjectsWithOptions:usingBlock:]
PUBLIC 898e0 0 __65-[__NSDictionaryI enumerateKeysAndObjectsWithOptions:usingBlock:]_block_invoke
PUBLIC 89980 0 -[NSSet allObjects]
PUBLIC 89af0 0 -[__NSSetM getObjects:count:]
PUBLIC 89c00 0 -[__NSArrayI enumerateObjectsWithOptions:usingBlock:]
PUBLIC 89de0 0 __53-[__NSArrayI enumerateObjectsWithOptions:usingBlock:]_block_invoke
PUBLIC 89e60 0 CFLocaleGetSystem
PUBLIC 89f30 0 CFURLGetByteRangeForComponent
PUBLIC 8a4b0 0 CFURLGetBytes
PUBLIC 8a5b0 0 CFStringReplace
PUBLIC 8a7d0 0 __CFRunLoopDoSource1
PUBLIC 8aa70 0 __CFRUNLOOP_IS_CALLING_OUT_TO_A_SOURCE1_PERFORM_FUNCTION__
PUBLIC 8aab0 0 __CFMachPortPerform
PUBLIC 8ac50 0 _CFMachPortBoostCreate
PUBLIC 8acd0 0 __CFRunLoopDoTimers
PUBLIC 8aea0 0 ___CFEnableMotionHack_block_invoke
PUBLIC 8aee0 0 __CFRunLoopDoTimer
PUBLIC 8b6a0 0 __CFRUNLOOP_IS_CALLING_OUT_TO_A_TIMER_CALLBACK_FUNCTION__
PUBLIC 8b6c0 0 CFGetRetainCount
PUBLIC 8b7e0 0 CFRunLoopTimerInvalidate
PUBLIC 8baa0 0 CFSetGetValues
PUBLIC 8bb60 0 CFRunLoopRemoveTimer
PUBLIC 8bd10 0 CFArrayGetFirstIndexOfValue
PUBLIC 8be60 0 CFArrayRemoveValueAtIndex
PUBLIC 8bf20 0 __CFRunLoopTimerDeallocate
PUBLIC 8bf60 0 __CFTimeIntervalUntilTSR
PUBLIC 8c030 0 _CFBundleCreateInfoDictFromMainExecutable
PUBLIC 8c0d0 0 _CFBundleCreateInfoDictFromData
PUBLIC 8c1a0 0 _CFProcessNameString
PUBLIC 8c210 0 -[CFPrefsPlistSource goVolatileAfterTryingToWriteKey:value:]
PUBLIC 8c240 0 -[CFPrefsPlistSource _goReadOnlyOrVolatileAfterTryingToWriteKey:value:]
PUBLIC 8c2e0 0 _CFGetCurrentDirectory
PUBLIC 8c300 0 CFURLCreateCopyDeletingPathExtension
PUBLIC 8c4f0 0 __alreadylocked_requestNewDataIfStale_block_invoke
PUBLIC 8c510 0 -[CFPrefsPlistSource alreadylocked_requestNewData]
PUBLIC 8c6b0 0 __50-[CFPrefsPlistSource alreadylocked_requestNewData]_block_invoke
PUBLIC 8c780 0 -[CFPrefsPlistSource sendRequestNewDataMessage:toConnection:retryCount:error:]
PUBLIC 8c9e0 0 __78-[CFPrefsPlistSource sendRequestNewDataMessage:toConnection:retryCount:error:]_block_invoke
PUBLIC 8ca10 0 CFMachPortCreate
PUBLIC 8cb40 0 CFStringCreateExternalRepresentation
PUBLIC 8d340 0 CFStringGetPascalString
PUBLIC 8d600 0 __CFDataAllocate
PUBLIC 8d690 0 __CFDataGrow
PUBLIC 8d8f0 0 CFDataIncreaseLength
PUBLIC 8d9b0 0 CFPasteboardCreate
PUBLIC 8dbe0 0 CFMessagePortCreatePerProcessLocal
PUBLIC 8dc10 0 __CFMessagePortCreateLocal
PUBLIC 8e220 0 __CFMessagePortSanitizeStringName
PUBLIC 8e300 0 -[__NSCFData length]
PUBLIC 8e310 0 -[__NSCFData bytes]
PUBLIC 8e320 0 CFMachPortSetInvalidationCallBack
PUBLIC 8e420 0 __CFPasteboardGetTypeID_block_invoke
PUBLIC 8e440 0 -[NSInvocation _addAttachedObject:]
PUBLIC 8e4b0 0 -[NSMethodSignature _protocolsForObjectAtArgumentIndex:]
PUBLIC 8e5a0 0 _CFPreferencesSetAppValueWithContainer
PUBLIC 8e650 0 _CFPreferencesSetValueWithContainer
PUBLIC 8e710 0 _CFURLCreateFromPropertyListRepresentation
PUBLIC 8e970 0 -[__NSDictionaryI mutableCopyWithZone:]
PUBLIC 8eb00 0 -[NSURL isFileReferenceURL]
PUBLIC 8ebb0 0 __NSMS6
PUBLIC 8ec90 0 +[NSArray supportsSecureCoding]
PUBLIC 8eca0 0 CFStringGetIntValue
PUBLIC 8edd0 0 __CFStringScanInteger
PUBLIC 8f5e0 0 -[__NSSetI dealloc]
PUBLIC 8f6a0 0 CFReadStreamCreateWithBytesNoCopy
PUBLIC 8f6f0 0 readDataCreate
PUBLIC 8f750 0 CFTimeZoneCreateWithTimeIntervalFromGMT
PUBLIC 8f8e0 0 readDataOpen
PUBLIC 8f940 0 +[NSTimeZone allocWithZone:]
PUBLIC 8f9c0 0 dataRead
PUBLIC 8fa80 0 +[__NSPlaceholderTimeZone initialize]
PUBLIC 8fab0 0 __37+[__NSPlaceholderTimeZone initialize]_block_invoke
PUBLIC 8faf0 0 readDataFinalize
PUBLIC 8fb20 0 __CFTimeZoneGetTypeID_block_invoke
PUBLIC 8fb40 0 +[__NSPlaceholderTimeZone immutablePlaceholder]
PUBLIC 8fb50 0 -[__NSPlaceholderTimeZone __initWithName:data:cache:]
PUBLIC 8fbe0 0 __nameStringOK
PUBLIC 8fd00 0 __tryParseGMTName
PUBLIC 8ff20 0 +[__NSTimeZone initialize]
PUBLIC 8ff50 0 __26+[__NSTimeZone initialize]_block_invoke
PUBLIC 8ff90 0 +[__NSTimeZone __new:cache:]
PUBLIC 900a0 0 CFGregorianDateIsValid
PUBLIC 90210 0 CFGregorianDateGetAbsoluteTime
PUBLIC 902e0 0 __CFAbsoluteFromYMD
PUBLIC 904f0 0 CFTimeZoneGetSecondsFromGMT
PUBLIC 90560 0 +[NSDate dateWithTimeIntervalSinceReferenceDate:]
PUBLIC 905b0 0 -[__NSTimeZone secondsFromGMTForDate:]
PUBLIC 90780 0 -[NSDictionary hash]
PUBLIC 907d0 0 +[NSOrderedSet orderedSet]
PUBLIC 90810 0 +[NSOrderedSet allocWithZone:]
PUBLIC 908b0 0 +[__NSPlaceholderOrderedSet initialize]
PUBLIC 908e0 0 __39+[__NSPlaceholderOrderedSet initialize]_block_invoke
PUBLIC 90950 0 +[__NSOrderedSetI __new:::]
PUBLIC 90df0 0 +[__NSPlaceholderOrderedSet mutablePlaceholder]
PUBLIC 90e00 0 -[__NSPlaceholderOrderedSet initWithObjects:count:]
PUBLIC 90ef0 0 +[__NSOrderedSetM __new:::]
PUBLIC 910a0 0 -[NSMutableOrderedSet addObject:]
PUBLIC 91140 0 -[__NSOrderedSetM _mutate]
PUBLIC 911a0 0 -[__NSOrderedSetM count]
PUBLIC 911c0 0 -[__NSOrderedSetM insertObject:atIndex:]
PUBLIC 912e0 0 __NSOrderedSetHashKey
PUBLIC 91300 0 -[__NSOrderedSetM countByEnumeratingWithState:objects:count:]
PUBLIC 913c0 0 -[NSArray countByEnumeratingWithState:objects:count:]
PUBLIC 914f0 0 -[NSOrderedSet array]
PUBLIC 91570 0 -[__NSOrderedSetArrayProxy initWithOrderedSet:]
PUBLIC 915a0 0 -[__NSOrderedSetArrayProxy count]
PUBLIC 915c0 0 -[__NSOrderedSetArrayProxy objectAtIndex:]
PUBLIC 915e0 0 -[__NSOrderedSetM objectAtIndex:]
PUBLIC 91650 0 -[__NSCFSet member:]
PUBLIC 916c0 0 CFSetGetValueIfPresent
PUBLIC 917b0 0 -[__NSCFSet addObject:]
PUBLIC 918a0 0 _CFSetIsMutable
PUBLIC 91940 0 -[__NSDictionaryM removeObjectForKey:]
PUBLIC 91a20 0 -[NSMutableArray removeObject:]
PUBLIC 91b20 0 -[NSDictionary initWithDictionary:]
PUBLIC 91b40 0 -[__NSCFString _newSubstringWithRange:zone:]
PUBLIC 91b60 0 -[__NSCFDictionary mutableCopyWithZone:]
PUBLIC 91bb0 0 CFDataDeleteBytes
PUBLIC 91c90 0 chcompar
PUBLIC 91ca0 0 CFArrayBSearchValues
PUBLIC 91e00 0 CFURLCreateWithBytes
PUBLIC 91e90 0 _CFBundleCreateWithExecutableURLIfLooksLikeBundle
PUBLIC 91fe0 0 __CFMachPortEqual
PUBLIC 92000 0 -[__NSCFString appendString:]
PUBLIC 92050 0 -[__NSCFString insertString:atIndex:]
PUBLIC 92090 0 _CFBundleFindResourcesWithPredicate
PUBLIC 921f0 0 _CFGetSlashStr
PUBLIC 92200 0 _CFBundleCreateRelativeURLFromBaseAndPath
PUBLIC 92320 0 -[NSArray sortedArrayUsingComparator:]
PUBLIC 923c0 0 -[NSArray sortedArrayFromRange:options:usingComparator:]
PUBLIC 927f0 0 -[__NSCFString mutableCopyWithZone:]
PUBLIC 92810 0 CFStringTrimWhitespace
PUBLIC 92ca0 0 _CFURLCopyComponents
PUBLIC 92fb0 0 decomposeToRFC1808
PUBLIC 93250 0 CFURLCanBeDecomposed
PUBLIC 93300 0 CFStringCreateArrayBySeparatingStrings
PUBLIC 93450 0 CFStringCreateArrayWithFindResults
PUBLIC 93630 0 __rangeRetain
PUBLIC 93650 0 __rangeRelease
PUBLIC 93660 0 _CFURLCreateFromComponents
PUBLIC 93af0 0 -[NSURL resourceValuesForKeys:error:]
PUBLIC 93c00 0 CFURLCopyResourcePropertiesForKeys
PUBLIC 93da0 0 -[NSDate copyWithZone:]
PUBLIC 93dc0 0 CFBundleCopyInfoDictionaryForURL
PUBLIC 93e30 0 _CFIsResourceAtURL
PUBLIC 93f10 0 _CFBundleCopyInfoDictionaryInDirectory
PUBLIC 94000 0 CFURLCreateAbsoluteURLWithBytes
PUBLIC 946d0 0 -[__NSGlobalBlock release]
PUBLIC 946e0 0 -[NSDictionary isEqualToDictionary:]
PUBLIC 94940 0 -[NSDictionary isEqual:]
PUBLIC 949c0 0 CFURLCopyHostName
PUBLIC 94b10 0 -[NSEnumerator allObjects]
PUBLIC 94c60 0 +[NSSet setWithArray:]
PUBLIC 94cc0 0 -[NSArray objectAtIndexedSubscript:]
PUBLIC 94d10 0 CFReadStreamGetStatus
PUBLIC 94d80 0 -[__NSArray0 copy]
PUBLIC 94d90 0 -[NSMutableArray sortUsingFunction:context:]
PUBLIC 94ea0 0 -[NSMutableArray sortWithOptions:usingComparator:]
PUBLIC 94f60 0 CFPreferencesSynchronize
PUBLIC 95000 0 -[NSMutableArray sortRange:options:usingComparator:]
PUBLIC 953a0 0 _CFPreferencesSynchronizeWithContainer
PUBLIC 95450 0 +[NSMutableOrderedSet orderedSetWithCapacity:]
PUBLIC 95490 0 -[__NSPlaceholderOrderedSet initWithCapacity:]
PUBLIC 95520 0 -[NSArray sortedArrayUsingSelector:]
PUBLIC 955d0 0 -[NSArray sortedArrayWithOptions:usingComparator:]
PUBLIC 95670 0 CFPasteboardCopyName
PUBLIC 956b0 0 -[__NSDictionary0 autorelease]
PUBLIC 956c0 0 -[__NSDictionary0 getObjects:andKeys:count:]
PUBLIC 956d0 0 -[__NSOrderedSetArrayProxy dealloc]
PUBLIC 95720 0 -[__NSOrderedSetM dealloc]
PUBLIC 95790 0 -[NSSet mutableCopyWithZone:]
PUBLIC 95810 0 -[NSSet initWithSet:copyItems:]
PUBLIC 95c10 0 -[__NSCFSet count]
PUBLIC 95c60 0 -[NSSet getObjects:count:]
PUBLIC 95e10 0 -[__NSCFSet countByEnumeratingWithState:objects:count:]
PUBLIC 95e70 0 _CFSetFastEnumeration
PUBLIC 95f30 0 __CFBasicHashFastEnumeration
PUBLIC 96000 0 CFArrayAppendArray
PUBLIC 96060 0 CFRunLoopTimerSetNextFireDate
PUBLIC 96690 0 -[NSMutableSet addObjectsFromArray:]
PUBLIC 968f0 0 -[__NSCFNumber unsignedIntValue]
PUBLIC 96910 0 -[_CFXNotificationNameRegistration find:observer:matching:]
PUBLIC 96a30 0 -[_CFXNotificationNameWildcardObjectRegistration find:matching:]
PUBLIC 96de0 0 -[_CFXNotificationObserverRegistration find:]
PUBLIC 970d0 0 -[_CFXNotificationTokenRegistration isRegistered]
PUBLIC 970f0 0 ___CFXNotificationPost_block_invoke
PUBLIC 972d0 0 _CFXRegistrationPost
PUBLIC 97500 0 -[_CFXNotificationTokenRegistration queue]
PUBLIC 97510 0 ___CFXRegistrationPost_block_invoke
PUBLIC 97570 0 -[_CFXNotificationTokenRegistration copyHandler]
PUBLIC 975c0 0 __CFNOTIFICATIONCENTER_IS_CALLING_OUT_TO_AN_OBSERVER__
PUBLIC 975d0 0 -[__NSCFNumber unsignedLongLongValue]
PUBLIC 975f0 0 -[_CFXNotificationObserverRegistration match:]
PUBLIC 978b0 0 ___CFXNotificationRemoveObservers_block_invoke
PUBLIC 978f0 0 -[_CFXNotificationTokenRegistration removeFromParent]
PUBLIC 97960 0 -[_CFXNotificationTokenRegistration invalidate]
PUBLIC 979f0 0 -[_CFXNotificationRegistrationBase removeFromParent]
PUBLIC 97a70 0 -[_CFXNotificationRegistrationContainer removeChild:]
PUBLIC 97c40 0 -[_CFXNotificationRegistrar removeChild:]
PUBLIC 97da0 0 -[_CFXNotificationTokenRegistration dealloc]
PUBLIC 97de0 0 -[_CFXNotificationRegistrationBase dealloc]
PUBLIC 97e30 0 -[_CFXNotificationRegistrationContainer dealloc]
PUBLIC 97e70 0 -[_CFXNotificationRegistrationContainer invalidate]
PUBLIC 97f10 0 -[_CFXNotificationNameRegistration dealloc]
PUBLIC 97f60 0 -[__NSCFSet objectEnumerator]
PUBLIC 97fe0 0 -[__NSCFSet retain]
PUBLIC 98000 0 -[__NSCFSet release]
PUBLIC 98010 0 -[__NSCFDictionary countByEnumeratingWithState:objects:count:]
PUBLIC 98070 0 _CFDictionaryFastEnumeration
PUBLIC 98130 0 -[NSObject(NSObject) methodSignatureForSelector:]
PUBLIC 98180 0 __methodDescriptionForSelector
PUBLIC 982e0 0 -[NSInvocation invokeWithTarget:]
PUBLIC 98320 0 -[NSObject(NSObject) description]
PUBLIC 983a0 0 CFRunLoopObserverCreateWithHandler
PUBLIC 983f0 0 -[NSURL checkResourceIsReachableAndReturnError:]
PUBLIC 984c0 0 __CFAllocatorSystemReallocate
PUBLIC 984e0 0 CFStringEncodingIsValidCombiningCharacterForLatin1
PUBLIC 98530 0 NSGetSizeAndAlignment
PUBLIC 98560 0 -[_CFXNotificationObjcObserverRegistration find:]
PUBLIC 98680 0 _NSObjectLoadWeakRetained
PUBLIC 986a0 0 __61-[_CFXNotificationRegistrar find:object:observer:enumerator:]_block_invoke
PUBLIC 98710 0 -[_CFXNotificationTokenRegistration token]
PUBLIC 98730 0 -[_CFXNotificationTokenQueueRegistration queue]
PUBLIC 98750 0 -[NSDictionary keysOfEntriesPassingTest:]
PUBLIC 987d0 0 -[NSDictionary keysOfEntriesWithOptions:passingTest:]
PUBLIC 98960 0 __53-[NSDictionary keysOfEntriesWithOptions:passingTest:]_block_invoke
PUBLIC 989b0 0 +[NSSet setWithSet:]
PUBLIC 989f0 0 -[NSMutableDictionary removeObjectsForKeys:]
PUBLIC 98ba0 0 -[__NSCFDictionary removeObjectForKey:]
PUBLIC 98c50 0 -[__NSArrayM removeLastObject]
PUBLIC 98cf0 0 CFBundleCopyPreferredLocalizationsFromArray
PUBLIC 98d80 0 _CFBundleCopyLocalizationsForPreferences
PUBLIC 98e50 0 -[__NSCFArray objectAtIndex:]
PUBLIC 98ed0 0 _CFArrayCheckAndGetValueAtIndex
PUBLIC 98f50 0 _CFPropertyListCopyShared
PUBLIC 99090 0 __CFLookupCarbonCoreFunction
PUBLIC 990e0 0 thawItem
PUBLIC 99410 0 CFUUIDGetUUIDBytes
PUBLIC 99420 0 __CFDataEqual
PUBLIC 99480 0 -[__NSPlaceholderArray initWithContentsOfURL:]
PUBLIC 99520 0 CFSetCreateMutableCopy
PUBLIC 99760 0 -[NSMutableSet intersectSet:]
PUBLIC 99ec0 0 -[NSMutableSet _mutate]
PUBLIC 99ed0 0 -[__NSCFSet removeObject:]
PUBLIC 99fc0 0 __CFArrayCreate0
PUBLIC 9a280 0 CFNumberGetByteSize
PUBLIC 9a2b0 0 CFDataGetBytes
PUBLIC 9a3a0 0 -[NSMutableDictionary _mutate]
PUBLIC 9a3b0 0 _CFIsObjC
PUBLIC 9a410 0 CFArraySetValueAtIndex
PUBLIC 9a600 0 -[__NSArrayM setObject:atIndex:]
PUBLIC 9a900 0 CFAttributedStringCreate
PUBLIC 9aa10 0 CFRunArrayCreate
PUBLIC 9aac0 0 __CFRunArrayGetTypeID_block_invoke
PUBLIC 9aae0 0 CFRunArrayInsert
PUBLIC 9b040 0 CFAttributedStringCreateCopy
PUBLIC 9b180 0 CFAttributedStringGetString
PUBLIC 9b220 0 CFURLCopyFragment
PUBLIC 9b350 0 CFAttributedStringGetAttributes
PUBLIC 9b410 0 CFRunArrayGetValueAtIndex
PUBLIC 9b4e0 0 __CFLocaleHash
PUBLIC 9b4f0 0 CFCharacterSetCreateWithBitmapRepresentation
PUBLIC 9ba30 0 CFCharacterSetCreateCopy
PUBLIC 9ba50 0 CFDictionaryReplaceValue
PUBLIC 9bbc0 0 CFBasicHashReplaceValue
PUBLIC 9c740 0 CFBundleCopyResourceURLForLocalization
PUBLIC 9c770 0 CFURLGetFSRef
PUBLIC 9c7a0 0 _CFGetFSRefFromURL
PUBLIC 9c920 0 -[NSDictionary __getValue:forKey:]
PUBLIC 9c960 0 -[NSDictionary getObjects:andKeys:count:]
PUBLIC 9cb90 0 CFStringAppendCString
PUBLIC 9cbd0 0 CFPropertyListCreateFromStream
PUBLIC 9cce0 0 __CFAttributedStringDeallocate
PUBLIC 9cd10 0 __CFRunArrayDeallocate
PUBLIC 9cda0 0 CFNotificationCenterPostNotification
PUBLIC 9ce40 0 -[__CFNotification initWithName:object:userInfo:foundation:]
PUBLIC 9cf20 0 -[__CFNotification name]
PUBLIC 9cf40 0 -[__CFNotification object]
PUBLIC 9cf60 0 -[__CFNotification userInfo]
PUBLIC 9cf80 0 -[__CFNotification dealloc]
PUBLIC 9d030 0 +[NSObject(NSObject) instanceMethodSignatureForSelector:]
PUBLIC 9d060 0 -[NSMethodSignature methodReturnLength]
PUBLIC 9d090 0 _CFUserNotificationSetWarningThread
PUBLIC 9d0a0 0 +[NSDate distantFuture]
PUBLIC 9d0e0 0 __23+[NSDate distantFuture]_block_invoke
PUBLIC 9d120 0 _CFMachPortCopyCurrentBoost
PUBLIC 9d150 0 -[NSDate _cfTypeID]
PUBLIC 9d190 0 __CFBasicHashesAreEqual_block_invoke
PUBLIC 9df40 0 CFMessagePortCreateRunLoopSource
PUBLIC 9e070 0 CFMessagePortIsValid
PUBLIC 9e0e0 0 __CFMessagePortGetPort
PUBLIC 9e130 0 CFPasteboardGetGenerationCount
PUBLIC 9e1f0 0 CFPasteboardCopyData
PUBLIC 9e900 0 CFDictionaryRemoveAllValues
PUBLIC 9eac0 0 CFBasicHashRemoveAllValues
PUBLIC 9eae0 0 CFArrayRemoveAllValues
PUBLIC 9ebb0 0 CFSetRemoveAllValues
PUBLIC 9ec90 0 ____kCFPasteboardFilenamesFlavor_block_invoke
PUBLIC 9ef20 0 CFBundleCopyResourceURLInDirectory
PUBLIC 9f030 0 _CFBundleCouldBeBundle
PUBLIC 9f0a0 0 _CFBundleCopyLanguageSearchListInDirectory
PUBLIC 9f320 0 _CFBundleCopyResourcesDirectoryURLInDirectory
PUBLIC 9f3a0 0 _CFRunLoopSetCurrent
PUBLIC 9f460 0 __CFRunLoopDoObservers
PUBLIC 9f720 0 __CFRUNLOOP_IS_CALLING_OUT_TO_AN_OBSERVER_CALLBACK_FUNCTION__
PUBLIC 9f740 0 CFRunLoopRemoveObserver
PUBLIC 9f8d0 0 __CFRunLoopRemoveItemFromCommonModes
PUBLIC 9f9e0 0 _runLoopObserverWithBlockContext
PUBLIC 9fa00 0 CFRunLoopObserverInvalidate
PUBLIC 9fb60 0 __CFRunLoopObserverDeallocate
PUBLIC 9fb80 0 __CFRUNLOOP_IS_CALLING_OUT_TO_A_BLOCK__
PUBLIC 9fb90 0 launchServicesCallback
PUBLIC 9fc90 0 CFMachPortGetContext
PUBLIC 9fcc0 0 CFBagGetValue
PUBLIC 9fcf0 0 __CFRunLoopSourceComparator
PUBLIC 9fd20 0 __CFRUNLOOP_IS_CALLING_OUT_TO_A_SOURCE0_PERFORM_FUNCTION__
PUBLIC 9fd40 0 _CFMachPortCreateBoost
PUBLIC 9fd80 0 CFNotificationCenterSetSuspended
PUBLIC 9fde0 0 _CFXNotificationSetSuspended
PUBLIC 9ff00 0 -[NSArray makeObjectsPerformSelector:]
PUBLIC a0140 0 -[__NSPlaceholderArray initWithContentsOfFile:]
PUBLIC a01b0 0 -[_CFXNotificationObjectRegistration find:matching:]
PUBLIC a0560 0 -[_CFXNotificationObjcObserverRegistration dealloc]
PUBLIC a05b0 0 -[_CFXNotificationNameWildcardObjectRegistration match:matching:]
PUBLIC a07f0 0 -[NSMethodSignature isOneway]
PUBLIC a0820 0 -[__NSSetM removeAllObjects]
PUBLIC a0980 0 -[NSArray enumerateObjectsWithOptions:usingBlock:]
PUBLIC a0a30 0 __NSArrayParameterCheckIterate
PUBLIC a0b80 0 __NSArrayEnumerate
PUBLIC a11a0 0 -[NSArray reverseObjectEnumerator]
PUBLIC a11f0 0 -[__NSArrayReverseEnumerator initWithObject:]
PUBLIC a1270 0 -[__NSArrayReverseEnumerator nextObject]
PUBLIC a12e0 0 -[__NSArrayReverseEnumerator dealloc]
PUBLIC a1330 0 __CFAllocatorDeallocate
PUBLIC a1410 0 CFRunLoopCopyCurrentMode
PUBLIC a1470 0 -[__NSCFBoolean charValue]
PUBLIC a1490 0 -[__NSCFBoolean isEqual:]
PUBLIC a14e0 0 -[__NSCFBoolean isEqualToNumber:]
PUBLIC a1510 0 -[__NSCFBoolean compare:]
PUBLIC a1730 0 -[__NSCFBoolean objCType]
PUBLIC a1740 0 -[__NSCFBoolean longLongValue]
PUBLIC a1760 0 CFUUIDCreate
PUBLIC a1940 0 __CFUUIDCreate_block_invoke
PUBLIC a19f0 0 -[__NSDictionaryM __apply:context:]
PUBLIC a1ac0 0 -[__NSCFCharacterSet addCharactersInRange:]
PUBLIC a1ad0 0 -[__NSCFCharacterSet addCharactersInString:]
PUBLIC a1ae0 0 -[NSArray subarrayWithRange:]
PUBLIC a1cd0 0 CFBagGetCountOfValue
PUBLIC a1ce0 0 CFStringFold
PUBLIC a2e30 0 _CFXPreferencesCopyDictionaryForNamedVolatileSource
PUBLIC a2ec0 0 __forgetLockHandler
PUBLIC a2f30 0 +[NSDate distantPast]
PUBLIC a2f70 0 __21+[NSDate distantPast]_block_invoke
PUBLIC a2fb0 0 -[__NSSingleObjectSetI member:]
PUBLIC a3000 0 +[NSObject(NSObject) methodSignatureForSelector:]
PUBLIC a3050 0 -[NSCache setTotalCostLimit:]
PUBLIC a3080 0 __52-[NSMutableArray sortRange:options:usingComparator:]_block_invoke
PUBLIC a30a0 0 __44-[NSMutableArray sortUsingFunction:context:]_block_invoke
PUBLIC a30c0 0 +[NSDictionary dictionaryWithObjects:forKeys:]
PUBLIC a3110 0 -[__NSCFString cStringUsingEncoding:]
PUBLIC a31c0 0 -[__NSArrayM removeAllObjects]
PUBLIC a3310 0 __NSCacheKeyRelease
PUBLIC a3320 0 -[NSNull retain]
PUBLIC a3330 0 -[__NSSingleObjectSetI countByEnumeratingWithState:objects:count:]
PUBLIC a33c0 0 -[NSNull release]
PUBLIC a33d0 0 -[NSArray objectsAtIndexes:]
PUBLIC a3730 0 -[NSSet anyObject]
PUBLIC a37f0 0 -[NSArray indexOfObject:inSortedRange:options:usingComparator:]
PUBLIC a3ba0 0 -[NSMutableArray removeObjectIdenticalTo:]
PUBLIC a3c80 0 -[NSArray sortedArrayUsingFunction:context:]
PUBLIC a3d80 0 -[NSArray arrayByAddingObject:]
PUBLIC a3f30 0 -[NSDate dateByAddingTimeInterval:]
PUBLIC a3f90 0 +[__NSDate allocWithZone:]
PUBLIC a3fb0 0 -[NSSet objectsPassingTest:]
PUBLIC a4030 0 -[NSSet objectsWithOptions:passingTest:]
PUBLIC a41b0 0 __NSSetEnumerate
PUBLIC a45d0 0 __40-[NSSet objectsWithOptions:passingTest:]_block_invoke
PUBLIC a4620 0 -[NSMutableSet minusSet:]
PUBLIC a4a20 0 CFUniCharMapCaseTo
PUBLIC a5380 0 -[NSArray enumerateObjectsAtIndexes:options:usingBlock:]
PUBLIC a54c0 0 -[NSArray getObjects:]
PUBLIC a5590 0 __56-[NSArray sortedArrayFromRange:options:usingComparator:]_block_invoke
PUBLIC a55b0 0 __44-[NSArray sortedArrayUsingFunction:context:]_block_invoke
PUBLIC a55d0 0 -[NSMutableArray replaceObjectsInRange:withObjectsFromArray:]
PUBLIC a5810 0 __CFArrayGetCallBacks
PUBLIC a5850 0 __CFArrayCreateMutableCopy0
PUBLIC a5a30 0 __36-[NSArray sortedArrayUsingSelector:]_block_invoke
PUBLIC a5a50 0 -[NSArray indexOfObjectPassingTest:]
PUBLIC a5ad0 0 -[NSArray indexOfObjectWithOptions:passingTest:]
PUBLIC a5b90 0 __NSArrayGetIndexPassingTest
PUBLIC a61c0 0 -[__NSSingleObjectSetI count]
PUBLIC a61d0 0 -[NSDictionary __apply:context:]
PUBLIC a6290 0 +[NSURL supportsSecureCoding]
PUBLIC a62a0 0 -[__NSCFString _isCString]
PUBLIC a62b0 0 __CFStringIsEightBit
PUBLIC a62d0 0 CFStorageCreate
PUBLIC a6440 0 CFStorageInsertValues
PUBLIC a6610 0 __CFStorageInsertUnfrozen
PUBLIC a6ff0 0 CFStorageReplaceValues
PUBLIC a7650 0 -[__NSDictionaryM mutableCopyWithZone:]
PUBLIC a7730 0 +[NSDate supportsSecureCoding]
PUBLIC a7740 0 __CFDictionaryCopyDescription
PUBLIC a7750 0 __CFBasicHashCopyDescription
PUBLIC a77d0 0 CFBasicHashCopyDescription
PUBLIC a7c50 0 __CFBasicHashCopyDescription_block_invoke
PUBLIC a7e00 0 __CFStringCopyDescription
PUBLIC a7e40 0 CFStorageGetValueAtIndex
PUBLIC a8400 0 -[NSArray arrayByExcludingObjectsInArray:]
PUBLIC a86f0 0 CFErrorGetDomain
PUBLIC a8790 0 CFRunLoopTimerGetContext
PUBLIC a8800 0 -[NSMutableArray sortUsingSelector:]
PUBLIC a88c0 0 __36-[NSMutableArray sortUsingSelector:]_block_invoke
PUBLIC a88e0 0 CFFileDescriptorCreate
PUBLIC a8b40 0 __CFFileDescriptorCreate_block_invoke
PUBLIC a8e90 0 __CFFileDescriptorGetTypeID_block_invoke
PUBLIC a8f50 0 CFFileDescriptorCreateRunLoopSource
PUBLIC a90b0 0 __CFFileDescriptorCreateRunLoopSource_block_invoke
PUBLIC a9200 0 __CFFileDescriptorSchedule
PUBLIC a9210 0 CFFileDescriptorEnableCallBacks
PUBLIC a92d0 0 __CFFileDescriptorEnableCallBacks_block_invoke
PUBLIC a93e0 0 cffd_is_readable
PUBLIC a94d0 0 -[__NSCFTimer isValid]
PUBLIC a94f0 0 -[NSMutableArray setObject:atIndexedSubscript:]
PUBLIC a9560 0 CFStringGetRangeOfCharacterClusterAtIndex
PUBLIC ab800 0 _CFURLGetEncoding
PUBLIC ab810 0 CFStringCreateWithPascalString
PUBLIC ab850 0 -[NSArray indexesOfObjectsPassingTest:]
PUBLIC ab8d0 0 -[NSArray indexesOfObjectsWithOptions:passingTest:]
PUBLIC ab990 0 __NSArrayGetIndexesPassingTest
PUBLIC ac060 0 -[NSDictionary getObjects:]
PUBLIC ac100 0 _NSMessageBuilder
PUBLIC ac140 0 +[__NSMessageBuilder initialize]
PUBLIC ac150 0 -[__NSMessageBuilder methodSignatureForSelector:]
PUBLIC ac170 0 -[__NSMessageBuilder forwardInvocation:]
PUBLIC ac1e0 0 -[NSInvocation getReturnValue:]
PUBLIC ac200 0 CFMergeSortArray
PUBLIC ac580 0 __CFMergeSortArray_block_invoke
PUBLIC ac5b0 0 -[__NSDictionaryM __setObject:forKey:]
PUBLIC acc30 0 -[__NSCFBoolean integerValue]
PUBLIC acc50 0 -[__NSCFBoolean longValue]
PUBLIC acc70 0 _NSObjectLoadWeak
PUBLIC acca0 0 -[__NSCFTimer invalidate]
PUBLIC accb0 0 _CFMessagePortSetOptions
PUBLIC accf0 0 CFGetSystemUptime
PUBLIC acd40 0 -[__NSCFNumber getValue:]
PUBLIC acdb0 0 CFRunLoopContainsObserver
PUBLIC ace80 0 -[__NSPlaceholderOrderedSet init]
PUBLIC acec0 0 _CFPreferencesAppSynchronizeWithContainer
PUBLIC acf50 0 _CFPrefsSynchronizeForProcessTermination
PUBLIC acfd0 0 _CFRunLoopFinished
PUBLIC ad060 0 CFServiceControllerRegisterProvider
PUBLIC ad0f0 0 ____CFServiceControllerInitialize_block_invoke
PUBLIC ad2a0 0 CFMessagePortCreateLocal
PUBLIC ad2c0 0 _CFURLPromiseCopyPhysicalURL
PUBLIC ad330 0 __CFBinaryPlistWriteToStream
PUBLIC ad350 0 _CFBundleLoadExecutableAndReturnError
PUBLIC ad640 0 _CFBundleDlfcnLoadBundle
PUBLIC ad880 0 CFRunLoopCopyAllModes
PUBLIC ad910 0 __CFRunLoopGetModeName
PUBLIC ad930 0 -[NSDictionary allKeysForObject:]
PUBLIC adc10 0 _CFRunLoop01
PUBLIC adc50 0 -[__NSSetM copyWithZone:]
PUBLIC ade90 0 -[__NSCFBoolean _getValue:forType:]
PUBLIC adf90 0 __NSCacheValueRelease
PUBLIC ae0e0 0 -[NSCache removeObjectForKey:]
PUBLIC ae120 0 CFRunLoopRemoveSource
PUBLIC ae390 0 CFBagRemoveValue
PUBLIC ae3e0 0 __CFMachPortBoostDeallocate
PUBLIC ae410 0 -[__NSDictionary0 copy]
PUBLIC ae420 0 -[__NSCFBoolean descriptionWithLocale:]
PUBLIC ae450 0 -[__NSCFBoolean doubleValue]
PUBLIC ae470 0 __CFBagDeallocate
PUBLIC ae480 0 _CFXNotificationGetSuspended
PUBLIC ae4d0 0 CFRunLoopSourceInvalidate
PUBLIC ae5d0 0 CFBagApplyFunction
PUBLIC ae620 0 __CFBagApplyFunction_block_invoke
PUBLIC ae660 0 __CFRunLoopSourceRemoveFromRunLoop
PUBLIC ae710 0 __CFRunLoopSourceDeallocate
PUBLIC ae750 0 __CFBooleanHash
PUBLIC ae770 0 +[NSTimeZone localTimeZone]
PUBLIC ae7b0 0 -[__NSLocalTimeZone name]
PUBLIC ae7f0 0 +[NSTimeZone defaultTimeZone]
PUBLIC ae8a0 0 +[NSTimeZone systemTimeZone]
PUBLIC aeb80 0 +[NSTimeZone timeZoneWithName:]
PUBLIC aebc0 0 -[__NSPlaceholderTimeZone initWithName:]
PUBLIC aebe0 0 -[__NSPlaceholderTimeZone __initWithName:cache:]
PUBLIC aed30 0 -[__NSTimeZone name]
PUBLIC aed70 0 _CFLocaleGetNoteCount
PUBLIC aed80 0 _CFTimeZoneGetNoteCount
PUBLIC aed90 0 _CFCalendarGetMidnightNoteCount
PUBLIC aeda0 0 CFDateFormatterCreate
PUBLIC aedc0 0 __CFDateFormatterGetTypeID_block_invoke
PUBLIC aede0 0 CFTimeZoneCopyDefault
PUBLIC aee30 0 __CFLocaleCopyCalendarID
PUBLIC af190 0 __ResetUDateFormat
PUBLIC b00e0 0 CFTimeZoneGetName
PUBLIC b0100 0 __cficu_udat_open
PUBLIC b04f0 0 _____CFICULoggingEnabled_block_invoke
PUBLIC b06c0 0 __cficu_udat_setLenient
PUBLIC b0740 0 __cficu_udat_set2DigitYearStart
PUBLIC b08a0 0 __CFLocaleGetPrefs
PUBLIC b0940 0 __cficu_udat_getCalendar
PUBLIC b0ac0 0 __cficu_ucal_clone
PUBLIC b0da0 0 __cficu_ucal_setTimeZone
PUBLIC b0fb0 0 __cficu_ucal_getGregorianChange
PUBLIC b11a0 0 __cficu_ucal_setGregorianChange
PUBLIC b13f0 0 __cficu_udat_setCalendar
PUBLIC b14a0 0 __cficu_ucal_close
PUBLIC b16c0 0 __substituteFormatStringFromPrefsDF
PUBLIC b19a0 0 __ApplyUDateFormatSymbol
PUBLIC b1cd0 0 __cficu_udat_toPattern
PUBLIC b1f90 0 __CFDateFormatterCreateForcedString
PUBLIC b21a0 0 __cficu_udat_applyPattern
PUBLIC b2260 0 __CFDateFormatterSetProperty
PUBLIC b31f0 0 CFDateFormatterGetFormat
PUBLIC b3200 0 +[NSCalendar initialize]
PUBLIC b3230 0 __24+[NSCalendar initialize]_block_invoke
PUBLIC b3260 0 +[NSCalendar allocWithZone:]
PUBLIC b32e0 0 -[__NSCFCalendar initWithCalendarIdentifier:]
PUBLIC b3350 0 CFCalendarCreateWithIdentifier
PUBLIC b36f0 0 __CFCalendarCreateUCalendar
PUBLIC b3870 0 CFLocaleCreateLocaleIdentifierFromComponents
PUBLIC b3ce0 0 __CStringFromString
PUBLIC b3da0 0 __cficu_ucal_open
PUBLIC b40f0 0 __cficu_ucal_getAttribute
PUBLIC b4290 0 -[_NSCopyOnWriteCalendarWrapper _initWithCalendar:]
PUBLIC b4310 0 -[_NSCopyOnWriteCalendarWrapper _init]
PUBLIC b4320 0 -[__NSCFCalendar retain]
PUBLIC b4340 0 -[_NSRefcountedPthreadMutex init]
PUBLIC b43e0 0 -[__NSCFCalendar release]
PUBLIC b43f0 0 CFDateFormatterCopyProperty
PUBLIC b4b20 0 __CFLocaleCopyCalendar
PUBLIC b4d10 0 CFCalendarSetLocale
PUBLIC b50e0 0 CFLocaleCreateCopy
PUBLIC b50f0 0 _CFLocaleCreateCopyGuts
PUBLIC b5490 0 __cficu_ucal_setAttribute
PUBLIC b5630 0 -[__NSCFCalendar calendarIdentifier]
PUBLIC b56d0 0 __CFDateFormatterDeallocate
PUBLIC b5ac0 0 __cficu_udat_close
PUBLIC b5b90 0 __CFGetExecutableLinkedLibraryVersion
PUBLIC b5ce0 0 CFURLGetPortNumber
PUBLIC b5ea0 0 CFRunLoopStop
PUBLIC b5f10 0 _CFPropertyListCreateXMLData
PUBLIC b6060 0 _plistAppendCharacters
PUBLIC b61f0 0 _CFAppendXML0
PUBLIC b70b0 0 _appendEscapedString
PUBLIC b7390 0 CFURLCopyQueryString
PUBLIC b7510 0 -[NSDate compare:]
PUBLIC b7580 0 CFStringNormalize
PUBLIC b8df0 0 -[NSMutableArray sortUsingComparator:]
PUBLIC b8ea0 0 -[__NSCFString appendFormat:]
PUBLIC b9080 0 _CFStringAppendFormatAndArgumentsAux2
PUBLIC b90b0 0 -[NSSet getObjects:]
PUBLIC b9180 0 _CFBundleGetLanguageAndRegionCodes
PUBLIC b9410 0 CFURLEnumeratorCreateForDirectoryURL
PUBLIC b9480 0 CFURLEnumeratorGetNextURL
PUBLIC b94f0 0 startedDrawing
PUBLIC b9510 0 becameVisible
PUBLIC b9530 0 -[_NSCopyOnWriteCalendarWrapper dealloc]
PUBLIC b95a0 0 -[_NSRefcountedPthreadMutex dealloc]
PUBLIC b95f0 0 __CFCalendarDeallocate
PUBLIC b9680 0 -[NSMethodSignature getArgumentTypeAtIndex:]
PUBLIC b9750 0 -[__NSSetI copyWithZone:]
PUBLIC b9770 0 CFReadStreamCreate
PUBLIC b99b0 0 CFWriteStreamCreate
PUBLIC b9bd0 0 CFWriteStreamSetClient
PUBLIC b9d10 0 _CFStreamSetClient
PUBLIC b9ec0 0 CFWriteStreamSetDispatchQueue
PUBLIC b9ed0 0 _CFStreamSetDispatchQueue
PUBLIC ba070 0 ___legacyStreamRunLoop_block_invoke
PUBLIC ba120 0 _CFStreamScheduleWithRunLoop
PUBLIC ba8f0 0 -[__NSCFNumber description]
PUBLIC ba950 0 -[__NSCFNumber descriptionWithLocale:]
PUBLIC ba9c0 0 -[__NSCFArray getObjects:range:]
PUBLIC baa70 0 -[CFPrefsPlistSource sendMessageSettingValue:forKey:]
PUBLIC bacd0 0 _CFPrefsEncodeKeyValuePairIntoMessage
PUBLIC baf00 0 -[NSCache setCountLimit:]
PUBLIC baf30 0 CFBundleGetPackageInfo
PUBLIC bafa0 0 _CFBundleGetPackageInfoInDirectoryWithInfoDictionary
PUBLIC bb740 0 CFBundleCopyExecutableArchitectures
PUBLIC bb780 0 _CFBundleCopyArchitecturesForExecutable
PUBLIC bb7c0 0 _CFBundleGrokMachTypeForFatFile
PUBLIC bbf10 0 _CFBundleCurrentArchitecture
PUBLIC bbf20 0 _CFBundleURLLooksLikeBundle
PUBLIC bbf80 0 _CFBundleEffectiveLayoutVersion
PUBLIC bc010 0 CFSocketCreateWithNative
PUBLIC bc720 0 __CFSocketGetTypeID_block_invoke
PUBLIC bc7e0 0 CFSocketGetNative
PUBLIC bc820 0 __CFSocketManager
PUBLIC bde20 0 CFSocketGetSocketFlags
PUBLIC bde60 0 CFSocketSetSocketFlags
PUBLIC bdeb0 0 CFSocketEnableCallBacks
PUBLIC bdf00 0 __CFSocketEnableCallBacks
PUBLIC be270 0 CFSocketGetTypeID
PUBLIC be2b0 0 CFSocketCreateRunLoopSource
PUBLIC be3f0 0 CFRunLoopSourceIsValid
PUBLIC be430 0 __CFSocketSchedule
PUBLIC be4e0 0 _calcMinTimeout_locked
PUBLIC be540 0 __CFSocketCopyRunLoopToWakeUp
PUBLIC be6e0 0 __CFSocketPerformV0
PUBLIC becf0 0 CFWriteStreamSignalEvent
PUBLIC bed00 0 _CFStreamSignalEvent
PUBLIC bef30 0 CFSocketIsValid
PUBLIC bef70 0 __CFSocketRead
PUBLIC bf130 0 -[NSMutableArray removeObjectsAtIndexes:]
PUBLIC bf310 0 -[NSDate timeIntervalSinceDate:]
PUBLIC bf370 0 CFPreferencesAppValueIsForced
PUBLIC bf400 0 CFPreferencesSetValue
PUBLIC bf4b0 0 -[NSTaggedPointerString cStringUsingEncoding:]
PUBLIC bf500 0 CFBundleCopyBuiltInPlugInsURL
PUBLIC bf5d0 0 CFBundleCreateBundlesFromDirectory
PUBLIC bf6c0 0 _CFCreateContentsOfDirectory
PUBLIC bfcf0 0 CFURLCreateFromFileSystemRepresentationRelativeToBase
PUBLIC bfd00 0 CFBundleGetDataPointerForName
PUBLIC bfdb0 0 CFBundleLoadExecutable
PUBLIC bfdc0 0 CFRunLoopRun
PUBLIC bfe50 0 __CFRUNLOOP_IS_SERVICING_THE_MAIN_DISPATCH_QUEUE__
PUBLIC bfe60 0 _CFStringInlineBufferGetComposedRange
PUBLIC c0d10 0 _CFPropertyListCreateFiltered
PUBLIC c0ea0 0 -[NSLocale localeIdentifier]
PUBLIC c0ec0 0 __CFLocaleCopyLocaleID
PUBLIC c0ee0 0 ___signalEventQueue_block_invoke
PUBLIC c0f10 0 _signalEventSync
PUBLIC c1040 0 _CFStreamUnscheduleFromRunLoop
PUBLIC c1320 0 CFRunLoopGetNextTimerFireDate
PUBLIC c13e0 0 CFMessagePortCreateRemote
PUBLIC c13f0 0 __CFMessagePortCreateRemote
PUBLIC c1820 0 __CFMessagePortDeallocate
PUBLIC c19e0 0 CFMessagePortInvalidate
PUBLIC c1c60 0 __CFSocketDeallocate
PUBLIC c1d10 0 CFNumberCompare
PUBLIC c2130 0 _CFURLCopyPropertyListRepresentation
PUBLIC c21e0 0 __CFURLCopyPropertyListKeysAndValues
PUBLIC c24b0 0 -[__NSCFDictionary classForCoder]
PUBLIC c24e0 0 CFNotificationCenterRemoveObserver
PUBLIC c25f0 0 -[_CFXNotificationDarwinTokenRegistration invalidate]
PUBLIC c2680 0 __CFTSDFinalize
PUBLIC c2730 0 ____CFXNotificationCenterSetupConnection_block_invoke
PUBLIC c2990 0 __CFFinalizeRunLoop
PUBLIC c2b30 0 __CFXNotificationPostToken
PUBLIC c2ce0 0 _CFRunLoopGet0b
PUBLIC c2d40 0 __CFRunLoopDeallocate
PUBLIC c2f30 0 __CFRunLoopCleanseSources
PUBLIC c3090 0 __CFRunLoopDeallocateSources
PUBLIC c32b0 0 __CFNotificationCenterAddObserver_block_invoke
PUBLIC c3360 0 __CFRunLoopDeallocateObservers
PUBLIC c34b0 0 __CFRunLoopDeallocateTimers
PUBLIC c3500 0 __CFRunLoopModeDeallocate
PUBLIC c3620 0 -[NSSet isEqualToSet:]
PUBLIC c3a20 0 -[__NSCFDictionary isEqual:]
PUBLIC c3ab0 0 -[__NSCFNumber shortValue]
PUBLIC c3ad0 0 _CFKeyedArchiverUIDCreate
PUBLIC c3b40 0 -[NSURL setResourceValues:error:]
PUBLIC c3c40 0 CFURLSetResourcePropertiesForKeys
PUBLIC c3dc0 0 __CFBinaryPlistWriteToStreamWithOptions
PUBLIC c3dd0 0 -[__NSCFData mutableBytes]
PUBLIC c3de0 0 _appendPercentEscapesForCharacter
PUBLIC c3ec0 0 +[NSLocale internetServicesRegion]
PUBLIC c3f50 0 CFLog
PUBLIC c4020 0 _CFLogvEx2
PUBLIC c4040 0 -[_CFXNotificationRegistrar invalidate]
PUBLIC c41e0 0 -[NSMutableArray setArray:]
PUBLIC c43c0 0 -[NSMutableDictionary setDictionary:]
PUBLIC c45d0 0 -[NSMutableArray removeObjectsInRange:]
PUBLIC c46d0 0 CFStringConvertIANACharSetNameToEncoding
PUBLIC c4920 0 __CFStringEncodingGetFromCanonicalName
PUBLIC c4bd0 0 __CFCanonicalNameHash
PUBLIC c4c30 0 __CFCanonicalNameCompare
PUBLIC c4c50 0 __CFRunLoopRemoveAllSources
PUBLIC c4dc0 0 __NSMakeSpecialForwardingCaptureBlock
PUBLIC c4f20 0 __forwarding_prep_b___
PUBLIC c4fa0 0 __block_forwarding___
PUBLIC c50a0 0 _CFXPreferencesCopyDictionaryForSourceWithBundleID
PUBLIC c5130 0 -[CFPrefsPlistSource alreadylocked_copyDictionary]
PUBLIC c5490 0 CFBundleCopyLocalizationsForPreferences
PUBLIC c5530 0 +[NSLocale canonicalLocaleIdentifierFromString:]
PUBLIC c5560 0 -[NSSet countByEnumeratingWithState:objects:count:]
PUBLIC c5700 0 +[NSLocale canonicalLanguageIdentifierFromString:]
PUBLIC c5730 0 -[NSDictionary description]
PUBLIC c5780 0 -[NSDictionary descriptionWithLocale:indent:]
PUBLIC c5e80 0 __45-[NSDictionary descriptionWithLocale:indent:]_block_invoke
PUBLIC c5ea0 0 CFStringGetNameOfEncoding
PUBLIC c60b0 0 __CFStringEncodingGetName
PUBLIC c62b0 0 CFXMLParserCreate
PUBLIC c62d0 0 __CFXMLParserInit
PUBLIC c6510 0 __CFXMLParserGetTypeID_block_invoke
PUBLIC c6530 0 CFXMLNodeGetTypeID
PUBLIC c6570 0 __CFXMLNodeGetTypeID_block_invoke
PUBLIC c6590 0 _initializeInputStream
PUBLIC c6650 0 CFXMLParserParse
PUBLIC c67f0 0 _openInputStream
PUBLIC c6ba0 0 _inputStreamGetEncoding
PUBLIC c6bb0 0 CFXMLNodeGetTypeCode
PUBLIC c6bc0 0 parseXML
PUBLIC c8ed0 0 _inputStreamPeekCharacter
PUBLIC c9140 0 _inputStreamGetCharacter
PUBLIC c9430 0 parseProcessingInstruction
PUBLIC c9670 0 _inputStreamScanXMLName
PUBLIC ca140 0 growCharacterBuffer
PUBLIC ca240 0 loadCharacters
PUBLIC ca420 0 _inputStreamReturnCharacter
PUBLIC ca590 0 _inputStreamSkipWhitespace
PUBLIC ca9a0 0 _inputStreamScanToCharacters
PUBLIC caba0 0 parseTag
PUBLIC cb8b0 0 parseAttributeValue
PUBLIC cb9c0 0 _inputStreamSetMark
PUBLIC cba20 0 _inputStreamAtEOF
PUBLIC cba70 0 _inputStreamGetCharactersFromMark
PUBLIC cbae0 0 CFAllocatorGetPreferredSizeForSize
PUBLIC cbb70 0 _inputStreamClearMark
PUBLIC cbb80 0 CFXMLNodeGetString
PUBLIC cbb90 0 CFXMLNodeGetInfoPtr
PUBLIC cbba0 0 _inputStreamMatchString
PUBLIC cbc70 0 _inputStreamBackUpToMark
PUBLIC cbc80 0 restoreToMark
PUBLIC cbd40 0 _inputStreamComposingErrorOccurred
PUBLIC cbd50 0 CFStringEncodingBytesToUnicode
PUBLIC cc080 0 parseEntityReference
PUBLIC cc430 0 CFXMLCreateStringByUnescapingEntities
PUBLIC ccbe0 0 __CFXMLParserDeallocate
PUBLIC ccc80 0 _freeInputStream
PUBLIC cccf0 0 __CFXMLNodeDeallocate
PUBLIC cce60 0 CFStringUppercase
PUBLIC cd360 0 _CFPreferencesIsManaged
PUBLIC cd3a0 0 CFPreferencesIsManaged
PUBLIC cd460 0 _CFPrefsIsUserManaged
PUBLIC cd700 0 CFPasteboardGetDataFlags
PUBLIC cd940 0 CFAttributedStringCreateMutable
PUBLIC cd9c0 0 CFAttributedStringBeginEditing
PUBLIC cda60 0 CFAttributedStringReplaceString
PUBLIC cdc60 0 CFAttributedStringEndEditing
PUBLIC cdd00 0 CFAttributedStringGetLength
PUBLIC cddb0 0 __CFAttributedStringCreateMutableWithSubstring
PUBLIC cdee0 0 CFAttributedStringSetAttributes
PUBLIC ce300 0 CFRunArrayReplace
PUBLIC ce800 0 -[__NSCFAttributedString length]
PUBLIC ce810 0 _CFAttributedStringGetLength
PUBLIC ce820 0 -[__NSCFAttributedString attributesAtIndex:effectiveRange:]
PUBLIC ce830 0 _CFPropertyListShare
PUBLIC ce9c0 0 countNodes
PUBLIC cea60 0 countDict
PUBLIC cea90 0 freezePlist
PUBLIC ced00 0 freezeDictItems
PUBLIC ced30 0 +[NSLocale characterDirectionForLanguage:]
PUBLIC ced40 0 CFLocaleGetLanguageCharacterDirection
PUBLIC cede0 0 CFStorageGetValues
PUBLIC cf1e0 0 __CFLocaleCopyUsesMetric
PUBLIC cf220 0 __CFLocaleGetMeasurementSystemGuts
PUBLIC cf320 0 -[__NSCFCharacterSet hash]
PUBLIC cf330 0 __CFCharacterSetHash
PUBLIC cf450 0 -[__NSCFCharacterSet copyWithZone:]
PUBLIC cf470 0 -[__NSCFCharacterSet isEqual:]
PUBLIC cf4a0 0 __CFCharacterSetEqual
PUBLIC d0a50 0 CFUniCharGetBitmapForPlane
PUBLIC d12a0 0 CFUniCharGetNumberOfPlanes
PUBLIC d1310 0 CFCharacterSetUnion
PUBLIC d21b0 0 _CFCompareStringsWithLocale
PUBLIC d3d80 0 __CFStringCreateCollator
PUBLIC d3ea0 0 __CompareTextDefault
PUBLIC d4490 0 __extendLocationBackward
PUBLIC d47a0 0 CFUniCharDecomposeCharacter
PUBLIC d4870 0 __CFUniCharRecursivelyDecomposeCharacter
PUBLIC d4af0 0 CFUniCharPrioritySort
PUBLIC d4b00 0 __CFUniCharPrioritySort
PUBLIC d4c50 0 CFUniCharPrecomposeCharacter
PUBLIC d4de0 0 __CFUniCharLoadPrecompositionTable
PUBLIC d4e70 0 CFCharacterSetCreateWithCharactersInRange
PUBLIC d4f80 0 __collatorFinalize
PUBLIC d5030 0 CFStorageCreateWithSubrange
PUBLIC d5210 0 CFStorageDeleteValues
PUBLIC d5480 0 __CFStorageDeleteUnfrozen
PUBLIC d5780 0 __CFStorageReleaseNode
PUBLIC d5820 0 __CFStorageDeallocate
PUBLIC d5830 0 __CFStorageClearRootNode
PUBLIC d58d0 0 -[NSTaggedPointerString _isCString]
PUBLIC d58e0 0 -[NSSet setByAddingObjectsFromSet:]
PUBLIC d5c50 0 -[NSMutableSet removeAllObjects]
PUBLIC d5e40 0 ____CFStringGetFitzpatrickModifierBaseCharacterSet_block_invoke
PUBLIC d6150 0 CFCharacterSetCompact
PUBLIC d61e0 0 _CFDiscorporateMemoryAllocate
PUBLIC d6280 0 _CFDiscorporateMemoryDeallocate
PUBLIC d6310 0 _CFPropertyListCreateFromXMLData
PUBLIC d6420 0 -[__NSCFArray copyWithZone:]
PUBLIC d6490 0 _CFDiscorporateMemoryDematerialize
PUBLIC d64e0 0 _CFURLIsItemPromiseAtURL
PUBLIC d65a0 0 _CFURLFileCacheGetName
PUBLIC d65f0 0 CFStringTokenizerCreate
PUBLIC d66f0 0 CFStringTokenizerSetStringWithOptions
PUBLIC d6710 0 CFStringTokenizerAdvanceToNextToken
PUBLIC d6720 0 CFStringTokenizerGetCurrentTokenRange
PUBLIC d6730 0 __CFStringTokenizerDeallocate
PUBLIC d6750 0 -[NSInvocation target]
PUBLIC d6780 0 _CFMachPortInstallNotifyPort
PUBLIC d6790 0 __CFTSRToTimeInterval
PUBLIC d67e0 0 __CFRunLoopTimeoutCancel
PUBLIC d6810 0 CFBundleCopyResourceURLsOfTypeForLocalization
PUBLIC d6860 0 CFStringGetParagraphBounds
PUBLIC d6910 0 __CFStringGetLineOrParagraphBounds
PUBLIC d7240 0 CFAttributedStringGetBidiLevelsAndResolvedDirections
PUBLIC d8540 0 CFAttributedStringGetAttribute
PUBLIC d8620 0 stoppedDrawing
PUBLIC d8640 0 +[NSObject(NSObject) description]
PUBLIC d86b0 0 -[NSMethodSignature dealloc]
PUBLIC d8740 0 -[NSArray descriptionWithLocale:]
PUBLIC d87a0 0 -[NSArray descriptionWithLocale:indent:]
PUBLIC d8b10 0 CFCopySystemVersionString
PUBLIC d8bc0 0 +[NSSet setWithObjects:count:]
PUBLIC d8c10 0 __CFRunLoopRemoveSourceFromMode
PUBLIC d8c30 0 __CFRunLoopRemoveSourcesFromCommonMode
PUBLIC d8c50 0 -[NSArray description]
PUBLIC d8ca0 0 _CFXPCCreateXPCMessageWithCFObject
PUBLIC d8d80 0 __CFBinaryPlistWrite15
PUBLIC d8fa0 0 __writeObject15
PUBLIC d9ee0 0 -[NSDate timeIntervalSince1970]
PUBLIC d9f00 0 -[NSMutableArray removeObjectsInArray:]
PUBLIC d9ff0 0 -[NSMutableArray removeObjectsInRange:inArray:range:]
PUBLIC da230 0 +[NSSet setWithArray:range:copyItems:]
PUBLIC da2a0 0 _CFBundleCopyInfoPlistURL
PUBLIC da2f0 0 CFAbsoluteTimeGetGregorianDate
PUBLIC da460 0 __CFYMDFromAbsolute
PUBLIC da6e0 0 CFDateCompare
PUBLIC da700 0 CFBundleCopySupportFilesDirectoryURL
PUBLIC da760 0 __CFDataHash
PUBLIC da7a0 0 _CFBundleCreateWithExecutableURLIfMightBeBundle
PUBLIC da7f0 0 _CFLogvEx3
PUBLIC daa30 0 CFRunLoopIsWaiting
PUBLIC daa70 0 __CFSocketCancel
PUBLIC dac80 0 _cfstream_solo_signalEventSync
PUBLIC dad90 0 CFWriteStreamGetError
PUBLIC dae30 0 CFWriteStreamGetStatus
PUBLIC daea0 0 CFReadStreamSetClient
PUBLIC dafe0 0 CFReadStreamSetDispatchQueue
PUBLIC daff0 0 _wakeUpRunLoop
PUBLIC db1b0 0 CFReadStreamSignalEvent
PUBLIC db1c0 0 CFReadStreamSetProperty
PUBLIC db270 0 CFReadStreamCopyProperty
PUBLIC db320 0 CFURLCopyUserName
PUBLIC db440 0 CFURLCopyPassword
PUBLIC db560 0 CFSetGetCountOfValue
PUBLIC db610 0 CFWriteStreamCanAcceptBytes
PUBLIC db7a0 0 _cfstream_shared_signalEventSync
PUBLIC db9a0 0 CFReadStreamHasBytesAvailable
PUBLIC dbb30 0 CFSocketCopyPeerAddress
PUBLIC dbc30 0 ___CFXPCCreateCFObjectFromXPCObject_block_invoke
PUBLIC dbc70 0 -[__NSCFInputStream open]
PUBLIC dbc80 0 -[__NSCFInputStream close]
PUBLIC dbc90 0 -[__NSCFInputStream release]
PUBLIC dbca0 0 _CFCopyServerVersionDictionary
PUBLIC dbce0 0 -[NSLocale init]
PUBLIC dbd00 0 -[__NSCFLocale retain]
PUBLIC dbd10 0 -[NSLocale copyWithZone:]
PUBLIC dbd30 0 +[NSTimeZone timeZoneForSecondsFromGMT:]
PUBLIC dbe50 0 -[NSTimeZone copyWithZone:]
PUBLIC dbe70 0 -[NSDate isNSDate__]
PUBLIC dbe80 0 CFDateFormatterSetFormat
PUBLIC dbfd0 0 CFDateFormatterSetProperty
PUBLIC dbfe0 0 CFDateFormatterCreateStringWithDate
PUBLIC dc030 0 CFDateFormatterCreateStringWithAbsoluteTime
PUBLIC dc1f0 0 __cficu_udat_format
PUBLIC dc520 0 CFWriteStreamSetProperty
PUBLIC dc5d0 0 CFReadStreamGetInfoPointer
PUBLIC dc5f0 0 CFReadStreamScheduleWithRunLoop
PUBLIC dc6c0 0 CFWriteStreamScheduleWithRunLoop
PUBLIC dc790 0 readDataSchedule
PUBLIC dc800 0 dataCanRead
PUBLIC dc830 0 __CFSocketSetSocketReadBufferAttrs
PUBLIC dca90 0 _CFReadStreamSignalEventDelayed
PUBLIC dcaa0 0 CFWriteStreamUnscheduleFromRunLoop
PUBLIC dcb70 0 CFReadStreamUnscheduleFromRunLoop
PUBLIC dcc40 0 CFSocketInvalidate
PUBLIC dd020 0 __CFArrayCreateCopy0
PUBLIC dd290 0 __CFToCanonicalUnicodeCheapEightBitWrapper
PUBLIC dd430 0 __CFFromASCII
PUBLIC dd450 0 CFSocketDisableCallBacks
PUBLIC dd620 0 CFMachPortInvalidate
PUBLIC dd890 0 __CFMachPortDeallocate
PUBLIC ddac0 0 +[__NSPlaceholderOrderedSet immutablePlaceholder]
PUBLIC ddad0 0 CFPreferencesSetAppValue
PUBLIC ddb70 0 -[__NSCFNumber boolValue]
PUBLIC ddbd0 0 -[__NSCFBoolean copyWithZone:]
PUBLIC ddbf0 0 _DescriptionWithStringProxyFunc
PUBLIC ddc70 0 _DescriptionWithLocaleFunc
PUBLIC ddcf0 0 -[__NSDictionary0 copyWithZone:]
PUBLIC ddd00 0 -[NSArray copyWithZone:]
PUBLIC ddda0 0 __NSCollectionsShouldCopy
PUBLIC ddde0 0 ____NSCollectionsShouldCopy_block_invoke
PUBLIC dde50 0 -[NSDictionary mutableCopyWithZone:]
PUBLIC dded0 0 -[_NSCopyOnWriteCalendarWrapper setTimeZone:]
PUBLIC ddfa0 0 -[_NSRefcountedPthreadMutex lock]
PUBLIC ddfc0 0 -[__NSCFCalendar setTimeZone:]
PUBLIC ddfd0 0 CFCalendarSetTimeZone
PUBLIC de0c0 0 -[_NSRefcountedPthreadMutex unlock]
PUBLIC de0e0 0 -[_NSCopyOnWriteCalendarWrapper copyWithZone:]
PUBLIC de210 0 -[NSCalendar component:fromDate:]
PUBLIC de340 0 -[_NSCopyOnWriteCalendarWrapper components:fromDate:]
PUBLIC de400 0 -[__NSCFCalendar components:fromDate:]
PUBLIC debb0 0 _CFCalendarDecomposeAbsoluteTimeV
PUBLIC dee40 0 __CFCalendarSetupCal
PUBLIC deed0 0 __cficu_ucal_clear
PUBLIC df030 0 __cficu_ucal_setMillis
PUBLIC df280 0 __cficu_ucal_get
PUBLIC df4a0 0 +[NSDateComponents allocWithZone:]
PUBLIC df4b0 0 -[NSDateComponents init]
PUBLIC df520 0 -[NSDateComponents setYear:]
PUBLIC df540 0 -[NSDateComponents valueForComponent:]
PUBLIC df7a0 0 -[NSDateComponents year]
PUBLIC df7b0 0 -[NSDateComponents setMonth:]
PUBLIC df7d0 0 -[NSDateComponents setDay:]
PUBLIC df7f0 0 -[NSDateComponents setCalendar:]
PUBLIC df880 0 -[NSDateComponents timeZone]
PUBLIC df890 0 -[NSDateComponents setTimeZone:]
PUBLIC df920 0 -[NSDateComponents calendar]
PUBLIC df930 0 -[_NSCopyOnWriteCalendarWrapper _copyWrappedCalendar]
PUBLIC df990 0 -[__NSCFCalendar copyWithZone:]
PUBLIC dfa60 0 -[NSDateComponents date]
PUBLIC dfae0 0 -[_NSCopyOnWriteCalendarWrapper dateFromComponents:]
PUBLIC dfb90 0 -[__NSCFCalendar dateFromComponents:]
PUBLIC e0200 0 -[NSDateComponents era]
PUBLIC e0210 0 -[NSDateComponents quarter]
PUBLIC e0220 0 -[NSDateComponents weekOfYear]
PUBLIC e0230 0 -[NSDateComponents week]
PUBLIC e0240 0 -[NSDateComponents weekOfMonth]
PUBLIC e0250 0 -[NSDateComponents yearForWeekOfYear]
PUBLIC e0270 0 -[NSDateComponents weekday]
PUBLIC e0280 0 -[NSDateComponents weekdayOrdinal]
PUBLIC e0290 0 -[NSDateComponents month]
PUBLIC e02a0 0 -[NSDateComponents isLeapMonth]
PUBLIC e02d0 0 -[NSDateComponents day]
PUBLIC e02e0 0 -[NSDateComponents hour]
PUBLIC e02f0 0 -[NSDateComponents minute]
PUBLIC e0300 0 -[NSDateComponents second]
PUBLIC e0310 0 -[NSDateComponents nanosecond]
PUBLIC e0320 0 -[__NSCFCalendar timeZone]
PUBLIC e0340 0 CFCalendarCopyTimeZone
PUBLIC e03f0 0 _CFCalendarComposeAbsoluteTimeV
PUBLIC e0920 0 __cficu_ucal_set
PUBLIC e0ac0 0 __cficu_ucal_getMillis
PUBLIC e0cb0 0 __CFCalendarGetTimeRangeOfTimeZoneTransition
PUBLIC e0e40 0 __calcNextDaylightSavingTimeTransition
PUBLIC e0ed0 0 -[NSNull copyWithZone:]
PUBLIC e0ee0 0 -[NSDateComponents dealloc]
PUBLIC e0f50 0 __CFLocaleDeallocate
PUBLIC e0f90 0 CFMessagePortSendRequest
PUBLIC e1400 0 __CFMessagePortCreateMessage
PUBLIC e1550 0 -[NSArray indexOfObjectIdenticalTo:]
PUBLIC e16d0 0 -[__NSSingleObjectSetI getObjects:count:]
PUBLIC e1730 0 _CFBagFastEnumeration
PUBLIC e17f0 0 -[NSInvocation setSelector:]
PUBLIC e1820 0 -[NSInvocation retainArguments]
PUBLIC e1910 0 __NSI3
PUBLIC e1ba0 0 -[__NSCFSet removeAllObjects]
PUBLIC e1c40 0 _CFBundleDlfcnLoadFramework
PUBLIC e1e60 0 __CFRunLoopTimeout
PUBLIC e1ea0 0 CFURLCopyParameterString
PUBLIC e2020 0 __CFNumberCopyFormattingDescription
PUBLIC e2230 0 __CFNumberCreateFormattingDescriptionAsFloat64
PUBLIC e22e0 0 -[NSSet hash]
PUBLIC e2330 0 -[__NSPlaceholderDate init]
PUBLIC e2380 0 CFErrorCopyUserInfo
PUBLIC e2450 0 -[__NSCFError userInfo]
PUBLIC e2470 0 _CFErrorCreateDebugDescription
PUBLIC e24b0 0 _CFErrorFormatDebugDescriptionAux
PUBLIC e2fd0 0 _CFErrorInitializeCallBackTable
PUBLIC e31a0 0 CFErrorSetCallBackForDomain
PUBLIC e3250 0 blockCopyValueCallBack
PUBLIC e3260 0 userInfoKeyValueShow
PUBLIC e32e0 0 __CFURLCopyFormattingDescription
PUBLIC e3440 0 -[__NSCFError classForCoder]
PUBLIC e3460 0 -[__NSCFError code]
PUBLIC e3470 0 -[__NSCFError domain]
PUBLIC e3480 0 _CFAppVersionLessThan
PUBLIC e34f0 0 __exceptionFinalize
PUBLIC e3530 0 __CFNumberEqual
PUBLIC e3550 0 _CFVolumeObserverCreate
PUBLIC e3a70 0 ___CFLookupDiskArbitrationFunction_block_invoke
PUBLIC e3a90 0 ___InitializeDiskArbitrationKeys_block_invoke
PUBLIC e3b10 0 ___CFVolumeObserverGetTypeID_block_invoke
PUBLIC e3b90 0 CFURLCreateFromFSRef
PUBLIC e3d30 0 _VolumeObserverDiskAppearedCallback
PUBLIC e3f20 0 _VolumeObserverIdleCallback
PUBLIC e4010 0 -[NSDate descriptionWithLocale:]
PUBLIC e4260 0 __32-[NSDate descriptionWithLocale:]_block_invoke
PUBLIC e42c0 0 _plistAppendFormat
PUBLIC e43a0 0 _plistAppendString
PUBLIC e4490 0 -[NSDate isEqual:]
PUBLIC e44e0 0 -[NSDate isEqualToDate:]
PUBLIC e4550 0 -[NSDate addTimeInterval:]
PUBLIC e4570 0 -[NSDate laterDate:]
PUBLIC e45d0 0 -[NSDate hash]
PUBLIC e4700 0 -[__NSSingleObjectSetI objectEnumerator]
PUBLIC e4750 0 -[NSSet description]
PUBLIC e47a0 0 -[NSSet descriptionWithLocale:indent:]
PUBLIC e4b00 0 -[__NSSetM objectEnumerator]
PUBLIC e4b80 0 -[__NSCFDictionary keyEnumerator]
PUBLIC e4c00 0 -[__NSCFString appendCharacters:length:]
PUBLIC e4d50 0 CFStringPad
PUBLIC e5060 0 -[__NSSetI objectEnumerator]
PUBLIC e50b0 0 -[__NSCFNumber stringValue]
PUBLIC e5120 0 __CFDoExternRefOperation
PUBLIC e5290 0 -[NSDictionary descriptionWithLocale:]
PUBLIC e52f0 0 -[__NSCFDictionary removeAllObjects]
PUBLIC e5390 0 CFBundleGetFunctionPointerForName
PUBLIC e5440 0 -[__NSCFArray classForCoder]
PUBLIC e5470 0 __CFMachPortCheck
PUBLIC e54b0 0 ____CFMachPortChecker_block_invoke
PUBLIC e5590 0 ___CFMachPortCreateWithPort2_block_invoke
PUBLIC e56a0 0 -[NSSet enumerateObjectsUsingBlock:]
PUBLIC e5720 0 -[__NSSetM enumerateObjectsWithOptions:usingBlock:]
PUBLIC e58d0 0 ____initDayChangedNotification_block_invoke_2
PUBLIC e58f0 0 -[__NSPlaceholderTimeZone initWithName:data:]
PUBLIC e5910 0 -[NSDateComponents setEra:]
PUBLIC e5930 0 -[NSDateComponents setHour:]
PUBLIC e5950 0 -[NSDateComponents setMinute:]
PUBLIC e5970 0 -[NSDateComponents setLeapMonth:]
PUBLIC e5990 0 __NSMS3a_x86_64
PUBLIC e5b90 0 __NSMS3b_x86_64
PUBLIC e5c50 0 +[NSDateComponents supportsSecureCoding]
PUBLIC e5c60 0 +[NSCalendar currentCalendar]
PUBLIC e5cb0 0 +[_NSCopyOnWriteCalendarWrapper currentCalendar]
PUBLIC e5d80 0 CFCalendarCopyCurrent
PUBLIC e5df0 0 -[_NSCopyOnWriteCalendarWrapper components:fromDate:toDate:options:]
PUBLIC e5ed0 0 -[__NSCFCalendar components:fromDate:toDate:options:]
PUBLIC e66d0 0 _CFCalendarGetComponentDifferenceV
PUBLIC e6a10 0 __cficu_ucal_getFieldDifference
PUBLIC e6cb0 0 -[NSDateComponents setWeekday:]
PUBLIC e6cd0 0 -[__NSCFString deleteCharactersInRange:]
PUBLIC e6d10 0 CFBundlePreflightExecutable
PUBLIC e6e70 0 _CFBundleDlfcnPreflight
PUBLIC e7140 0 CFLocaleCreateCanonicalLocaleIdentifierFromScriptManagerCodes
PUBLIC e71e0 0 CFBundleGetVersionNumber
PUBLIC e7250 0 _RemoveSubstringsIfPresent
PUBLIC e7400 0 _CFBundleCopyInfoDictionaryInResourceFork
PUBLIC e7420 0 _CFBundleCopyInfoDictionaryInResourceForkWithAllocator
PUBLIC e7750 0 -[NSSet isSubsetOfSet:]
PUBLIC e7b10 0 CFWriteStreamCreateWithFile
PUBLIC e7b90 0 fileWrite
PUBLIC e7c00 0 -[__NSCFOutputStream release]
PUBLIC e7c10 0 _CFBundleCopyInfoDictionaryInExecutable
PUBLIC e7c50 0 _CFBundleCreateInfoDictFromFile
PUBLIC e8110 0 -[__NSCFError copyWithZone:]
PUBLIC e81a0 0 CFDateFormatterCreateDateFromString
PUBLIC e8210 0 CFDateFormatterGetAbsoluteTimeFromString
PUBLIC e8b50 0 __cficu_udat_clone
PUBLIC e8d40 0 __cficu_udat_parseCalendar
PUBLIC e9040 0 -[__NSCFCharacterSet isSupersetOfSet:]
PUBLIC e9060 0 CFCharacterSetIsSupersetOfSet
PUBLIC e9780 0 _CFSuddenTerminationExitIfTerminationEnabled
PUBLIC e97c0 0 _CFSuddenTerminationExitWhenTerminationEnabled
PUBLIC e97f0 0 -[_CFXNotificationDistributedTokenRegistration invalidate]
PUBLIC e9930 0 __58-[_CFXNotificationDistributedTokenRegistration invalidate]_block_invoke
PUBLIC e9940 0 CFAbsoluteTimeGetDayOfWeek
PUBLIC e9a00 0 _runLoopTimerWithBlockContext
PUBLIC e9a20 0 CFRunLoopTimerDoesRepeat
PUBLIC e9a60 0 -[NSSharedKeySet init]
PUBLIC e9a80 0 -[NSSharedKeySet setSelect:]
PUBLIC e9a90 0 -[NSSharedKeySet setM:]
PUBLIC e9aa0 0 -[NSSharedKeySet setFactor:]
PUBLIC e9ab0 0 -[NSSharedKeySet setNumKey:]
PUBLIC e9ac0 0 -[NSSharedKeySet setSeeds:]
PUBLIC e9ae0 0 -[NSSharedKeySet setG:]
PUBLIC e9b00 0 -[NSSharedKeySet setRankTable:]
PUBLIC e9b20 0 -[NSSharedKeySet setKeys:]
PUBLIC e9b40 0 -[NSSharedKeySet setSubSharedKeySet:]
PUBLIC e9b60 0 -[__NSCFType hash]
PUBLIC e9b70 0 _CFURLGetCatalogInfo
PUBLIC e9be0 0 -[__NSCFArray isEqual:]
PUBLIC e9c40 0 _CFURLGetFSRef
PUBLIC e9c90 0 CFNotificationCenterPostNotificationWithOptions
PUBLIC e9d30 0 __CFAttributedStringHash
PUBLIC e9d40 0 CFAttributedStringCreateMutableCopy
PUBLIC e9e00 0 CFAttributedStringGetAttributesAndLongestEffectiveRange
PUBLIC e9fc0 0 CFAttributedStringSetAttribute
PUBLIC ea1c0 0 __CFNumberCopyFormattingDescriptionAsFloat64
PUBLIC ea1e0 0 +[NSDictionary(NSSharedKeySetDictionary) sharedKeySetForKeys:]
PUBLIC ea2d0 0 +[NSSharedKeySet keySetWithKeys:]
PUBLIC ea550 0 -[NSSharedKeySet initWithKeys:count:]
PUBLIC eb9c0 0 -[__NSSKGraph initWithNumberOfVertices:numberOfEdges:]
PUBLIC eba60 0 -[__NSSKGraph addEdgeWithH1:withH2:]
PUBLIC ebcf0 0 -[__NSSKGraph isAcyclic]
PUBLIC ec010 0 -[__NSSKGraph isEmpty]
PUBLIC ec040 0 -[__NSSKGraph numOfEdges]
PUBLIC ec060 0 -[__NSSKGraph dealloc]
PUBLIC ec110 0 +[NSMutableDictionary(NSSharedKeySetDictionary) dictionaryWithSharedKeySet:]
PUBLIC ec280 0 -[NSSharedKeySet isEmpty]
PUBLIC ec2a0 0 +[NSSharedKeyDictionary sharedKeyDictionaryWithKeySet:]
PUBLIC ec2e0 0 -[NSSharedKeyDictionary initWithKeySet:]
PUBLIC ec370 0 -[NSSharedKeySet count]
PUBLIC ec3b0 0 -[NSSharedKeyDictionary setObject:forKey:]
PUBLIC ec520 0 -[NSSharedKeySet indexForKey:]
PUBLIC ec7e0 0 -[NSSharedKeyDictionary objectForKey:]
PUBLIC ec860 0 CFBitVectorCreateMutable
PUBLIC ec880 0 __CFBitVectorInit
PUBLIC ec9f0 0 CFBitVectorSetCount
PUBLIC ecbd0 0 CFBitVectorSetAllBits
PUBLIC ece10 0 CFBitVectorSetBitAtIndex
PUBLIC ece60 0 CFBitVectorGetBitAtIndex
PUBLIC ece90 0 __CFBitVectorDeallocate
PUBLIC ecec0 0 CFServiceControllerCopyServicesEntries
PUBLIC ecf90 0 CFServiceControllerCopyServicesEntriesForLocalizations
PUBLIC ed270 0 _CFPreferencesFlushBundleID
PUBLIC ed280 0 -[NSDictionary countForKey:]
PUBLIC ed2e0 0 -[NSSharedKeyDictionary dealloc]
PUBLIC ed3d0 0 -[NSDictionary objectEnumerator]
PUBLIC ed450 0 -[__NSDictionaryObjectEnumerator nextObject]
PUBLIC ed4b0 0 CFRunLoopTimerGetNextFireDate
PUBLIC ed5b0 0 -[__NSCFTimer userInfo]
PUBLIC ed5e0 0 CFUUIDGetConstantUUIDWithBytes
PUBLIC ed780 0 CFPlugInRegisterFactoryFunction
PUBLIC ed7b0 0 _CFPFactoryCreate
PUBLIC ed800 0 CFPlugInInstanceCreate
PUBLIC ed890 0 _CFPFactorySupportsType
PUBLIC ed8f0 0 _CFPFactoryCreateInstance
PUBLIC ed9c0 0 CFPlugInAddInstanceForFactory
PUBLIC ed9e0 0 CFBundleLoadExecutableAndReturnError
PUBLIC eda00 0 __CFLocaleFullName
PUBLIC edaf0 0 -[_NSCopyOnWriteCalendarWrapper calendarIdentifier]
PUBLIC edba0 0 -[_NSCopyOnWriteCalendarWrapper firstWeekday]
PUBLIC edc50 0 -[__NSCFCalendar firstWeekday]
PUBLIC edd00 0 CFDateFormatterCreateDateFormatFromTemplate
PUBLIC ede30 0 useTemplatePatternGenerator
PUBLIC ee000 0 __cficu_udatpg_open
PUBLIC ee1d0 0 -[__NSCFString setString:]
PUBLIC ee220 0 __CFDateFormatterCreateDateFormatFromTemplate_block_invoke
PUBLIC eea70 0 __cficu_udatpg_getSkeleton
PUBLIC eed30 0 __cficu_udatpg_getBestPattern
PUBLIC eeff0 0 -[NSCache removeAllObjects]
PUBLIC ef020 0 +[NSNull supportsSecureCoding]
PUBLIC ef030 0 -[NSSet setByAddingObjectsFromArray:]
PUBLIC ef1f0 0 -[_NSCopyOnWriteCalendarWrapper setLocale:]
PUBLIC ef2c0 0 -[__NSCFCalendar setLocale:]
PUBLIC ef2d0 0 -[_NSCopyOnWriteCalendarWrapper timeZone]
PUBLIC ef380 0 -[_NSCopyOnWriteCalendarWrapper locale]
PUBLIC ef430 0 -[__NSCFCalendar locale]
PUBLIC ef450 0 CFCalendarCopyLocale
PUBLIC ef510 0 -[__NSCFLocale isEqual:]
PUBLIC ef540 0 -[NSTimeZone isEqual:]
PUBLIC ef590 0 -[_NSCopyOnWriteCalendarWrapper dateByAddingComponents:toDate:options:]
PUBLIC ef660 0 -[__NSCFCalendar dateByAddingComponents:toDate:options:]
PUBLIC efcb0 0 _CFCalendarAddComponentsV
PUBLIC eff60 0 __CFCalendarAdd
PUBLIC f0360 0 __cficu_ucal_add
PUBLIC f0580 0 -[NSDate initWithTimeInterval:sinceDate:]
PUBLIC f05d0 0 +[__NSTaggedDate allocWithZone:]
PUBLIC f05f0 0 -[NSDateComponents setSecond:]
PUBLIC f0610 0 +[NSDate dateWithTimeIntervalSince1970:]
PUBLIC f0660 0 -[NSDate earlierDate:]
PUBLIC f06c0 0 -[NSTimeZone isEqualToTimeZone:]
PUBLIC f0790 0 +[NSCalendar calendarWithIdentifier:]
PUBLIC f07d0 0 -[NSCalendar startOfDayForDate:]
PUBLIC f0820 0 -[_NSCopyOnWriteCalendarWrapper rangeOfUnit:startDate:interval:forDate:]
PUBLIC f0900 0 -[__NSCFCalendar rangeOfUnit:startDate:interval:forDate:]
PUBLIC f0a90 0 CFCalendarGetTimeRangeOfUnit
PUBLIC f15b0 0 __CFCalendarSetToFirstInstant
PUBLIC f1c80 0 __cficu_ucal_getLimit
PUBLIC f1ed0 0 -[NSOrderedSet lastObject]
PUBLIC f1f40 0 __NSOrderedSetEquateKeys
PUBLIC f1f60 0 -[NSOrderedSet isEqual:]
PUBLIC f1fe0 0 -[__NSOrderedSetM containsObject:]
PUBLIC f2060 0 -[NSOrderedSet indexOfObject:inSortedRange:options:usingComparator:]
PUBLIC f2410 0 +[NSOrderedSet orderedSetWithOrderedSet:range:copyItems:]
PUBLIC f2480 0 -[NSOrderedSet initWithOrderedSet:range:copyItems:]
PUBLIC f2720 0 -[__NSOrderedSetM getObjects:range:]
PUBLIC f2850 0 -[__NSOrderedSetI countByEnumeratingWithState:objects:count:]
PUBLIC f28e0 0 -[__NSOrderedSetI dealloc]
PUBLIC f2980 0 -[__NSOrderedSetM indexOfObject:]
PUBLIC f29f0 0 -[NSMutableArray removeObject:inRange:]
PUBLIC f2b70 0 -[__NSCFArray mutableCopyWithZone:]
PUBLIC f2bc0 0 -[_NSCopyOnWriteCalendarWrapper maximumRangeOfUnit:]
PUBLIC f2c80 0 -[__NSCFCalendar maximumRangeOfUnit:]
PUBLIC f2cb0 0 CFCalendarGetMaximumRangeOfUnit
PUBLIC f3040 0 CFNumberFormatterCreate
PUBLIC f3750 0 __CFNumberFormatterGetTypeID_block_invoke
PUBLIC f3770 0 __cficu_unum_open
PUBLIC f39d0 0 __cficu_unum_toPattern
PUBLIC f3c50 0 __CFNumberFormatterCreateCompressedString
PUBLIC f3e10 0 __cficu_unum_getAttribute
PUBLIC f4050 0 __cficu_unum_setAttribute
PUBLIC f4290 0 __cficu_unum_setContext
PUBLIC f4370 0 CFNumberFormatterCreateStringWithNumber
PUBLIC f46a0 0 __cficu_unum_formatDecimal
PUBLIC f4960 0 __CFNumberFormatterDeallocate
PUBLIC f49e0 0 __cficu_unum_close
PUBLIC f4ab0 0 +[NSNull allocWithZone:]
PUBLIC f4ac0 0 __cficu_udat_countSymbols
PUBLIC f4b70 0 __cficu_udat_getSymbols
PUBLIC f4e20 0 -[NSDateComponents setWeekOfYear:]
PUBLIC f4e40 0 -[_NSCopyOnWriteCalendarWrapper isDateInWeekend:]
PUBLIC f4ef0 0 -[__NSCFCalendar isDateInWeekend:]
PUBLIC f4f50 0 __cficu_ucal_isWeekend
PUBLIC f51b0 0 -[NSCalendar compareDate:toDate:toUnitGranularity:]
PUBLIC f5620 0 -[__NSCFBoolean hash]
PUBLIC f5630 0 -[NSSet initWithSet:]
PUBLIC f5650 0 CFPreferencesCopyMultiple
PUBLIC f5700 0 _CFPreferencesCopyMultipleWithContainer
PUBLIC f57b0 0 CFURLCreateByResolvingBookmarkData
PUBLIC f5830 0 CFURLEnumeratorCreateForMountedVolumes
PUBLIC f5890 0 _CFURLGetVolumePropertyFlags
PUBLIC f5a20 0 _CFURLGetResourcePropertyFlags
PUBLIC f5bb0 0 CFURLSetTemporaryResourcePropertyForKey
PUBLIC f5d00 0 _CFURLCopyResourcePropertyValuesAndFlags
PUBLIC f5ed0 0 -[__NSCFData hash]
PUBLIC f5ee0 0 -[NSMutableArray insertObjects:atIndexes:]
PUBLIC f6290 0 -[NSSet setByAddingObject:]
PUBLIC f6450 0 parseUnquotedPlistString
PUBLIC f6560 0 CFURLClearResourcePropertyCacheForKey
PUBLIC f6680 0 -[NSURL setTemporaryResourceValue:forKey:]
PUBLIC f6760 0 -[NSMutableArray _mutate]
PUBLIC f6770 0 CFNumberFormatterSetFormat
PUBLIC f68c0 0 __CFNumberFormatterApplyPattern
PUBLIC f6a40 0 __cficu_unum_applyPattern
PUBLIC f6b80 0 CFNumberFormatterSetProperty
PUBLIC f76f0 0 CFNumberFormatterGetFormat
PUBLIC f7820 0 __cficu_unum_setSymbol
PUBLIC f7970 0 __cficu_unum_setTextAttribute
PUBLIC f7ac0 0 ____CFRunLoopFindMode_block_invoke
PUBLIC f7ae0 0 -[NSURL fileReferenceURL]
PUBLIC f7bf0 0 FileReferenceURLPathToFullURLPath
PUBLIC f7e30 0 CFURLCreateFilePathURL
PUBLIC f84a0 0 -[NSCalendar isDate:inSameDayAsDate:]
PUBLIC f8670 0 CFCharacterSetCreateBitmapRepresentation
PUBLIC f9420 0 _CFBundleCopyUserLanguages
PUBLIC f9470 0 CFAllocatorGetContext
PUBLIC f9500 0 CFPreferencesCopyKeyList
PUBLIC f95a0 0 _CFPreferencesCopyKeyListWithContainer
PUBLIC f9650 0 -[CFPrefsSource copyKeyList]
PUBLIC f96a0 0 -[CFPrefsPlistSource alreadylocked_copyKeyList]
PUBLIC f9980 0 -[CFPrefsPlistSource alreadylocked_copyValueForKey:]
PUBLIC f9990 0 -[NSMutableOrderedSet addObjectsFromArray:]
PUBLIC f9a60 0 -[NSMutableOrderedSet insertObjectsFromArray:range:atIndex:]
PUBLIC f9d00 0 -[NSMutableOrderedSet insertObjects:count:atIndex:]
PUBLIC f9ee0 0 CFErrorCopyDescription
PUBLIC f9fa0 0 _CFErrorCocoaCallBack
PUBLIC fa040 0 -[NSCache dealloc]
PUBLIC fa0c0 0 -[NSOrderedSet mutableCopyWithZone:]
PUBLIC fa150 0 -[NSArray firstObjectCommonWithArray:]
PUBLIC fa320 0 -[__NSLocalTimeZone secondsFromGMTForDate:]
PUBLIC fa360 0 CFPropertyListCreateXMLData
PUBLIC fa370 0 -[NSURL bookmarkDataWithOptions:includingResourceValuesForKeys:relativeToURL:error:]
PUBLIC fa4b0 0 CFURLCreateBookmarkData
PUBLIC fa530 0 -[NSOrderedSet reversedOrderedSet]
PUBLIC fa580 0 -[__NSOrderedSetReversed initWithOrderedSet:]
PUBLIC fa5d0 0 -[NSOrderedSet copyWithZone:]
PUBLIC fa660 0 -[__NSOrderedSetI count]
PUBLIC fa680 0 -[NSOrderedSet initWithArray:]
PUBLIC fa6d0 0 -[__NSOrderedSetReversed count]
PUBLIC fa6f0 0 -[NSOrderedSet initWithArray:range:copyItems:]
PUBLIC fa990 0 -[NSMutableOrderedSet intersectSet:]
PUBLIC fac80 0 -[NSOrderedSet reverseObjectEnumerator]
PUBLIC fad00 0 -[__NSOrderedSetReverseEnumerator initWithObject:]
PUBLIC fad60 0 -[__NSOrderedSetReverseEnumerator nextObject]
PUBLIC fadd0 0 -[__NSOrderedSetReverseEnumerator dealloc]
PUBLIC fae20 0 -[__NSOrderedSetReversed dealloc]
PUBLIC fae70 0 CFURLCreateResourcePropertiesForKeysFromBookmarkData
PUBLIC faed0 0 _NSURLCreateNSImageWithIconRef
PUBLIC faf40 0 +[NSLocale ISOCountryCodes]
PUBLIC faf60 0 CFLocaleCopyISOCountryCodes
PUBLIC faf80 0 __CFLocaleCopyCStringsAsArray
PUBLIC fb020 0 CFReadStreamCreateWithData
PUBLIC fb070 0 -[__NSCFInputStream retain]
PUBLIC fb080 0 -[__NSCFInputStream read:maxLength:]
PUBLIC fb090 0 +[NSLocale localeWithLocaleIdentifier:]
PUBLIC fb0d0 0 CFStringAppendFormatAndArguments
PUBLIC fb100 0 CFUniCharGetConditionalCaseMappingFlags
PUBLIC fb880 0 CFStringGetRangeOfComposedCharactersAtIndex
PUBLIC fb890 0 -[NSMutableSet setSet:]
PUBLIC fbc90 0 CFBundleCopyResourceURLsOfType
PUBLIC fbce0 0 _CFWebServicesCopyProviderInfo
PUBLIC fbd30 0 _CFWebServicesCopyProviderInfoForKey
PUBLIC fbe70 0 CFPasteboardBeginGeneration
PUBLIC fc030 0 CFPasteboardSetData
PUBLIC fc310 0 __CFRunLoopEnableAuxiliaryAppNapNotifications
PUBLIC fc380 0 ____CFRunLoopEnableAuxiliaryAppNapNotifications_block_invoke
PUBLIC fc3a0 0 _CFPrefsValuesChangedExternally
PUBLIC fc460 0 -[__NSCFNumber unsignedCharValue]
PUBLIC fc480 0 -[NSMutableArray replaceObjectsAtIndexes:withObjects:]
PUBLIC fc830 0 -[NSURL filePathURL]
PUBLIC fc940 0 CFURLClearResourcePropertyCache
PUBLIC fca50 0 -[__NSCFData isEqual:]
PUBLIC fca80 0 -[NSTimeZone hash]
PUBLIC fcaa0 0 -[__NSTimeZone data]
PUBLIC fcc60 0 -[__NSTimeZone daylightSavingTimeOffsetForDate:]
PUBLIC fce10 0 CFCalendarDecomposeAbsoluteTime
PUBLIC fd080 0 CFCalendarGetOrdinalityOfUnit
PUBLIC fd720 0 __CFCalendarGetOrdinalityOfUnit3
PUBLIC ff470 0 CFCalendarComposeAbsoluteTime
PUBLIC ff6e0 0 -[NSOrderedSet objectAtIndexedSubscript:]
PUBLIC ff730 0 +[NSLocale componentsFromLocaleIdentifier:]
PUBLIC ff760 0 +[NSLocale localeIdentifierFromComponents:]
PUBLIC ff790 0 CFCalendarGetIdentifier
PUBLIC ff830 0 __cficu_udatpg_close
PUBLIC ff900 0 -[__NSCFLocale _prefs]
PUBLIC ff910 0 CFAttributedStringGetBidiLevels
PUBLIC ff920 0 CFCalendarGetFirstWeekday
PUBLIC ff9d0 0 CFCalendarGetMinimumDaysInFirstWeek
PUBLIC ffa80 0 CFNumberFormatterCreateStringWithValue
PUBLIC 100310 0 __cficu_unum_formatDouble
PUBLIC 1005d0 0 -[NSOrderedSet firstObject]
PUBLIC 100640 0 -[__NSOrderedSetM enumerateObjectsWithOptions:usingBlock:]
PUBLIC 1006d0 0 CFNumberFormatterCopyProperty
PUBLIC 100ec0 0 -[NSOrderedSet enumerateObjectsUsingBlock:]
PUBLIC 100f40 0 -[__NSSetI enumerateObjectsWithOptions:usingBlock:]
PUBLIC 1010b0 0 +[NSTimeZone timeZoneWithAbbreviation:]
PUBLIC 101230 0 +[NSTimeZone abbreviationDictionary]
PUBLIC 101390 0 -[__NSCFSet getObjects:]
PUBLIC 1013f0 0 -[__NSCFSet copyWithZone:]
PUBLIC 101460 0 -[NSCalendar dateByAddingUnit:value:toDate:options:]
PUBLIC 1014f0 0 -[NSDateComponents setValue:forComponent:]
PUBLIC 101740 0 -[_NSCopyOnWriteCalendarWrapper rangeOfUnit:inUnit:forDate:]
PUBLIC 101820 0 -[__NSCFCalendar rangeOfUnit:inUnit:forDate:]
PUBLIC 101970 0 CFCalendarGetRangeOfUnit
PUBLIC 1026c0 0 __51-[__NSSetI enumerateObjectsWithOptions:usingBlock:]_block_invoke
PUBLIC 102740 0 -[NSTimeZone isNSTimeZone__]
PUBLIC 102750 0 -[NSSharedKeyDictionary removeObjectForKey:]
PUBLIC 102830 0 -[NSSet intersectsSet:]
PUBLIC 102bb0 0 -[__NSCFSet mutableCopyWithZone:]
PUBLIC 102c00 0 -[__NSCFCharacterSet invert]
PUBLIC 102c10 0 -[__NSCFCharacterSet formUnionWithCharacterSet:]
PUBLIC 102c20 0 +[NSURL bookmarkDataWithContentsOfURL:error:]
PUBLIC 102c90 0 CFURLCreateBookmarkDataFromFile
PUBLIC 102cf0 0 -[NSURL setResourceValue:forKey:error:]
PUBLIC 102df0 0 CFURLSetResourcePropertyForKey
PUBLIC 102f80 0 +[NSURL resourceValuesForKeys:fromBookmarkData:]
PUBLIC 102fb0 0 _CFURLCopyAliasFromPropertyListRepresentation
PUBLIC 103000 0 -[__NSCFNumber unsignedShortValue]
PUBLIC 103020 0 CFURLCreateBookmarkDataFromAliasRecord
PUBLIC 103070 0 CFPasteboardCreateDataForString
PUBLIC 1030c0 0 -[NSDateComponents isEqual:]
PUBLIC 1034e0 0 CFStringConvertEncodingToWindowsCodepage
PUBLIC 103500 0 __CFStringEncodingGetWindowsCodePage
PUBLIC 1035c0 0 CFPasteboardGetItemCount
PUBLIC 103880 0 CFPasteboardPromiseData
PUBLIC 1038e0 0 CFPasteboardGetChangeCount
PUBLIC 1039a0 0 CFPasteboardCopyItemsAndFlavors
PUBLIC 103c10 0 CFPasteboardBeginDragAndDrop
PUBLIC 103c20 0 -[NSMutableArray removeAllObjects]
PUBLIC 103cb0 0 CFPasteboardEndDragAndDrop
PUBLIC 103cc0 0 CFPasteboardGetItemAtIndex
PUBLIC 103ef0 0 __CFPasteboardDeallocate
PUBLIC 104150 0 -[NSMutableOrderedSet removeObject:]
PUBLIC 1041e0 0 -[__NSOrderedSetM removeObjectAtIndex:]
PUBLIC 1042f0 0 __cficu_unum_getSymbol
PUBLIC 104590 0 CFNumberFormatterCreateNumberFromString
PUBLIC 104900 0 CFNumberFormatterGetValueFromString
PUBLIC 105030 0 __cficu_unum_parseDecimal
PUBLIC 105460 0 _CFBigNumInitWithInt32
PUBLIC 1054b0 0 _CFBigNumToCString
PUBLIC 1055d0 0 __CFLocaleCopyNumberFormat
PUBLIC 105640 0 _CFDiscorporateMemoryMaterialize
PUBLIC 1056b0 0 -[NSArray containsObjectIdenticalTo:]
PUBLIC 1057f0 0 -[NSOrderedSet objectEnumerator]
PUBLIC 105870 0 -[NSTimeZone abbreviation]
PUBLIC 1058b0 0 -[__NSTimeZone abbreviationForDate:]
PUBLIC 105980 0 getTimeZoneDisplayName
PUBLIC 105ca0 0 -[NSDate initWithTimeIntervalSinceNow:]
PUBLIC 105d00 0 -[NSArray arrayByApplyingSelector:]
PUBLIC 105f90 0 +[NSOrderedSet orderedSetWithArray:]
PUBLIC 105ff0 0 -[__NSOrderedSetI copyWithZone:]
PUBLIC 106010 0 -[__NSOrderedSetI enumerateObjectsWithOptions:usingBlock:]
PUBLIC 106210 0 __58-[__NSOrderedSetI enumerateObjectsWithOptions:usingBlock:]_block_invoke
PUBLIC 106290 0 -[__NSOrderedSetI objectAtIndex:]
PUBLIC 106300 0 CFStringEncodingByteLengthForCharacters
PUBLIC 1063f0 0 __CFToUTF8Len
PUBLIC 1064d0 0 +[NSException exceptionWithName:reason:userInfo:]
PUBLIC 106530 0 -[NSException initWithName:reason:userInfo:]
PUBLIC 1065b0 0 -[NSException raise]
PUBLIC 1065c0 0 __exceptionPreprocess
PUBLIC 1066d0 0 objectIsKindOfNSException
PUBLIC 106770 0 __exceptionMatch
PUBLIC 106800 0 -[NSException dealloc]
PUBLIC 106890 0 _CFBundleGetValueForInfoKey
PUBLIC 1068f0 0 __CFStringEncodingGetExternalConverter
PUBLIC 106b70 0 CFStringEncodingCharLengthForBytes
PUBLIC 106d10 0 __CFStringEncodingPlatformCharLengthForBytes
PUBLIC 106d40 0 __CFStringEncodingPlatformBytesToUnicode
PUBLIC 1070d0 0 _CFBigNumInitWithInt64
PUBLIC 107150 0 CFNumberFormatterGetLocale
PUBLIC 107160 0 __NSMS2a_x86_64
PUBLIC 107360 0 __NSMS2b_x86_64a
PUBLIC 1073c0 0 __NSMS2b_x86_64b
PUBLIC 107420 0 -[__NSCFString _fastCharacterContents]
PUBLIC 107430 0 _CFRunLoopStopMode
PUBLIC 1074b0 0 CFNotificationCenterRemoveEveryObserver
PUBLIC 107530 0 -[__NSCFString cString]
PUBLIC 1075a0 0 CFBundleOpenBundleResourceMap
PUBLIC 107620 0 CFBundleOpenBundleResourceFiles
PUBLIC 1078c0 0 _CFBundleOpenResourceFile
PUBLIC 107b70 0 CFCharacterSetIntersect
PUBLIC 109910 0 CFBundleCopyExecutableArchitecturesForURL
PUBLIC 109960 0 -[__NSDictionaryM setObservationInfo:]
PUBLIC 109a50 0 +[__NSDictionaryM automaticallyNotifiesObserversForKey:]
PUBLIC 109a60 0 CFBundleCopyResourceURLsOfTypeInDirectory
PUBLIC 109b60 0 -[NSArray indexOfObject:inRange:]
PUBLIC 109cb0 0 _CFURLIsPromiseName
PUBLIC 109d00 0 _CFFileSecurityCreateFromFilesec
PUBLIC 109d40 0 +[NSFileSecurity allocWithZone:]
PUBLIC 109dc0 0 +[__NSPlaceholderFileSecurity initialize]
PUBLIC 109df0 0 __41+[__NSPlaceholderFileSecurity initialize]_block_invoke
PUBLIC 109e30 0 __CFFileSecurityGetTypeID_block_invoke
PUBLIC 109e50 0 +[__NSPlaceholderFileSecurity immutablePlaceholder]
PUBLIC 109e60 0 -[__NSPlaceholderFileSecurity initWithFileSec:]
PUBLIC 109e90 0 +[__NSFileSecurity __new:]
PUBLIC 109eb0 0 CFFileSecurityCreateCopy
PUBLIC 109f20 0 -[__NSFileSecurity _filesec]
PUBLIC 109f40 0 -[__NSFileSecurity dealloc]
PUBLIC 109f90 0 __CFLocalePrefsChanged
PUBLIC 10a020 0 ____CFLocalePrefsChanged_block_invoke
PUBLIC 10a060 0 __CFCalendarResetCurrentCalendar
PUBLIC 10a0b0 0 +[NSLocale availableLocaleIdentifiers]
PUBLIC 10a0d0 0 CFLocaleCopyAvailableLocaleIdentifiers
PUBLIC 10a1d0 0 __CFActiveProcessorCount
PUBLIC 10a1f0 0 __CFSortIndexesN
PUBLIC 10a550 0 ____CFSortIndexesN_block_invoke
PUBLIC 10a5a0 0 __CFSortIndexesNMerge
PUBLIC 10a790 0 _CFLocaleCopyAsIfCurrentWithOverrides
PUBLIC 10a7b0 0 CFPreferencesFlushCaches
PUBLIC 10a7c0 0 -[CFPrefsSearchListSource dealloc]
PUBLIC 10a8c0 0 -[CFPrefsPlistSource dealloc]
PUBLIC 10a900 0 -[CFPrefsPlistSource _sharedCleanup]
PUBLIC 10a990 0 -[CFPrefsSource dealloc]
PUBLIC 10aa20 0 __CFStringIsMutable
PUBLIC 10aa30 0 ____CFLocaleResetCurrent_block_invoke
PUBLIC 10aae0 0 _CFErrorCreateLocalizedDescription
PUBLIC 10bd80 0 _CFStorageFindNodeContainingByteRange
PUBLIC 10bee0 0 CFStorageGetCount
PUBLIC 10bf10 0 +[NSOrderedSet orderedSetWithOrderedSet:]
PUBLIC 10bf70 0 -[__NSCFType _isDeallocating]
PUBLIC 10bf80 0 _CFIsDeallocating
PUBLIC 10bfb0 0 CFDictionaryGetCountOfKey
PUBLIC 10c060 0 -[__NSCFType _tryRetain]
PUBLIC 10c080 0 _CFTryRetain
PUBLIC 10c120 0 CFBagContainsValue
PUBLIC 10c140 0 CFBundleIsExecutableLoaded
PUBLIC 10c150 0 CFRunLoopObserverGetContext
PUBLIC 10c1c0 0 __CFBooleanCopyFormattingDescription
PUBLIC 10c1f0 0 +[NSException raise:format:arguments:]
PUBLIC 10c260 0 +[NSObject(NSObject) _copyDescription]
PUBLIC 10c2c0 0 -[NSException description]
PUBLIC 10c2f0 0 -[__NSCFString _isDeallocating]
PUBLIC 10c300 0 becameInvisible
PUBLIC 10c320 0 _CFBundleFlushCaches
PUBLIC 10c330 0 +[__NSTimeZone __new:data:]
PUBLIC 10c3e0 0 CFArrayGetCountOfValue
PUBLIC 10c530 0 -[NSOrderedSet enumerateObjectsAtIndexes:options:usingBlock:]
PUBLIC 10c670 0 __NSOrderedSetParameterCheckIterate
PUBLIC 10c7c0 0 __NSOrderedSetEnumerate
PUBLIC 10cde0 0 CFURLDestroyResource
PUBLIC 10cf40 0 _CFDeleteFile
PUBLIC 10cfa0 0 -[__NSCFArray addObject:]
PUBLIC 10cfd0 0 -[__NSCFArray insertObject:atIndex:]
PUBLIC 10d0d0 0 __CFMessagePortReplyCallBack
PUBLIC 10d440 0 _CFRuntimeInitStaticInstance
PUBLIC 10d4d0 0 CFPasteboardResolveAllPromisedData
PUBLIC 10d6d0 0 CFPasteboardCopyFlavorsForItem
PUBLIC 10d920 0 CFStringConvertWindowsCodepageToEncoding
PUBLIC 10d930 0 __CFStringEncodingGetFromWindowsCodePage
PUBLIC 10dac0 0 -[__NSCFTimer timeInterval]
PUBLIC 10dad0 0 CFRunLoopTimerGetInterval
PUBLIC 10db90 0 _CFPrefsCopyAppDictionaryWithContainer
PUBLIC 10dc20 0 +[NSLocale systemLocale]
PUBLIC 10dc30 0 CFPlugInCreate
PUBLIC 10dd30 0 CFPlugInGetBundle
PUBLIC 10dd40 0 CFPlugInFindFactoriesForPlugInTypeInPlugIn
PUBLIC 10de20 0 _CFPFactoryFindCopyForType
PUBLIC 10de80 0 _CFPFactoryCopyPlugIn
PUBLIC 10dec0 0 _CFPFactoryCopyFactoryID
PUBLIC 10df00 0 _CFBundlePlugInLoaded
PUBLIC 10e070 0 _CFPFactoryAddInstance
PUBLIC 10e0d0 0 _CFPlugInAddPlugInInstance
PUBLIC 10e130 0 _CFBundleUnscheduleForUnloading
PUBLIC 10e170 0 CFPlugInRemoveInstanceForFactory
PUBLIC 10e190 0 _CFPFactoryRemoveInstance
PUBLIC 10e1f0 0 _CFPlugInRemovePlugInInstance
PUBLIC 10e250 0 _CFBundleScheduleForUnloading
PUBLIC 10e300 0 _CFPlugInWillUnload
PUBLIC 10e380 0 _CFPFactoryFlushFunctionCache
PUBLIC 10e3b0 0 _CFBundleDlfcnUnload
PUBLIC 10e410 0 CFTreeCreate
PUBLIC 10e4d0 0 CFTreeSetContext
PUBLIC 10e660 0 CFTreeFindRoot
PUBLIC 10e680 0 CFTreeGetContext
PUBLIC 10e6d0 0 CFTreeGetFirstChild
PUBLIC 10e6e0 0 CFTreeApplyFunctionToChildren
PUBLIC 10e720 0 CFTreeRemoveAllChildren
PUBLIC 10e780 0 CFTreeAppendChild
PUBLIC 10e7e0 0 CFTreeGetParent
PUBLIC 10e7f0 0 CFTreeGetNextSibling
PUBLIC 10e800 0 __CFStringEncodingGetICUName
PUBLIC 10e8d0 0 __CFStringEncodingICUCharLength
PUBLIC 10e900 0 __CFStringEncodingICUToUnicode
PUBLIC 10ecb0 0 __CFStringEncodingConverterReleaseICUConverter
PUBLIC 10efa0 0 _CFErrorCreateLocalizedFailureReason
PUBLIC 10f1a0 0 -[NSInvocation argumentsRetained]
PUBLIC 10f1c0 0 -[__NSArrayM exchangeObjectAtIndex:withObjectAtIndex:]
PUBLIC 10f360 0 -[NSDate initWithTimeIntervalSince1970:]
PUBLIC 10f380 0 CFTreeRemove
PUBLIC 10f410 0 -[__NSLocalTimeZone copyWithZone:]
PUBLIC 10f430 0 _CFStringCreateWithFormatAndArgumentsAux
PUBLIC 10f4d0 0 -[__NSCFDictionary hash]
PUBLIC 10f4e0 0 CFTreeGetChildCount
PUBLIC 10f500 0 CFTreeGetChildAtIndex
PUBLIC 10f530 0 -[NSOrderedSet indexOfObjectAtIndexes:options:passingTest:]
PUBLIC 10f670 0 __NSOrderedSetGetIndexPassingTest
PUBLIC 10fca0 0 -[NSCache setDelegate:]
PUBLIC 10fd10 0 -[__NSCFString _tryRetain]
PUBLIC 10fd30 0 -[__NSCFTimer setFireDate:]
PUBLIC 10fd60 0 -[NSSharedKeyDictionary copyWithZone:]
PUBLIC 10fe50 0 -[NSSharedKeyDictionary enumerateKeysAndObjectsWithOptions:usingBlock:]
PUBLIC 110060 0 __71-[NSSharedKeyDictionary enumerateKeysAndObjectsWithOptions:usingBlock:]_block_invoke
PUBLIC 110110 0 -[NSSharedKeySet keyAtIndex:]
PUBLIC 110180 0 -[__NSCFCharacterSet removeCharactersInRange:]
PUBLIC 110190 0 CFCharacterSetRemoveCharactersInRange
PUBLIC 110c00 0 __cficu_udat_setContext
PUBLIC 110de0 0 __cficu_udat_toPatternRelativeDate
PUBLIC 111090 0 __cficu_udat_toPatternRelativeTime
PUBLIC 111340 0 __cficu_udat_applyPatternRelative
PUBLIC 1114a0 0 -[_NSMostCommonChineseCharsKeySet init]
PUBLIC 1115d0 0 -[_NSSharedKeySetS init]
PUBLIC 1115f0 0 -[_NSSharedKeySetS initWithKeys:keyLenghtInBytes:count:type:]
PUBLIC 113310 0 -[_NSSharedKeySetS setSelect:]
PUBLIC 113320 0 -[_NSSharedKeySetS setC:]
PUBLIC 113340 0 -[_NSSharedKeySetS setM:]
PUBLIC 113350 0 -[_NSSharedKeySetS setFactor:]
PUBLIC 113360 0 -[_NSSharedKeySetS setNumKey:]
PUBLIC 113370 0 -[_NSSharedKeySetS setSeeds:]
PUBLIC 113390 0 -[_NSSharedKeySetS setG:]
PUBLIC 1133b0 0 -[_NSSharedKeySetS setRankTable:]
PUBLIC 1133d0 0 -[_NSSharedKeySetS setKeys1:]
PUBLIC 1133f0 0 -[_NSSharedKeySetS setKeyLen:]
PUBLIC 113400 0 -[_NSSharedKeySetS setType:]
PUBLIC 113410 0 -[_NSSharedKeySetS setSubSharedKeySet:]
PUBLIC 113430 0 -[_NSMostCommonJapaneseCharsKeySet init]
PUBLIC 113550 0 -[_NSMostCommonKoreanCharsKeySet init]
PUBLIC 113680 0 -[_NSChineseBigramKeySet init]
PUBLIC 1137e0 0 -[_NSSharedKeySetS setKeys2:]
PUBLIC 113800 0 -[_NSChineseBigramKeySet_SKS init]
PUBLIC 113960 0 -[_NSChineseBigramKeySet_SKS_SKS init]
PUBLIC 113a90 0 -[_NSJapaneseBigramKeySet init]
PUBLIC 113bb0 0 -[_NSKoreanBigramKeySet init]
PUBLIC 113d00 0 -[_NSKoreanBigramKeySet_SKS init]
PUBLIC 113e20 0 -[__NSISOLatin1TrigramKeySet init]
PUBLIC 113f50 0 -[_NSSharedKeySetS setCkeys:]
PUBLIC 113f70 0 -[__NSISOLatin2TrigramKeySet init]
PUBLIC 1140a0 0 -[__NSISOLatin3TrigramKeySet init]
PUBLIC 1141d0 0 -[__NSISOLatin4TrigramKeySet init]
PUBLIC 114300 0 -[__NSISOLatin5TrigramKeySet init]
PUBLIC 114430 0 -[__NSISOLatin6TrigramKeySet init]
PUBLIC 114560 0 -[__NSISOLatin7TrigramKeySet init]
PUBLIC 114690 0 -[__NSISOLatin8TrigramKeySet init]
PUBLIC 1147c0 0 -[__NSISOLatin9TrigramKeySet init]
PUBLIC 1148f0 0 -[__NSISOLatin10TrigramKeySet init]
PUBLIC 114a20 0 -[__NSISO88595TrigramKeySet init]
PUBLIC 114b50 0 -[__NSISO88596TrigramKeySet init]
PUBLIC 114c80 0 -[__NSISO88597TrigramKeySet init]
PUBLIC 114db0 0 -[__NSISO88598TrigramKeySet init]
PUBLIC 114ee0 0 -[__NSISO885911TrigramKeySet init]
PUBLIC 115010 0 -[__NSWindows874TrigramKeySet init]
PUBLIC 115140 0 -[__NSWindows1251TrigramKeySet init]
PUBLIC 115270 0 -[__NSWindows1252TrigramKeySet init]
PUBLIC 1153a0 0 -[__NSWindows1250TrigramKeySet init]
PUBLIC 1154d0 0 -[__NSWindows1253TrigramKeySet init]
PUBLIC 115600 0 -[__NSWindows1254TrigramKeySet init]
PUBLIC 115730 0 -[__NSWindows1255TrigramKeySet init]
PUBLIC 115860 0 -[__NSWindows1256TrigramKeySet init]
PUBLIC 115990 0 -[__NSWindows1257TrigramKeySet init]
PUBLIC 115ac0 0 -[__NSWindows1258TrigramKeySet init]
PUBLIC 115bf0 0 -[__NSCFString getLineStart:end:contentsEnd:forRange:]
PUBLIC 115d30 0 CFStringGetLineBounds
PUBLIC 115de0 0 -[NSSharedKeyDictionary count]
PUBLIC 115e20 0 _CFDataFindBytes
PUBLIC 116170 0 _computeGoodSubstringShift
PUBLIC 116540 0 -[NSOrderedSet intersectsSet:]
PUBLIC 116710 0 -[_NSSharedKeySetS indexForKey:length:]
PUBLIC 116af0 0 -[_NSSharedKeySetS indexForBytes:length:]
PUBLIC 116df0 0 __CFFromWinLatin1
PUBLIC 116e30 0 _CFStringTokenizerCreateNamePartsArrayWithString
PUBLIC 116e50 0 CFStreamCreatePairWithSocketToHost
PUBLIC 116ee0 0 initializeCFNetworkSupport
PUBLIC 116f90 0 __CFLookupCFNetworkFunction
PUBLIC 116fe0 0 -[NSMutableDictionary __addObject:forKey:]
PUBLIC 1170b0 0 -[__NSCFOutputStream retain]
PUBLIC 1170c0 0 -[__NSCFInputStream setDelegate:]
PUBLIC 117120 0 -[__NSCFOutputStream setDelegate:]
PUBLIC 117180 0 -[__NSCFInputStream setProperty:forKey:]
PUBLIC 1171a0 0 -[__NSCFOutputStream setProperty:forKey:]
PUBLIC 1171c0 0 -[__NSCFOutputStream open]
PUBLIC 1171d0 0 -[__NSCFInputStream scheduleInRunLoop:forMode:]
PUBLIC 117210 0 -[__NSCFOutputStream scheduleInRunLoop:forMode:]
PUBLIC 117250 0 -[__NSCFInputStream streamStatus]
PUBLIC 117260 0 -[__NSCFOutputStream streamStatus]
PUBLIC 117270 0 _inputStreamCallbackFunc
PUBLIC 1172d0 0 _outputStreamCallbackFunc
PUBLIC 117330 0 -[__NSCFInputStream streamError]
PUBLIC 117350 0 CFReadStreamCopyError
PUBLIC 117410 0 -[__NSCFOutputStream streamError]
PUBLIC 117430 0 CFWriteStreamCopyError
PUBLIC 117480 0 -[__NSCFOutputStream removeFromRunLoop:forMode:]
PUBLIC 1174c0 0 -[__NSCFInputStream removeFromRunLoop:forMode:]
PUBLIC 117500 0 -[__NSCFInputStream hasBytesAvailable]
PUBLIC 117510 0 -[__NSCFInputStream propertyForKey:]
PUBLIC 117530 0 -[__NSCFOutputStream propertyForKey:]
PUBLIC 117550 0 -[__NSCFOutputStream hasSpaceAvailable]
PUBLIC 117560 0 -[__NSCFOutputStream write:maxLength:]
PUBLIC 117570 0 __cficu_unum_setDoubleAttribute
PUBLIC 117820 0 -[__NSCFBoolean description]
PUBLIC 117840 0 -[NSSharedKeyDictionary getObjects:andKeys:count:]
PUBLIC 117a00 0 -[NSMutableOrderedSet removeObjectsAtIndexes:]
PUBLIC 117be0 0 __CFToWinLatin1
PUBLIC 117c70 0 -[NSOrderedSet initWithSet:]
PUBLIC 117c90 0 -[NSOrderedSet initWithSet:copyItems:]
PUBLIC 117ec0 0 -[NSMutableOrderedSet sortWithOptions:usingComparator:]
PUBLIC 117f80 0 -[NSMutableOrderedSet sortRange:options:usingComparator:]
PUBLIC 118320 0 __57-[NSMutableOrderedSet sortRange:options:usingComparator:]_block_invoke
PUBLIC 118340 0 -[NSMutableOrderedSet replaceObjectsInRange:withObjects:count:]
PUBLIC 118570 0 -[NSMutableOrderedSet removeObjectsInRange:]
PUBLIC 118670 0 -[NSOrderedSet objectsAtIndexes:]
PUBLIC 1189d0 0 CFStringEncodingGetAddressForSelector
PUBLIC 118a30 0 __CFDateFormatterSetSymbolsArray
PUBLIC 118b50 0 __cficu_udat_setSymbols
PUBLIC 118ca0 0 __NSArrayChunkIterate
PUBLIC 118fd0 0 -[NSArray indexesOfObjectsAtIndexes:options:passingTest:]
PUBLIC 119110 0 __CFToUnicodeCheapMultiByteWrapper
PUBLIC 1191c0 0 -[__NSCFError retain]
PUBLIC 1191d0 0 -[__NSCFError release]
PUBLIC 1191e0 0 _CFURLFileCacheClearPropertyValueForKey
PUBLIC 119230 0 CFURLEnumeratorGetDescendentLevel
PUBLIC 119280 0 CFURLEnumeratorSkipDescendents
PUBLIC 1192d0 0 -[NSMutableOrderedSet removeAllObjects]
PUBLIC 119360 0 -[NSOrderedSet containsObject:]
PUBLIC 1193d0 0 -[__NSOrderedSetI indexOfObject:]
PUBLIC 1195b0 0 -[__NSCFCharacterSet longCharacterIsMember:]
PUBLIC 1195c0 0 _CFCharacterSetIsInverted
PUBLIC 1195d0 0 _CFCharacterSetGetKeyedCodingType
PUBLIC 119690 0 _CFCharacterSetCreateKeyedCodingString
PUBLIC 1196b0 0 -[NSDictionary copyWithZone:]
PUBLIC 119730 0 CFBagSetValue
PUBLIC 119780 0 CFBagCreateMutableCopy
PUBLIC 1199d0 0 CFBagGetCount
PUBLIC 1199e0 0 CFBagGetValues
PUBLIC 119a10 0 _CFStringCompareForHFS
PUBLIC 11ad60 0 __CFToUnicodeCheapEightBitWrapper
PUBLIC 11adf0 0 __forwarding_prep_1___
PUBLIC 11aef0 0 CFBundleCopyInfoDictionaryInDirectory
PUBLIC 11af10 0 CFStringGetMostCompatibleMacStringEncoding
PUBLIC 11af80 0 __CFStringEncodingGetMostCompatibleMacScript
PUBLIC 11b0d0 0 -[NSSharedKeyDictionary countByEnumeratingWithState:objects:count:]
PUBLIC 11b310 0 -[NSException name]
PUBLIC 11b350 0 -[NSException callStackSymbols]
PUBLIC 11b380 0 _CFAppSleepMonitorSystemAudioVolumeChanges
PUBLIC 11b3c0 0 ___CFAppSleepMonitorSystemAudioVolumeChanges_block_invoke
PUBLIC 11b520 0 _monitorDeviceIDForAudioVolumeChanges
PUBLIC 11b610 0 _synchronizeMute
PUBLIC 11b730 0 __CFMessagePortPerform
PUBLIC 11bc20 0 CFBundleCopyAuxiliaryExecutableURL
PUBLIC 11bc40 0 CFBundleCloseBundleResourceMap
PUBLIC 11bc90 0 -[NSSet makeObjectsPerformSelector:withObject:]
PUBLIC 11be10 0 -[__NSCFTimer _isDeallocating]
PUBLIC 11be20 0 _CFURLCreateFileReferenceURLFromFSRef
PUBLIC 11be70 0 -[__NSCFOutputStream close]
PUBLIC 11be80 0 __01121__
PUBLIC 11bea0 0 -[__NSCFBoolean getValue:]
PUBLIC 11bec0 0 -[__NSCFArray removeObjectAtIndex:]
PUBLIC 11bf90 0 _CFPropertyListCreateFromXMLString
PUBLIC 11c100 0 _CFPropertyListCreateFromXMLStringError
PUBLIC 11c210 0 CFFileSecurityCreate
PUBLIC 11c270 0 CFFileSecuritySetMode
PUBLIC 11c290 0 -[__NSFileSecurity setMode:]
PUBLIC 11c2d0 0 CFFileSecurityClearProperties
PUBLIC 11c2f0 0 -[__NSFileSecurity clearProperties:]
PUBLIC 11c3e0 0 CFFileSecurityGetMode
PUBLIC 11c400 0 -[__NSFileSecurity getMode:]
PUBLIC 11c440 0 _CFFileSecurityGetFilesec
PUBLIC 11c460 0 -[NSCalendar isDateInToday:]
PUBLIC 11c5a0 0 -[NSCalendar isDate:equalToDate:toUnitGranularity:]
PUBLIC 11c770 0 -[NSMutableOrderedSet minusSet:]
PUBLIC 11c990 0 CFBundleGetFunctionPointersForNames
PUBLIC 11ca00 0 _CFRunLoopModeContainsMode
PUBLIC 11ca30 0 CFURLCreatePropertyFromResource
PUBLIC 11cae0 0 __CFLocaleEqual
PUBLIC 11cb40 0 CFLocaleCreateLocaleIdentifierFromWindowsLocaleCode
PUBLIC 11cc00 0 CFBundleGetDataPointersForNames
PUBLIC 11cc70 0 CFTimeZoneCopySystem
PUBLIC 11ccc0 0 __CFStringEncodingPlatformUnicodeToBytes
PUBLIC 11d040 0 __extendLocationForward
PUBLIC 11d3e0 0 _CFPreferencesAddSuitePreferencesToAppWithContainer
PUBLIC 11d480 0 -[CFPrefsSearchListSource copyWithZone:]
PUBLIC 11d5b0 0 -[CFPrefsSearchListSource replaceSource:withSource:]
PUBLIC 11d660 0 __NSMS2c
PUBLIC 11d6a0 0 percentEscapeDecodeBuffer
PUBLIC 11d8f0 0 CFStringTrim
PUBLIC 11db70 0 CFFileDescriptorDisableCallBacks
PUBLIC 11dc30 0 __CFFileDescriptorDisableCallBacks_block_invoke
PUBLIC 11dca0 0 CFFileDescriptorInvalidate
PUBLIC 11de70 0 __CFFileDescriptorInvalidate_block_invoke
PUBLIC 11dfa0 0 __CFFileDescriptorCancel
PUBLIC 11dfb0 0 __CFFileDescriptorCreate_block_invoke_3
PUBLIC 11dfd0 0 __CFFileDescriptorDeallocate
PUBLIC 11e1a0 0 ____CFFileDescriptorDeallocate_block_invoke
PUBLIC 11e2d0 0 clearInvalidFileDescriptors
PUBLIC 11e370 0 _CFURLCreateDisplayPathComponentsArray
PUBLIC 11e470 0 _CFPreferencesManagementStatusChangedForDomains
PUBLIC 11e4b0 0 _handleExternalNotification
PUBLIC 11e5d0 0 _CFPreferencesWriteDomainDictionaryToPath
PUBLIC 11e840 0 CFURLWriteDataAndPropertiesToResource
PUBLIC 11ec50 0 _CFWriteBytesToFile
PUBLIC 11ed90 0 -[NSDictionary objectsForKeys:notFoundMarker:]
PUBLIC 11f060 0 -[NSDateComponents copyWithZone:]
PUBLIC 11f2d0 0 -[NSDateComponents setQuarter:]
PUBLIC 11f2f0 0 -[NSDateComponents setNanosecond:]
PUBLIC 11f310 0 -[NSDateComponents setWeek:]
PUBLIC 11f330 0 -[NSDateComponents setWeekOfMonth:]
PUBLIC 11f350 0 -[NSDateComponents setYearForWeekOfYear:]
PUBLIC 11f370 0 -[NSDateComponents setWeekdayOrdinal:]
PUBLIC 11f390 0 -[NSDateComponents isLeapMonthSet]
PUBLIC 11f3c0 0 CFBitVectorCreate
PUBLIC 11f3e0 0 CFBitVectorGetCount
PUBLIC 11f3f0 0 CFBitVectorGetBits
PUBLIC 11f430 0 __CFBitVectorInternalMap
PUBLIC 11f5a0 0 __CFBitVectorGetBits
PUBLIC 11f6b0 0 -[NSSet enumerateObjectsWithOptions:usingBlock:]
PUBLIC 11f730 0 _CFXPreferencesGetByHostIdentifierString
PUBLIC 11f770 0 ___CFXPreferencesGetByHostIdentifierString_block_invoke
PUBLIC 11f920 0 -[NSDictionary keysSortedByValueUsingComparator:]
PUBLIC 11f9a0 0 -[NSDictionary keysSortedByValueWithOptions:usingComparator:]
PUBLIC 11fd30 0 CFUUIDCreateWithBytes
PUBLIC 11fed0 0 CFStringTokenizerSetString
PUBLIC 11fef0 0 _CFStringTokenizerTokenize
PUBLIC 11ff10 0 _CFStringTokenizerTokenizeWithTranscriptions
PUBLIC 11ff30 0 _CFURLReplaceObject
PUBLIC 11ffb0 0 CFFileSecurityGetGroup
PUBLIC 11ffd0 0 -[__NSFileSecurity getGroup:]
PUBLIC 120010 0 CFFileSecurityCopyAccessControlList
PUBLIC 120030 0 -[__NSFileSecurity copyAccessControlList:]
PUBLIC 120090 0 -[__NSArray0 init]
PUBLIC 1200a0 0 -[__NSArray0 dealloc]
PUBLIC 1200b0 0 +[__NSArray0 allocWithZone:]
PUBLIC 120100 0 __28+[__NSArray0 allocWithZone:]_block_invoke
PUBLIC 120120 0 -[__NSArray0 copyWithZone:]
PUBLIC 120130 0 -[__NSArray0 retainCount]
PUBLIC 120140 0 -[__NSArray0 objectAtIndex:]
PUBLIC 1201a0 0 -[__NSArray0 objectEnumerator]
PUBLIC 1201b0 0 _CFNonObjCArrayGetCount
PUBLIC 1201c0 0 CFArrayGetLastIndexOfValue
PUBLIC 120330 0 CFArrayExchangeValuesAtIndices
PUBLIC 1204b0 0 _CFArraySortValues
PUBLIC 120660 0 __CFArrayEqual
PUBLIC 120840 0 __CFArrayHash
PUBLIC 120850 0 __CFArrayCopyDescription
PUBLIC 120a60 0 -[_NSJapaneseBigramKeySet dealloc]
PUBLIC 120af0 0 -[_NSJapaneseBigramKeySet finalize]
PUBLIC 120b80 0 -[_NSJapaneseBigramKeySet initWithKeys:keyLenghtInBytes:count:]
PUBLIC 120b90 0 -[_NSJapaneseBigramKeySet isEmpty]
PUBLIC 120ba0 0 CFAttributedStringCreateWithSubstring
PUBLIC 120cd0 0 _CFAttributedStringCreateWithRuns
PUBLIC 120e50 0 CFAttributedStringGetAttributeAndLongestEffectiveRange
PUBLIC 121060 0 _CFAttributedStringGetNumberOfRuns
PUBLIC 1210e0 0 _CFAttributedStringGetRuns
PUBLIC 121190 0 CFAttributedStringGetMutableString
PUBLIC 121240 0 CFAttributedStringRemoveAttribute
PUBLIC 121420 0 CFAttributedStringReplaceAttributedString
PUBLIC 121690 0 _CFAttributedStringIsMutable
PUBLIC 1216b0 0 __CFAttributedStringMtbl
PUBLIC 1216d0 0 _CFAttributedStringCheckAndReplace
PUBLIC 121740 0 _CFAttributedStringCheckAndReplaceAttributed
PUBLIC 1217c0 0 _CFAttributedStringCheckAndSetAttributes
PUBLIC 121830 0 _CFAttributedStringCheckAndSetAttribute
PUBLIC 1218c0 0 __CFAttributedStringEqual
PUBLIC 121a50 0 __CFAttributedStringCopyDescription
PUBLIC 121ce0 0 __CFBagCreateTransfer
PUBLIC 121e20 0 CFBagCreate
PUBLIC 121f90 0 CFBagCreateCopy
PUBLIC 122200 0 CFBagGetValueIfPresent
PUBLIC 122250 0 _CFBagIsMutable
PUBLIC 1222f0 0 _CFBagSetCapacity
PUBLIC 122390 0 _CFBagGetKVOBit
PUBLIC 1223a0 0 _CFBagSetKVOBit
PUBLIC 1223d0 0 CFBagReplaceValue
PUBLIC 122420 0 CFBagRemoveAllValues
PUBLIC 122460 0 __CFBagEqual
PUBLIC 122470 0 __CFBagHash
PUBLIC 122480 0 __CFBagCopyDescription
PUBLIC 122490 0 __HALT
PUBLIC 1224a0 0 __CFAllocatorGetAllocator
PUBLIC 1224c0 0 CFAllocatorGetTypeID
PUBLIC 1224d0 0 CFAllocatorSetDefault
PUBLIC 122560 0 _CFGetOutOfMemoryErrorCallBack
PUBLIC 122570 0 __CFSafelyReallocate
PUBLIC 1225f0 0 __CFSafelyReallocateWithAllocator
PUBLIC 122680 0 __CFRangeMake
PUBLIC 122690 0 CFCollection_non_gc_storage_error
PUBLIC 1226a0 0 _CFRuntimeSetCFMPresent
PUBLIC 1226b0 0 __CFAllocatorCustomSize
PUBLIC 1226c0 0 __CFAllocatorCustomMalloc
PUBLIC 122750 0 __CFAllocatorCustomCalloc
PUBLIC 1227f0 0 __CFAllocatorCustomValloc
PUBLIC 1228a0 0 __CFAllocatorCustomFree
PUBLIC 122930 0 __CFAllocatorCustomRealloc
PUBLIC 122940 0 __CFAllocatorNullDestroy
PUBLIC 122950 0 __CFAllocatorZoneIntrospectNoOp
PUBLIC 122960 0 __CFAllocatorCustomGoodSize
PUBLIC 1229f0 0 __CFAllocatorZoneIntrospectTrue
PUBLIC 122a00 0 __CFAllocatorNullSize
PUBLIC 122a10 0 __CFAllocatorNullMalloc
PUBLIC 122a20 0 __CFAllocatorNullCalloc
PUBLIC 122a30 0 __CFAllocatorNullValloc
PUBLIC 122a40 0 __CFAllocatorNullFree
PUBLIC 122a50 0 __CFAllocatorNullRealloc
PUBLIC 122a60 0 __CFAllocatorNullAllocate
PUBLIC 122a70 0 __CFAllocatorNullReallocate
PUBLIC 122a80 0 __CFAllocatorNullGoodSize
PUBLIC 122a90 0 __CFAllocatorCopyDescription
PUBLIC 122ad0 0 __CFAllocatorCustomDestroy
PUBLIC 122ae0 0 __CFNullDeallocate
PUBLIC 122af0 0 __CFNullCopyFormattingDescription
PUBLIC 122b10 0 __CFNullCopyDescription
PUBLIC 122b50 0 +[__NSOrderedSetI automaticallyNotifiesObserversForKey:]
PUBLIC 122b60 0 -[__NSOrderedSetI getObjects:range:]
PUBLIC 122c50 0 __copy_helper_block_
PUBLIC 122ca0 0 __destroy_helper_block_
PUBLIC 122ce0 0 +[__NSOrderedSetI allocWithZone:]
PUBLIC 122d00 0 -[NSMutableSet addObject:]
PUBLIC 122d30 0 -[NSMutableSet removeObject:]
PUBLIC 122d60 0 -[NSMutableSet addObjects:count:]
PUBLIC 122e70 0 -[NSMutableSet addObjectsFromArray:range:]
PUBLIC 123090 0 -[NSMutableSet addObjectsFromOrderedSet:range:]
PUBLIC 1232b0 0 -[NSMutableSet addObjectsFromOrderedSet:]
PUBLIC 123460 0 -[NSMutableSet addObjectsFromSet:]
PUBLIC 1237a0 0 -[NSMutableSet intersectOrderedSet:]
PUBLIC 123d10 0 -[NSMutableSet minusOrderedSet:]
PUBLIC 123f30 0 -[NSMutableSet removeObjectsInArray:range:]
PUBLIC 1240a0 0 -[NSMutableSet removeObjectsInArray:]
PUBLIC 124250 0 -[NSMutableSet removeObjectsInOrderedSet:range:]
PUBLIC 1243c0 0 -[NSMutableSet removeObjectsInOrderedSet:]
PUBLIC 124570 0 -[NSMutableSet removeObjectsInSet:]
PUBLIC 124900 0 -[NSMutableSet removeObjectsWithOptions:passingTest:]
PUBLIC 124b60 0 __53-[NSMutableSet removeObjectsWithOptions:passingTest:]_block_invoke
PUBLIC 124bb0 0 __copy_helper_block_
PUBLIC 124bf0 0 __destroy_helper_block_
PUBLIC 124c20 0 -[NSMutableSet removeObjectsPassingTest:]
PUBLIC 124c60 0 -[NSMutableSet replaceObject:]
PUBLIC 124d30 0 -[NSMutableSet setObject:]
PUBLIC 124df0 0 -[NSMutableSet setArray:]
PUBLIC 124fb0 0 -[NSMutableSet setOrderedSet:]
PUBLIC 1251e0 0 -[NSMutableSet unionOrderedSet:]
PUBLIC 125400 0 -[NSMutableSet initWithCapacity:]
PUBLIC 125430 0 -[NSMutableSet initWithObjects:count:]
PUBLIC 125540 0 CFUniCharGetBidiCategory
PUBLIC 125660 0 CFUniCharGetFirstBidiParagraphLength
PUBLIC 1256a0 0 CFUniCharApplyUnicodeBidiAlgorithm
PUBLIC 125ce0 0 resolveExplicit
PUBLIC 125e50 0 CFUniCharGetDefaultWritingDirection
PUBLIC 126020 0 __CFUniCharGetBooleanValueForKey
PUBLIC 126150 0 +[NSTaggedPointerStringCStringContainer taggedPointerStringCStringContainer]
PUBLIC 1261f0 0 -[NSTaggedPointerStringCStringContainer retain]
PUBLIC 126210 0 +[NSTaggedPointerString automaticallyNotifiesObserversForKey:]
PUBLIC 126220 0 -[NSTaggedPointerString retainCount]
PUBLIC 126230 0 _NSTaggedPointerStringEqualCFString
PUBLIC 126240 0 -[NSTaggedPointerString smallestEncoding]
PUBLIC 126250 0 _CFCreateArrayStorage
PUBLIC 1262b0 0 +[__NSArrayM automaticallyNotifiesObserversForKey:]
PUBLIC 1262c0 0 -[__NSArrayM insertObjects:count:atIndex:]
PUBLIC 126e10 0 -[__NSArrayM objectAtIndexedSubscript:]
PUBLIC 126ec0 0 -[__NSArrayM removeObjectsInRange:]
PUBLIC 127970 0 -[__NSArrayM replaceObjectsInRange:withObjects:count:]
PUBLIC 127bd0 0 -[__NSArrayM setObject:atIndexedSubscript:]
PUBLIC 127ed0 0 +[__NSArrayM __new:::]
PUBLIC 128020 0 +[__NSArrayM __transferNew:::]
PUBLIC 128080 0 cow_cleanup
PUBLIC 128150 0 +[__NSArrayM allocWithZone:]
PUBLIC 128170 0 __27-[__NSArrayM copyWithZone:]_block_invoke
PUBLIC 1281a0 0 -[__NSArrayM mutableCopyWithZone:]
PUBLIC 128280 0 __34-[__NSArrayM mutableCopyWithZone:]_block_invoke
PUBLIC 1282b0 0 +[__NSFrozenArrayM automaticallyNotifiesObserversForKey:]
PUBLIC 1282c0 0 -[__NSFrozenArrayM count]
PUBLIC 1282e0 0 -[__NSFrozenArrayM objectAtIndex:]
PUBLIC 128360 0 -[__NSFrozenArrayM objectAtIndexedSubscript:]
PUBLIC 1283e0 0 -[__NSFrozenArrayM countByEnumeratingWithState:objects:count:]
PUBLIC 128450 0 -[__NSFrozenArrayM enumerateObjectsWithOptions:usingBlock:]
PUBLIC 128660 0 -[__NSFrozenArrayM getObjects:range:]
PUBLIC 128870 0 -[__NSFrozenArrayM indexOfObjectIdenticalTo:]
PUBLIC 1288e0 0 +[__NSFrozenArrayM __new::::]
PUBLIC 128ac0 0 +[__NSFrozenArrayM __transferNew:::]
PUBLIC 128b30 0 +[__NSFrozenArrayM allocWithZone:]
PUBLIC 128b50 0 -[__NSFrozenArrayM dealloc]
PUBLIC 128ba0 0 -[__NSFrozenArrayM copyWithZone:]
PUBLIC 128bc0 0 -[__NSFrozenArrayM mutableCopyWithZone:]
PUBLIC 128c50 0 ___deque_enumerateObjectsWithOptionsBlock_block_invoke
PUBLIC 128ce0 0 __copy_helper_block_
PUBLIC 128d20 0 __destroy_helper_block_
PUBLIC 128d50 0 cow_copy_instance
PUBLIC 128dd0 0 cow_copy_storage
PUBLIC 128ef0 0 cow_set_cow
PUBLIC 128f10 0 -[__NSWindows1252TrigramKeySet dealloc]
PUBLIC 128fa0 0 -[__NSWindows1252TrigramKeySet finalize]
PUBLIC 129030 0 -[__NSWindows1252TrigramKeySet initWithKeys:keyLenghtInBytes:count:]
PUBLIC 129040 0 -[__NSWindows1252TrigramKeySet isEmpty]
PUBLIC 129050 0 CFBinaryHeapCreate
PUBLIC 129070 0 __CFBinaryHeapInit
PUBLIC 129220 0 CFBinaryHeapCreateCopy
PUBLIC 129240 0 CFBinaryHeapGetCount
PUBLIC 129250 0 CFBinaryHeapGetCountOfValue
PUBLIC 1292d0 0 CFBinaryHeapContainsValue
PUBLIC 129350 0 CFBinaryHeapGetMinimum
PUBLIC 129370 0 CFBinaryHeapGetMinimumIfPresent
PUBLIC 1293a0 0 CFBinaryHeapGetValues
PUBLIC 129430 0 CFBinaryHeapRemoveMinimumValue
PUBLIC 1295b0 0 CFBinaryHeapApplyFunction
PUBLIC 129640 0 CFBinaryHeapAddValue
PUBLIC 129790 0 CFBinaryHeapRemoveAllValues
PUBLIC 129810 0 __CFBinaryHeapDeallocate
PUBLIC 1298d0 0 __CFBinaryHeapEqual
PUBLIC 129a50 0 __CFBinaryHeapHash
PUBLIC 129a60 0 __CFBinaryHeapCopyDescription
PUBLIC 129c60 0 -[__NSPlaceholderArray count]
PUBLIC 129d20 0 -[__NSPlaceholderArray objectAtIndex:]
PUBLIC 129de0 0 -[__NSPlaceholderArray insertObject:atIndex:]
PUBLIC 129ea0 0 -[__NSPlaceholderArray removeObjectAtIndex:]
PUBLIC 129f60 0 -[__NSPlaceholderArray replaceObjectAtIndex:withObject:]
PUBLIC 12a020 0 +[__NSPlaceholderArray allocWithZone:]
PUBLIC 12a030 0 -[__NSPlaceholderArray initWithArray:copyItems:]
PUBLIC 12a110 0 __48-[__NSPlaceholderArray initWithArray:copyItems:]_block_invoke
PUBLIC 12a170 0 -[__NSPlaceholderArray _initByAdoptingBuffer:count:size:]
PUBLIC 12a1b0 0 -[__NSPlaceholderArray retain]
PUBLIC 12a1c0 0 -[__NSPlaceholderArray release]
PUBLIC 12a1d0 0 -[__NSPlaceholderArray retainCount]
PUBLIC 12a1e0 0 -[__NSPlaceholderArray dealloc]
PUBLIC 12a1f0 0 -[__NSISOLatin2TrigramKeySet dealloc]
PUBLIC 12a280 0 -[__NSISOLatin2TrigramKeySet finalize]
PUBLIC 12a310 0 -[__NSISOLatin2TrigramKeySet initWithKeys:keyLenghtInBytes:count:]
PUBLIC 12a320 0 -[__NSISOLatin2TrigramKeySet isEmpty]
PUBLIC 12a330 0 -[_NSKoreanBigramKeySet_SKS dealloc]
PUBLIC 12a3c0 0 -[_NSKoreanBigramKeySet_SKS finalize]
PUBLIC 12a450 0 -[_NSKoreanBigramKeySet_SKS initWithKeys:keyLenghtInBytes:count:]
PUBLIC 12a460 0 -[_NSKoreanBigramKeySet_SKS isEmpty]
PUBLIC 12a470 0 _CFKeyedArchiverUIDGetValue
PUBLIC 12a480 0 __CFBinaryPlistWriteToStreamWithEstimate
PUBLIC 12a490 0 __CFBinaryPlistCreateDataUsingExternalBufferAllocator
PUBLIC 12a600 0 __CFBinaryPlistIsArray
PUBLIC 12a630 0 __CFBinaryPlistIsDictionary
PUBLIC 12a810 0 __CFBinaryPlistCopyTopLevelKeys
PUBLIC 12adf0 0 __CFKeyedArchiverUIDCopyFormattingDescription
PUBLIC 12ae20 0 __CFKeyedArchiverUIDCopyDescription
PUBLIC 12ae60 0 -[__NSISO88596TrigramKeySet dealloc]
PUBLIC 12aef0 0 -[__NSISO88596TrigramKeySet finalize]
PUBLIC 12af80 0 -[__NSISO88596TrigramKeySet initWithKeys:keyLenghtInBytes:count:]
PUBLIC 12af90 0 -[__NSISO88596TrigramKeySet isEmpty]
PUBLIC 12afa0 0 CFBitVectorCreateCopy
PUBLIC 12afc0 0 CFBitVectorCreateMutableCopy
PUBLIC 12afe0 0 CFBitVectorGetCountOfBit
PUBLIC 12b020 0 __CFBitVectorCountBits
PUBLIC 12b060 0 CFBitVectorContainsBit
PUBLIC 12b0a0 0 CFBitVectorGetFirstIndexOfBit
PUBLIC 12b110 0 CFBitVectorGetLastIndexOfBit
PUBLIC 12b170 0 CFBitVectorFlipBitAtIndex
PUBLIC 12b1b0 0 CFBitVectorFlipBits
PUBLIC 12b2e0 0 CFBitVectorSetBits
PUBLIC 12b530 0 __CFBitVectorEqual
PUBLIC 12b590 0 __CFBitVectorHash
PUBLIC 12b5a0 0 __CFBitVectorCopyDescription
PUBLIC 12b7e0 0 -[__NSISOLatin6TrigramKeySet dealloc]
PUBLIC 12b870 0 -[__NSISOLatin6TrigramKeySet finalize]
PUBLIC 12b900 0 -[__NSISOLatin6TrigramKeySet initWithKeys:keyLenghtInBytes:count:]
PUBLIC 12b910 0 -[__NSISOLatin6TrigramKeySet isEmpty]
PUBLIC 12b920 0 CFStringEncodingPrecomposeLatinCharacter
PUBLIC 12ba10 0 __CFFromISOLatin1
PUBLIC 12ba20 0 __CFToISOLatin1Precompose
PUBLIC 12bb50 0 __CFToMacRomanPrecompose
PUBLIC 12bce0 0 __CFToWinLatin1Precompose
PUBLIC 12be80 0 __CFToNextStepLatin
PUBLIC 12bf10 0 __CFFromNextStepLatin
PUBLIC 12bf50 0 __CFToNextStepLatinPrecompose
PUBLIC 12c120 0 __CFFromUTF8Len
PUBLIC 12c4b0 0 _CFBundleCopyMainBundleExecutableURL
PUBLIC 12c540 0 _CFBundleSetMainBundle
PUBLIC 12c630 0 _CFBundleResourceLogger
PUBLIC 12c670 0 ___CFBundleResourceLogger_block_invoke
PUBLIC 12c690 0 _CFBundleLocalizedStringLogger
PUBLIC 12c6d0 0 ___CFBundleLocalizedStringLogger_block_invoke
PUBLIC 12c6f0 0 _CFBundleCreateIfLooksLikeBundle
PUBLIC 12c740 0 _CFBundleMainBundleInfoDictionaryComesFromResourceFork
PUBLIC 12c760 0 _CFBundleCreateIfMightBeBundle
PUBLIC 12c7e0 0 _CFBundleFlushBundleCaches
PUBLIC 12c7f0 0 _CFBundleFlushBundleCachesAlreadyLocked
PUBLIC 12c920 0 _CFBundleFlushAllBundleCaches
PUBLIC 12ca60 0 _CFBundleGetFromTables
PUBLIC 12cb20 0 _CFBundleEnsureAllBundlesUpToDate
PUBLIC 12cb90 0 _CFBundleGetExistingBundleWithBundleURL
PUBLIC 12cc80 0 _CFBundleCopyFromTablesForURL
PUBLIC 12ccf0 0 _CFBundleCreateMain
PUBLIC 12cd10 0 _CFBundleGetHasChanged
PUBLIC 12cd20 0 _CFBundleSetStringsFilesShared
PUBLIC 12cd30 0 _CFBundleCopyAppStoreReceiptURLInDirectory
PUBLIC 12cda0 0 _CFBundleCopyAppStoreReceiptURL
PUBLIC 12ce10 0 CFBundleGetExecutableType
PUBLIC 12ce80 0 _CFBundleSetCFMConnectionID
PUBLIC 12ce90 0 _CFBundleCreateErrorDebug
PUBLIC 12d490 0 _CFBundleCreateError
PUBLIC 12d4a0 0 CFBundleGetPlugIn
PUBLIC 12d4b0 0 CFBundleGetAllBundles
PUBLIC 12d610 0 _CFBundleCopyAllBundles
PUBLIC 12d690 0 _CFBundleCopyPrivateFrameworksURL
PUBLIC 12d6a0 0 CFBundleCopyPrivateFrameworksURL
PUBLIC 12d700 0 _CFBundleCopySharedFrameworksURL
PUBLIC 12d710 0 CFBundleCopySharedFrameworksURL
PUBLIC 12d770 0 _CFBundleCopySharedSupportURL
PUBLIC 12d780 0 CFBundleCopySharedSupportURL
PUBLIC 12d7e0 0 _CFBundleCopyBuiltInPlugInsURL
PUBLIC 12d7f0 0 __CFBundleCopyDescription
PUBLIC 12d930 0 _CFBundleFlushCachesForURL
PUBLIC 12d940 0 _CFBundleFlushQueryTableCache
PUBLIC 12d980 0 _CFBundleCopyResourceURLForLanguage
PUBLIC 12d9b0 0 _CFBundleCopyResourceURLsOfTypeForLanguage
PUBLIC 12da00 0 __copy_helper_block_
PUBLIC 12da60 0 __destroy_helper_block_
PUBLIC 12dab0 0 _CFBundleGetSupportedPlatforms
PUBLIC 12dac0 0 _CFBundleGetCurrentPlatform
PUBLIC 12dad0 0 _CFBundleResourceLookupDebug
PUBLIC 12dd60 0 _CFBundleAddResourceURL
PUBLIC 12de10 0 _CFBundleRemoveResourceURL
PUBLIC 12de60 0 __CFCharacterSetIsMutable
PUBLIC 12de70 0 __CFCSetMakeCompact
PUBLIC 12def0 0 _CFCharacterSetCreateCopy
PUBLIC 12df00 0 _CFCharacterSetCreateMutableCopy
PUBLIC 12df20 0 _CFCharacterSetIsLongCharacterMember
PUBLIC 12e160 0 CFCharacterSetIsSurrogatePairMember
PUBLIC 12e1e0 0 CFCharacterSetHasMemberInPlane
PUBLIC 12e5d0 0 __CFCheckForExpandedSet
PUBLIC 12e680 0 __CFApplySurrogatesInString
PUBLIC 12e940 0 CFCharacterSetFast
PUBLIC 12e9d0 0 _CFCharacterSetIsMutable
PUBLIC 12e9e0 0 _CFCharacterSetGetKeyedCodingBuiltinType
PUBLIC 12e9f0 0 _CFCharacterSetGetKeyedCodingRange
PUBLIC 12ea00 0 _CFCharacterSetSetIsInverted
PUBLIC 12ea40 0 __CFCharacterSetCopyDescription
PUBLIC 12ed20 0 __CFCSetIsEqualAnnex
PUBLIC 12f0b0 0 __CFCSetIsBitmapEqualToRange
PUBLIC 12f240 0 fdRead
PUBLIC 12f280 0 fdCanRead
PUBLIC 12f370 0 fdWrite
PUBLIC 12f3b0 0 fdCanWrite
PUBLIC 12f4a0 0 _CFReadStreamCreateFromFileDescriptor
PUBLIC 12f4d0 0 _CFWriteStreamCreateFromFileDescriptor
PUBLIC 12f500 0 CFWriteStreamCreateWithBuffer
PUBLIC 12f560 0 fileCopyDescription
PUBLIC 12f5a0 0 fileCanRead
PUBLIC 12f5b0 0 fileCanWrite
PUBLIC 12f5c0 0 fileCopyProperty
PUBLIC 12f680 0 fileSetProperty
PUBLIC 12f770 0 fileSchedule
PUBLIC 12f890 0 fileUnschedule
PUBLIC 12fa50 0 constructCFFD
PUBLIC 12fb70 0 _fs_retain
PUBLIC 12fb90 0 _fs_release
PUBLIC 12fbb0 0 fileCallBack
PUBLIC 12fc50 0 readDataCopyDescription
PUBLIC 12fc60 0 dataGetBuffer
PUBLIC 12fd00 0 writeDataCopyDescription
PUBLIC 12fd30 0 dataCanWrite
PUBLIC 12fd60 0 writeDataSchedule
PUBLIC 12fdd0 0 -[NSMutableOrderedSet insertObject:atIndex:]
PUBLIC 12fe00 0 -[NSMutableOrderedSet removeObjectAtIndex:]
PUBLIC 12fe30 0 -[NSMutableOrderedSet replaceObjectAtIndex:withObject:]
PUBLIC 12fe60 0 -[NSMutableOrderedSet _mutate]
PUBLIC 12fe70 0 -[NSMutableOrderedSet addObjects:count:]
PUBLIC 12ff80 0 -[NSMutableOrderedSet addObjectsFromArray:range:]
PUBLIC 1300c0 0 -[NSMutableOrderedSet addObjectsFromOrderedSet:range:]
PUBLIC 130200 0 -[NSMutableOrderedSet addObjectsFromOrderedSet:]
PUBLIC 1302d0 0 -[NSMutableOrderedSet addObjectsFromSet:]
PUBLIC 130390 0 -[NSMutableOrderedSet exchangeObjectAtIndex:withObjectAtIndex:]
PUBLIC 130590 0 -[NSMutableOrderedSet insertObjectsFromArray:atIndex:]
PUBLIC 1307b0 0 -[NSMutableOrderedSet insertObjectsFromOrderedSet:range:atIndex:]
PUBLIC 130a50 0 -[NSMutableOrderedSet insertObjectsFromOrderedSet:atIndex:]
PUBLIC 130c70 0 -[NSMutableOrderedSet insertObjectsFromSet:atIndex:]
PUBLIC 130e90 0 -[NSMutableOrderedSet insertObjects:atIndexes:]
PUBLIC 131240 0 -[NSMutableOrderedSet intersectOrderedSet:]
PUBLIC 131540 0 -[NSMutableOrderedSet moveObjectsAtIndexes:toIndex:]
PUBLIC 131890 0 -[NSMutableOrderedSet minusOrderedSet:]
PUBLIC 131ae0 0 -[NSMutableOrderedSet removeFirstObject]
PUBLIC 131b60 0 -[NSMutableOrderedSet removeLastObject]
PUBLIC 131be0 0 -[NSMutableOrderedSet removeObject:inRange:]
PUBLIC 131cf0 0 -[NSMutableOrderedSet removeObjectsInRange:inArray:range:]
PUBLIC 131f20 0 -[NSMutableOrderedSet removeObjectsInRange:inArray:]
PUBLIC 132190 0 -[NSMutableOrderedSet removeObjectsInArray:range:]
PUBLIC 132320 0 -[NSMutableOrderedSet removeObjectsInArray:]
PUBLIC 132500 0 -[NSMutableOrderedSet removeObjectsInRange:inOrderedSet:range:]
PUBLIC 132810 0 -[NSMutableOrderedSet removeObjectsInRange:inOrderedSet:]
PUBLIC 132970 0 -[NSMutableOrderedSet removeObjectsInOrderedSet:range:]
PUBLIC 132ac0 0 -[NSMutableOrderedSet removeObjectsInOrderedSet:]
PUBLIC 132bb0 0 -[NSMutableOrderedSet removeObjectsInRange:inSet:]
PUBLIC 132e20 0 -[NSMutableOrderedSet removeObjectsInSet:]
PUBLIC 133000 0 -[NSMutableOrderedSet removeObjectsAtIndexes:options:passingTest:]
PUBLIC 1331b0 0 -[NSMutableOrderedSet removeObjectsWithOptions:passingTest:]
PUBLIC 1332f0 0 -[NSMutableOrderedSet removeObjectsPassingTest:]
PUBLIC 133370 0 -[NSMutableOrderedSet replaceObject:inRange:]
PUBLIC 1334a0 0 -[NSMutableOrderedSet replaceObject:]
PUBLIC 133550 0 -[NSMutableOrderedSet replaceObjectsAtIndexes:withObjects:]
PUBLIC 133930 0 -[NSMutableOrderedSet replaceObjectsInRange:withObjectsFromArray:range:]
PUBLIC 133bf0 0 -[NSMutableOrderedSet replaceObjectsInRange:withObjectsFromArray:]
PUBLIC 133e30 0 -[NSMutableOrderedSet replaceObjectsInRange:withObjectsFromOrderedSet:range:]
PUBLIC 1340f0 0 -[NSMutableOrderedSet replaceObjectsInRange:withObjectsFromOrderedSet:]
PUBLIC 134330 0 -[NSMutableOrderedSet replaceObjectsInRange:withObjectsFromSet:]
PUBLIC 134570 0 -[NSMutableOrderedSet setArray:]
PUBLIC 134630 0 -[NSMutableOrderedSet setObject:atIndex:]
PUBLIC 134750 0 -[NSMutableOrderedSet setObject:atIndexedSubscript:]
PUBLIC 134770 0 -[NSMutableOrderedSet setObject:]
PUBLIC 134850 0 -[NSMutableOrderedSet setOrderedSet:]
PUBLIC 134920 0 -[NSMutableOrderedSet setSet:]
PUBLIC 1349e0 0 -[NSMutableOrderedSet sortedArrayFromRange:options:usingComparator:]
PUBLIC 134a30 0 __copy_helper_block_
PUBLIC 134a50 0 __destroy_helper_block_
PUBLIC 134a70 0 -[NSMutableOrderedSet sortUsingComparator:]
PUBLIC 134b20 0 -[NSMutableOrderedSet unionOrderedSet:]
PUBLIC 134d40 0 -[NSMutableOrderedSet unionSet:]
PUBLIC 134f60 0 -[NSMutableOrderedSet initWithCapacity:]
PUBLIC 134f90 0 -[NSMutableOrderedSet initWithObjects:count:]
PUBLIC 135060 0 -[NSMutableOrderedSet classForCoder]
PUBLIC 135080 0 _CFDataInit
PUBLIC 1351f0 0 _CFDataCreateFixedMutableWithBuffer
PUBLIC 135210 0 _CFDataGetBytePtrNonObjC
PUBLIC 135230 0 __CFDataHandleOutOfMemory
PUBLIC 1352d0 0 __CFDataSearchBoyerMoore
PUBLIC 135a10 0 CFDataFind
PUBLIC 135a20 0 __CFDataCopyDescription
PUBLIC 135be0 0 +[__NSDictionaryI automaticallyNotifiesObserversForKey:]
PUBLIC 135bf0 0 __copy_helper_block_
PUBLIC 135c40 0 __destroy_helper_block_
PUBLIC 135c80 0 -[__NSDictionaryI keyOfEntryWithOptions:passingTest:]
PUBLIC 135e40 0 __53-[__NSDictionaryI keyOfEntryWithOptions:passingTest:]_block_invoke
PUBLIC 135ef0 0 __copy_helper_block_.15
PUBLIC 135f50 0 __destroy_helper_block_.16
PUBLIC 135fa0 0 -[__NSDictionaryI keysOfEntriesWithOptions:passingTest:]
PUBLIC 1361a0 0 __56-[__NSDictionaryI keysOfEntriesWithOptions:passingTest:]_block_invoke
PUBLIC 136260 0 __copy_helper_block_.25
PUBLIC 1362c0 0 __destroy_helper_block_.26
PUBLIC 136310 0 -[__NSDictionaryI objectForKeyedSubscript:]
PUBLIC 136410 0 +[__NSDictionaryI allocWithZone:]
PUBLIC 136430 0 +[__NSDictionaryI __new::::::]
PUBLIC 1366a0 0 __30+[__NSDictionaryI __new::::::]_block_invoke
PUBLIC 136820 0 __copy_helper_block_.36
PUBLIC 136840 0 __destroy_helper_block_.37
PUBLIC 136860 0 -[__NSDictionaryI _clumpingFactor]
PUBLIC 136b10 0 -[__NSDictionaryI _clumpingInterestingThreshold]
PUBLIC 136b90 0 __CLUMPINESS_block_invoke
PUBLIC 136bb0 0 _CFBundleCopyExecutableURLInDirectory
PUBLIC 136bd0 0 _CFBundleCopyOtherExecutableURLInDirectory
PUBLIC 136bf0 0 -[__NSISOLatin3TrigramKeySet dealloc]
PUBLIC 136c80 0 -[__NSISOLatin3TrigramKeySet finalize]
PUBLIC 136d10 0 -[__NSISOLatin3TrigramKeySet initWithKeys:keyLenghtInBytes:count:]
PUBLIC 136d20 0 -[__NSISOLatin3TrigramKeySet isEmpty]
PUBLIC 136d30 0 +[__NSSingleObjectSetI automaticallyNotifiesObserversForKey:]
PUBLIC 136d40 0 -[__NSSingleObjectSetI enumerateObjectsWithOptions:usingBlock:]
PUBLIC 136e60 0 __63-[__NSSingleObjectSetI enumerateObjectsWithOptions:usingBlock:]_block_invoke
PUBLIC 136ed0 0 __copy_helper_block_
PUBLIC 136f20 0 __destroy_helper_block_
PUBLIC 136f60 0 +[__NSSingleObjectSetI __new::]
PUBLIC 136fc0 0 +[__NSSingleObjectSetI allocWithZone:]
PUBLIC 136fe0 0 -[__NSSingleObjectSetI copyWithZone:]
PUBLIC 137000 0 CFAbsoluteTimeAddGregorianUnits
PUBLIC 137320 0 CFAbsoluteTimeGetDifferenceAsGregorianUnits
PUBLIC 1374f0 0 CFAbsoluteTimeGetDayOfYear
PUBLIC 1375e0 0 CFAbsoluteTimeGetWeekOfYear
PUBLIC 137860 0 -[__NSISOLatin1TrigramKeySet dealloc]
PUBLIC 1378f0 0 -[__NSISOLatin1TrigramKeySet finalize]
PUBLIC 137980 0 -[__NSISOLatin1TrigramKeySet initWithKeys:keyLenghtInBytes:count:]
PUBLIC 137990 0 -[__NSISOLatin1TrigramKeySet isEmpty]
PUBLIC 1379a0 0 CFDateFormatterCreateDateFormatsFromTemplates
PUBLIC 1379b0 0 __copy_helper_block_
PUBLIC 1379d0 0 __destroy_helper_block_
PUBLIC 1379f0 0 CFDateFormatterGetTypeID
PUBLIC 137a30 0 CFDateFormatterCreateISO8601Formatter
PUBLIC 137ea0 0 __SetUpCFDateFormatter
PUBLIC 138070 0 CFDateFormatterGetLocale
PUBLIC 138080 0 CFDateFormatterGetDateStyle
PUBLIC 138090 0 CFDateFormatterGetTimeStyle
PUBLIC 1380a0 0 _CFDateFormatterCreateAttributedStringAndFieldsWithAbsoluteTime
PUBLIC 1383a0 0 __CFDateFormatterCopySymbolsArray
PUBLIC 138560 0 __useTemplatePatternGenerator_block_invoke
PUBLIC 1385e0 0 __CFDateFormatterCopyDescription
PUBLIC 138620 0 ____CFDateFormatterCreateForcedString_block_invoke
PUBLIC 138650 0 ____CFDateFormatterCreateForcedString_block_invoke_2
PUBLIC 138860 0 __copy_helper_block_.44
PUBLIC 1388a0 0 __destroy_helper_block_.45
PUBLIC 1388d0 0 __CFDateFormatterStoreSymbolPrefs
PUBLIC 138b80 0 __CFDateFormatterCorrectTimeToARangeAroundCurrentDate
PUBLIC 138de0 0 +[__NSDictionary0 allocWithZone:]
PUBLIC 138e30 0 __33+[__NSDictionary0 allocWithZone:]_block_invoke
PUBLIC 138e50 0 -[__NSDictionary0 init]
PUBLIC 138e60 0 -[__NSDictionary0 dealloc]
PUBLIC 138e70 0 -[__NSDictionary0 retainCount]
PUBLIC 138e80 0 -[__NSDictionary0 objectEnumerator]
PUBLIC 138e90 0 CFDictionaryGetCountOfValue
PUBLIC 138f40 0 CFDictionaryGetKeyIfPresent
PUBLIC 138f90 0 _CFDictionaryGetKVOBit
PUBLIC 138fa0 0 _CFDictionarySetKVOBit
PUBLIC 138fd0 0 ____NSSetEnumerate_block_invoke
PUBLIC 139100 0 __copy_helper_block_
PUBLIC 139150 0 __destroy_helper_block_
PUBLIC 139190 0 ____NSSetEnumerate_block_invoke.8
PUBLIC 1391d0 0 __copy_helper_block_.9
PUBLIC 139210 0 __destroy_helper_block_.10
PUBLIC 139240 0 -[__NSISOLatin4TrigramKeySet dealloc]
PUBLIC 1392d0 0 -[__NSISOLatin4TrigramKeySet finalize]
PUBLIC 139360 0 -[__NSISOLatin4TrigramKeySet initWithKeys:keyLenghtInBytes:count:]
PUBLIC 139370 0 -[__NSISOLatin4TrigramKeySet isEmpty]
PUBLIC 139380 0 _cow_create
PUBLIC 1393d0 0 _cow_allocation_failure
PUBLIC 1393e0 0 _cow_release
PUBLIC 1394c9 0 _cow_failure
PUBLIC 1394e0 0 _cow_copy
PUBLIC 139590 0 _cow_mutate_slow
PUBLIC 139610 0 _CFDoubledStringCreate
PUBLIC 139680 0 _CFAccentuatedStringCreate
PUBLIC 139950 0 _CFAffixedStringCreate
PUBLIC 139980 0 _CFRLORightToLeftStringCreate
PUBLIC 1399b0 0 ____CFAccentuatedStringCreateWithAcceptableAccentChars_block_invoke
PUBLIC 139a70 0 _CFXNotificationTokenRefCopyDescription
PUBLIC 139ab0 0 -[_CFXNotificationTokenRegistration _invalidate]
PUBLIC 139b40 0 -[_CFXNotificationTokenRegistration _removeFromParent]
PUBLIC 139bb0 0 -[_CFXNotificationTokenRegistration name]
PUBLIC 139c90 0 -[_CFXNotificationTokenRegistration object]
PUBLIC 139d40 0 -[_CFXNotificationTokenRegistration observer]
PUBLIC 139d70 0 -[_CFXNotificationTokenRegistration handler]
PUBLIC 139da0 0 -[_CFXNotificationDarwinTokenRegistration notifyToken]
PUBLIC 139db0 0 -[_CFXNotificationDarwinTokenQueueRegistration queue]
PUBLIC 139dd0 0 -[_CFXNotificationDarwinTokenQueueRegistration setQueue:]
PUBLIC 139df0 0 -[_CFXNotificationDistributedTokenQueueRegistration queue]
PUBLIC 139e10 0 -[__NSPlaceholderSet count]
PUBLIC 139ed0 0 -[__NSPlaceholderSet member:]
PUBLIC 139f90 0 -[__NSPlaceholderSet objectEnumerator]
PUBLIC 13a050 0 -[__NSPlaceholderSet addObject:]
PUBLIC 13a110 0 -[__NSPlaceholderSet removeObject:]
PUBLIC 13a1d0 0 +[__NSPlaceholderSet allocWithZone:]
PUBLIC 13a1e0 0 -[__NSPlaceholderSet initWithSet:copyItems:]
PUBLIC 13a2c0 0 __44-[__NSPlaceholderSet initWithSet:copyItems:]_block_invoke
PUBLIC 13a320 0 -[__NSPlaceholderSet retain]
PUBLIC 13a330 0 -[__NSPlaceholderSet release]
PUBLIC 13a340 0 -[__NSPlaceholderSet retainCount]
PUBLIC 13a350 0 -[__NSPlaceholderSet dealloc]
PUBLIC 13a360 0 _CFErrorCreateLocalizedRecoverySuggestion
PUBLIC 13a560 0 CFErrorCopyFailureReason
PUBLIC 13a620 0 CFErrorCopyRecoverySuggestion
PUBLIC 13a6e0 0 CFErrorSetCallBackBlockForDomain
PUBLIC 13a740 0 CFErrorGetCallBackBlockForDomain
PUBLIC 13a7a0 0 CFErrorCopyCallBackBlockForDomain
PUBLIC 13a810 0 __CFErrorSetCallBackForDomain_block_invoke
PUBLIC 13a840 0 CFErrorGetCallBackForDomain
PUBLIC 13a850 0 __CFErrorEqual
PUBLIC 13ab50 0 __CFErrorHash
PUBLIC 13ab70 0 __CFErrorCopyFormattingDescription
PUBLIC 13abd0 0 __CFErrorCopyDescription
PUBLIC 13ac10 0 ___CFErrorCreateEmptyDictionary_block_invoke
PUBLIC 13ac40 0 blockReleaseValueCallBack
PUBLIC 13ac50 0 _CFErrorPOSIXCallBack
PUBLIC 13aeb0 0 _CFErrorMachCallBack
PUBLIC 13afa0 0 _CFErrorOSStatusCallBack
PUBLIC 13b230 0 ____CFErrorSetCallBackForDomainNoLock_block_invoke
PUBLIC 13b260 0 ____CFCarbonCore_GetMacOSStatusCommentString_block_invoke
PUBLIC 13b280 0 ____CFCarbonCore_GetMacOSStatusErrorString_block_invoke
PUBLIC 13b2a0 0 _CFPrefsDecodeKeyValuePairFromXPCMessage
PUBLIC 13b3e0 0 _CFPrefsEncodeStringForKeyIntoMessage
PUBLIC 13b4b0 0 +[CFPDDataBuffer newBufferFromCFData:]
PUBLIC 13b4f0 0 +[CFPDDataBuffer newBufferFromFile:allowMappingIfSafe:]
PUBLIC 13b560 0 +[CFPDDataBuffer newBufferFromPropertyList:]
PUBLIC 13b5a0 0 -[CFPDDataBuffer bytes]
PUBLIC 13b5b0 0 -[CFPDDataBuffer length]
PUBLIC 13b5c0 0 -[CFPDDataBuffer copyCFData]
PUBLIC 13b610 0 -[CFPDDataBuffer copyXPCData]
PUBLIC 13b660 0 -[CFPDDataBuffer copyPropertyListWithMutability:]
PUBLIC 13b770 0 -[CFPDDataBuffer validatePlist]
PUBLIC 13b820 0 -[CFPDDataBuffer beginAccessing]
PUBLIC 13b830 0 -[CFPDDataBuffer endAccessing]
PUBLIC 13b840 0 -[CFPDDataBuffer purgable]
PUBLIC 13b850 0 -[CFPDCFDataBuffer initWithCFData:]
PUBLIC 13b8b0 0 -[CFPDCFDataBuffer bytes]
PUBLIC 13b8d0 0 -[CFPDCFDataBuffer length]
PUBLIC 13b8f0 0 -[CFPDCFDataBuffer dealloc]
PUBLIC 13b940 0 -[CFPDCFDataBuffer copyCFData]
PUBLIC 13b970 0 -[CFPDPurgeableBuffer initWithFileDescriptor:size:]
PUBLIC 13bd70 0 allocatePurgeable
PUBLIC 13be10 0 deallocatePurgeable
PUBLIC 13bf10 0 -[CFPDPurgeableBuffer initWithPropertyList:]
PUBLIC 13bfb0 0 -[CFPDPurgeableBuffer bytes]
PUBLIC 13bff0 0 -[CFPDPurgeableBuffer length]
PUBLIC 13c010 0 -[CFPDPurgeableBuffer beginAccessing]
PUBLIC 13c0b0 0 -[CFPDPurgeableBuffer endAccessing]
PUBLIC 13c120 0 -[CFPDPurgeableBuffer purgable]
PUBLIC 13c140 0 -[CFPDPurgeableBuffer dealloc]
PUBLIC 13c190 0 CFFileDescriptorGetTypeID
PUBLIC 13c1d0 0 __CFFileDescriptorCreate_block_invoke_2
PUBLIC 13c220 0 __CFFileDescriptorCreate_block_invoke_4
PUBLIC 13c270 0 __CFFileDescriptorCreate_block_invoke_5
PUBLIC 13c290 0 __copy_helper_block_
PUBLIC 13c2b0 0 __destroy_helper_block_
PUBLIC 13c2d0 0 CFFileDescriptorGetNativeDescriptor
PUBLIC 13c310 0 CFFileDescriptorGetContext
PUBLIC 13c340 0 _CFFileDescriptorInduceFakeReadCallBack
PUBLIC 13c3d0 0 ___CFFileDescriptorInduceFakeReadCallBack_block_invoke
PUBLIC 13c430 0 cffd_is_writeable
PUBLIC 13c520 0 __copy_helper_block_.10
PUBLIC 13c560 0 __destroy_helper_block_.11
PUBLIC 13c590 0 CFFileDescriptorIsValid
PUBLIC 13c5e0 0 __CFFileDescriptorCopyDescription
PUBLIC 13c6f0 0 __CFFileDescriptorPerform
PUBLIC 13ca10 0 __copy_helper_block_.13
PUBLIC 13ca30 0 __destroy_helper_block_.14
PUBLIC 13ca50 0 __copy_helper_block_.17
PUBLIC 13ca90 0 __destroy_helper_block_.18
PUBLIC 13cac0 0 ____CFFileDescriptorPerform_block_invoke
PUBLIC 13cbd0 0 __copy_helper_block_.27
PUBLIC 13cc40 0 __destroy_helper_block_.28
PUBLIC 13cca0 0 _CFCopyExtensionForAbstractType
PUBLIC 13ccc0 0 _CFCreateDirectory
PUBLIC 13cd30 0 _CFRemoveDirectory
PUBLIC 13cd90 0 _CFURLExists
PUBLIC 13ce30 0 _CFIsAbsolutePath
PUBLIC 13ce60 0 _CFStripTrailingPathSlashes
PUBLIC 13cef0 0 _CFAppendConditionalTrailingPathSlash2
PUBLIC 13cf40 0 _CFAppendPathComponent
PUBLIC 13d020 0 _CFAppendPathExtension
PUBLIC 13d210 0 _CFTransmutePathSlashes
PUBLIC 13d2b0 0 _CFStartOfPathExtension
PUBLIC 13d310 0 -[__NSSingleEntryDictionaryI count]
PUBLIC 13d320 0 -[__NSSingleEntryDictionaryI isEqualToDictionary:]
PUBLIC 13d3e0 0 -[__NSSingleEntryDictionaryI objectForKey:]
PUBLIC 13d420 0 -[__NSSingleEntryDictionaryI keyEnumerator]
PUBLIC 13d470 0 -[__NSSingleEntryDictionaryI objectEnumerator]
PUBLIC 13d4c0 0 -[__NSSingleEntryDictionaryI getObjects:andKeys:count:]
PUBLIC 13d530 0 -[__NSSingleEntryDictionaryI __apply:context:]
PUBLIC 13d5c0 0 -[__NSSingleEntryDictionaryI countByEnumeratingWithState:objects:count:]
PUBLIC 13d650 0 -[__NSSingleEntryDictionaryI enumerateKeysAndObjectsWithOptions:usingBlock:]
PUBLIC 13d6d0 0 -[__NSSingleEntryDictionaryI copyWithZone:]
PUBLIC 13d6f0 0 +[__NSSingleEntryDictionaryI __new:::]
PUBLIC 13d800 0 -[__NSSingleEntryDictionaryI dealloc]
PUBLIC 13d870 0 +[__NSSingleEntryDictionaryI automaticallyNotifiesObserversForKey:]
PUBLIC 13d880 0 +[__NSSingleEntryDictionaryI allocWithZone:]
PUBLIC 13d8a0 0 -[__NSSingleEntryDictionaryI mutableCopyWithZone:]
PUBLIC 13d920 0 _CFPropertyListCreateFrozen
PUBLIC 13d9e0 0 _CFPropertListCreateFromFrozen
PUBLIC 13da40 0 ____CFCarbonCore__CSGetNamedData_block_invoke
PUBLIC 13da60 0 ____CFCarbonCore__CSSetNamedData_block_invoke
PUBLIC 13da80 0 -[__NSWindows1250TrigramKeySet dealloc]
PUBLIC 13db10 0 -[__NSWindows1250TrigramKeySet finalize]
PUBLIC 13dba0 0 -[__NSWindows1250TrigramKeySet initWithKeys:keyLenghtInBytes:count:]
PUBLIC 13dbb0 0 -[__NSWindows1250TrigramKeySet isEmpty]
PUBLIC 13dbc0 0 _CFLocaleResetCurrent
PUBLIC 13dc40 0 _CFLocaleCopyNumberingSystemForLocaleIdentifier
PUBLIC 13ddb0 0 _CFLocaleCopyValidNumberingSystemsForLocaleIdentifier
PUBLIC 13e0c0 0 _CFLocaleCreateLocaleIdentiferByReplacingLanguageCodeAndScriptCode
PUBLIC 13e2e0 0 _CFLocaleCopyLanguageIdentifierWithScriptCodeForLocaleIdentifier
PUBLIC 13e380 0 _CFLocaleCopyLocaleIdentifierByAddingLikelySubtags
PUBLIC 13e460 0 _CFLocaleCopyAsIfCurrent
PUBLIC 13e470 0 _CFLocaleCopyPreferred
PUBLIC 13e490 0 _CFLocaleCreateCopyWithNewCalendarIdentifier
PUBLIC 13e4a0 0 CFLocaleCopyISOLanguageCodes
PUBLIC 13e4c0 0 CFLocaleCopyISOCurrencyCodes
PUBLIC 13e510 0 __CFLocaleCopyUEnumerationAsArray
PUBLIC 13e610 0 CFLocaleCopyCommonISOCurrencyCodes
PUBLIC 13e660 0 CFLocaleGetWindowsLocaleCodeFromLocaleIdentifier
PUBLIC 13e700 0 CFLocaleGetLanguageLineDirection
PUBLIC 13e7a0 0 _CFLocaleGetCalendarDirection
PUBLIC 13e8e0 0 _CFLocaleCopyPreferredLanguagesFromPrefs
PUBLIC 13e9b0 0 _CFCreateCharacterSetFromUSet
PUBLIC 13ebe0 0 _CFLocaleSetPreferredMeasurementSystem
PUBLIC 13ed60 0 _CFLocalePostChangeNotification
PUBLIC 13ee00 0 _CFLocaleCopyPreferredMeasurementSystem
PUBLIC 13eef0 0 _CFLocaleSetPreferredTemperatureUnit
PUBLIC 13f000 0 _CFLocaleCopyPreferredTemperatureUnit
PUBLIC 13f090 0 __CFLocaleCopyDescription
PUBLIC 13f100 0 __CFLocaleSetNOP
PUBLIC 13f110 0 __CFLocaleCountryName
PUBLIC 13f210 0 __CFLocaleScriptName
PUBLIC 13f330 0 __CFLocaleVariantName
PUBLIC 13f430 0 __CFLocaleCopyExemplarCharSet
PUBLIC 13f520 0 __CFLocaleNoName
PUBLIC 13f530 0 __CFLocaleCalendarName
PUBLIC 13f550 0 __CFLocaleCopyCollationID
PUBLIC 13f620 0 __CFLocaleCollationName
PUBLIC 13f640 0 __CFLocaleCopyMeasurementSystem
PUBLIC 13f6a0 0 __CFLocaleCopyTemperatureUnit
PUBLIC 13f820 0 __CFLocaleCopyNumberFormat2
PUBLIC 13f890 0 __CFLocaleCurrencyShortName
PUBLIC 13f8b0 0 __CFLocaleCurrencyFullName
PUBLIC 13f8d0 0 __CFLocaleCopyDelimiter
PUBLIC 13fa10 0 __CFLocaleICUKeywordValueName
PUBLIC 13fb50 0 __CFLocaleICUCurrencyName
PUBLIC 13fd20 0 _CFBundleDYLDCopyLoadedImagePathsIfChanged
PUBLIC 13ff10 0 _CFBundleDlfcnGetSymbolByName
PUBLIC 13ff80 0 _CFBundleGetCFMFunctionPointerForName
PUBLIC 140040 0 _CFBundleGetCFMFunctionPointersForNames
PUBLIC 1400b5 0 _NSDictionaryRaiseInsertNilKeyException
PUBLIC 1400e1 0 _NSDictionaryRaiseInsertNilValueException
PUBLIC 14012d 0 _NSDictionaryRaiseRemoveNilKeyException
PUBLIC 140160 0 +[__NSCFDictionary automaticallyNotifiesObserversForKey:]
PUBLIC 140170 0 -[__NSCFDictionary setObservationInfo:]
PUBLIC 1401c0 0 +[__NSCFDictionary allocWithZone:]
PUBLIC 1401e0 0 -[__NSCFDictionary _tryRetain]
PUBLIC 140200 0 -[__NSCFDictionary _isDeallocating]
PUBLIC 140210 0 -[__NSCFDictionary retainCount]
PUBLIC 140220 0 _cfmp_equal
PUBLIC 140250 0 _cfmp_hash
PUBLIC 140280 0 _cfmp_deallocation_record_release
PUBLIC 140290 0 _cfmp_copy_description
PUBLIC 1402e0 0 _CFMachPortDeallocationFailure
PUBLIC 1402f0 0 _cfmp_log_failure
PUBLIC 140450 0 __copy_helper_block_
PUBLIC 140470 0 __destroy_helper_block_
PUBLIC 140490 0 ___CFMachPortCreateWithPort2_block_invoke.7
PUBLIC 140600 0 CFMachPortGetInvalidationCallBack
PUBLIC 140630 0 CFMachPortGetQueuedMessageCount
PUBLIC 1406b0 0 __CFDescribeCFMachPortPerformCallout
PUBLIC 1407b0 0 ____CFDescribeCFMachPortPerformCallout_block_invoke
PUBLIC 140810 0 __CFMachPortCopyDescription
PUBLIC 140920 0 ___cfmp_records_block_invoke
PUBLIC 140980 0 -[_CFXNotificationRegistrar init]
PUBLIC 1409a0 0 -[_CFXNotificationRegistrar registrar]
PUBLIC 1409b0 0 -[_CFXNotificationRegistrar isEmpty]
PUBLIC 140a70 0 -[_CFXNotificationRegistrar find:]
PUBLIC 140b00 0 -[_CFXNotificationRegistrar remove:]
PUBLIC 140bc0 0 _CFXNotificationChildrenRemoveValue
PUBLIC 140cd0 0 -[_CFXNotificationRegistrar acquireDoubleWildcard:options:]
PUBLIC 140e80 0 -[_CFXNotificationRegistrar acquireWildcardName:]
PUBLIC 140fb0 0 -[_CFXNotificationRegistrar enumerateRegistrations:]
PUBLIC 1419d0 0 -[_CFXNotificationRegistrar _copyDebugDescription]
PUBLIC 141a60 0 __50-[_CFXNotificationRegistrar _copyDebugDescription]_block_invoke
PUBLIC 141b80 0 _CFMessagePortCreateLocalEx
PUBLIC 141bb0 0 CFMessagePortCreatePerProcessRemote
PUBLIC 141bd0 0 CFMessagePortIsRemote
PUBLIC 141be0 0 CFMessagePortGetName
PUBLIC 141bf0 0 CFMessagePortSetName
PUBLIC 141f90 0 __CFMessagePortDummyCallback
PUBLIC 141fa0 0 __CFMessagePortInvalidationCallBack
PUBLIC 141fc0 0 CFMessagePortGetContext
PUBLIC 142000 0 CFMessagePortGetInvalidationCallBack
PUBLIC 142010 0 CFMessagePortSetInvalidationCallBack
PUBLIC 142040 0 __CFMessagePortCopyDescription
PUBLIC 142210 0 CFMessagePortSetDispatchQueue
PUBLIC 142440 0 __CFMessagePortSetDispatchQueue_block_invoke
PUBLIC 142470 0 __CFMessagePortSetDispatchQueue_block_invoke_2
PUBLIC 1424a0 0 __CFMessagePortSetDispatchQueue_block_invoke_3
PUBLIC 1425c0 0 __CFMessagePortSetDispatchQueue_block_invoke_4
PUBLIC 142650 0 -[__NSWindows1254TrigramKeySet dealloc]
PUBLIC 1426e0 0 -[__NSWindows1254TrigramKeySet finalize]
PUBLIC 142770 0 -[__NSWindows1254TrigramKeySet initWithKeys:keyLenghtInBytes:count:]
PUBLIC 142780 0 -[__NSWindows1254TrigramKeySet isEmpty]
PUBLIC 142790 0 CFNotificationCenterGetTypeID
PUBLIC 1427d0 0 __CFNotificationCenterGetLocalCenter_block_invoke_2
PUBLIC 142870 0 __CFNotificationCenterGetLocalCenter_block_invoke_3
PUBLIC 142a10 0 -[__CFNotification hash]
PUBLIC 142a40 0 -[__CFNotification isEqual:]
PUBLIC 142b70 0 -[__CFNotification copyWithZone:]
PUBLIC 142b90 0 _CFXNotificationCenterCopyDebugInfo
PUBLIC 142bb0 0 __CFXNotificationRegisterObserver
PUBLIC 1431e0 0 _CFXNotificationCancelToken
PUBLIC 143230 0 __copy_helper_block_
PUBLIC 1432a0 0 __destroy_helper_block_
PUBLIC 143300 0 _CFXNotificationCenterIsEmpty
PUBLIC 143320 0 CFNotificationCenterIsSuspended
PUBLIC 1433a0 0 _CFXNotificationResetSessionForTask
PUBLIC 1437d0 0 ___CFXNotificationResetSessionForTask_block_invoke
PUBLIC 143a10 0 __copy_helper_block_.106
PUBLIC 143a70 0 __destroy_helper_block_.107
PUBLIC 143ac0 0 __CFNotificationCenterDeallocate
PUBLIC 143b10 0 ____CFXNotificationRegisterObserver_block_invoke
PUBLIC 143b30 0 __copy_helper_block_.184
PUBLIC 143b80 0 __destroy_helper_block_.185
PUBLIC 143bc0 0 __CFNumberCreateFormattingDescription
PUBLIC 143dc0 0 __CFNumberInitialize
PUBLIC 143fc0 0 _CFNumberInitBool
PUBLIC 143fe0 0 _CFNumberInitInt8
PUBLIC 144000 0 _CFNumberInitUInt8
PUBLIC 144020 0 _CFNumberInitInt16
PUBLIC 144040 0 _CFNumberInitUInt16
PUBLIC 144060 0 _CFNumberInitInt32
PUBLIC 144080 0 _CFNumberInitUInt32
PUBLIC 1440a0 0 _CFNumberInitInt
PUBLIC 1440c0 0 _CFNumberInitUInt
PUBLIC 1440e0 0 _CFNumberInitInt64
PUBLIC 144100 0 _CFNumberInitUInt64
PUBLIC 144120 0 _CFNumberInitFloat
PUBLIC 144150 0 _CFNumberInitDouble
PUBLIC 144180 0 __CFBooleanDeallocate
PUBLIC 144190 0 __CFBooleanCopyDescription
PUBLIC 1441f0 0 __CFNumberCopyDescription
PUBLIC 1445c0 0 __CFNumberInit
PUBLIC 144670 0 CFNumberFormatterGetTypeID
PUBLIC 1446b0 0 CFNumberFormatterGetStyle
PUBLIC 1446c0 0 CFNumberFormatterGetDecimalInfoForCurrencyCode
PUBLIC 144790 0 _CFNumberFormatterGetFormatter
PUBLIC 1447a0 0 __CFNumberFormatterCopyDescription
PUBLIC 1447e0 0 __CFNumberFormatterApplySymbolPrefs
PUBLIC 1448d0 0 +[NSData supportsSecureCoding]
PUBLIC 1448e0 0 -[__NSCFConstantString retainCount]
PUBLIC 1448f0 0 -[__NSCFConstantString isNSCFConstantString__]
PUBLIC 144900 0 -[__NSCFString retainCount]
PUBLIC 144910 0 +[__NSCFString automaticallyNotifiesObserversForKey:]
PUBLIC 144920 0 -[__NSCFString _fastCStringContents:]
PUBLIC 144950 0 -[__NSCFString cStringLength]
PUBLIC 1449c0 0 -[__NSCFString smallestEncoding]
PUBLIC 1449e0 0 mutateError
PUBLIC 144b50 0 -[__NSCFAttributedString retain]
PUBLIC 144b70 0 -[__NSCFAttributedString release]
PUBLIC 144b80 0 -[__NSCFAttributedString _tryRetain]
PUBLIC 144ba0 0 -[__NSCFAttributedString _isDeallocating]
PUBLIC 144bb0 0 -[__NSCFAttributedString retainCount]
PUBLIC 144bc0 0 -[__NSCFAttributedString isEqual:]
PUBLIC 144be0 0 +[__NSCFAttributedString automaticallyNotifiesObserversForKey:]
PUBLIC 144bf0 0 -[__NSCFAttributedString string]
PUBLIC 144c00 0 -[__NSCFAttributedString attribute:atIndex:effectiveRange:]
PUBLIC 144c10 0 -[__NSCFAttributedString attributedSubstringFromRange:]
PUBLIC 144c40 0 -[__NSCFAttributedString attributesAtIndex:longestEffectiveRange:inRange:]
PUBLIC 144c60 0 -[__NSCFAttributedString attribute:atIndex:longestEffectiveRange:inRange:]
PUBLIC 144c80 0 -[__NSCFAttributedString isEqualToAttributedString:]
PUBLIC 144ca0 0 -[__NSCFAttributedString copyWithZone:]
PUBLIC 144cc0 0 -[__NSCFAttributedString mutableCopyWithZone:]
PUBLIC 144ce0 0 -[__NSCFAttributedString classForCoder]
PUBLIC 144d10 0 -[__NSCFAttributedString replaceCharactersInRange:withString:]
PUBLIC 144d50 0 mutateError2
PUBLIC 144ec0 0 -[__NSCFAttributedString setAttributes:range:]
PUBLIC 144f10 0 -[__NSCFAttributedString replaceCharactersInRange:withAttributedString:]
PUBLIC 144f50 0 -[__NSCFAttributedString insertAttributedString:atIndex:]
PUBLIC 144f90 0 -[__NSCFAttributedString appendAttributedString:]
PUBLIC 144fe0 0 -[__NSCFAttributedString deleteCharactersInRange:]
PUBLIC 145020 0 -[__NSCFAttributedString setAttributedString:]
PUBLIC 145070 0 -[__NSCFAttributedString addAttributes:range:]
PUBLIC 1450b0 0 -[__NSCFAttributedString addAttribute:value:range:]
PUBLIC 145200 0 -[__NSCFAttributedString removeAttribute:range:]
PUBLIC 145240 0 -[__NSCFNumber _tryRetain]
PUBLIC 145260 0 -[__NSCFNumber _isDeallocating]
PUBLIC 145270 0 -[__NSCFNumber retainCount]
PUBLIC 145280 0 +[__NSCFNumber automaticallyNotifiesObserversForKey:]
PUBLIC 145290 0 -[__NSCFNumber _cfTypeID]
PUBLIC 1452a0 0 -[__NSCFNumber _cfNumberType]
PUBLIC 145410 0 -[__NSCFNumber _getValue:forType:]
PUBLIC 145510 0 -[__NSCFNumber _reverseCompare:]
PUBLIC 145540 0 -[__NSCFBoolean _tryRetain]
PUBLIC 145560 0 -[__NSCFBoolean _isDeallocating]
PUBLIC 145570 0 -[__NSCFBoolean retainCount]
PUBLIC 145580 0 +[__NSCFBoolean automaticallyNotifiesObserversForKey:]
PUBLIC 145590 0 -[__NSCFBoolean stringValue]
PUBLIC 1455b0 0 -[__NSCFBoolean unsignedCharValue]
PUBLIC 1455d0 0 -[__NSCFBoolean shortValue]
PUBLIC 1455f0 0 -[__NSCFBoolean unsignedShortValue]
PUBLIC 145610 0 -[__NSCFBoolean unsignedIntValue]
PUBLIC 145630 0 -[__NSCFBoolean unsignedLongValue]
PUBLIC 145650 0 -[__NSCFBoolean unsignedLongLongValue]
PUBLIC 145670 0 -[__NSCFBoolean floatValue]
PUBLIC 145690 0 -[__NSCFBoolean unsignedIntegerValue]
PUBLIC 1456b0 0 -[__NSCFBoolean _cfTypeID]
PUBLIC 1456c0 0 -[__NSCFBoolean _cfNumberType]
PUBLIC 145830 0 -[__NSCFBoolean _reverseCompare:]
PUBLIC 145860 0 -[__NSCFError isEqual:]
PUBLIC 145890 0 -[__NSCFError hash]
PUBLIC 1458a0 0 -[__NSCFError _tryRetain]
PUBLIC 1458c0 0 -[__NSCFError _isDeallocating]
PUBLIC 1458d0 0 -[__NSCFError retainCount]
PUBLIC 1458e0 0 +[__NSCFError automaticallyNotifiesObserversForKey:]
PUBLIC 1458f0 0 -[__NSCFCharacterSet _tryRetain]
PUBLIC 145910 0 -[__NSCFCharacterSet _isDeallocating]
PUBLIC 145920 0 -[__NSCFCharacterSet retainCount]
PUBLIC 145930 0 +[__NSCFCharacterSet automaticallyNotifiesObserversForKey:]
PUBLIC 145940 0 -[__NSCFCharacterSet hasMemberInPlane:]
PUBLIC 145960 0 -[__NSCFCharacterSet bitmapRepresentation]
PUBLIC 145990 0 -[__NSCFCharacterSet formIntersectionWithCharacterSet:]
PUBLIC 1459a0 0 -[__NSCFCharacterSet makeCharacterSetCompact]
PUBLIC 1459b0 0 -[__NSCFCharacterSet makeCharacterSetFast]
PUBLIC 1459c0 0 -[__NSCFCharacterSet classForCoder]
PUBLIC 1459f0 0 +[__NSCFCharacterSet supportsSecureCoding]
PUBLIC 145a00 0 -[__NSCFCharacterSet initWithCoder:]
PUBLIC 145a40 0 -[__NSCFCharacterSet encodeWithCoder:]
PUBLIC 145c80 0 -[__NSCFData _tryRetain]
PUBLIC 145ca0 0 -[__NSCFData _isDeallocating]
PUBLIC 145cb0 0 -[__NSCFData retainCount]
PUBLIC 145cc0 0 +[__NSCFData automaticallyNotifiesObserversForKey:]
PUBLIC 145cd0 0 -[__NSCFData setLength:]
PUBLIC 145ce0 0 -[__NSCFData _providesConcreteBacking]
PUBLIC 145cf0 0 -[__NSCFTimer isEqual:]
PUBLIC 145d20 0 -[__NSCFTimer hash]
PUBLIC 145d30 0 -[__NSCFTimer _tryRetain]
PUBLIC 145d50 0 -[__NSCFTimer retainCount]
PUBLIC 145d60 0 +[__NSCFTimer automaticallyNotifiesObserversForKey:]
PUBLIC 145d70 0 +[__NSCFTimer allocWithZone:]
PUBLIC 145d90 0 -[__NSCFTimer tolerance]
PUBLIC 145da0 0 -[__NSCFTimer fireDate]
PUBLIC 145dd0 0 __CFFireTimer
PUBLIC 145e50 0 __CFDescribeTimer
PUBLIC 145f50 0 -[__NSCFTimer fire]
PUBLIC 146050 0 -[__NSCFTimer _cfTypeID]
PUBLIC 146060 0 -[__NSCFTimer initWithFireDate:interval:target:selector:userInfo:repeats:]
PUBLIC 146160 0 _timerRetain
PUBLIC 146170 0 _timerRelease
PUBLIC 1461e0 0 -[__NSCFTimer init]
PUBLIC 1461f0 0 -[__NSCFInputStream isEqual:]
PUBLIC 146220 0 -[__NSCFInputStream hash]
PUBLIC 146230 0 -[__NSCFInputStream _tryRetain]
PUBLIC 146250 0 -[__NSCFInputStream _isDeallocating]
PUBLIC 146260 0 -[__NSCFInputStream retainCount]
PUBLIC 146270 0 +[__NSCFInputStream automaticallyNotifiesObserversForKey:]
PUBLIC 146280 0 +[__NSCFInputStream allocWithZone:]
PUBLIC 146290 0 -[__NSCFInputStream initWithData:]
PUBLIC 1462c0 0 -[__NSCFInputStream initWithFileAtPath:]
PUBLIC 146340 0 -[__NSCFInputStream initWithURL:]
PUBLIC 146370 0 -[__NSCFInputStream delegate]
PUBLIC 146380 0 -[__NSCFInputStream getBuffer:length:]
PUBLIC 1463b0 0 -[__NSCFInputStream _setCFClientFlags:callback:context:]
PUBLIC 1463d0 0 -[__NSCFInputStream _scheduleInCFRunLoop:forMode:]
PUBLIC 1463e0 0 -[__NSCFInputStream _unscheduleFromCFRunLoop:forMode:]
PUBLIC 1463f0 0 -[__NSCFOutputStream isEqual:]
PUBLIC 146420 0 -[__NSCFOutputStream hash]
PUBLIC 146430 0 -[__NSCFOutputStream _tryRetain]
PUBLIC 146450 0 -[__NSCFOutputStream _isDeallocating]
PUBLIC 146460 0 -[__NSCFOutputStream retainCount]
PUBLIC 146470 0 +[__NSCFOutputStream automaticallyNotifiesObserversForKey:]
PUBLIC 146480 0 +[__NSCFOutputStream allocWithZone:]
PUBLIC 146490 0 -[__NSCFOutputStream initToMemory]
PUBLIC 1464c0 0 -[__NSCFOutputStream initToBuffer:capacity:]
PUBLIC 1464f0 0 -[__NSCFOutputStream initToFileAtPath:append:]
PUBLIC 146570 0 -[__NSCFOutputStream initWithURL:append:]
PUBLIC 1465d0 0 -[__NSCFOutputStream delegate]
PUBLIC 1465e0 0 -[__NSCFOutputStream _setCFClientFlags:callback:context:]
PUBLIC 146600 0 -[__NSCFOutputStream _scheduleInCFRunLoop:forMode:]
PUBLIC 146610 0 -[__NSCFOutputStream _unscheduleFromCFRunLoop:forMode:]
PUBLIC 146620 0 -[__NSCFLocale hash]
PUBLIC 146630 0 -[__NSCFLocale _tryRetain]
PUBLIC 146650 0 -[__NSCFLocale _isDeallocating]
PUBLIC 146660 0 -[__NSCFLocale retainCount]
PUBLIC 146670 0 +[__NSCFLocale automaticallyNotifiesObserversForKey:]
PUBLIC 146680 0 -[__NSCFLocale initWithLocaleIdentifier:]
PUBLIC 1466a0 0 -[__NSCFLocale _nullLocale]
PUBLIC 1466b0 0 -[__NSCFLocale _setNullLocale]
PUBLIC 1466ba 0 _CFThrowFormattedException
PUBLIC 146780 0 -[CFPrefsConfigurationFileSource initWithConfigurationPropertyList:containingPreferences:]
PUBLIC 1467e0 0 CFPasteboardGetTypeID
PUBLIC 146820 0 __CFPasteboardSetup
PUBLIC 146960 0 __CFPasteboardCreate_block_invoke
PUBLIC 146990 0 _onqueue_CFPasteboardSetupInstance
PUBLIC 146c30 0 __copy_helper_block_
PUBLIC 146c50 0 __destroy_helper_block_
PUBLIC 146c70 0 CFPasteboardCreateUnique
PUBLIC 146cc0 0 __CFPasteboardGetGenerationCount_block_invoke
PUBLIC 146d00 0 _onqueue_CFPasteboardUpdateCacheCounts
PUBLIC 146ec0 0 __copy_helper_block_.24
PUBLIC 146ee0 0 __destroy_helper_block_.25
PUBLIC 146f00 0 __CFPasteboardGetChangeCount_block_invoke
PUBLIC 146f40 0 __copy_helper_block_.29
PUBLIC 146f60 0 __destroy_helper_block_.30
PUBLIC 146f80 0 __CFPasteboardCopyItemsAndFlavors_block_invoke
PUBLIC 147020 0 _onqueue_CFPasteboardRebuildCacheIfNecessary
PUBLIC 1470f0 0 __copy_helper_block_.34
PUBLIC 147110 0 __destroy_helper_block_.35
PUBLIC 147130 0 __CFPasteboardGetItemCount_block_invoke
PUBLIC 1471c0 0 __copy_helper_block_.40
PUBLIC 1471e0 0 __destroy_helper_block_.41
PUBLIC 147200 0 __CFPasteboardGetItemAtIndex_block_invoke
PUBLIC 147290 0 __copy_helper_block_.46
PUBLIC 1472b0 0 __destroy_helper_block_.47
PUBLIC 1472d0 0 __CFPasteboardCopyFlavorsForItem_block_invoke
PUBLIC 147360 0 __copy_helper_block_.52
PUBLIC 147380 0 __destroy_helper_block_.53
PUBLIC 1473a0 0 CFPasteboardGetFlavorCount
PUBLIC 1475d0 0 __CFPasteboardGetFlavorCount_block_invoke
PUBLIC 147660 0 __copy_helper_block_.58
PUBLIC 147680 0 __destroy_helper_block_.59
PUBLIC 1476a0 0 _CFPasteboardAttachSecurityScopeFromDataToURL
PUBLIC 147880 0 CFPasteboardAttachSecurityScopeToURL
PUBLIC 147af0 0 __Block_byref_object_copy_
PUBLIC 147b10 0 __Block_byref_object_dispose_
PUBLIC 147b30 0 __CFPasteboardCopyData_block_invoke
PUBLIC 147e20 0 _onqueue_CFPasteboardRequestLocalPromiseData
PUBLIC 147ef0 0 _onqueue_CFPasteboardRequestDataFromDaemon
PUBLIC 148280 0 __copy_helper_block_.80
PUBLIC 1482e0 0 __destroy_helper_block_.81
PUBLIC 148330 0 __CFPasteboardConsumeSandboxExtensionData
PUBLIC 148760 0 __CFPasteboardGetDataFlags_block_invoke
PUBLIC 1487f0 0 __copy_helper_block_.88
PUBLIC 148810 0 __destroy_helper_block_.89
PUBLIC 148830 0 CFPasteboardIsDataPromised
PUBLIC 148a70 0 __CFPasteboardIsDataPromised_block_invoke
PUBLIC 148b20 0 __copy_helper_block_.92
PUBLIC 148b40 0 __destroy_helper_block_.93
PUBLIC 148b60 0 CFPasteboardApplyFunction
PUBLIC 148cf0 0 __CFPasteboardApplyFunction_block_invoke
PUBLIC 149010 0 __copy_helper_block_.102
PUBLIC 149030 0 __destroy_helper_block_.103
PUBLIC 149050 0 CFPasteboardEnumeratePasteboardUsingBlock
PUBLIC 1491e0 0 __CFPasteboardEnumeratePasteboardUsingBlock_block_invoke
PUBLIC 1494e0 0 __copy_helper_block_.106
PUBLIC 149520 0 __destroy_helper_block_.107
PUBLIC 149550 0 __CFPasteboardBeginGeneration_block_invoke
PUBLIC 149630 0 _CFPBXPCSendMessageWithReplySync
PUBLIC 149720 0 _onqueue_CFPasteboardRecognizeGenerationChange
PUBLIC 149a00 0 __copy_helper_block_.113
PUBLIC 149a20 0 __destroy_helper_block_.114
PUBLIC 149a40 0 CFPasteboardSetDataFlags
PUBLIC 149d70 0 __CFPasteboardSetDataFlags_block_invoke
PUBLIC 14a0a0 0 __copy_helper_block_.136
PUBLIC 14a0c0 0 __destroy_helper_block_.137
PUBLIC 14a0e0 0 __CFPasteboardIssueSandboxExtensionForPath
PUBLIC 14a5a0 0 CFPasteboardCreateSecurityScopeDataForURL
PUBLIC 14a8d0 0 __CFPasteboardSetData_block_invoke
PUBLIC 14a920 0 _onqueue_CFPasteboardSetData
PUBLIC 14af00 0 __copy_helper_block_.139
PUBLIC 14af20 0 __destroy_helper_block_.140
PUBLIC 14af40 0 CFPasteboardSetPasteLocation
PUBLIC 14b3f0 0 __CFPasteboardSetPasteLocation_block_invoke
PUBLIC 14b490 0 __copy_helper_block_.143
PUBLIC 14b4b0 0 __destroy_helper_block_.144
PUBLIC 14b4d0 0 CFPasteboardSetPasteFileType
PUBLIC 14b800 0 __CFPasteboardSetPasteFileType_block_invoke
PUBLIC 14b8a0 0 __copy_helper_block_.149
PUBLIC 14b8c0 0 __destroy_helper_block_.150
PUBLIC 14b8e0 0 CFPasteboardCreateUniquePromiseFileURL
PUBLIC 14bb90 0 __CFPasteboardCreateUniquePromiseFileURL_block_invoke
PUBLIC 14be70 0 __CFPasteboardCreateUniquePromiseFileURL_block_invoke_2
PUBLIC 14c000 0 __copy_helper_block_.158
PUBLIC 14c040 0 __destroy_helper_block_.159
PUBLIC 14c070 0 __copy_helper_block_.162
PUBLIC 14c0b0 0 __destroy_helper_block_.163
PUBLIC 14c0e0 0 CFPasteboardMakeGenerationLocalOnly
PUBLIC 14c310 0 __CFPasteboardMakeGenerationLocalOnly_block_invoke
PUBLIC 14c480 0 __copy_helper_block_.168
PUBLIC 14c4a0 0 __destroy_helper_block_.169
PUBLIC 14c4c0 0 CFPasteboardPromiseDataUsingBlock
PUBLIC 14c740 0 __CFPasteboardPromiseData_block_invoke
PUBLIC 14c760 0 __CFPasteboardPromiseDataUsingBlock_block_invoke
PUBLIC 14cc00 0 __CFPasteboardPromiseDataUsingBlock_block_invoke_2
PUBLIC 14cc40 0 __copy_helper_block_.181
PUBLIC 14cc80 0 __destroy_helper_block_.182
PUBLIC 14ccb0 0 _onqueue_CFPasteboardFlushLocalEntriesIfNecessary
PUBLIC 14d2e0 0 _onqueue_CFPasteboardMarkLocalChange
PUBLIC 14d5b0 0 _onqueue_CFPasteboardPromiseSandboxExtensionDataIfNecessary
PUBLIC 14d9c0 0 __copy_helper_block_.191
PUBLIC 14da00 0 __destroy_helper_block_.192
PUBLIC 14da30 0 CFPasteboardResolvePromisedData
PUBLIC 14dd00 0 __CFPasteboardResolvePromisedData_block_invoke
PUBLIC 14de10 0 _CFPBXPCSendMessageWithReply
PUBLIC 14df10 0 __CFPasteboardResolvePromisedData_block_invoke_2
PUBLIC 14df70 0 __copy_helper_block_.195
PUBLIC 14dfb0 0 __destroy_helper_block_.196
PUBLIC 14dfe0 0 __copy_helper_block_.198
PUBLIC 14e020 0 __destroy_helper_block_.199
PUBLIC 14e050 0 __CFPasteboardResolveAllPromisedData_block_invoke
PUBLIC 14e070 0 __copy_helper_block_.202
PUBLIC 14e090 0 __destroy_helper_block_.203
PUBLIC 14e0b0 0 CFPasteboardCreateStringFromData
PUBLIC 14e100 0 __CFPBStart
PUBLIC 14e130 0 __CFPasteboardStartInProcessServer
PUBLIC 14e160 0 ____CFPasteboardStartInProcessServer_block_invoke
PUBLIC 14e250 0 ____CFPasteboardStartInProcessServer_block_invoke_2
PUBLIC 14e260 0 __CFPasteboardHandleMessageFromDaemon
PUBLIC 14eab0 0 _CFPasteboardInvalidateCache
PUBLIC 14eb10 0 ___CFPasteboardInvalidateCache_block_invoke
PUBLIC 14eb30 0 CFPasteboardEnableBatching
PUBLIC 14eb90 0 __CFPasteboardEnableBatching_block_invoke
PUBLIC 14eba0 0 CFPasteboardFlushEntries
PUBLIC 14ec00 0 __CFPasteboardFlushEntries_block_invoke
PUBLIC 14ec40 0 -[_CFPasteboardEntry initWithFlavorName:itemIdentifier:]
PUBLIC 14ecb0 0 -[_CFPasteboardEntry dealloc]
PUBLIC 14eda0 0 -[_CFPasteboardEntry description]
PUBLIC 14ef10 0 -[_CFPasteboardEntry hasData]
PUBLIC 14ef40 0 -[_CFPasteboardEntry setData:]
PUBLIC 14eff0 0 -[_CFPasteboardEntry _createShmemIfNecessaryLength:]
PUBLIC 14f0e0 0 -[_CFPasteboardEntry createDataAndReturnError:]
PUBLIC 14f220 0 -[_CFPasteboardEntry _setLocalPromiseState:]
PUBLIC 14f270 0 -[_CFPasteboardEntry initFromXPCObject:fromConnection:]
PUBLIC 14f530 0 __55-[_CFPasteboardEntry initFromXPCObject:fromConnection:]_block_invoke
PUBLIC 14f640 0 __55-[_CFPasteboardEntry initFromXPCObject:fromConnection:]_block_invoke_2
PUBLIC 14f750 0 __copy_helper_block_.251
PUBLIC 14f790 0 __destroy_helper_block_.252
PUBLIC 14f7c0 0 __copy_helper_block_.254
PUBLIC 14f800 0 __destroy_helper_block_.255
PUBLIC 14f830 0 -[_CFPasteboardEntry createXPCObjectWithMetadataOnly:]
PUBLIC 14f9f0 0 -[_CFPasteboardEntry promiseDataWithBlock:forPasteboard:generation:]
PUBLIC 14fb00 0 __68-[_CFPasteboardEntry promiseDataWithBlock:forPasteboard:generation:]_block_invoke
PUBLIC 14fb30 0 __copy_helper_block_.262
PUBLIC 14fb70 0 __destroy_helper_block_.263
PUBLIC 14fba0 0 -[_CFPasteboardEntry resolveLocalPromisedData]
PUBLIC 14fc30 0 -[_CFPasteboardEntry resolveClientPromisedDataWithCompletionHandler:]
PUBLIC 14fc60 0 -[_CFPasteboardEntry flavorName]
PUBLIC 14fc80 0 -[_CFPasteboardEntry dataFlags]
PUBLIC 14fca0 0 -[_CFPasteboardEntry setDataFlags:]
PUBLIC 14fcc0 0 -[_CFPasteboardEntry itemIdentifier]
PUBLIC 14fcd0 0 -[_CFPasteboardEntry promiseUUID]
PUBLIC 14fcf0 0 -[_CFPasteboardEntry isHidden]
PUBLIC 14fd10 0 -[_CFPasteboardEntry setHidden:]
PUBLIC 14fd20 0 -[_CFPasteboardEntry isPendingFlush]
PUBLIC 14fd40 0 -[_CFPasteboardEntry setIsPendingFlush:]
PUBLIC 14fd50 0 -[_CFPasteboardEntry extensionConsumed]
PUBLIC 14fd70 0 -[_CFPasteboardEntry setExtensionConsumed:]
PUBLIC 14fd80 0 -[_CFPasteboardCache init]
PUBLIC 14fe90 0 -[_CFPasteboardCache dealloc]
PUBLIC 14ff20 0 -[_CFPasteboardCache addEntry:]
PUBLIC 150010 0 -[_CFPasteboardCache updateEntry:]
PUBLIC 1502b0 0 -[_CFPasteboardCache clearForGeneration:]
PUBLIC 150310 0 -[_CFPasteboardCache entryForGeneration:itemIdentifier:flavor:errorCode:]
PUBLIC 150450 0 -[_CFPasteboardCache copyItemsAndFlavors]
PUBLIC 150580 0 -[_CFPasteboardCache itemCount]
PUBLIC 1505d0 0 -[_CFPasteboardCache itemAtIndex:]
PUBLIC 150650 0 -[_CFPasteboardCache flavorCountForItemIdentifier:]
PUBLIC 150730 0 -[_CFPasteboardCache copyFlavorsForItemIdentifier:]
PUBLIC 150860 0 -[_CFPasteboardCache indexForItem:]
PUBLIC 1508b0 0 -[_CFPasteboardCache bumpChangeCount]
PUBLIC 1508f0 0 -[_CFPasteboardCache generation]
PUBLIC 150900 0 -[_CFPasteboardCache changeCount]
PUBLIC 150910 0 -[_CFPasteboardCache setChangeCount:]
PUBLIC 150920 0 -[_CFPasteboardCache orderedEntries]
PUBLIC 150940 0 -[_CFPasteboardPendingPromise initWithEntry:pasteboard:]
PUBLIC 1509c0 0 -[_CFPasteboardPendingPromise dealloc]
PUBLIC 150a20 0 -[_CFPasteboardPendingPromise pasteboard]
PUBLIC 150a40 0 -[_CFPasteboardWeakRef initWithPasteboard:]
PUBLIC 150aa0 0 -[_CFPasteboardWeakRef tryRetainPasteboard]
PUBLIC 150ac0 0 -[_CFPasteboardWeakRef .cxx_destruct]
PUBLIC 150ae0 0 __CFPasteboardCopyDescription
PUBLIC 150c20 0 ____CFPasteboardDeallocate_block_invoke
PUBLIC 150c40 0 ___CFPasteboardAccessPasteboardMap_block_invoke
PUBLIC 150c80 0 ____CFPasteboardSetup_block_invoke
PUBLIC 150c90 0 _onqueue_CFPasteboardRebuildCache
PUBLIC 150ea0 0 ___onqueue_CFPasteboardRebuildCache_block_invoke
PUBLIC 1511b0 0 ___onqueue_CFPasteboardRebuildCache_block_invoke_2
PUBLIC 151290 0 ___onqueue_CFPasteboardRequestLocalPromiseData_block_invoke
PUBLIC 1513e0 0 ___onqueue_CFPasteboardRequestLocalPromiseData_block_invoke_2
PUBLIC 1514e0 0 __copy_helper_block_.418
PUBLIC 151520 0 __destroy_helper_block_.419
PUBLIC 151550 0 __copy_helper_block_.421
PUBLIC 151570 0 __destroy_helper_block_.422
PUBLIC 151590 0 ___onqueue_CFPasteboardRequestDataFromDaemon_block_invoke
PUBLIC 151720 0 __copy_helper_block_.429
PUBLIC 151780 0 __destroy_helper_block_.430
PUBLIC 1517d0 0 ___onqueue_CFPasteboardRequestDataFromDaemon_block_invoke.432
PUBLIC 1519b0 0 __copy_helper_block_.433
PUBLIC 151a00 0 __destroy_helper_block_.434
PUBLIC 151a40 0 _arrayApplyBlock
PUBLIC 151a60 0 ___onqueue_CFPasteboardCleanupPendingPromises_block_invoke_2
PUBLIC 151ac0 0 ___CFPasteboardAccessPendingPromiseEntryMap_block_invoke
PUBLIC 151b00 0 ___onqueue_CFPasteboardFlushLocalEntriesIfNecessary_block_invoke
PUBLIC 151b70 0 ___onqueue_CFPasteboardFlushLocalEntriesIfNecessary_block_invoke_2
PUBLIC 151b90 0 ___CFPasteboardAccessPendingChangePasteboardMap_block_invoke
PUBLIC 151bd0 0 ___onqueue_CFPasteboardMarkLocalChange_block_invoke
PUBLIC 151c50 0 ___onqueue_CFPasteboardMarkLocalChange_block_invoke_2
PUBLIC 151c70 0 _onqueue_CFPasteboardCreateSandboxExtensionData
PUBLIC 151f50 0 ___onqueue_CFPasteboardPromiseSandboxExtensionDataIfNecessary_block_invoke
PUBLIC 152070 0 __copy_helper_block_.469
PUBLIC 1520b0 0 __destroy_helper_block_.470
PUBLIC 1520e0 0 ___onqueue_CFPasteboardPromiseSandboxExtensionDataIfNecessary_block_invoke.474
PUBLIC 152120 0 __copy_helper_block_.475
PUBLIC 152160 0 __destroy_helper_block_.476
PUBLIC 152190 0 __CFPasteboardCreateSandboxExtensionDataFromURLCFData
PUBLIC 152330 0 ____CFPasteboardCreateSandboxExtensionDataFromFileNamesCFData_block_invoke
PUBLIC 152360 0 ___CFPasteboardSetSandboxExtensionData_block_invoke
PUBLIC 1523b0 0 __copy_helper_block_.481
PUBLIC 1523d0 0 __destroy_helper_block_.482
PUBLIC 1523f0 0 ___CFPasteboardLogInit_block_invoke
PUBLIC 1524d0 0 _CFPasteboardHandleFulfillMessage
PUBLIC 152830 0 _CFPasteboardHandleInvalidatedDaemonConnection
PUBLIC 152a70 0 ___CFPasteboardHandleInvalidatedDaemonConnection_block_invoke
PUBLIC 152ab0 0 __copy_helper_block_.498
PUBLIC 152ad0 0 __destroy_helper_block_.499
PUBLIC 152af0 0 _applyDictBlock
PUBLIC 152b10 0 ___CFPasteboardHandleInvalidatedDaemonConnection_block_invoke.501
PUBLIC 152b90 0 ___CFPasteboardResetPasteboardForInvalidatedDaemonConnection_block_invoke
PUBLIC 152d70 0 ___CFPasteboardHandleFlushMessage_block_invoke
PUBLIC 152db0 0 __copy_helper_block_.512
PUBLIC 152dd0 0 __destroy_helper_block_.513
PUBLIC 152df0 0 ___CFPasteboardHandleFlushMessage_block_invoke.515
PUBLIC 152e30 0 __copy_helper_block_.516
PUBLIC 152e50 0 __destroy_helper_block_.517
PUBLIC 152e70 0 ___CFPasteboardHandleFlushMessage_block_invoke.519
PUBLIC 152fd0 0 ___CFPasteboardHandleFlushMessage_block_invoke_2
PUBLIC 153080 0 __copy_helper_block_.520
PUBLIC 1530c0 0 __destroy_helper_block_.521
PUBLIC 1530f0 0 __copy_helper_block_.523
PUBLIC 153140 0 __destroy_helper_block_.524
PUBLIC 153180 0 ___CFPasteboardSendBarrier_block_invoke
PUBLIC 153200 0 ___CFPasteboardSendBarrier_block_invoke_2
PUBLIC 153210 0 __copy_helper_block_.526
PUBLIC 153230 0 __destroy_helper_block_.527
PUBLIC 153250 0 __copy_helper_block_.529
PUBLIC 153270 0 __destroy_helper_block_.530
PUBLIC 153290 0 ___CFPasteboardHandleInvalidateCacheMessage_block_invoke
PUBLIC 1532d0 0 __copy_helper_block_.532
PUBLIC 1532f0 0 __destroy_helper_block_.533
PUBLIC 153310 0 ___CFPasteboardInvalidateCacheForGeneration_block_invoke
PUBLIC 153450 0 ___CFPasteboardHandleInvalidateCacheEntriesMessage_block_invoke
PUBLIC 153490 0 __copy_helper_block_.541
PUBLIC 1534b0 0 __destroy_helper_block_.542
PUBLIC 1534d0 0 ___CFPasteboardInvalidateCacheEntries_block_invoke
PUBLIC 153660 0 ___CFPasteboardHandleFulfillMessage_block_invoke
PUBLIC 1537b0 0 __copy_helper_block_.547
PUBLIC 1537d0 0 __destroy_helper_block_.548
PUBLIC 1537f0 0 __Block_byref_object_copy_.551
PUBLIC 153810 0 __Block_byref_object_dispose_.552
PUBLIC 153830 0 ___CFPasteboardHandleFulfillMessage_block_invoke.553
PUBLIC 153870 0 __copy_helper_block_.554
PUBLIC 153890 0 __destroy_helper_block_.555
PUBLIC 1538b0 0 ___CFPasteboardHandleFulfillMessage_block_invoke.557
PUBLIC 153940 0 __copy_helper_block_.558
PUBLIC 1539a0 0 __destroy_helper_block_.559
PUBLIC 1539f0 0 -[CFPDCloudSource copyConfigurationFromPath:]
PUBLIC 153aa0 0 -[CFPDCloudSource registerForChangeNotifications]
PUBLIC 153b40 0 __49-[CFPDCloudSource registerForChangeNotifications]_block_invoke
PUBLIC 153b80 0 remoteStoreChanged
PUBLIC 153be0 0 -[CFPDCloudSource initWithDomain:userName:storeName:configurationPath:containerPath:shmemIndex:daemon:]
PUBLIC 153df0 0 -[CFPDCloudSource enqueueNewKey:value:size:encoding:]
PUBLIC 154190 0 -[CFPDCloudSource copyPropertyListWithoutDrainingPendingChangesValidatingPlist:]
PUBLIC 1541f0 0 -[CFPDCloudSource synchronizeWithCloud:replyHandler:]
PUBLIC 154280 0 __53-[CFPDCloudSource synchronizeWithCloud:replyHandler:]_block_invoke
PUBLIC 1542b0 0 __copy_helper_block_
PUBLIC 1542f0 0 __destroy_helper_block_
PUBLIC 154320 0 -[CFPDCloudSource copyPropertyListValidatingPlist:]
PUBLIC 154340 0 -[CFPDCloudSource debugDump]
PUBLIC 154420 0 -[CFPDCloudSource cloudConfigurationPath]
PUBLIC 154440 0 -[CFPDCloudSource validateMessage:withNewKey:newValue:currentPlistData:containerPath:diagnosticMessage:]
PUBLIC 154450 0 -[CFPDCloudSource _writeToDisk:]
PUBLIC 1544d0 0 __32-[CFPDCloudSource _writeToDisk:]_block_invoke
PUBLIC 154500 0 __copy_helper_block_.49
PUBLIC 154520 0 __destroy_helper_block_.50
PUBLIC 154540 0 __remoteStoreChanged_block_invoke
PUBLIC 154640 0 __copy_helper_block_.79
PUBLIC 154660 0 __destroy_helper_block_.80
PUBLIC 154680 0 initSYDRemotePreferencesSource
PUBLIC 1546e0 0 SYDRemotePreferencesSourceFunction
PUBLIC 1546f0 0 __NSDictionaryParameterCheckIterate
PUBLIC 154760 0 ____NSDictionaryEnumerate_block_invoke
PUBLIC 1548b0 0 __copy_helper_block_
PUBLIC 154910 0 __destroy_helper_block_
PUBLIC 154960 0 ____NSDictionaryEnumerate_block_invoke.13
PUBLIC 154990 0 __copy_helper_block_.14
PUBLIC 1549b0 0 __destroy_helper_block_.15
PUBLIC 1549d0 0 -[__NSCFArray objectAtIndexedSubscript:]
PUBLIC 154a56 0 _NSArrayRaiseBoundException
PUBLIC 154ab0 0 +[__NSCFArray automaticallyNotifiesObserversForKey:]
PUBLIC 154ac0 0 -[__NSCFArray removeLastObject]
PUBLIC 154b22 0 _NSArrayRaiseInsertNilException
PUBLIC 154b50 0 -[__NSCFArray replaceObjectAtIndex:withObject:]
PUBLIC 154c30 0 -[__NSCFArray hash]
PUBLIC 154c40 0 -[__NSCFArray _tryRetain]
PUBLIC 154c60 0 -[__NSCFArray _isDeallocating]
PUBLIC 154c70 0 -[__NSCFArray retainCount]
PUBLIC 154c80 0 _CFArgv
PUBLIC 154c90 0 _CFArgc
PUBLIC 154ca0 0 _CFStringCreateHostName
PUBLIC 154d10 0 CFGetUserName
PUBLIC 154d20 0 CFCopyHomeDirectoryURL
PUBLIC 154d40 0 __CFTSDInitialize
PUBLIC 154d60 0 _CFGetTSDCreateIfNeeded
PUBLIC 154e20 0 CFStringEncodingIsDecomposableCharacter
PUBLIC 154e40 0 CFStringEncodingDecomposeCharacter
PUBLIC 154ea0 0 __CFStringEncodingCreateListOfAvailablePlatformConverters
PUBLIC 1551a0 0 __CFStringEncodingPlatformByteLengthForCharacters
PUBLIC 1551d0 0 ____CFCarbonCore_CountUnicodeMappingsNoInit_block_invoke
PUBLIC 1551f0 0 ____CFCarbonCore_QueryUnicodeMappingsNoInit_block_invoke
PUBLIC 155210 0 ____CFCarbonCore_GetTextEncodingBase0_block_invoke
PUBLIC 155230 0 ____CFCarbonCore_CreateUnicodeToTextInfoNoInit_block_invoke
PUBLIC 155250 0 ____CFCarbonCore_ConvertFromUnicodeToTextNoInit_block_invoke
PUBLIC 155270 0 ____CFCarbonCore_DisposeUnicodeToTextInfoNoInit_block_invoke
PUBLIC 155290 0 ____CFCarbonCore_CreateTextToUnicodeInfoNoInit_block_invoke
PUBLIC 1552b0 0 ____CFCarbonCore_ConvertFromTextToUnicodeNoInit_block_invoke
PUBLIC 1552d0 0 ____CFCarbonCore_DisposeTextToUnicodeInfoNoInit_block_invoke
PUBLIC 1552f0 0 -[__NSISO88598TrigramKeySet dealloc]
PUBLIC 155380 0 -[__NSISO88598TrigramKeySet finalize]
PUBLIC 155410 0 -[__NSISO88598TrigramKeySet initWithKeys:keyLenghtInBytes:count:]
PUBLIC 155420 0 -[__NSISO88598TrigramKeySet isEmpty]
PUBLIC 155430 0 _systemAudioHardwareChangeListener
PUBLIC 155500 0 _systemAudioMuteChangeListener
PUBLIC 1555b0 0 _notifyServiceChangeWithChangeMask
PUBLIC 155690 0 CFPlugInFindFactoriesForPlugInType
PUBLIC 155740 0 CFPlugInUnregisterFactory
PUBLIC 155770 0 CFPlugInUnregisterPlugInType
PUBLIC 1557a0 0 -[__NSISO885911TrigramKeySet dealloc]
PUBLIC 155830 0 -[__NSISO885911TrigramKeySet finalize]
PUBLIC 1558c0 0 -[__NSISO885911TrigramKeySet initWithKeys:keyLenghtInBytes:count:]
PUBLIC 1558d0 0 -[__NSISO885911TrigramKeySet isEmpty]
PUBLIC 1558e0 0 _CFPFactoryDisable
PUBLIC 155910 0 _CFPFactoryRemoveType
PUBLIC 1559e0 0 _CFPFactoryDeallocate
PUBLIC 155af0 0 CFPlugInInstanceCreateWithInstanceDataSize
PUBLIC 155b90 0 CFPlugInInstanceGetInterfaceFunctionTable
PUBLIC 155be0 0 CFPlugInInstanceGetFactoryName
PUBLIC 155bf0 0 CFPlugInInstanceGetInstanceData
PUBLIC 155c00 0 __CFPlugInInstanceDeallocate
PUBLIC 155c30 0 __CFPlugInInstanceCopyDescription
PUBLIC 155c40 0 -[__NSOrderedSetReversed indexOfObject:]
PUBLIC 155c90 0 -[__NSOrderedSetReversed objectAtIndex:]
PUBLIC 155d10 0 CFPlugInGetTypeID
PUBLIC 155d20 0 CFPlugInSetLoadOnDemand
PUBLIC 155da0 0 CFPlugInIsLoadOnDemand
PUBLIC 155dd0 0 _CFPlugInRemoveFactory
PUBLIC 155e50 0 _CFPropertyListCreateXMLDataWithExtras
PUBLIC 155e60 0 _CFPropertyListCreateSingleValue
PUBLIC 1562c0 0 _CFPropertyListCopyTopLevelKeys
PUBLIC 156480 0 __initStatics_block_invoke
PUBLIC 1564f0 0 CFRunArrayGetTypeID
PUBLIC 156530 0 _CFRunArrayCreateWithGuts
PUBLIC 156610 0 __CFRunArrayMakeNewList
PUBLIC 156710 0 CFRunArrayGetCount
PUBLIC 156720 0 CFRunArrayGetValueAtRunArrayIndex
PUBLIC 156760 0 CFRunArrayDelete
PUBLIC 156770 0 __CFRunArrayEqual
PUBLIC 156780 0 __CFRunArrayHash
PUBLIC 156790 0 __CFRunArrayCopyDescription
PUBLIC 156840 0 __CFGetProcessPortCount
PUBLIC 1568d0 0 __CFStopAllThreads
PUBLIC 1569d0 0 __CFRestartAllThreads
PUBLIC 156aa0 0 _CFRunLoopError_MainThreadHasExited
PUBLIC 156ab0 0 __CFRunLoopDump
PUBLIC 156b10 0 _CFRunLoopCacheLookup
PUBLIC 156c00 0 _CFRunLoopGetButDontCreateCurrent
PUBLIC 156c80 0 _CFRunLoopIsCurrent
PUBLIC 156cb0 0 _CFRunLoopGet1
PUBLIC 156cc0 0 _CFRunLoopGet2b
PUBLIC 156cd0 0 _CFRunLoopError_RunCalledWithInvalidMode
PUBLIC 156ce0 0 __CFRunLoopRunSpecific_block_invoke
PUBLIC 156d10 0 __CFRunLoopWakeUp_block_invoke
PUBLIC 156d70 0 __CFRunLoopPerformBlock_block_invoke
PUBLIC 156dd0 0 __CFRunLoopAddSource_block_invoke
PUBLIC 156df0 0 __CFRunLoopAddObserver_block_invoke
PUBLIC 156e10 0 CFRunLoopContainsTimer
PUBLIC 156f00 0 __CFRunLoopAddTimer_block_invoke
PUBLIC 156f20 0 CFRunLoopSourceGetOrder
PUBLIC 156f60 0 CFRunLoopSourceIsSignalled
PUBLIC 156fc0 0 _CFRunLoopSourceWakeUpRunLoops
PUBLIC 157050 0 __CFRunLoopSourceWakeUpLoop
PUBLIC 157060 0 CFRunLoopObserverGetActivities
PUBLIC 1570a0 0 CFRunLoopObserverGetOrder
PUBLIC 1570e0 0 CFRunLoopObserverDoesRepeat
PUBLIC 157120 0 CFRunLoopObserverIsValid
PUBLIC 157160 0 CFRunLoopTimerGetOrder
PUBLIC 1571a0 0 CFRunLoopTimerGetTolerance
PUBLIC 157260 0 __CFRunLoopCopyDescription
PUBLIC 157330 0 __CFRunLoopKillOneTimer
PUBLIC 157370 0 __CFRunLoopModeCopyDescription
PUBLIC 157510 0 __THE_SYSTEM_HAS_NO_PORTS_AVAILABLE__
PUBLIC 157520 0 __copy_helper_block_
PUBLIC 157540 0 __destroy_helper_block_
PUBLIC 157560 0 __THE_SYSTEM_HAS_NO_PORT_SETS_AVAILABLE__
PUBLIC 157580 0 __NO_SPACE__
PUBLIC 157590 0 __RESOURCE_SHORTAGE__
PUBLIC 1575a0 0 __CFRunLoopDoSource0
PUBLIC 157660 0 __CFRunLoopSourceCopyDescription
PUBLIC 1577b0 0 __CFRunLoopObserverCopyDescription
PUBLIC 1578d0 0 __CFRunLoopTimerCopyDescription
PUBLIC 157ca0 0 ____CFRunLoopDebugInfoForRunLoopTimer_block_invoke
PUBLIC 157d30 0 __CFRecordAllocationEvent
PUBLIC 157d50 0 _CFRuntimeGetClassWithTypeID
PUBLIC 157d70 0 _CFRuntimeUnregisterClassWithTypeID
PUBLIC 157db0 0 _CFEnableZombies
PUBLIC 157dd0 0 __CFRuntimeIsFreedObject
PUBLIC 157e50 0 __CFGenericTypeID
PUBLIC 157ee0 0 __CFGenericValidateType_
PUBLIC 157ef0 0 CFCopyTypeIDDescription
PUBLIC 157f20 0 _CFNonObjCRetain
PUBLIC 157f30 0 _CFNonObjCRelease
PUBLIC 157f40 0 _CFRelease
PUBLIC 158490 0 __CFRuntimeIsConstant
PUBLIC 1584b0 0 __CFRuntimeSetRC
PUBLIC 1584d0 0 _CFNonObjCEqual
PUBLIC 1587c0 0 _CFNonObjCHash
PUBLIC 158880 0 __THE_PROCESS_HAS_FORKED_AND_YOU_CANNOT_USE_THIS_COREFOUNDATION_FUNCTIONALITY___YOU_MUST_EXEC__
PUBLIC 1588c0 0 os_log_callback
PUBLIC 1588d0 0 __01123__
PUBLIC 158910 0 _CFRegisterThreadSanitizerTag
PUBLIC 158930 0 _CFAssignThreadSanitizerTag
PUBLIC 158950 0 -[_CFXNotificationRegistrationBase registrar]
PUBLIC 158980 0 -[_CFXNotificationRegistrationBase key]
PUBLIC 1589b0 0 -[_CFXNotificationRegistrationBase parent]
PUBLIC 1589d0 0 -[_CFXNotificationRegistrationBase .cxx_destruct]
PUBLIC 1589f0 0 ____NSArrayEnumerate_block_invoke
PUBLIC 158a70 0 __copy_helper_block_
PUBLIC 158ae0 0 __destroy_helper_block_
PUBLIC 158b40 0 ____NSArrayGetIndexPassingTest_block_invoke
PUBLIC 158bc0 0 __copy_helper_block_.23
PUBLIC 158c30 0 __destroy_helper_block_.24
PUBLIC 158c90 0 ____NSArrayGetIndexesPassingTest_block_invoke
PUBLIC 158d10 0 __copy_helper_block_.36
PUBLIC 158d80 0 __destroy_helper_block_.37
PUBLIC 158de0 0 +[__NSSetI automaticallyNotifiesObserversForKey:]
PUBLIC 158df0 0 -[__NSSetI clumpingFactor]
PUBLIC 1590a0 0 -[__NSSetI clumpingInterestingThreshold]
PUBLIC 159120 0 __copy_helper_block_
PUBLIC 159170 0 __destroy_helper_block_
PUBLIC 1591b0 0 +[__NSSetI __new::::]
PUBLIC 159450 0 __21+[__NSSetI __new::::]_block_invoke
PUBLIC 159560 0 __copy_helper_block_.20
PUBLIC 159580 0 __destroy_helper_block_.21
PUBLIC 1595a0 0 +[__NSSetI allocWithZone:]
PUBLIC 1595c0 0 __CLUMPINESS_block_invoke
PUBLIC 1595e0 0 CFServiceControllerGetRegisteredProvider
PUBLIC 159660 0 CFServiceControllerCanConnect
PUBLIC 1596f0 0 CFServiceControllerPerformService
PUBLIC 1599f0 0 CFServiceControllerSynchronizeServiceEntries
PUBLIC 159a10 0 CFServiceControllerCopyLoadedLocalizations
PUBLIC 159ab0 0 CFServiceControllerSetServicesEntries
PUBLIC 159b80 0 __CFServiceControllerMessagePortCallBack
PUBLIC 159e60 0 ____CFServiceControllerBeginPBSLoadForLocalizations_block_invoke
PUBLIC 159e70 0 __CFPasteboardStartServicingConnection
PUBLIC 15a080 0 ____CFPasteboardStartServicingConnection_block_invoke
PUBLIC 15a1a0 0 ____CFPasteboardStartServicingConnection_block_invoke_2
PUBLIC 15a1b0 0 _CFHandlePasteboardXPCEvent
PUBLIC 15aa20 0 ____CFPasteboardStartServicingConnection_block_invoke_3
PUBLIC 15ab60 0 __CFPasteboardSetRemotePasteboardClass
PUBLIC 15ab90 0 -[_CFPasteboardStore _initWithName:]
PUBLIC 15ad00 0 -[_CFPasteboardStore dealloc]
PUBLIC 15adc0 0 +[_CFPasteboardStore copyAllPasteboards]
PUBLIC 15ae70 0 _dictionaryInvokeBlock
PUBLIC 15ae90 0 __40+[_CFPasteboardStore copyAllPasteboards]_block_invoke
PUBLIC 15aeb0 0 +[_CFPasteboardStore pasteboardStoreWithName:createIfNecessary:]
PUBLIC 15afb0 0 __64+[_CFPasteboardStore pasteboardStoreWithName:createIfNecessary:]_block_invoke
PUBLIC 15afe0 0 +[_CFPasteboardStore _removePasteboardWithName:]
PUBLIC 15b020 0 -[_CFPasteboardStore performBarrier:]
PUBLIC 15b040 0 -[_CFPasteboardStore _onqueue_invalidateCachesWithCurrentGeneration]
PUBLIC 15b150 0 _setInvokeBlock
PUBLIC 15b170 0 __68-[_CFPasteboardStore _onqueue_invalidateCachesWithCurrentGeneration]_block_invoke
PUBLIC 15b230 0 __copy_helper_block_
PUBLIC 15b270 0 __destroy_helper_block_
PUBLIC 15b2a0 0 -[_CFPasteboardStore _onqueue_invalidateCurrentGenerationCacheEntries:inResponseToMessage:]
PUBLIC 15b530 0 __91-[_CFPasteboardStore _onqueue_invalidateCurrentGenerationCacheEntries:inResponseToMessage:]_block_invoke
PUBLIC 15b610 0 __copy_helper_block_.58
PUBLIC 15b680 0 __destroy_helper_block_.59
PUBLIC 15b6e0 0 -[_CFPasteboardStore _onqueue_noteMessageSenderNeedsCacheInvalidation:]
PUBLIC 15b760 0 -[_CFPasteboardStore _onqueue_nextGenerationCount]
PUBLIC 15b7a0 0 -[_CFPasteboardStore _onqueue_cacheForGeneration:]
PUBLIC 15b7d0 0 -[_CFPasteboardStore _onqueue_clearGenerationSpecificData]
PUBLIC 15b840 0 -[_CFPasteboardStore handleBeginGeneration:]
PUBLIC 15b8d0 0 __44-[_CFPasteboardStore handleBeginGeneration:]_block_invoke
PUBLIC 15ba00 0 __copy_helper_block_.76
PUBLIC 15ba40 0 __destroy_helper_block_.77
PUBLIC 15ba70 0 -[_CFPasteboardStore handleMakeGenerationLocal:]
PUBLIC 15ba80 0 -[_CFPasteboardStore handleNotifyHasEntries:]
PUBLIC 15bb00 0 __45-[_CFPasteboardStore handleNotifyHasEntries:]_block_invoke
PUBLIC 15bb60 0 __copy_helper_block_.81
PUBLIC 15bba0 0 __destroy_helper_block_.82
PUBLIC 15bbd0 0 -[_CFPasteboardStore handleGetCounts:]
PUBLIC 15bc60 0 __38-[_CFPasteboardStore handleGetCounts:]_block_invoke
PUBLIC 15bd10 0 __copy_helper_block_.86
PUBLIC 15bd60 0 __destroy_helper_block_.87
PUBLIC 15bda0 0 -[_CFPasteboardStore _onqueue_handleNewEntries:forMessage:shouldInvalidateClientMetadata:]
PUBLIC 15beb0 0 -[_CFPasteboardStore handleRegisterEntries:]
PUBLIC 15bf70 0 __44-[_CFPasteboardStore handleRegisterEntries:]_block_invoke
PUBLIC 15c310 0 __copy_helper_block_.104
PUBLIC 15c370 0 __destroy_helper_block_.105
PUBLIC 15c3c0 0 -[_CFPasteboardStore handleSetDataFlags:]
PUBLIC 15c510 0 __41-[_CFPasteboardStore handleSetDataFlags:]_block_invoke
PUBLIC 15c5b0 0 __copy_helper_block_.109
PUBLIC 15c600 0 __destroy_helper_block_.110
PUBLIC 15c640 0 __41-[_CFPasteboardStore handleSetDataFlags:]_block_invoke.113
PUBLIC 15c740 0 __copy_helper_block_.124
PUBLIC 15c7a0 0 __destroy_helper_block_.125
PUBLIC 15c7f0 0 -[_CFPasteboardStore requestDataForGeneration:itemIdentifier:flavor:inResponseToMessage:completionHandler:]
PUBLIC 15c860 0 __107-[_CFPasteboardStore requestDataForGeneration:itemIdentifier:flavor:inResponseToMessage:completionHandler:]_block_invoke
PUBLIC 15ca50 0 __107-[_CFPasteboardStore requestDataForGeneration:itemIdentifier:flavor:inResponseToMessage:completionHandler:]_block_invoke_2
PUBLIC 15cad0 0 __107-[_CFPasteboardStore requestDataForGeneration:itemIdentifier:flavor:inResponseToMessage:completionHandler:]_block_invoke_3
PUBLIC 15cc10 0 __copy_helper_block_.129
PUBLIC 15cc80 0 __destroy_helper_block_.130
PUBLIC 15cce0 0 __copy_helper_block_.132
PUBLIC 15cd50 0 __destroy_helper_block_.133
PUBLIC 15cdb0 0 __copy_helper_block_.138
PUBLIC 15ce10 0 __destroy_helper_block_.139
PUBLIC 15ce60 0 -[_CFPasteboardStore handleRequestData:]
PUBLIC 15cfe0 0 __40-[_CFPasteboardStore handleRequestData:]_block_invoke
PUBLIC 15d090 0 __copy_helper_block_.141
PUBLIC 15d0e0 0 __destroy_helper_block_.142
PUBLIC 15d120 0 -[_CFPasteboardStore handleResolvePromises:]
PUBLIC 15d1f0 0 __44-[_CFPasteboardStore handleResolvePromises:]_block_invoke
PUBLIC 15d260 0 __copy_helper_block_.147
PUBLIC 15d2b0 0 __destroy_helper_block_.148
PUBLIC 15d2f0 0 __44-[_CFPasteboardStore handleResolvePromises:]_block_invoke.150
PUBLIC 15d540 0 __44-[_CFPasteboardStore handleResolvePromises:]_block_invoke_2
PUBLIC 15d580 0 __copy_helper_block_.153
PUBLIC 15d5c0 0 __destroy_helper_block_.154
PUBLIC 15d5f0 0 __44-[_CFPasteboardStore handleResolvePromises:]_block_invoke.156
PUBLIC 15d620 0 __copy_helper_block_.157
PUBLIC 15d660 0 __destroy_helper_block_.158
PUBLIC 15d690 0 __copy_helper_block_.160
PUBLIC 15d6e0 0 __destroy_helper_block_.161
PUBLIC 15d720 0 -[_CFPasteboardStore resolveAllPromisesOwnedByProcessWithIdentifier:completionHandler:]
PUBLIC 15d780 0 __87-[_CFPasteboardStore resolveAllPromisesOwnedByProcessWithIdentifier:completionHandler:]_block_invoke
PUBLIC 15d8e0 0 __87-[_CFPasteboardStore resolveAllPromisesOwnedByProcessWithIdentifier:completionHandler:]_block_invoke_2
PUBLIC 15d8f0 0 __copy_helper_block_.163
PUBLIC 15d910 0 __destroy_helper_block_.164
PUBLIC 15d930 0 __copy_helper_block_.166
PUBLIC 15d970 0 __destroy_helper_block_.167
PUBLIC 15d9a0 0 -[_CFPasteboardStore handleRefreshCache:]
PUBLIC 15dab0 0 __41-[_CFPasteboardStore handleRefreshCache:]_block_invoke
PUBLIC 15dd30 0 __copy_helper_block_.172
PUBLIC 15dd80 0 __destroy_helper_block_.173
PUBLIC 15ddc0 0 -[_CFPasteboardStore handleCreate:]
PUBLIC 15de40 0 __35-[_CFPasteboardStore handleCreate:]_block_invoke
PUBLIC 15e010 0 __copy_helper_block_.179
PUBLIC 15e060 0 __destroy_helper_block_.180
PUBLIC 15e0a0 0 -[_CFPasteboardStore handleRelease:]
PUBLIC 15e180 0 __36-[_CFPasteboardStore handleRelease:]_block_invoke
PUBLIC 15e330 0 __copy_helper_block_.182
PUBLIC 15e380 0 __destroy_helper_block_.183
PUBLIC 15e3c0 0 -[_CFPasteboardStore handleUniquePromiseFile:]
PUBLIC 15e400 0 -[_CFPasteboardStore flushOwnerChangesIfNecessaryInResponseToMessage:completionHandler:]
PUBLIC 15e460 0 __88-[_CFPasteboardStore flushOwnerChangesIfNecessaryInResponseToMessage:completionHandler:]_block_invoke
PUBLIC 15e7c0 0 __88-[_CFPasteboardStore flushOwnerChangesIfNecessaryInResponseToMessage:completionHandler:]_block_invoke_2
PUBLIC 15e7d0 0 __copy_helper_block_.189
PUBLIC 15e7f0 0 __destroy_helper_block_.190
PUBLIC 15e810 0 __copy_helper_block_.192
PUBLIC 15e860 0 __destroy_helper_block_.193
PUBLIC 15e8a0 0 -[_CFPasteboardStore description]
PUBLIC 15e950 0 +[_CFGeneralPasteboardStore generalPasteboard]
PUBLIC 15e990 0 -[_CFGeneralPasteboardStore _initWithName:]
PUBLIC 15ea30 0 -[_CFGeneralPasteboardStore handleMakeGenerationLocal:]
PUBLIC 15eaa0 0 __55-[_CFGeneralPasteboardStore handleMakeGenerationLocal:]_block_invoke
PUBLIC 15eb10 0 __copy_helper_block_.251
PUBLIC 15eb30 0 __destroy_helper_block_.252
PUBLIC 15eb50 0 -[_CFGeneralPasteboardStore _onqueue_notifyRemoteGenerationBecameAvailable:]
PUBLIC 15ecf0 0 -[_CFGeneralPasteboardStore notifyRemoteGenerationBecameAvailable:]
PUBLIC 15ed50 0 __67-[_CFGeneralPasteboardStore notifyRemoteGenerationBecameAvailable:]_block_invoke
PUBLIC 15ee20 0 __67-[_CFGeneralPasteboardStore notifyRemoteGenerationBecameAvailable:]_block_invoke_2
PUBLIC 15ee60 0 __copy_helper_block_.260
PUBLIC 15ee80 0 __destroy_helper_block_.261
PUBLIC 15eea0 0 __67-[_CFGeneralPasteboardStore notifyRemoteGenerationBecameAvailable:]_block_invoke.263
PUBLIC 15eec0 0 __copy_helper_block_.264
PUBLIC 15eee0 0 __destroy_helper_block_.265
PUBLIC 15ef00 0 __copy_helper_block_.267
PUBLIC 15ef20 0 __destroy_helper_block_.268
PUBLIC 15ef40 0 -[_CFGeneralPasteboardStore _onqueue_nextGenerationCount]
PUBLIC 15efe0 0 -[_CFGeneralPasteboardStore _onqueue_cacheForGeneration:]
PUBLIC 15f0f0 0 -[_CFGeneralPasteboardStore _onqueue_handleNewEntries:forMessage:shouldInvalidateClientMetadata:]
PUBLIC 15f530 0 -[_CFGeneralPasteboardStore dealloc]
PUBLIC 15f590 0 -[_CFGeneralPasteboardStore listener:shouldAcceptNewConnection:]
PUBLIC 15f620 0 -[_CFGeneralPasteboardStore remotePasteboardAvailable:]
PUBLIC 15f640 0 -[_CFGeneralPasteboardStore pasteboardWillBeFetched:]
PUBLIC 15f650 0 -[_CFDragPasteboardStore dealloc]
PUBLIC 15f6b0 0 +[_CFDragPasteboardStore dragPasteboard]
PUBLIC 15f6f0 0 -[_CFDragPasteboardStore _isManagedPromiseDragForGeneration:itemIdentifier:]
PUBLIC 15f730 0 -[_CFDragPasteboardStore _onqueue_clearGenerationSpecificData]
PUBLIC 15f7b0 0 -[_CFDragPasteboardStore _onqueue_handleNewEntries:forMessage:shouldInvalidateClientMetadata:]
PUBLIC 15f900 0 -[_CFDragPasteboardStore _createUniqueFileURLInDirectory:withBaseName:extension:locale:]
PUBLIC 15fb30 0 -[_CFDragPasteboardStore handleUniquePromiseFile:]
PUBLIC 15fbf0 0 __50-[_CFDragPasteboardStore handleUniquePromiseFile:]_block_invoke
PUBLIC 15fca0 0 __copy_helper_block_.346
PUBLIC 15fcf0 0 __destroy_helper_block_.347
PUBLIC 15fd30 0 __50-[_CFDragPasteboardStore handleUniquePromiseFile:]_block_invoke.350
PUBLIC 15fe20 0 __50-[_CFDragPasteboardStore handleUniquePromiseFile:]_block_invoke_2
PUBLIC 160380 0 _CFStringCreateSubstringWithRange
PUBLIC 160450 0 __copy_helper_block_.360
PUBLIC 1604b0 0 __destroy_helper_block_.361
PUBLIC 160500 0 __copy_helper_block_.363
PUBLIC 160550 0 __destroy_helper_block_.364
PUBLIC 160590 0 -[_CFDragPasteboardStore requestDataForGeneration:itemIdentifier:flavor:inResponseToMessage:completionHandler:]
PUBLIC 160640 0 __111-[_CFDragPasteboardStore requestDataForGeneration:itemIdentifier:flavor:inResponseToMessage:completionHandler:]_block_invoke
PUBLIC 1607b0 0 __copy_helper_block_.368
PUBLIC 160800 0 __destroy_helper_block_.369
PUBLIC 160840 0 -[_CFPasteboardCache(CFRemotePasteboardSupport) prepareMetadata]
PUBLIC 160850 0 -[_CFPasteboardCache(CFRemotePasteboardSupport) prepareDataForItemIdentifier:flavor:]
PUBLIC 160860 0 -[_CFRemotePasteboardCache notifyRemotePateboardBecameAvailable:localGeneration:]
PUBLIC 1608e0 0 -[_CFRemotePasteboardCache prepareMetadata]
PUBLIC 160a10 0 __43-[_CFRemotePasteboardCache prepareMetadata]_block_invoke
PUBLIC 160ea0 0 __copy_helper_block_.399
PUBLIC 160ee0 0 __destroy_helper_block_.400
PUBLIC 160f10 0 -[_CFRemotePasteboardCache prepareDataForItemIdentifier:flavor:]
PUBLIC 1610a0 0 __64-[_CFRemotePasteboardCache prepareDataForItemIdentifier:flavor:]_block_invoke
PUBLIC 1612f0 0 __64-[_CFRemotePasteboardCache prepareDataForItemIdentifier:flavor:]_block_invoke_2
PUBLIC 161690 0 __copy_helper_block_.419
PUBLIC 1616d0 0 __destroy_helper_block_.420
PUBLIC 161700 0 __copy_helper_block_.432
PUBLIC 161740 0 __destroy_helper_block_.433
PUBLIC 161770 0 -[_CFRemotePasteboardCache state]
PUBLIC 161780 0 -[_CFPasteboardEntry(CFRemotePasteboardSupport) promiseDataWithFetchOperation:]
PUBLIC 161890 0 __79-[_CFPasteboardEntry(CFRemotePasteboardSupport) promiseDataWithFetchOperation:]_block_invoke
PUBLIC 1618a0 0 __copy_helper_block_.444
PUBLIC 1618c0 0 __destroy_helper_block_.445
PUBLIC 1618e0 0 __79-[_CFPasteboardEntry(CFRemotePasteboardSupport) promiseDataWithFetchOperation:]_block_invoke.449
PUBLIC 161a70 0 __79-[_CFPasteboardEntry(CFRemotePasteboardSupport) promiseDataWithFetchOperation:]_block_invoke_2
PUBLIC 161c10 0 __copy_helper_block_.456
PUBLIC 161c60 0 __destroy_helper_block_.457
PUBLIC 161ca0 0 __copy_helper_block_.459
PUBLIC 161cf0 0 __destroy_helper_block_.460
PUBLIC 161d30 0 -[_CFPasteboardClientInstanceID initWithConnection:]
PUBLIC 161da0 0 -[_CFPasteboardClientInstanceID dealloc]
PUBLIC 161e00 0 -[_CFPasteboardClientInstanceID description]
PUBLIC 161e90 0 -[_CFPasteboardClientInstanceID uuid]
PUBLIC 161eb0 0 -[_CFPasteboardClientInstanceID connection]
PUBLIC 161ed0 0 +[_NSRemotePasteboardFetchOperation initialize]
PUBLIC 161f30 0 -[_NSRemotePasteboardFetchOperation initWithProvider:]
PUBLIC 161fa0 0 -[_NSRemotePasteboardFetchOperation dealloc]
PUBLIC 162020 0 -[_NSRemotePasteboardFetchOperation isAsynchronous]
PUBLIC 162030 0 -[_NSRemotePasteboardFetchOperation isExecuting]
PUBLIC 162050 0 -[_NSRemotePasteboardFetchOperation isFinished]
PUBLIC 162070 0 -[_NSRemotePasteboardFetchOperation start]
PUBLIC 162110 0 __42-[_NSRemotePasteboardFetchOperation start]_block_invoke
PUBLIC 162380 0 __copy_helper_block_.500
PUBLIC 1623a0 0 __destroy_helper_block_.501
PUBLIC 1623c0 0 -[_NSRemotePasteboardFetchOperation discardData]
PUBLIC 162420 0 -[_NSRemotePasteboardFetchOperation description]
PUBLIC 162500 0 -[_NSRemotePasteboardFetchOperation data]
PUBLIC 162520 0 -[_NSRemotePasteboardFetchOperation setData:]
PUBLIC 162540 0 -[_NSRemotePasteboardFetchOperation provider]
PUBLIC 162560 0 -[_NSRemotePasteboardFetchOperation error]
PUBLIC 162580 0 -[_NSRemotePasteboardFetchOperation setError:]
PUBLIC 1625a0 0 -[_NSRemotePasteboardDataProvider initWithGeneration:itemIdentifier:flavorName:]
PUBLIC 162690 0 -[_NSRemotePasteboardDataProvider type]
PUBLIC 1626d0 0 -[_NSRemotePasteboardDataProvider setType:]
PUBLIC 162700 0 -[_NSRemotePasteboardDataProvider dealloc]
PUBLIC 162760 0 -[_NSRemotePasteboardDataProvider getDataWithCompletionBlock:]
PUBLIC 1628a0 0 __62-[_NSRemotePasteboardDataProvider getDataWithCompletionBlock:]_block_invoke
PUBLIC 162be0 0 __copy_helper_block_.566
PUBLIC 162c20 0 __destroy_helper_block_.567
PUBLIC 162c50 0 -[_NSRemotePasteboardDataProvider description]
PUBLIC 162ce0 0 -[_NSRemotePasteboardDataProvider uuid]
PUBLIC 162d00 0 -[_NSRemotePasteboardDataProvider setUuid:]
PUBLIC 162d20 0 _CFPasteboardRemotePasteboardBecameAvailable
PUBLIC 162d70 0 __handle_barrier_block_invoke
PUBLIC 162db0 0 __copy_helper_block_.608
PUBLIC 162dd0 0 __destroy_helper_block_.609
PUBLIC 162df0 0 __handle_barrier_block_invoke.611
PUBLIC 162e60 0 __copy_helper_block_.612
PUBLIC 162e80 0 __destroy_helper_block_.613
PUBLIC 162ea0 0 __handle_resolve_all_pboard_promises_block_invoke
PUBLIC 162ef0 0 __copy_helper_block_.623
PUBLIC 162f30 0 __destroy_helper_block_.624
PUBLIC 162f60 0 __handle_resolve_all_pboard_promises_block_invoke.627
PUBLIC 162f70 0 __copy_helper_block_.628
PUBLIC 162f90 0 __destroy_helper_block_.629
PUBLIC 162fb0 0 ___getRemotePasteboardClass_block_invoke
PUBLIC 1630a0 0 ___getRemotePasteboardClass_block_invoke_2
PUBLIC 163140 0 -[NSMutableDictionary removeObjectForKey:]
PUBLIC 163170 0 -[NSMutableDictionary setObject:forKey:]
PUBLIC 1631a0 0 -[NSMutableDictionary addObject:forKey:]
PUBLIC 163270 0 -[NSMutableDictionary addObjects:forKeys:count:]
PUBLIC 1633f0 0 -[NSMutableDictionary addObjects:forKeys:]
PUBLIC 163590 0 -[NSMutableDictionary invert]
PUBLIC 1637a0 0 -[NSMutableDictionary removeAllObjects]
PUBLIC 163990 0 -[NSMutableDictionary removeEntriesInDictionary:]
PUBLIC 163b70 0 -[NSMutableDictionary removeEntriesWithOptions:passingTest:]
PUBLIC 163df0 0 __60-[NSMutableDictionary removeEntriesWithOptions:passingTest:]_block_invoke
PUBLIC 163e40 0 __copy_helper_block_
PUBLIC 163e80 0 __destroy_helper_block_
PUBLIC 163eb0 0 -[NSMutableDictionary removeEntriesPassingTest:]
PUBLIC 163f30 0 -[NSMutableDictionary removeKeysForObject:]
PUBLIC 1641d0 0 -[NSMutableDictionary replaceObject:forKey:]
PUBLIC 1642a0 0 -[NSMutableDictionary replaceObjects:forKeys:count:]
PUBLIC 1643f0 0 -[NSMutableDictionary replaceObjects:forKeys:]
PUBLIC 164590 0 -[NSMutableDictionary setEntriesFromDictionary:]
PUBLIC 164790 0 -[NSMutableDictionary setObjects:forKeys:count:]
PUBLIC 1648e0 0 -[NSMutableDictionary setObjects:forKeys:]
PUBLIC 164a80 0 -[NSMutableDictionary __setObject:forKey:]
PUBLIC 164b60 0 -[NSMutableDictionary initWithCapacity:]
PUBLIC 164b90 0 -[NSMutableDictionary initWithObjects:forKeys:count:]
PUBLIC 164ce0 0 __CFSetCreateTransfer
PUBLIC 164e20 0 _CFSetGetKVOBit
PUBLIC 164e30 0 _CFSetSetKVOBit
PUBLIC 164e60 0 CFSetReplaceValue
PUBLIC 164f40 0 __CFSetEqual
PUBLIC 164f50 0 __CFSetHash
PUBLIC 164f60 0 __CFSetCopyDescription
PUBLIC 164f70 0 -[__NSISO88597TrigramKeySet dealloc]
PUBLIC 165000 0 -[__NSISO88597TrigramKeySet finalize]
PUBLIC 165090 0 -[__NSISO88597TrigramKeySet initWithKeys:keyLenghtInBytes:count:]
PUBLIC 1650a0 0 -[__NSISO88597TrigramKeySet isEmpty]
PUBLIC 1650b0 0 __CFSocketGetBytesAvailable
PUBLIC 165120 0 CFSocketCopyAddress
PUBLIC 165220 0 CFSocketGetContext
PUBLIC 165290 0 CFSocketSendData
PUBLIC 165440 0 CFSocketSetAddress
PUBLIC 165600 0 CFSocketConnectToAddress
PUBLIC 165940 0 CFSocketCreate
PUBLIC 165a20 0 CFSocketCreateWithSocketSignature
PUBLIC 165b70 0 CFSocketCreateConnectedToSocketSignature
PUBLIC 165cc0 0 CFSocketRegisterValue
PUBLIC 165db0 0 __CFSocketValidateSignature
PUBLIC 165f20 0 __CFSocketSendNameRegistryRequest
PUBLIC 166050 0 CFSocketCopyRegisteredValue
PUBLIC 166130 0 CFSocketRegisterSocketSignature
PUBLIC 166270 0 CFSocketUnregister
PUBLIC 166340 0 CFSocketCopyRegisteredSocketSignature
PUBLIC 1665c0 0 CFSocketSetDefaultNameRegistryPortNumber
PUBLIC 1665d0 0 CFSocketGetDefaultNameRegistryPortNumber
PUBLIC 1665e0 0 _CFSocketGetThread
PUBLIC 1665f0 0 __CFSocketCopyDescription
PUBLIC 166770 0 __CFSocketHandleNameRegistryReply
PUBLIC 166860 0 -[__NSWindows1251TrigramKeySet dealloc]
PUBLIC 1668f0 0 -[__NSWindows1251TrigramKeySet finalize]
PUBLIC 166980 0 -[__NSWindows1251TrigramKeySet initWithKeys:keyLenghtInBytes:count:]
PUBLIC 166990 0 -[__NSWindows1251TrigramKeySet isEmpty]
PUBLIC 1669a0 0 _CFBundleCopyLocaleAbbreviationForRegionCode
PUBLIC 1669f0 0 _CFBundleGetLanguageCodeForLocalization
PUBLIC 166c30 0 _CFBundleGetRegionCodeForLocalization
PUBLIC 166db0 0 CFBundleCopyLocalizationsForURL
PUBLIC 166f10 0 _CFBundleSetDefaultLocalization
PUBLIC 166f60 0 __copy_helper_block_
PUBLIC 166f80 0 __destroy_helper_block_
PUBLIC 166fa0 0 _CFBundleLanguageLookupDebug
PUBLIC 1671d0 0 ___CFBundleCopyXPCBootstrapMainBundleLanguages_block_invoke
PUBLIC 167260 0 ___CFBundleCopyXPCBootstrapMainBundleLanguages_block_invoke_2
PUBLIC 1672d0 0 _onelineFormatArray
PUBLIC 167360 0 _onelineFormatArrayApply
PUBLIC 167390 0 __NSOrderedSetChunkIterate
PUBLIC 1676c0 0 ____NSOrderedSetEnumerate_block_invoke
PUBLIC 167740 0 __copy_helper_block_
PUBLIC 1677b0 0 __destroy_helper_block_
PUBLIC 167810 0 ____NSOrderedSetGetIndexPassingTest_block_invoke
PUBLIC 167890 0 __copy_helper_block_.23
PUBLIC 167900 0 __destroy_helper_block_.24
PUBLIC 167960 0 __NSOrderedSetGetIndexesPassingTest
PUBLIC 168030 0 ____NSOrderedSetGetIndexesPassingTest_block_invoke
PUBLIC 1680b0 0 __copy_helper_block_.36
PUBLIC 168120 0 __destroy_helper_block_.37
PUBLIC 168180 0 _CFSocketStreamSetAuthenticatesServerCertificateDefault
PUBLIC 1681a0 0 _CFSocketStreamGetAuthenticatesServerCertificateDefault
PUBLIC 1681c0 0 _CFSocketStreamPairSetAuthenticatesServerCertificate
PUBLIC 168200 0 CFStreamCreatePairWithSocket
PUBLIC 168290 0 CFStreamCreatePairWithPeerSocketSignature
PUBLIC 168310 0 _CFStreamErrorFromError
PUBLIC 1683d0 0 _CFErrorFromStreamError
PUBLIC 168500 0 __CFSortIndexes_block_invoke
PUBLIC 1686c0 0 __copy_helper_block_
PUBLIC 1686e0 0 __destroy_helper_block_
PUBLIC 168700 0 ____CFSortIndexesN_block_invoke.29
PUBLIC 168790 0 __copy_helper_block_.30
PUBLIC 1687b0 0 __destroy_helper_block_.31
PUBLIC 1687d0 0 ____CFSortIndexesN_block_invoke.33
PUBLIC 168850 0 __copy_helper_block_.34
PUBLIC 168870 0 __destroy_helper_block_.35
PUBLIC 168890 0 -[_NSKoreanBigramKeySet dealloc]
PUBLIC 168920 0 -[_NSKoreanBigramKeySet finalize]
PUBLIC 1689b0 0 -[_NSKoreanBigramKeySet initWithKeys:keyLenghtInBytes:count:]
PUBLIC 1689c0 0 -[_NSKoreanBigramKeySet isEmpty]
PUBLIC 1689d0 0 __CFStorageGetCapacity
PUBLIC 168a10 0 __CFStorageGetNodeCapacity
PUBLIC 168a70 0 __CFStorageGetValueSize
PUBLIC 168a80 0 CFStorageGetConstValueAtIndex
PUBLIC 168db0 0 _CFStorageFastEnumeration
PUBLIC 168e20 0 CFStorageApplyFunction
PUBLIC 168ec0 0 CFStorageApplyBlock
PUBLIC 168f30 0 __CFStorageApplyFunction_block_invoke
PUBLIC 168f70 0 __CFStorageEnumerateNodesInByteRangeWithBlock
PUBLIC 1694a0 0 __CFStorageSetAlwaysFrozen
PUBLIC 1694b0 0 __CFStorageEqual
PUBLIC 169650 0 __CFStorageHash
PUBLIC 169680 0 __CFStorageCopyDescription
PUBLIC 169740 0 __CFStorageDescribeNode
PUBLIC 169870 0 __CFStorageInsertFrozen
PUBLIC 16a1c0 0 __CFStorageDeleteFrozen
PUBLIC 16a660 0 ____CFStorageEnumerateNodesInByteRangeWithBlock_block_invoke
PUBLIC 16a6e0 0 __copy_helper_block_
PUBLIC 16a720 0 __destroy_helper_block_
PUBLIC 16a750 0 -[_CFStreamDelegate initWithStreamEvents:callback:context:]
PUBLIC 16a810 0 -[_CFStreamDelegate dealloc]
PUBLIC 16a860 0 -[_CFStreamDelegate stream:handleEvent:]
PUBLIC 16a8a0 0 _CFStreamGetInfoPointer
PUBLIC 16a8c0 0 CFReadStreamGetError
PUBLIC 16a960 0 CFReadStreamGetBuffer
PUBLIC 16ad70 0 _CFStreamCopyProperty
PUBLIC 16adb0 0 _CFStreamSetProperty
PUBLIC 16adf0 0 _CFReadStreamGetClient
PUBLIC 16ae10 0 _CFWriteStreamGetClient
PUBLIC 16ae30 0 CFReadStreamCopyDispatchQueue
PUBLIC 16ae80 0 CFWriteStreamCopyDispatchQueue
PUBLIC 16aed0 0 _CFReadStreamCopyRunLoopsAndModes
PUBLIC 16af30 0 _CFWriteStreamCopyRunLoopsAndModes
PUBLIC 16af90 0 _CFReadStreamClearEvent
PUBLIC 16afb0 0 _CFWriteStreamSignalEventDelayed
PUBLIC 16afc0 0 CFWriteStreamGetInfoPointer
PUBLIC 16afe0 0 _CFStreamInstanceSize
PUBLIC 16aff0 0 __CFStreamCopyDescription
PUBLIC 16b0b0 0 _legacyStreamRunLoop_workThread
PUBLIC 16b1c0 0 _perform
PUBLIC 16b1d0 0 _CFStringGetLocalizedFormattingInfo
PUBLIC 16b210 0 ___CFStringGetLocalizedFormattingInfo_block_invoke
PUBLIC 16b2b0 0 _CFStringGetInputIdentifierFormatterMappingFromDescriptor
PUBLIC 16b320 0 ___CFStringGetInputIdentifierFormatterMappingFromDescriptor_block_invoke
PUBLIC 16b4e0 0 __CFStringCopyCharSetWithPattern
PUBLIC 16b5c0 0 _CFStringGetRelevantLocaleInfoFromLocaleSummary
PUBLIC 16b810 0 _CFStringContentsInCharacterSet
PUBLIC 16b8b0 0 CFStreamCreateBoundPair
PUBLIC 16b9f0 0 boundPairCommonFinalize
PUBLIC 16ba70 0 _emptyPerform
PUBLIC 16ba80 0 boundPairReadCreate
PUBLIC 16baa0 0 boundPairReadFinalize
PUBLIC 16bb10 0 boundPairReadOpen
PUBLIC 16bba0 0 boundPairReadOpenComplete
PUBLIC 16bc20 0 boundPairRead
PUBLIC 16bf40 0 boundPairReadCanRead
PUBLIC 16bf80 0 boundPairReadClose
PUBLIC 16c000 0 boundPairReadCopyProperty
PUBLIC 16c070 0 boundPairReadSetProperty
PUBLIC 16c110 0 boundPairReadSchedule
PUBLIC 16c150 0 boundPairReadUnschedule
PUBLIC 16c170 0 _wakeRunLoops
PUBLIC 16c210 0 boundPairWriteCreate
PUBLIC 16c230 0 boundPairWriteFinalize
PUBLIC 16c290 0 boundPairWriteOpen
PUBLIC 16c310 0 boundPairWriteOpenComplete
PUBLIC 16c370 0 boundPairWrite
PUBLIC 16c600 0 boundPairCanWrite
PUBLIC 16c630 0 boundPairWriteClose
PUBLIC 16c6c0 0 boundPairWriteRequestEvents
PUBLIC 16c6d0 0 boundPairWriteSchedule
PUBLIC 16c710 0 boundPairWriteUnschedule
PUBLIC 16c730 0 _CFStringEqual
PUBLIC 16c740 0 CFStringHashNSString
PUBLIC 16c980 0 __CFStringCreateImmutableFunnel2
PUBLIC 16c9b0 0 CFStringCreateWithPascalStringNoCopy
PUBLIC 16c9f0 0 CFStringCreateStringWithValidatedFormat
PUBLIC 16ca90 0 _CFStringCopyBundleUnloadingProtectedString
PUBLIC 16cad0 0 _CFStringSlowPathCopyBundleUnloadingProtectedString
PUBLIC 16cec0 0 __CFStringMakeConstantString
PUBLIC 16d280 0 __cStrCopyDescription
PUBLIC 16d300 0 __cStrEqual
PUBLIC 16d320 0 __cStrHash
PUBLIC 16d430 0 _CFStrSetDesiredCapacity
PUBLIC 16d450 0 __CFStringNoteErrors
PUBLIC 16d4a0 0 __rangeCopyDescription
PUBLIC 16d4d0 0 __rangeEqual
PUBLIC 16d4f0 0 __CFStringIsRegionalIndicatorAtIndex
PUBLIC 16d690 0 __CFStringIsWavingWhiteFlagCluster
PUBLIC 16d820 0 __CFStringIsRainbowCluster
PUBLIC 16d9b0 0 __CFStringIsGenderModifierBaseCluster
PUBLIC 16dc90 0 __CFStringIsGenderModifierCluster
PUBLIC 16de50 0 __CFStringIsProfessionBaseCluster
PUBLIC 16e020 0 __CFStringIsProfessionModifierCluster
PUBLIC 16e300 0 __CFStringIsFamilySequenceCluster
PUBLIC 16e4d0 0 CFStringGetSmallestEncoding
PUBLIC 16e6c0 0 CFStringAppendPascalString
PUBLIC 16e6e0 0 _CFStringAppendFormatAndArgumentsAux
PUBLIC 16e710 0 __CFStringFindFormatSpecifiersInString
PUBLIC 16f290 0 CFShowStr
PUBLIC 16f570 0 __CFStringIsBaseForFitzpatrickModifiers
PUBLIC 16f680 0 ____CFStringGetGenderModifierBaseCharacterSet_block_invoke
PUBLIC 16f8d0 0 ____CFStringGetProfessionModifierBaseCharacterSet_block_invoke
PUBLIC 16fa20 0 __CFStringValidateFormat
PUBLIC 16ff70 0 _CFStringHasStrongRTL
PUBLIC 1702b0 0 __CFStringSetUpFormatAndSpecBuffers
PUBLIC 1707f0 0 CFStringEncodingRegisterFallbackProcedures
PUBLIC 170870 0 __CFDefaultToBytesFallbackProc
PUBLIC 170a80 0 __CFDefaultToUnicodeFallbackProc
PUBLIC 170aa0 0 CFStringEncodingListOfAvailableEncodings
PUBLIC 170c90 0 __CFStringEncodingComparator
PUBLIC 170cb0 0 __CFToBytesStandardEightBitWrapper
PUBLIC 170d70 0 __CFToUnicodeStandardEightBitWrapper
PUBLIC 170e50 0 __CFToCanonicalUnicodeStandardEightBitWrapper
PUBLIC 171010 0 __CFToBytesCheapMultiByteWrapper
PUBLIC 1711c0 0 __CFToCanonicalUnicodeCheapMultiByteWrapper
PUBLIC 171380 0 +[_CFXNotificationRegistrationContainer childClass]
PUBLIC 1713a0 0 -[_CFXNotificationRegistrationContainer resetChildren]
PUBLIC 171450 0 -[_CFXNotificationRegistrationContainer enumerate:]
PUBLIC 171460 0 -[_NSChineseBigramKeySet dealloc]
PUBLIC 1714f0 0 -[_NSChineseBigramKeySet finalize]
PUBLIC 171580 0 -[_NSChineseBigramKeySet initWithKeys:keyLenghtInBytes:count:]
PUBLIC 171590 0 -[_NSChineseBigramKeySet isEmpty]
PUBLIC 1715a0 0 _CFStringEncodingSetForceASCIICompatibility
PUBLIC 1715b0 0 _CFStringGetFileSystemRepresentationWithErrorStatus
PUBLIC 1718d0 0 _CFStringGetInstallationEncodingAndRegion
PUBLIC 171a50 0 _CFStringSaveUserDefaultEncoding
PUBLIC 171c00 0 __CFStringScanHex
PUBLIC 1720e0 0 CFStringTokenizerCopyBestStringLanguage
PUBLIC 172150 0 CFStringTokenizerGoToTokenAtIndex
PUBLIC 172170 0 CFStringTokenizerCopyCurrentTokenAttribute
PUBLIC 172190 0 CFStringTokenizerGetCurrentSubTokens
PUBLIC 1721b0 0 CFStringTokenizerCopyBestStringLanguageWithHints
PUBLIC 172220 0 _CFStringTokenizerCopyPossibleStringLanguages
PUBLIC 172290 0 _CFStringTokenizerTokenizeCompoundWord
PUBLIC 1722b0 0 _CFStringTokenizerGetDerivedTokens
PUBLIC 1722d0 0 _CFStringTokenizerGetNextBestTokens
PUBLIC 1722f0 0 _CFStringTokenizerCreateNamePartsArrayWithStringAsCompositeName
PUBLIC 172310 0 _CFStringTokenizerCreatePossibleNamePartsArrayWithStringAsCompositeName
PUBLIC 172330 0 _CFStringTokenizerGetCurrentTokenPartOfSpeech
PUBLIC 172340 0 _CFStringTokenizerSetMetadata
PUBLIC 172360 0 _CFStringTokenizerCreateCurrentTokenLemma
PUBLIC 172370 0 _CFStringTokenizerSetLocale
PUBLIC 172390 0 _CFStringTokenizerSetTokenizerAttribute
PUBLIC 1723b0 0 _CFStringTokenizerGetTokenizerAttribute
PUBLIC 1723d0 0 ____CFSTLoadCoreNLP_block_invoke
PUBLIC 172850 0 -[__NSWindows1255TrigramKeySet dealloc]
PUBLIC 1728e0 0 -[__NSWindows1255TrigramKeySet finalize]
PUBLIC 172970 0 -[__NSWindows1255TrigramKeySet initWithKeys:keyLenghtInBytes:count:]
PUBLIC 172980 0 -[__NSWindows1255TrigramKeySet isEmpty]
PUBLIC 172990 0 CFStringTransform
PUBLIC 172cf0 0 __CFStringTransformCreate
PUBLIC 1733a0 0 __CFStringReplaceableLength
PUBLIC 1733b0 0 __CFStringReplaceableCharAt
PUBLIC 173490 0 __CFStringReplaceableChar32At
PUBLIC 173680 0 __CFStringReplaceableReplace
PUBLIC 173770 0 __CFStringReplaceableExtract
PUBLIC 1739f0 0 __CFStringReplaceableCopy
PUBLIC 173ab0 0 -[__NSWindows1253TrigramKeySet dealloc]
PUBLIC 173b40 0 -[__NSWindows1253TrigramKeySet finalize]
PUBLIC 173bd0 0 -[__NSWindows1253TrigramKeySet initWithKeys:keyLenghtInBytes:count:]
PUBLIC 173be0 0 -[__NSWindows1253TrigramKeySet isEmpty]
PUBLIC 173bf0 0 CFMutableStringOpenUText
PUBLIC 173c50 0 CFAttributedStringOpenUText
PUBLIC 173cb0 0 CFMutableAttributedStringOpenUText
PUBLIC 173d10 0 __CFAttributedStringLength
PUBLIC 173d20 0 __CFAttributedStringAccess
PUBLIC 173d60 0 __CFAttributedStringExtract
PUBLIC 173db0 0 __CFAttributedStringReplace
PUBLIC 174020 0 __CFAttributedStringCopy
PUBLIC 174270 0 doExtract
PUBLIC 174490 0 __CFStringExtract
PUBLIC 1744b0 0 __CFStringReplace
PUBLIC 1746f0 0 __CFStringCopy
PUBLIC 174900 0 CFStringGetListOfAvailableEncodings
PUBLIC 174910 0 ____CFCarbonCore_GetTextEncodingName_block_invoke
PUBLIC 174930 0 ____CFCarbonCore_TECGetTextEncodingFromInternetName_block_invoke
PUBLIC 174950 0 ____CFCarbonCore_GetTextEncodingBase_block_invoke
PUBLIC 174970 0 ____CFCarbonCore_GetTextEncodingFormat_block_invoke
PUBLIC 174990 0 ____CFCarbonCore_CreateTextEncoding_block_invoke
PUBLIC 1749b0 0 ____CFCarbonCore_TECGetTextEncodingInternetName_block_invoke
PUBLIC 1749d0 0 ____CFCarbonCore_NearestMacTextEncodings_block_invoke
PUBLIC 1749f0 0 _CFCreateContainerURLForSecurityApplicationIdentifierGroupIdentifierAndUser
PUBLIC 174b80 0 _CFCreateContainerURLForSecurityApplicationGroupIdentifier
PUBLIC 174ba0 0 -[__NSOrderedSetM replaceObjectAtIndex:withObject:]
PUBLIC 174d40 0 +[__NSOrderedSetM automaticallyNotifiesObserversForKey:]
PUBLIC 174d50 0 -[__NSOrderedSetM countForObject:]
PUBLIC 174dd0 0 -[__NSOrderedSetM setObject:atIndex:]
PUBLIC 174fb0 0 +[__NSOrderedSetM allocWithZone:]
PUBLIC 174fd0 0 CFTreeGetChildren
PUBLIC 175000 0 CFTreePrependChild
PUBLIC 175040 0 CFTreeInsertSibling
PUBLIC 175090 0 CFTreeSortChildren
PUBLIC 175220 0 __CFTreeCompareValues
PUBLIC 175240 0 __CFTreeDeallocate
PUBLIC 1752f0 0 __CFTreeCopyDescription
PUBLIC 1753d0 0 _CFURLCStringIsPromiseName
PUBLIC 175420 0 _CFURLPromiseSetPhysicalURL
PUBLIC 175490 0 _CFURLPromiseCreateProperties
PUBLIC 175540 0 _CFURLCopyPropertiesOfPromiseAtURL
PUBLIC 175840 0 _CFURLCopyLogicalNameOfPromiseAtURL
PUBLIC 175940 0 _CFURLCopyLogicalURLOfPromiseAtURL
PUBLIC 175a60 0 _CFURLCopyPromiseNameOfLogicalURL
PUBLIC 175df0 0 _CFURLCopyPromiseURLOfLogicalURL
PUBLIC 175e70 0 _CFURLPromiseCopyResourcePropertyForKey
PUBLIC 175f40 0 _CFURLPromiseSetResourcePropertyForKey
PUBLIC 175f50 0 _CFPrefsCopyUserForContainer
PUBLIC 176010 0 _CFPrefsExtractQuadrupleFromPathIfPossible
PUBLIC 1768b0 0 _CFPreferencesAlwaysUseVolatileUserDomains
PUBLIC 1768c0 0 _CFPrefsCreateCacheKeyForQuintuplet
PUBLIC 176de0 0 -[CFPrefsSource initWithContainingPreferences:]
PUBLIC 176e70 0 -[CFPrefsSource alreadylocked_addPreferencesObserver:]
PUBLIC 176f40 0 -[CFPrefsSource addPreferencesObserver:]
PUBLIC 176fa0 0 -[CFPrefsSource forEachObserver:]
PUBLIC 177180 0 -[CFPrefsSource alreadylocked_removePreferencesObserver:]
PUBLIC 177230 0 -[CFPrefsSource removePreferencesObserver:]
PUBLIC 177290 0 -[CFPrefsSource alreadylocked_updateObservingRemoteChanges]
PUBLIC 1772a0 0 -[CFPrefsSource handleRemoteChangeNotificationForDomainIdentifier:]
PUBLIC 1772b0 0 -[CFPrefsSource alreadylocked_setValues:forKeys:count:from:]
PUBLIC 177520 0 -[CFPrefsSource setValues:forKeys:count:removeValuesForKeys:count:from:]
PUBLIC 177730 0 __72-[CFPrefsSource setValues:forKeys:count:removeValuesForKeys:count:from:]_block_invoke
PUBLIC 1777a0 0 __copy_helper_block_
PUBLIC 1777e0 0 __destroy_helper_block_
PUBLIC 177810 0 -[CFPrefsSource setValues:forKeys:count:from:]
PUBLIC 177830 0 -[CFPrefsSource setValue:forKey:from:]
PUBLIC 177890 0 -[CFPrefsSource lockObservers]
PUBLIC 1778b0 0 -[CFPrefsSource unlockObservers]
PUBLIC 1778d0 0 -[CFPrefsSource _notifyObserversOfChangeFromValuesForKeys:toValuesForKeys:]
PUBLIC 177930 0 __75-[CFPrefsSource _notifyObserversOfChangeFromValuesForKeys:toValuesForKeys:]_block_invoke
PUBLIC 177950 0 __copy_helper_block_.101
PUBLIC 177990 0 __destroy_helper_block_.102
PUBLIC 1779c0 0 -[CFPrefsSource replaceAllValuesWithValues:forKeys:count:from:]
PUBLIC 177c00 0 -[CFPrefsSource removeAllValues_from:]
PUBLIC 177c20 0 -[CFPrefsSource alreadylocked_copyValueForKey:]
PUBLIC 177de0 0 -[CFPrefsSource copyValueForKey:]
PUBLIC 177e40 0 -[CFPrefsSource alreadylocked_requestNewData]
PUBLIC 177e90 0 -[CFPrefsSource setConfigurationPath:]
PUBLIC 177ea0 0 -[CFPrefsSource setStoreName:]
PUBLIC 177eb0 0 -[CFPrefsSource mergeIntoDictionary:sourceDictionary:]
PUBLIC 177f70 0 __54-[CFPrefsSource mergeIntoDictionary:sourceDictionary:]_block_invoke
PUBLIC 177fa0 0 __copy_helper_block_.114
PUBLIC 177fc0 0 __destroy_helper_block_.115
PUBLIC 177fe0 0 -[CFPrefsSource fullCloudSynchronizeWithCompletionHandler:]
PUBLIC 177ff0 0 -[CFPrefsSource handleReply:toRequestNewDataMessage:onConnection:retryCount:error:]
PUBLIC 178000 0 -[CFPrefsSource alreadylocked_generationCount]
PUBLIC 178020 0 -[CFPrefsSource generationCount]
PUBLIC 178040 0 -[CFPrefsSource isVolatile]
PUBLIC 178050 0 -[CFPrefsSource alreadylocked_clearCache]
PUBLIC 178060 0 -[CFPrefsSource setDaemonCacheEnabled:]
PUBLIC 178070 0 -[CFPrefsSource setAccessRestricted:]
PUBLIC 178080 0 -[CFPrefsSource userIdentifier]
PUBLIC 178090 0 -[CFPrefsSource domainIdentifier]
PUBLIC 1780a0 0 -[CFPrefsSource isByHost]
PUBLIC 1780b0 0 -[CFPrefsSource container]
PUBLIC 1780c0 0 -[CFPrefsSource description]
PUBLIC 178280 0 -[CFPrefsSource copyOSLogDescription]
PUBLIC 1783c0 0 -[_CFXPreferences(SourceAdditions) withSourceForIdentifier:user:byHost:container:cloud:perform:]
PUBLIC 178810 0 __96-[_CFXPreferences(SourceAdditions) withSourceForIdentifier:user:byHost:container:cloud:perform:]_block_invoke
PUBLIC 178860 0 __96-[_CFXPreferences(SourceAdditions) withSourceForIdentifier:user:byHost:container:cloud:perform:]_block_invoke_2
PUBLIC 1788d0 0 __96-[_CFXPreferences(SourceAdditions) withSourceForIdentifier:user:byHost:container:cloud:perform:]_block_invoke_3
PUBLIC 1788e0 0 __96-[_CFXPreferences(SourceAdditions) withSourceForIdentifier:user:byHost:container:cloud:perform:]_block_invoke_4
PUBLIC 1788f0 0 __Block_byref_object_copy_
PUBLIC 178910 0 __Block_byref_object_dispose_
PUBLIC 178930 0 __96-[_CFXPreferences(SourceAdditions) withSourceForIdentifier:user:byHost:container:cloud:perform:]_block_invoke.215
PUBLIC 178b20 0 __useVolatileDomainsForUser
PUBLIC 178cf0 0 __copy_helper_block_.228
PUBLIC 178d30 0 __destroy_helper_block_.229
PUBLIC 178d60 0 -[_CFXPreferences(SourceAdditions) withNamedVolatileSourceForIdentifier:perform:]
PUBLIC 178ed0 0 __81-[_CFXPreferences(SourceAdditions) withNamedVolatileSourceForIdentifier:perform:]_block_invoke
PUBLIC 178f80 0 __copy_helper_block_.236
PUBLIC 178fc0 0 __destroy_helper_block_.237
PUBLIC 178ff0 0 -[_CFXPreferences(SourceAdditions) alreadylocked_withSources:]
PUBLIC 179010 0 -[_CFXPreferences(SourceAdditions) withSources:]
PUBLIC 179080 0 -[_CFXPreferences(SourceAdditions) alreadylocked_withNamedVolatileSources:]
PUBLIC 1790a0 0 -[_CFXPreferences(SourceAdditions) withNamedVolatileSources:]
PUBLIC 179110 0 -[_CFXPreferences(SourceAdditions) assertEquivalence:ofIdentifiers:users:hosts:containers:managedFlags:cloudFlags:]
PUBLIC 179530 0 __115-[_CFXPreferences(SourceAdditions) assertEquivalence:ofIdentifiers:users:hosts:containers:managedFlags:cloudFlags:]_block_invoke
PUBLIC 179600 0 __copy_helper_block_.257
PUBLIC 179620 0 __destroy_helper_block_.258
PUBLIC 179640 0 __115-[_CFXPreferences(SourceAdditions) assertEquivalence:ofIdentifiers:users:hosts:containers:managedFlags:cloudFlags:]_block_invoke.260
PUBLIC 179650 0 __copy_helper_block_.261
PUBLIC 179670 0 __destroy_helper_block_.262
PUBLIC 179690 0 __115-[_CFXPreferences(SourceAdditions) assertEquivalence:ofIdentifiers:users:hosts:containers:managedFlags:cloudFlags:]_block_invoke.265
PUBLIC 1796a0 0 __copy_helper_block_.266
PUBLIC 1796c0 0 __destroy_helper_block_.267
PUBLIC 1796e0 0 ___CFPrefsCurrentPID_block_invoke
PUBLIC 179700 0 _CFURLSetCompatibility
PUBLIC 179710 0 CFShowURL
PUBLIC 1798a0 0 _CFURLInitWithURLString
PUBLIC 1799a0 0 _CFURLCopyFileURL
PUBLIC 179cd0 0 CFURLCreateData
PUBLIC 179d10 0 _CFURLInitAbsoluteURLWithBytes
PUBLIC 179e40 0 CFURLCopyStrictPath
PUBLIC 179ee0 0 __CFURLReservedPtr
PUBLIC 179f00 0 __CFURLSetReservedPtr
PUBLIC 179f80 0 _CFURLCreateCurrentDirectoryURL
PUBLIC 17a000 0 _CFURLInitWithFileSystemPathRelativeToBase
PUBLIC 17a100 0 URLPathToHFSPath
PUBLIC 17a470 0 POSIXPathToURLPath
PUBLIC 17a5a0 0 _CFGetFSSpecFromURL
PUBLIC 17a640 0 _CFCreateURLFromFSSpec
PUBLIC 17a740 0 _CFURLCopyExtendedPropertyListPrimitive
PUBLIC 17a8a0 0 _CFURLCopyExtendedPropertyListRepresentation
PUBLIC 17a9a0 0 _CFURLCopyResourcePropertiesForKeysFromCache
PUBLIC 17ab10 0 _CFURLCacheResourcePropertyForKey
PUBLIC 17ac90 0 _CFURLCacheResourcePropertiesForKeys
PUBLIC 17ae10 0 _CFURLCreateFileReferenceURLFromIDs
PUBLIC 17ae70 0 _CFURLVolumeIdentifierGetVolumeRefNum
PUBLIC 17aec0 0 _CFURLIsProtectedDirectory
PUBLIC 17b1b0 0 ___CFURLIsProtectedDirectory_block_invoke
PUBLIC 17b4c0 0 _CFURLAttachSecurityScopeToFileURL
PUBLIC 17b510 0 _CFURLCopySecurityScopeFromFileURL
PUBLIC 17b560 0 _CFURLSetPermanentResourcePropertyForKey
PUBLIC 17b5c0 0 _CFURLFileCacheGetFinderInfo
PUBLIC 17b610 0 CFURLStartAccessingSecurityScopedResource
PUBLIC 17b660 0 CFURLStopAccessingSecurityScopedResource
PUBLIC 17b6a0 0 __CFURLCopyDescription
PUBLIC 17b800 0 CreateTruncatedURLString
PUBLIC 17b8b0 0 ____CFCoreServicesInternal__FileCacheCreateShallowCopy_block_invoke
PUBLIC 17b8d0 0 WindowsPathToURLPath
PUBLIC 17bc00 0 ____CFCarbonCore__FSGetVolumeByName_block_invoke
PUBLIC 17bc20 0 ____CFCarbonCore_FSGetVolumeInfo_block_invoke
PUBLIC 17bc40 0 ____CFCarbonCore_FSRefMakePath_block_invoke
PUBLIC 17bc60 0 ____CFCoreServicesInternal__FSCreatePathForFileID_block_invoke
PUBLIC 17bc80 0 ____CFCoreServicesInternal__FSGetFileSystemRepresentationForFileID_block_invoke
PUBLIC 17bca0 0 filePathToHFSPath
PUBLIC 17bed0 0 ____CFCarbonCore_FSPathMakeRef_block_invoke
PUBLIC 17bef0 0 ____CFCarbonCore_FSGetCatalogInfo_block_invoke
PUBLIC 17bf10 0 ____CFCarbonCore_FSpMakeFSRef_block_invoke
PUBLIC 17bf30 0 ____CFCarbonCore__FSGetFSRefInformationFast_block_invoke
PUBLIC 17bf50 0 ____CFCarbonCore_GetAliasSizeFromPtr_block_invoke
PUBLIC 17bf70 0 ____CFCarbonCore_FSNewAlias_block_invoke
PUBLIC 17bf90 0 ____CFCarbonCore_DisposeHandle_block_invoke
PUBLIC 17bfb0 0 ___CFURLCopyFileReferenceURLPath_block_invoke
PUBLIC 17c060 0 createFileReferencePath
PUBLIC 17c1e0 0 ____CFCoreServicesInternal__FSURLCopyResourcePropertyForKey_block_invoke
PUBLIC 17c200 0 ____CFCoreServicesInternal__FSURLCopyResourcePropertiesForKeys_block_invoke
PUBLIC 17c220 0 ____CFCoreServicesInternal__FSURLSetResourcePropertyForKey_block_invoke
PUBLIC 17c240 0 ____CFCoreServicesInternal__FSURLSetResourcePropertiesForKeys_block_invoke
PUBLIC 17c260 0 ____CFCoreServicesInternal__FSURLBeginResourcePropertyCacheAccess_block_invoke
PUBLIC 17c280 0 ____CFCoreServicesInternal__FSURLEndResourcePropertyCacheAccess_block_invoke
PUBLIC 17c2a0 0 ____CFCoreServicesInternal__FSURLClearResourcePropertyCacheForKey_block_invoke
PUBLIC 17c2c0 0 ____CFCoreServicesInternal__FSURLResourceIsReachable_block_invoke
PUBLIC 17c2e0 0 ____CFCoreServicesInternal__FileURLCreateDisplayPathComponentsArray_block_invoke
PUBLIC 17c300 0 ____CFCoreServicesInternal__FSURLGetResourcePropertyFlags_block_invoke
PUBLIC 17c320 0 ____CFCoreServicesInternal__FSURLCopyResourcePropertyValuesAndFlags_block_invoke
PUBLIC 17c340 0 ____CFCoreServicesInternal__FSURLGetVolumePropertyFlags_block_invoke
PUBLIC 17c360 0 ____CFCoreServicesInternal__FSURLCopyResourcePropertyForKeyFromCache_block_invoke
PUBLIC 17c380 0 ____CFCoreServicesInternal__FSURLCopyResourcePropertiesForKeysFromCache_block_invoke
PUBLIC 17c3a0 0 ____CFCoreServicesInternal__FSURLCacheResourcePropertyForKey_block_invoke
PUBLIC 17c3c0 0 ____CFCoreServicesInternal__FSURLCacheResourcePropertiesForKeys_block_invoke
PUBLIC 17c3e0 0 ____CFCoreServicesInternal__FSCreateFileReferenceURLFromIDs_block_invoke
PUBLIC 17c400 0 ____CFCoreServicesInternal__FSVolumeIdentifierGetVolumeRefNum_block_invoke
PUBLIC 17c420 0 ____CFCoreServicesInternal__FSURLCreateFileReferenceURLFromFSRef_block_invoke
PUBLIC 17c440 0 ____CFCoreServicesInternal__FSURLGetFSRef_block_invoke
PUBLIC 17c460 0 ____CFCoreServicesInternal__FSURLGetObjectInformationNoIO_block_invoke
PUBLIC 17c480 0 ____CFCoreServicesInternal__FSURLGetCatalogInfo_block_invoke
PUBLIC 17c4a0 0 ____CFCoreServicesInternal__URLReplaceObject_block_invoke
PUBLIC 17c4c0 0 ____CFCoreServicesInternal__URLAttachSecurityScopeToFileURL_block_invoke
PUBLIC 17c4e0 0 ____CFCoreServicesInternal__URLCopySecurityScopeFromFileURL_block_invoke
PUBLIC 17c500 0 ____CFCoreServicesInternal__FSURLSetPermanentResourcePropertyForKey_block_invoke
PUBLIC 17c520 0 ____CFCoreServicesInternal__FSURLCreateStandardError_block_invoke
PUBLIC 17c540 0 ____CFCoreServicesInternal__FileCacheGetName_block_invoke
PUBLIC 17c560 0 ____CFCoreServicesInternal__FileCacheGetFinderInfo_block_invoke
PUBLIC 17c580 0 ____CFCoreServicesInternal__FileCacheGetFlags_block_invoke
PUBLIC 17c5a0 0 ____CFCoreServicesInternal__FileCacheGetPropertyValueForKey_block_invoke
PUBLIC 17c5c0 0 ____CFCoreServicesInternal__FileCacheSetPropertyValueForKey_block_invoke
PUBLIC 17c5e0 0 ____CFCoreServicesInternal__FileCacheClearPropertyValueForKey_block_invoke
PUBLIC 17c600 0 ____CFCoreServicesInternal__RegisterFilePropertyProvider_block_invoke
PUBLIC 17c620 0 ____CFCoreServicesInternal__RegisterFilePropertyWithOptions_block_invoke
PUBLIC 17c640 0 ____CFCoreServicesInternal__CFURLStartAccessingSecurityScopedResource_block_invoke
PUBLIC 17c660 0 ____CFCoreServicesInternal__CFURLStopAccessingSecurityScopedResource_block_invoke
PUBLIC 17c680 0 _CFDataURLCreateDataAndPropertiesFromResource
PUBLIC 17d360 0 ____CFNetwork__CFURLCreateDataAndPropertiesFromResource_block_invoke
PUBLIC 17d380 0 ____CFNetwork__CFURLWriteDataAndPropertiesToResource_block_invoke
PUBLIC 17d3a0 0 ____CFNetwork__CFURLDestroyResource_block_invoke
PUBLIC 17d3c0 0 __copy_helper_block_
PUBLIC 17d3e0 0 __destroy_helper_block_
PUBLIC 17d400 0 __CFUUIDCopyFormattingDescription
PUBLIC 17d420 0 __CFUUIDCopyDescription
PUBLIC 17d470 0 __copy_helper_block_.9
PUBLIC 17d490 0 __destroy_helper_block_.10
PUBLIC 17d4b0 0 __CFUniCharGetUnicodeVersionString
PUBLIC 17d4d0 0 CFUniCharMapTo
PUBLIC 17d680 0 CFUniCharGetUnicodeProperty
PUBLIC 17d780 0 CFUniCharFillDestinationBuffer
PUBLIC 17d9f0 0 CFUniCharDecomposeWithErrorLocation
PUBLIC 17e260 0 CFUniCharCompatibilityDecompose
PUBLIC 17e530 0 __CFUniCharRecursivelyCompatibilityDecomposeCharacter
PUBLIC 17e720 0 CFUniCharPrecompose
PUBLIC 17ed50 0 CFUserNotificationGetTypeID
PUBLIC 17ed90 0 __CFUserNotificationGetTypeID_block_invoke
PUBLIC 17edb0 0 CFUserNotificationCreate
PUBLIC 17efe0 0 _CFUserNotificationSendRequest
PUBLIC 17f570 0 CFUserNotificationReceiveResponse
PUBLIC 17f750 0 CFUserNotificationGetResponseValue
PUBLIC 17f800 0 CFUserNotificationGetResponseDictionary
PUBLIC 17f840 0 CFUserNotificationUpdate
PUBLIC 17f8c0 0 CFUserNotificationCancel
PUBLIC 17f930 0 CFUserNotificationCreateRunLoopSource
PUBLIC 17fa00 0 _CFUserNotificationMachPortCallBack
PUBLIC 17fab0 0 CFUserNotificationDisplayNotice
PUBLIC 17fc30 0 CFUserNotificationDisplayAlert
PUBLIC 17fe70 0 __CFUserNotificationDeallocate
PUBLIC 17fee0 0 __CFUserNotificationCopyDescription
PUBLIC 17ff20 0 _CFUserNotificationAddToDictionary
PUBLIC 17ff70 0 _CFOSLog
PUBLIC 17ffb0 0 ___CFOSLog_block_invoke
PUBLIC 17ffd0 0 CFBSearch
PUBLIC 180070 0 __CFFindPointer
PUBLIC 180190 0 __CFDumpAllPointerLocations
PUBLIC 1801e0 0 ___CFCopySystemVersionDictionary_block_invoke
PUBLIC 180220 0 ___CFCopyServerVersionDictionary_block_invoke
PUBLIC 180260 0 _CFExecutableLinkedOnOrAfter_NEW
PUBLIC 1804a0 0 ____CFLookupCarbonCoreFunction_block_invoke
PUBLIC 1804c0 0 ____CFLookupCoreServicesInternalFunction_block_invoke
PUBLIC 180530 0 ____CFLookupCFNetworkFunction_block_invoke
PUBLIC 180570 0 __CFProcessorCount
PUBLIC 1805d0 0 __CFMemorySize
PUBLIC 180630 0 ____CFGetUGIDs_block_invoke
PUBLIC 180670 0 ____CFGetUGIDs_block_invoke_2
PUBLIC 180690 0 __copy_helper_block_
PUBLIC 1806b0 0 __destroy_helper_block_
PUBLIC 1806d0 0 _CFGetUGIDs
PUBLIC 1806e0 0 _CFGetEUID
PUBLIC 180700 0 _CFGetEGID
PUBLIC 180720 0 _CFPrintForDebugger
PUBLIC 180860 0 CFShow
PUBLIC 180880 0 _CFShowToFile
PUBLIC 180ab0 0 _CFLogvEx2Predicate
PUBLIC 180d00 0 _CFLogvEx
PUBLIC 180d30 0 _CFLogSimple
PUBLIC 180e30 0 __CFLogCStringLegacy
PUBLIC 181110 0 CFLogTest
PUBLIC 181420 0 _CFSuddenTerminationDisablingCount
PUBLIC 181440 0 _CFReadMappedFromFile
PUBLIC 181a30 0 _CFGetPathExtensionRangesFromPathComponentUniChars
PUBLIC 181fd0 0 _CFExtensionUniCharsIsValidToAppend
PUBLIC 182230 0 _CFExtensionIsValidToAppend
PUBLIC 1824b0 0 ___CFCanChangeEUIDs_block_invoke
PUBLIC 182590 0 _populateBanner
PUBLIC 182720 0 -[_NSMostCommonJapaneseCharsKeySet dealloc]
PUBLIC 1827b0 0 -[_NSMostCommonJapaneseCharsKeySet finalize]
PUBLIC 182840 0 -[_NSMostCommonJapaneseCharsKeySet initWithKeys:keyLenghtInBytes:count:]
PUBLIC 182850 0 -[_NSMostCommonJapaneseCharsKeySet isEmpty]
PUBLIC 182860 0 -[__NSISO88595TrigramKeySet dealloc]
PUBLIC 1828f0 0 -[__NSISO88595TrigramKeySet finalize]
PUBLIC 182980 0 -[__NSISO88595TrigramKeySet initWithKeys:keyLenghtInBytes:count:]
PUBLIC 182990 0 -[__NSISO88595TrigramKeySet isEmpty]
PUBLIC 1829a0 0 _CFLinkedOnOrAfter
PUBLIC 182a10 0 _CoreFoundationLinkedOnAfterSpecific
PUBLIC 182ae0 0 ___CoreFoundationLinkedOnAfterSpecific_block_invoke
PUBLIC 182b30 0 _CoreFoundationLinkedOnAfter
PUBLIC 182bd0 0 _CoreFoundationLinkCheck
PUBLIC 182d70 0 _CFVolumeObserverGetTypeID
PUBLIC 182db0 0 _VolumeObserverFinalize
PUBLIC 182e30 0 _VolumeObserverCopyDebugDesc
PUBLIC 182eb0 0 _VolumeObserverDiskDescriptionChangedCallback
PUBLIC 183210 0 _VolumeObserverDiskDisappearedCallback
PUBLIC 1832f0 0 _VolumeObserverDiskUnmountApprovalCallback
PUBLIC 1833d0 0 _CFVolumeObserverInvalidate
PUBLIC 183400 0 _VolumeObserverInvalidate
PUBLIC 1834b0 0 _CFVolumeObserverInvalidateWithCompletionHandler
PUBLIC 183560 0 ___CFVolumeObserverInvalidateWithCompletionHandler_block_invoke
PUBLIC 1835a0 0 __copy_helper_block_
PUBLIC 1835c0 0 __destroy_helper_block_
PUBLIC 1835e0 0 _CFVolumeObserverSetUnmountDissenterForDisk
PUBLIC 183640 0 _CFVolumeObserverGetUnmountDissenterForDisk
PUBLIC 183680 0 ___VolumeObserverFinalize_block_invoke
PUBLIC 183690 0 ____CFDiskArbitration_DASessionCreate_block_invoke
PUBLIC 1836e0 0 ____CFDiskArbitration_DARegisterDiskAppearedCallback_block_invoke
PUBLIC 183730 0 ____CFDiskArbitration_DADiskCopyDescription_block_invoke
PUBLIC 183780 0 ____CFDiskArbitration_DARegisterDiskDescriptionChangedCallback_block_invoke
PUBLIC 1837d0 0 ____CFDiskArbitration_DARegisterDiskDisappearedCallback_block_invoke
PUBLIC 183820 0 ____CFDiskArbitration_DARegisterDiskUnmountApprovalCallback_block_invoke
PUBLIC 183870 0 ____CFDiskArbitration_DARegisterIdleCallback_block_invoke
PUBLIC 1838c0 0 ____CFDiskArbitration_DASessionSetDispatchQueue_block_invoke
PUBLIC 183910 0 ___VolumeObserverInstallIdleTimer_block_invoke
PUBLIC 183950 0 ___VolumeObserverInvalidate_block_invoke
PUBLIC 1839c0 0 _inputStreamCurrentLocation
PUBLIC 1839d0 0 _inputStreamCurrentLine
PUBLIC 1839e0 0 _inputStreamScanQuotedString
PUBLIC 183a50 0 CFXMLNodeCreateCopy
PUBLIC 183a70 0 CFXMLNodeCreate
PUBLIC 183e20 0 CFXMLNodeGetVersion
PUBLIC 183e30 0 __CFXMLNodeEqual
PUBLIC 1842f0 0 __CFXMLNodeHash
PUBLIC 184330 0 __CFXMLNodeCopyDescription
PUBLIC 184360 0 CFXMLParserGetTypeID
PUBLIC 1843a0 0 CFXMLParserGetContext
PUBLIC 1843d0 0 CFXMLParserGetCallBacks
PUBLIC 184400 0 CFXMLParserGetSourceURL
PUBLIC 184410 0 CFXMLParserGetLocation
PUBLIC 184420 0 CFXMLParserGetLineNumber
PUBLIC 184430 0 CFXMLParserGetDocument
PUBLIC 184450 0 CFXMLParserGetStatusCode
PUBLIC 184460 0 CFXMLParserCopyErrorDescription
PUBLIC 184480 0 CFXMLParserAbort
PUBLIC 1844d0 0 CFXMLParserCreateWithDataFromURL
PUBLIC 184500 0 CFXMLTreeCreateWithDataFromURL
PUBLIC 1845a0 0 _XMLTreeCreateXMLStructure
PUBLIC 1845f0 0 _XMLTreeAddChild
PUBLIC 184600 0 _XMLTreeEndXMLStructure
PUBLIC 184630 0 CFXMLTreeCreateFromData
PUBLIC 184640 0 CFXMLTreeCreateFromDataWithError
PUBLIC 184840 0 CFXMLCreateStringByEscapingEntities
PUBLIC 184b50 0 __CFXMLParserCopyDescription
PUBLIC 184b80 0 parseComment
PUBLIC 184d60 0 parseExternalID
PUBLIC 185010 0 parseEnumeration
PUBLIC 185160 0 parseChoiceOrSequence
PUBLIC 185310 0 CFXMLTreeCreateWithNode
PUBLIC 185360 0 CFXMLTreeGetNode
PUBLIC 185390 0 CFXMLTreeEqual
PUBLIC 185470 0 CFXMLTreeCreateXMLData
PUBLIC 185520 0 _CFAppendXML
PUBLIC 185c80 0 appendQuotedString
PUBLIC 185ce0 0 appendExternalID
PUBLIC 185df0 0 -[__NSISOLatin9TrigramKeySet dealloc]
PUBLIC 185e80 0 -[__NSISOLatin9TrigramKeySet finalize]
PUBLIC 185f10 0 -[__NSISOLatin9TrigramKeySet initWithKeys:keyLenghtInBytes:count:]
PUBLIC 185f20 0 -[__NSISOLatin9TrigramKeySet isEmpty]
PUBLIC 185f30 0 _CFBundleGrokObjCImageInfoFromMainExecutable
PUBLIC 186000 0 _CFBundleCopyFileTypeForFileURL
PUBLIC 186040 0 _CFBundleCopyFileTypeForFileData
PUBLIC 186090 0 _CFBundleCopyInfoDictionaryForExecutableFileData
PUBLIC 186100 0 _CFBundleGetObjCImageInfo
PUBLIC 1861a0 0 _CFBundleGrokX11FromFile
PUBLIC 186480 0 _CFBundleGrokObjcImageInfoFromFile
PUBLIC 186ae0 0 _CFURLComponentsGetURLUserAllowedCharacterSet
PUBLIC 186b10 0 _CFURLComponentsGetURLPasswordAllowedCharacterSet
PUBLIC 186b40 0 _CFURLComponentsGetURLHostAllowedCharacterSet
PUBLIC 186b70 0 _CFURLComponentsGetURLPathAllowedCharacterSet
PUBLIC 186ba0 0 _CFURLComponentsGetURLQueryAllowedCharacterSet
PUBLIC 186bd0 0 _CFURLComponentsGetURLFragmentAllowedCharacterSet
PUBLIC 186c00 0 _CFStringCreateByAddingPercentEncodingWithAllowedCharacters
PUBLIC 187110 0 _CFStringCreateByRemovingPercentEncoding
PUBLIC 187310 0 _CFURIParserParseURIReference
PUBLIC 188500 0 _CFURIParserGetSchemeRange
PUBLIC 188570 0 _CFURIParserGetUserinfoNameRange
PUBLIC 1885f0 0 _CFURIParserGetUserinfoPasswordRange
PUBLIC 188660 0 _CFURIParserGetHostRange
PUBLIC 1886d0 0 _CFURIParserGetPortRange
PUBLIC 188700 0 _CFURIParserGetPathRange
PUBLIC 188770 0 _CFURIParserGetQueryRange
PUBLIC 1887c0 0 _CFURIParserGetFragmentRange
PUBLIC 1887f0 0 _CFURIParserAlphaAllowed
PUBLIC 188810 0 _CFURIParserValidateComponent
PUBLIC 188a80 0 _CFURIParserURLStringIsValid
PUBLIC 188d40 0 __InitializeURLAllowedCharacterSets_block_invoke
PUBLIC 188e10 0 -[_NSMostCommonChineseCharsKeySet dealloc]
PUBLIC 188ea0 0 -[_NSMostCommonChineseCharsKeySet finalize]
PUBLIC 188f30 0 -[_NSMostCommonChineseCharsKeySet initWithKeys:keyLenghtInBytes:count:]
PUBLIC 188f40 0 -[_NSMostCommonChineseCharsKeySet isEmpty]
PUBLIC 188f50 0 -[__NSISOLatin5TrigramKeySet dealloc]
PUBLIC 188fe0 0 -[__NSISOLatin5TrigramKeySet finalize]
PUBLIC 189070 0 -[__NSISOLatin5TrigramKeySet initWithKeys:keyLenghtInBytes:count:]
PUBLIC 189080 0 -[__NSISOLatin5TrigramKeySet isEmpty]
PUBLIC 189090 0 -[NSArray count]
PUBLIC 1890c0 0 -[NSArray objectAtIndex:]
PUBLIC 1890f0 0 -[NSArray allObjects]
PUBLIC 189260 0 -[NSArray containsObject:inRange:]
PUBLIC 1893a0 0 -[NSArray containsObjectIdenticalTo:inRange:]
PUBLIC 1894a0 0 -[NSArray countForObject:inRange:]
PUBLIC 1895e0 0 -[NSArray countForObject:]
PUBLIC 189770 0 -[NSArray indexOfObjectIdenticalTo:inRange:]
PUBLIC 189890 0 -[NSArray indexesOfObject:inRange:]
PUBLIC 1899d0 0 __35-[NSArray indexesOfObject:inRange:]_block_invoke
PUBLIC 189a00 0 __copy_helper_block_
PUBLIC 189a20 0 __destroy_helper_block_
PUBLIC 189a40 0 -[NSArray indexesOfObject:]
PUBLIC 189ad0 0 __27-[NSArray indexesOfObject:]_block_invoke
PUBLIC 189b00 0 __copy_helper_block_.77
PUBLIC 189b20 0 __destroy_helper_block_.78
PUBLIC 189b40 0 -[NSArray indexesOfObjectIdenticalTo:inRange:]
PUBLIC 189c80 0 __46-[NSArray indexesOfObjectIdenticalTo:inRange:]_block_invoke
PUBLIC 189c90 0 __copy_helper_block_.82
PUBLIC 189cb0 0 __destroy_helper_block_.83
PUBLIC 189cd0 0 -[NSArray indexesOfObjectIdenticalTo:]
PUBLIC 189d60 0 __38-[NSArray indexesOfObjectIdenticalTo:]_block_invoke
PUBLIC 189d70 0 __copy_helper_block_.85
PUBLIC 189d90 0 __destroy_helper_block_.86
PUBLIC 189db0 0 -[NSArray indexOfObjectAtIndexes:options:passingTest:]
PUBLIC 189ef0 0 __28-[NSArray objectsAtIndexes:]_block_invoke
PUBLIC 189f40 0 __copy_helper_block_.116
PUBLIC 189f80 0 __destroy_helper_block_.117
PUBLIC 189fb0 0 -[NSArray objectAtIndexes:options:passingTest:]
PUBLIC 18a0e0 0 -[NSArray objectWithOptions:passingTest:]
PUBLIC 18a1a0 0 -[NSArray objectPassingTest:]
PUBLIC 18a220 0 -[NSArray objectsAtIndexes:options:passingTest:]
PUBLIC 18a340 0 -[NSArray objectsWithOptions:passingTest:]
PUBLIC 18a3e0 0 -[NSArray objectsPassingTest:]
PUBLIC 18a460 0 -[NSArray reversedArray]
PUBLIC 18a4e0 0 __copy_helper_block_.145
PUBLIC 18a500 0 __destroy_helper_block_.146
PUBLIC 18a520 0 -[NSArray initWithObjects:count:]
PUBLIC 18a550 0 -[NSArray initWithArray:range:]
PUBLIC 18a570 0 -[NSArray initWithObject:]
PUBLIC 18a5a0 0 -[NSArray initWithSet:copyItems:]
PUBLIC 18a7d0 0 -[NSArray initWithSet:]
PUBLIC 18a7f0 0 -[NSArray initWithOrderedSet:range:copyItems:]
PUBLIC 18aa90 0 -[NSArray initWithOrderedSet:range:]
PUBLIC 18aab0 0 -[NSArray initWithOrderedSet:copyItems:]
PUBLIC 18ab00 0 -[NSArray initWithOrderedSet:]
PUBLIC 18ab50 0 -[NSArray _initByAdoptingBuffer:count:size:]
PUBLIC 18abc0 0 __createArray
PUBLIC 18abf0 0 +[NSArray arrayWithArray:range:copyItems:]
PUBLIC 18ac60 0 +[NSArray arrayWithArray:range:]
PUBLIC 18acc0 0 +[NSArray arrayWithArray:copyItems:]
PUBLIC 18ad30 0 +[NSArray arrayWithOrderedSet:range:copyItems:]
PUBLIC 18ada0 0 +[NSArray arrayWithOrderedSet:range:]
PUBLIC 18ae00 0 +[NSArray arrayWithOrderedSet:copyItems:]
PUBLIC 18ae70 0 +[NSArray arrayWithOrderedSet:]
PUBLIC 18aed0 0 +[NSArray arrayWithSet:copyItems:]
PUBLIC 18af20 0 +[NSArray arrayWithSet:]
PUBLIC 18af60 0 -[NSArray arrayByExcludingToObjectsInArray:]
PUBLIC 18b250 0 -[NSArray initWithCoder:]
PUBLIC 18b260 0 -[NSArray encodeWithCoder:]
PUBLIC 18b270 0 -[_NSMostCommonKoreanCharsKeySet dealloc]
PUBLIC 18b300 0 -[_NSMostCommonKoreanCharsKeySet finalize]
PUBLIC 18b390 0 -[_NSMostCommonKoreanCharsKeySet initWithKeys:keyLenghtInBytes:count:]
PUBLIC 18b3a0 0 -[_NSMostCommonKoreanCharsKeySet isEmpty]
PUBLIC 18b3b0 0 +[__NSDate automaticallyNotifiesObserversForKey:]
PUBLIC 18b3c0 0 -[__NSDate initWithTimeIntervalSinceReferenceDate:]
PUBLIC 18b400 0 -[__NSTaggedDate dealloc]
PUBLIC 18b430 0 +[__NSTaggedDate automaticallyNotifiesObserversForKey:]
PUBLIC 18b440 0 -[__NSTaggedDate initWithTimeIntervalSinceReferenceDate:]
PUBLIC 18b480 0 -[__NSPlaceholderDate retain]
PUBLIC 18b490 0 -[__NSPlaceholderDate release]
PUBLIC 18b4a0 0 -[__NSPlaceholderDate retainCount]
PUBLIC 18b4b0 0 -[__NSPlaceholderDate dealloc]
PUBLIC 18b4c0 0 -[__NSPlaceholderDate timeIntervalSinceReferenceDate]
PUBLIC 18b540 0 -[NSDate timeIntervalSinceReferenceDate]
PUBLIC 18b570 0 -[NSDate description]
PUBLIC 18b590 0 -[NSDate initWithTimeIntervalSinceReferenceDate:]
PUBLIC 18b5c0 0 +[NSDate dateWithTimeInterval:sinceDate:]
PUBLIC 18b640 0 +[NSDate dateWithDate:]
PUBLIC 18b6b0 0 -[NSDate initWithDate:]
PUBLIC 18b6f0 0 +[NSDate dateWithString:]
PUBLIC 18b730 0 -[NSDate initWithString:]
PUBLIC 18bb40 0 -[NSDate initWithCoder:]
PUBLIC 18bb50 0 -[NSDate encodeWithCoder:]
PUBLIC 18bb60 0 -[NSDate isInToday]
PUBLIC 18bba0 0 -[NSDate isInTomorrow]
PUBLIC 18bbe0 0 -[NSDate isInYesterday]
PUBLIC 18bc20 0 -[NSDate isInSameDayAsDate:]
PUBLIC 18bc70 0 -[NSDate isEqual:toUnitGranularity:]
PUBLIC 18bcd0 0 -[NSDate compare:toUnitGranularity:]
PUBLIC 18bd20 0 CFDateGetTimeIntervalSinceDate
PUBLIC 18bd40 0 __CFDateCopyDescription
PUBLIC 18bd90 0 _NSCFCalendarLogger
PUBLIC 18bdd0 0 ___NSCFCalendarLogger_block_invoke
PUBLIC 18bdf0 0 _CFICULog
PUBLIC 18c020 0 ___CFICUCreateVariableNameForStatus
PUBLIC 18c130 0 ___CFICUCreateArgumentForUCharInput
PUBLIC 18c340 0 ___CFICUCreateVariableNameForStatusIfNeeded
PUBLIC 18c460 0 __cficu_ucal_getDayOfWeekType
PUBLIC 18c690 0 __cficu_ucal_getWeekendTransition
PUBLIC 18c8b0 0 __cficu_ucal_roll
PUBLIC 18cad0 0 __cficu_ucal_getNow
PUBLIC 18cba0 0 ___CFICULog
PUBLIC 18cc60 0 __cficu_udat_formatForFields
PUBLIC 18cf90 0 __cficu_udat_get2DigitYearStart
PUBLIC 18d090 0 __cficu_udat_isLenient
PUBLIC 18d110 0 __cficu_udat_getContext
PUBLIC 18d400 0 __cficu_unum_getDoubleAttribute
PUBLIC 18d650 0 __cficu_unum_getTextAttribute
PUBLIC 18d8f0 0 __cficu_unum_parse
PUBLIC 18dba0 0 __cficu_unum_getContext
PUBLIC 18dc80 0 __cficu_ucurr_getDefaultFractionDigits
PUBLIC 18dd80 0 __cficu_ucurr_getRoundingIncrement
PUBLIC 18de80 0 ___CFICULogGlobal
PUBLIC 18df40 0 ___CFICULogWithArguments
PUBLIC 18e040 0 ___CFICUEmitPostamble
PUBLIC 18e070 0 _____CFICUCreateVariableNameForHeapPointer_block_invoke
PUBLIC 18e0e0 0 ___CFICUCreateVariableNameLocked
PUBLIC 18e1d0 0 __copy_helper_block_
PUBLIC 18e1f0 0 __destroy_helper_block_
PUBLIC 18e210 0 _____CFICUSync_block_invoke
PUBLIC 18e230 0 _____CFICUCreateVariableNameForStackPointer_block_invoke
PUBLIC 18e260 0 ___CFICUCreateVariableNameForStackPointerLocked
PUBLIC 18e310 0 __copy_helper_block_.93
PUBLIC 18e330 0 __destroy_helper_block_.94
PUBLIC 18e350 0 ___CFICUCopyVariableNameForHeapPointer
PUBLIC 18e460 0 _____CFICUCopyVariableNameForHeapPointer_block_invoke
PUBLIC 18e520 0 __copy_helper_block_.114
PUBLIC 18e540 0 __destroy_helper_block_.115
PUBLIC 18e560 0 _____CFICUCreateVariableNameForStackPointerIfNeeded_block_invoke
PUBLIC 18e660 0 __copy_helper_block_.120
PUBLIC 18e680 0 __destroy_helper_block_.121
PUBLIC 18e6a0 0 _____CFICUCreateVariableName_block_invoke
PUBLIC 18e6d0 0 __copy_helper_block_.213
PUBLIC 18e6f0 0 __destroy_helper_block_.214
PUBLIC 18e710 0 compare
PUBLIC 18e730 0 -[_NSSharedKeySetS copyWithZone:]
PUBLIC 18e750 0 -[_NSSharedKeySetS count]
PUBLIC 18e790 0 -[_NSSharedKeySetS isEmpty]
PUBLIC 18e7b0 0 -[_NSSharedKeySetS maximumIndex]
PUBLIC 18e7d0 0 -[_NSSharedKeySetS allKeys]
PUBLIC 18e920 0 -[_NSSharedKeySetS newKeySetWithKeys:encoding:]
PUBLIC 18ed50 0 -[_NSSharedKeySetS keyAtIndex:]
PUBLIC 18ee00 0 -[_NSSharedKeySetS bytesAtIndex:]
PUBLIC 18ee60 0 -[_NSSharedKeySetS hash]
PUBLIC 18f0d0 0 __24-[_NSSharedKeySetS hash]_block_invoke
PUBLIC 18f0f0 0 -[_NSSharedKeySetS isEqual:]
PUBLIC 18f680 0 -[_NSSharedKeySetS dealloc]
PUBLIC 18f790 0 -[_NSSharedKeySetS keySetCount]
PUBLIC 18f7c0 0 -[_NSSharedKeySetS g]
PUBLIC 18f7e0 0 -[_NSSharedKeySetS select]
PUBLIC 18f800 0 -[_NSSharedKeySetS rankTable]
PUBLIC 18f820 0 -[_NSSharedKeySetS c]
PUBLIC 18f840 0 -[_NSSharedKeySetS M]
PUBLIC 18f850 0 -[_NSSharedKeySetS factor]
PUBLIC 18f860 0 -[_NSSharedKeySetS numKey]
PUBLIC 18f870 0 -[_NSSharedKeySetS seeds]
PUBLIC 18f890 0 -[_NSSharedKeySetS keys1]
PUBLIC 18f8b0 0 -[_NSSharedKeySetS keys2]
PUBLIC 18f8d0 0 -[_NSSharedKeySetS keys3]
PUBLIC 18f8f0 0 -[_NSSharedKeySetS setKeys3:]
PUBLIC 18f910 0 -[_NSSharedKeySetS ckeys]
PUBLIC 18f930 0 -[_NSSharedKeySetS subSharedKeySet]
PUBLIC 18f950 0 -[_NSSharedKeySetS keyLen]
PUBLIC 18f960 0 -[_NSSharedKeySetS type]
PUBLIC 18f970 0 -[__NSSKGraphE initWithNumberOfVertices:numberOfEdges:]
PUBLIC 18fa10 0 -[__NSSKGraphE dealloc]
PUBLIC 18fac0 0 -[__NSSKGraphE addEdgeWithH1:withH2:]
PUBLIC 18fd50 0 -[__NSSKGraphE isEmpty]
PUBLIC 18fd80 0 -[__NSSKGraphE numOfEdges]
PUBLIC 18fda0 0 -[__NSSKGraphE isAcyclic]
PUBLIC 1900c0 0 -[NSDateComponents hash]
PUBLIC 1902b0 0 -[NSDateComponents initWithCoder:]
PUBLIC 1902c0 0 -[NSDateComponents encodeWithCoder:]
PUBLIC 1902d0 0 -[NSDateComponents isValidDate]
PUBLIC 190740 0 -[NSDateComponents isValidDateInCalendar:]
PUBLIC 190c80 0 -[NSDateComponents description]
PUBLIC 191030 0 _CFURLComponentsGetTypeID
PUBLIC 191070 0 ___CFURLComponentsGetTypeID_block_invoke
PUBLIC 191090 0 _CFURLComponentsCreate
PUBLIC 1911a0 0 _CFURLComponentsCreateWithURL
PUBLIC 191200 0 _CFURLComponentsCreateWithString
PUBLIC 1913f0 0 _CFURLComponentsCopyPath
PUBLIC 1914b0 0 _CFURLComponentsSetPath
PUBLIC 191530 0 _CFURLComponentsCreateCopy
PUBLIC 1917e0 0 _CFURLComponentsCopyURL
PUBLIC 191820 0 _CFURLComponentsCopyURLRelativeToURL
PUBLIC 191870 0 _CFURLComponentsCopyString
PUBLIC 192280 0 _CFURLComponentsCopyScheme
PUBLIC 192320 0 _CFURLComponentsCopyPercentEncodedUser
PUBLIC 192430 0 _CFURLComponentsCopyPercentEncodedPassword
PUBLIC 1924d0 0 _CFURLComponentsCopyPercentEncodedHost
PUBLIC 192660 0 _CFURLComponentsCopyPort
PUBLIC 1926b0 0 _CFURLComponentsCopyPercentEncodedPath
PUBLIC 192760 0 _CFURLComponentsCopyPercentEncodedQuery
PUBLIC 192800 0 _CFURLComponentsCopyPercentEncodedFragment
PUBLIC 1928a0 0 _CFURLComponentsCopyUser
PUBLIC 1929b0 0 _CFURLComponentsCopyPassword
PUBLIC 192a60 0 _CFURLComponentsCopyHost
PUBLIC 192c10 0 _SetValidPortComponent
PUBLIC 192d70 0 _CFURLComponentsCopyQuery
PUBLIC 192e20 0 _CFURLComponentsCopyFragment
PUBLIC 192ed0 0 _CFURLComponentsSetScheme
PUBLIC 192fb0 0 _CFURLComponentsSetUser
PUBLIC 193030 0 _CFURLComponentsSetPassword
PUBLIC 1930b0 0 _CFURLComponentsSetHost
PUBLIC 193130 0 _CFURLComponentsSetPort
PUBLIC 1931e0 0 _CFURLComponentsSetQuery
PUBLIC 193260 0 _CFURLComponentsSetFragment
PUBLIC 1932e0 0 _CFURLComponentsSetPercentEncodedUser
PUBLIC 193380 0 _CFURLComponentsSetPercentEncodedPassword
PUBLIC 193420 0 _CFURLComponentsSetPercentEncodedHost
PUBLIC 193500 0 _CFURLComponentsSetPercentEncodedPath
PUBLIC 1935a0 0 _CFURLComponentsSetPercentEncodedQuery
PUBLIC 193640 0 _CFURLComponentsSetPercentEncodedFragment
PUBLIC 1936e0 0 _CFURLComponentsGetRangeOfScheme
PUBLIC 193740 0 _CFURLComponentsGetRangeOfUser
PUBLIC 1937a0 0 _CFURLComponentsGetRangeOfPassword
PUBLIC 193800 0 _CFURLComponentsGetRangeOfHost
PUBLIC 193860 0 _CFURLComponentsGetRangeOfPort
PUBLIC 1938c0 0 _CFURLComponentsGetRangeOfPath
PUBLIC 193920 0 _CFURLComponentsGetRangeOfQuery
PUBLIC 193980 0 _CFURLComponentsGetRangeOfFragment
PUBLIC 1939e0 0 _CFURLComponentsCopyQueryItems
PUBLIC 1939f0 0 _CFURLComponentsCopyQueryItemsInternal
PUBLIC 194060 0 _CFURLComponentsCopyPercentEncodedQueryItems
PUBLIC 194070 0 _CFURLComponentsSetQueryItems
PUBLIC 194080 0 _CFURLComponentsSetQueryItemsInternal
PUBLIC 1945f0 0 _CFURLComponentsSetPercentEncodedQueryItems
PUBLIC 194600 0 __CFURLComponentsDeallocate
PUBLIC 1946a0 0 __CFURLComponentsEqual
PUBLIC 194ac0 0 __CFURLComponentsHash
PUBLIC 194af0 0 __CFURLComponentsCopyDescription
PUBLIC 194c50 0 ___CFURLComponentsSetQueryItemsInternal_block_invoke
PUBLIC 194c90 0 -[NSDictionary count]
PUBLIC 194cc0 0 -[NSDictionary objectForKey:]
PUBLIC 194cf0 0 -[NSDictionary keyEnumerator]
PUBLIC 194d20 0 -[NSDictionary allObjects]
PUBLIC 194e90 0 -[NSDictionary containsObject:]
PUBLIC 195050 0 -[NSDictionary countForObject:]
PUBLIC 195220 0 -[NSDictionary getKeys:]
PUBLIC 1952c0 0 -[NSDictionary invertedDictionary]
PUBLIC 195350 0 -[NSDictionary keyOfEntryWithOptions:passingTest:]
PUBLIC 195440 0 __50-[NSDictionary keyOfEntryWithOptions:passingTest:]_block_invoke
PUBLIC 195490 0 __copy_helper_block_
PUBLIC 1954b0 0 __destroy_helper_block_
PUBLIC 1954d0 0 -[NSDictionary keyOfEntryPassingTest:]
PUBLIC 195550 0 __copy_helper_block_.81
PUBLIC 195590 0 __destroy_helper_block_.82
PUBLIC 1955c0 0 __61-[NSDictionary keysSortedByValueWithOptions:usingComparator:]_block_invoke
PUBLIC 1955e0 0 __copy_helper_block_.93
PUBLIC 195600 0 __destroy_helper_block_.94
PUBLIC 195620 0 -[NSDictionary keysSortedByValueUsingSelector:]
PUBLIC 1956d0 0 __47-[NSDictionary keysSortedByValueUsingSelector:]_block_invoke
PUBLIC 1956f0 0 __32-[NSDictionary __apply:context:]_block_invoke
PUBLIC 195710 0 -[NSDictionary initWithObjects:forKeys:count:]
PUBLIC 195740 0 -[NSDictionary initWithObject:forKey:]
PUBLIC 195780 0 __createDictionary
PUBLIC 1957c0 0 +[NSDictionary dictionaryWithDictionary:copyItems:]
PUBLIC 195810 0 +[NSDictionary supportsSecureCoding]
PUBLIC 195820 0 -[NSDictionary initWithCoder:]
PUBLIC 195830 0 -[NSDictionary encodeWithCoder:]
PUBLIC 195840 0 _CFBundleCopyResourceForkURL
PUBLIC 1958a0 0 _CFBundleOpenBundleResourceFork
PUBLIC 195950 0 _CFBundleCloseBundleResourceFork
PUBLIC 195980 0 _CFBundleForksCouldBeResourceFile
PUBLIC 195ad0 0 _CFBundleCopyResourceMapLocalizationsForURL
PUBLIC 195dc0 0 ____CFCarbonCore_FSOpenResourceFileMapped_block_invoke
PUBLIC 195de0 0 ____CFCarbonCore_FSOpenResourceFile_block_invoke
PUBLIC 195e00 0 ____CFCarbonCore_InsertOverrideFile_block_invoke
PUBLIC 195e20 0 ____CFCarbonCore_CloseResFile_block_invoke
PUBLIC 195e40 0 ___CFBundleForksCouldBeResourceFile_block_invoke
PUBLIC 195ec0 0 ____CFCarbonCore_FSGetResourceForkName_block_invoke
PUBLIC 195ee0 0 ____CFCarbonCore_RMOpenResourceFileRef_block_invoke
PUBLIC 195f00 0 ____CFCarbonCore_RMGetResource_block_invoke
PUBLIC 195f20 0 ____CFCarbonCore_RMCloseResourceFile_block_invoke
PUBLIC 195f40 0 -[NSEnumerator nextObject]
PUBLIC 195f70 0 __NSFastEnumerationShouldThrowExceptionOnMutation
PUBLIC 196010 0 __NSFastEnumerationMutationHandler
PUBLIC 196140 0 __48-[__NSFastEnumerationEnumerator initWithObject:]_block_invoke
PUBLIC 1961b0 0 -[__NSSingleObjectEnumerator initWithObject:]
PUBLIC 196230 0 -[__NSSingleObjectEnumerator init]
PUBLIC 196250 0 -[__NSSingleObjectEnumerator dealloc]
PUBLIC 1962a0 0 -[__NSSingleObjectEnumerator nextObject]
PUBLIC 1962d0 0 -[__NSSingleObjectEnumerator description]
PUBLIC 196390 0 +[__NSEnumerator0 sharedInstance]
PUBLIC 196400 0 __33+[__NSEnumerator0 sharedInstance]_block_invoke
PUBLIC 196450 0 __copy_helper_block_
PUBLIC 196470 0 __destroy_helper_block_
PUBLIC 196490 0 +[__NSEnumerator0 new]
PUBLIC 1964b0 0 +[__NSEnumerator0 allocWithZone:]
PUBLIC 1964d0 0 -[__NSEnumerator0 init]
PUBLIC 1964f0 0 +[__NSEnumerator0 _alloc]
PUBLIC 196520 0 -[__NSEnumerator0 _init]
PUBLIC 196550 0 -[__NSEnumerator0 nextObject]
PUBLIC 196560 0 -[__NSEnumerator0 retainCount]
PUBLIC 196570 0 -[__NSEnumerator0 retain]
PUBLIC 196580 0 -[__NSEnumerator0 release]
PUBLIC 196590 0 -[__NSEnumerator0 autorelease]
PUBLIC 1965a0 0 ____CFHandleFinishedEnumerating_block_invoke
PUBLIC 196610 0 -[NSException reason]
PUBLIC 196650 0 -[NSException userInfo]
PUBLIC 196690 0 -[NSException callStackReturnAddresses]
PUBLIC 1966c0 0 -[NSException _installStackTraceKeyIfNeeded]
PUBLIC 1967b0 0 -[NSException isEqual:]
PUBLIC 196830 0 -[NSException hash]
PUBLIC 196850 0 -[NSException init]
PUBLIC 196870 0 -[NSException copyWithZone:]
PUBLIC 196890 0 +[NSException raise:format:]
PUBLIC 196960 0 -[NSException initWithCoder:]
PUBLIC 196970 0 -[NSException encodeWithCoder:]
PUBLIC 196980 0 _NSExceptionGetRubyToken
PUBLIC 196990 0 _NSExceptionSetRubyToken
PUBLIC 1969c0 0 _CFRaiseMemoryException
PUBLIC 1969f0 0 __deleteLockHandlers
PUBLIC 196a40 0 __handleUncaughtException
PUBLIC 196e10 0 __lockUnlocker
PUBLIC 196e50 0 typeStringRelease
PUBLIC 196e60 0 typeStringDesc
PUBLIC 196e80 0 -[NSMethodSignature init]
PUBLIC 196ea0 0 -[NSMethodSignature _isHiddenStructRet]
PUBLIC 196ed0 0 -[NSMethodSignature _isAllObjects]
PUBLIC 196ef0 0 -[NSMethodSignature hash]
PUBLIC 196f30 0 __NSMS5
PUBLIC 196f90 0 -[NSMethodSignature debugDescription]
PUBLIC 1970c0 0 __NSMS7
PUBLIC 1975d0 0 -[__NSMessageBuilder finalize]
PUBLIC 1975e0 0 +[NSInvocation requiredStackSizeForSignature:]
PUBLIC 197600 0 -[NSInvocation _initWithMethodSignature:frame:buffer:size:]
PUBLIC 1976f0 0 -[NSInvocation init]
PUBLIC 197710 0 -[NSInvocation copyWithZone:]
PUBLIC 1977d0 0 -[NSInvocation setReturnValue:]
PUBLIC 1977f0 0 -[NSInvocation invokeUsingIMP:]
PUBLIC 197940 0 -[NSInvocation invokeSuper]
PUBLIC 197b50 0 _____forwarding____block_invoke
PUBLIC 197b80 0 -[NSBlockInvocation selector]
PUBLIC 197ba0 0 -[NSBlockInvocation setSelector:]
PUBLIC 197bc0 0 -[NSBlockInvocation invoke]
PUBLIC 197bf0 0 -[NSBlockInvocation invokeUsingIMP:]
PUBLIC 197c10 0 -[NSBlockInvocation invokeSuper]
PUBLIC 197c30 0 ____NSMakeSpecialForwardingCaptureBlock_block_invoke
PUBLIC 197c50 0 __copy_helper_block_
PUBLIC 197c70 0 __destroy_helper_block_
PUBLIC 197c90 0 __CFMachPortBoostCopyDescription
PUBLIC 197ca0 0 -[__NSArrayReversed count]
PUBLIC 197cc0 0 -[__NSArrayReversed objectAtIndex:]
PUBLIC 197d40 0 -[__NSArrayReversed getObjects:range:]
PUBLIC 197e90 0 -[__NSArrayReversed initWithArray:]
PUBLIC 197ee0 0 -[__NSArrayReversed dealloc]
PUBLIC 197f30 0 -[CFPrefsCloudSource initWithDomain:user:byHost:containerPath:containingPreferences:]
PUBLIC 197f80 0 -[CFPrefsCloudSource createSynchronizeMessage]
PUBLIC 198000 0 -[CFPrefsCloudSource alreadylocked_updateObservingRemoteChanges]
PUBLIC 198040 0 -[CFPrefsCloudSource fullCloudSynchronizeWithCompletionHandler:]
PUBLIC 198110 0 __64-[CFPrefsCloudSource fullCloudSynchronizeWithCompletionHandler:]_block_invoke
PUBLIC 198220 0 __64-[CFPrefsCloudSource fullCloudSynchronizeWithCompletionHandler:]_block_invoke_2
PUBLIC 198290 0 __copy_helper_block_
PUBLIC 1982d0 0 __destroy_helper_block_
PUBLIC 198300 0 __copy_helper_block_.10
PUBLIC 198340 0 __destroy_helper_block_.11
PUBLIC 198370 0 -[CFPrefsCloudSource mergeIntoDictionary:sourceDictionary:]
PUBLIC 1983b0 0 -[CFPrefsCloudSource enabled]
PUBLIC 1983d0 0 -[CFPrefsCloudSource setEnabled:]
PUBLIC 198470 0 -[CFPrefsCloudSource setConfigurationPath:]
PUBLIC 198540 0 -[CFPrefsCloudSource setStoreName:]
PUBLIC 198610 0 -[CFPrefsCloudSource dealloc]
PUBLIC 198670 0 _CFPrefsCreatePreferencesDirectory
PUBLIC 198870 0 _CFPrefsGenerateDirectoryURLForTriplet_testing
PUBLIC 198890 0 _CFPrefsCreatePreferencesDirectoryURLForTriplet
PUBLIC 198980 0 _CFPreferencesCopyApplicationList
PUBLIC 198a30 0 _CFPreferencesCopyApplicationListInDirectory
PUBLIC 198c10 0 _CFPreferencesCopyApplicationMap
PUBLIC 198f70 0 _CFPrefsGetPathForManagedBundleID
PUBLIC 1991c0 0 ___CFPrefsGetPathForManagedBundleID_block_invoke
PUBLIC 1991f0 0 ___CFPrefsGetPathForManagedBundleID_block_invoke_2
PUBLIC 199210 0 _CFPreferencesCopyPathForManagedDomain
PUBLIC 1992b0 0 _CFPrefsGetPathForTriplet
PUBLIC 199490 0 _CFPrefsTemporaryFDToWriteTo
PUBLIC 199740 0 _CFPrefsWritePlistToFDThenClose
PUBLIC 199c50 0 -[NSNull _cfTypeID]
PUBLIC 199c60 0 -[NSNull retainCount]
PUBLIC 199c70 0 -[NSNull dealloc]
PUBLIC 199c80 0 -[NSNull description]
PUBLIC 199c90 0 -[NSNull initWithCoder:]
PUBLIC 199ca0 0 -[NSNull encodeWithCoder:]
PUBLIC 199cb0 0 -[NSMutableArray insertObject:atIndex:]
PUBLIC 199ce0 0 -[NSMutableArray removeObjectAtIndex:]
PUBLIC 199d10 0 -[NSMutableArray replaceObjectAtIndex:withObject:]
PUBLIC 199d40 0 -[NSMutableArray addObject:]
PUBLIC 199de0 0 -[NSMutableArray addObjects:count:]
PUBLIC 199ef0 0 -[NSMutableArray addObjectsFromArray:range:]
PUBLIC 19a030 0 -[NSMutableArray addObjectsFromOrderedSet:range:]
PUBLIC 19a170 0 -[NSMutableArray addObjectsFromOrderedSet:]
PUBLIC 19a240 0 -[NSMutableArray addObjectsFromSet:]
PUBLIC 19a300 0 -[NSMutableArray exchangeObjectAtIndex:withObjectAtIndex:]
PUBLIC 19a4c0 0 -[NSMutableArray insertObjectsFromArray:atIndex:]
PUBLIC 19a6e0 0 -[NSMutableArray insertObjectsFromOrderedSet:range:atIndex:]
PUBLIC 19a980 0 -[NSMutableArray insertObjectsFromOrderedSet:atIndex:]
PUBLIC 19aba0 0 -[NSMutableArray insertObjectsFromSet:atIndex:]
PUBLIC 19adc0 0 -[NSMutableArray moveObjectsAtIndexes:toIndex:]
PUBLIC 19b110 0 -[NSMutableArray removeFirstObject]
PUBLIC 19b190 0 -[NSMutableArray removeLastObject]
PUBLIC 19b240 0 -[NSMutableArray removeObjectIdenticalTo:inRange:]
PUBLIC 19b3a0 0 -[NSMutableArray removeObjectsInRange:inArray:]
PUBLIC 19b500 0 -[NSMutableArray removeObjectsInArray:range:]
PUBLIC 19b650 0 -[NSMutableArray removeObjectsInRange:inOrderedSet:range:]
PUBLIC 19b870 0 -[NSMutableArray removeObjectsInRange:inOrderedSet:]
PUBLIC 19b9d0 0 -[NSMutableArray removeObjectsInOrderedSet:range:]
PUBLIC 19bb20 0 -[NSMutableArray removeObjectsInOrderedSet:]
PUBLIC 19bc10 0 -[NSMutableArray removeObjectsInRange:inSet:]
PUBLIC 19bda0 0 -[NSMutableArray removeObjectsInSet:]
PUBLIC 19be60 0 -[NSMutableArray removeObjectsAtIndexes:options:passingTest:]
PUBLIC 19c010 0 -[NSMutableArray removeObjectsWithOptions:passingTest:]
PUBLIC 19c150 0 -[NSMutableArray removeObjectsPassingTest:]
PUBLIC 19c190 0 -[NSMutableArray replaceObject:inRange:]
PUBLIC 19c330 0 -[NSMutableArray replaceObject:]
PUBLIC 19c460 0 -[NSMutableArray replaceObjectsInRange:withObjectsFromArray:range:]
PUBLIC 19c720 0 -[NSMutableArray replaceObjectsInRange:withObjectsFromOrderedSet:range:]
PUBLIC 19c9e0 0 -[NSMutableArray replaceObjectsInRange:withObjectsFromOrderedSet:]
PUBLIC 19cc20 0 -[NSMutableArray replaceObjectsInRange:withObjectsFromSet:]
PUBLIC 19ce60 0 -[NSMutableArray setObject:atIndex:]
PUBLIC 19cf80 0 -[NSMutableArray sortedArrayFromRange:options:usingComparator:]
PUBLIC 19cfd0 0 -[NSMutableArray setOrderedSet:]
PUBLIC 19d1a0 0 -[NSMutableArray setSet:]
PUBLIC 19d370 0 __copy_helper_block_
PUBLIC 19d390 0 __destroy_helper_block_
PUBLIC 19d3b0 0 -[NSMutableArray sortUsingFunction:context:range:]
PUBLIC 19d550 0 __50-[NSMutableArray sortUsingFunction:context:range:]_block_invoke
PUBLIC 19d570 0 -[NSMutableArray initWithCapacity:]
PUBLIC 19d5a0 0 -[NSMutableArray initWithObjects:count:]
PUBLIC 19d670 0 __CFZombifyNSObject
PUBLIC 19d6d0 0 __CFOAInitializeNSObject
PUBLIC 19d7f0 0 couldNotInstantiate
PUBLIC 19d850 0 +[NSObject(NSObject) doesNotRecognizeSelector:]
PUBLIC 19d8e0 0 __CFExceptionProem
PUBLIC 19d910 0 -[NSObject(NSObject) doesNotRecognizeSelector:]
PUBLIC 19d9a0 0 -[NSObject(NSObject) __retain_OA]
PUBLIC 19d9d0 0 -[NSObject(NSObject) ___tryRetain_OA]
PUBLIC 19da10 0 -[NSObject(NSObject) __release_OA]
PUBLIC 19da40 0 -[NSObject(NSObject) __autorelease_OA]
PUBLIC 19da80 0 +[NSObject(NSObject) __allocWithZone_OA:]
PUBLIC 19dac0 0 -[NSObject(NSObject) __dealloc_zombie]
PUBLIC 19db90 0 +[NSObject(NSObject) init]
PUBLIC 19dc10 0 +[NSObject(NSObject) dealloc]
PUBLIC 19dc80 0 -[NSObject(NSKindOfAdditions) isNSArray__]
PUBLIC 19dc90 0 -[NSObject(NSKindOfAdditions) isNSCFConstantString__]
PUBLIC 19dca0 0 -[NSObject(NSKindOfAdditions) isNSData__]
PUBLIC 19dcb0 0 -[NSObject(NSKindOfAdditions) isNSDate__]
PUBLIC 19dcc0 0 -[NSObject(NSKindOfAdditions) isNSDictionary__]
PUBLIC 19dcd0 0 -[NSObject(NSKindOfAdditions) isNSNumber__]
PUBLIC 19dce0 0 -[NSObject(NSKindOfAdditions) isNSObject__]
PUBLIC 19dcf0 0 -[NSObject(NSKindOfAdditions) isNSOrderedSet__]
PUBLIC 19dd00 0 -[NSObject(NSKindOfAdditions) isNSSet__]
PUBLIC 19dd10 0 -[NSObject(NSKindOfAdditions) isNSString__]
PUBLIC 19dd20 0 -[NSObject(NSKindOfAdditions) isNSTimeZone__]
PUBLIC 19dd30 0 -[NSObject(NSKindOfAdditions) isNSValue__]
PUBLIC 19dd40 0 +[_NSZombie_ initialize]
PUBLIC 19dd50 0 +[__NSAtom initialize]
PUBLIC 19dd60 0 makeAtom
PUBLIC 19deb0 0 getAtomTarget
PUBLIC 19df20 0 -[__NSCFType retainCount]
PUBLIC 19df30 0 -[__NSCFType description]
PUBLIC 19df50 0 -[__NSCFType dealloc]
PUBLIC 19dfb0 0 +[__NSCFType automaticallyNotifiesObserversForKey:]
PUBLIC 19dfc0 0 +[__NSGenericDeallocHandler initialize]
PUBLIC 19dfd0 0 -[__NSGenericDeallocHandler retain]
PUBLIC 19dfe0 0 -[__NSGenericDeallocHandler retainCount]
PUBLIC 19dff0 0 -[__NSGenericDeallocHandler release]
PUBLIC 19e030 0 -[__NSGenericDeallocHandler finalize]
PUBLIC 19e070 0 _NSSetDeallocHandler
PUBLIC 19e140 0 ___NSSetDeallocHandler_block_invoke
PUBLIC 19e160 0 __copy_helper_block_
PUBLIC 19e180 0 __destroy_helper_block_
PUBLIC 19e1a0 0 __CFFullMethodName
PUBLIC 19e280 0 __CFRequireConcreteImplementation
PUBLIC 19e380 0 __CFReallocateObjectArray
PUBLIC 19e430 0 _CFAutoreleasePoolPrintPools
PUBLIC 19e440 0 -[NSSet count]
PUBLIC 19e470 0 -[NSSet member:]
PUBLIC 19e4a0 0 -[NSSet objectEnumerator]
PUBLIC 19e4d0 0 -[NSSet _cfTypeID]
PUBLIC 19e4e0 0 -[NSSet descriptionWithLocale:]
PUBLIC 19e540 0 -[NSSet getObjects:range:]
PUBLIC 19e600 0 -[NSSet intersectsOrderedSet:]
PUBLIC 19e7d0 0 -[NSSet isSubsetOfOrderedSet:]
PUBLIC 19e9d0 0 -[NSSet members:notFoundMarker:]
PUBLIC 19eca0 0 -[NSSet objectWithOptions:passingTest:]
PUBLIC 19ed80 0 __39-[NSSet objectWithOptions:passingTest:]_block_invoke
PUBLIC 19edd0 0 __copy_helper_block_
PUBLIC 19edf0 0 __destroy_helper_block_
PUBLIC 19ee10 0 -[NSSet objectPassingTest:]
PUBLIC 19ee90 0 __copy_helper_block_.84
PUBLIC 19eed0 0 __destroy_helper_block_.85
PUBLIC 19ef00 0 -[NSSet sortedArrayWithOptions:usingComparator:]
PUBLIC 19f230 0 __48-[NSSet sortedArrayWithOptions:usingComparator:]_block_invoke
PUBLIC 19f250 0 __copy_helper_block_.96
PUBLIC 19f270 0 __destroy_helper_block_.97
PUBLIC 19f290 0 -[NSSet sortedArrayUsingComparator:]
PUBLIC 19f310 0 -[NSSet __applyValues:context:]
PUBLIC 19f4a0 0 -[NSSet __getValue:forObj:]
PUBLIC 19f4e0 0 -[NSSet initWithObjects:count:]
PUBLIC 19f510 0 -[NSSet initWithObject:]
PUBLIC 19f540 0 -[NSSet initWithArray:range:]
PUBLIC 19f560 0 -[NSSet initWithArray:copyItems:]
PUBLIC 19f5b0 0 -[NSSet initWithOrderedSet:range:copyItems:]
PUBLIC 19f850 0 -[NSSet initWithOrderedSet:range:]
PUBLIC 19f870 0 -[NSSet initWithOrderedSet:copyItems:]
PUBLIC 19f8c0 0 -[NSSet initWithOrderedSet:]
PUBLIC 19f910 0 __createSet
PUBLIC 19f940 0 +[NSSet newSetWithObjects:count:]
PUBLIC 19fad0 0 +[NSSet setWithArray:range:]
PUBLIC 19fb30 0 +[NSSet setWithArray:copyItems:]
PUBLIC 19fba0 0 +[NSSet setWithOrderedSet:range:copyItems:]
PUBLIC 19fc10 0 +[NSSet setWithOrderedSet:range:]
PUBLIC 19fc70 0 +[NSSet setWithOrderedSet:copyItems:]
PUBLIC 19fce0 0 +[NSSet setWithOrderedSet:]
PUBLIC 19fd40 0 +[NSSet setWithSet:copyItems:]
PUBLIC 19fd90 0 -[NSSet copyWithZone:]
PUBLIC 19fe10 0 +[NSSet supportsSecureCoding]
PUBLIC 19fe20 0 -[NSSet initWithCoder:]
PUBLIC 19fe30 0 -[NSSet encodeWithCoder:]
PUBLIC 19fe40 0 ___CFA2UC
PUBLIC 19fe50 0 +[__NSSetM automaticallyNotifiesObserversForKey:]
PUBLIC 19fe60 0 -[__NSSetM clumpingFactor]
PUBLIC 1a00c0 0 -[__NSSetM clumpingInterestingThreshold]
PUBLIC 1a0120 0 +[__NSSetM allocWithZone:]
PUBLIC 1a0140 0 cow_cleanup
PUBLIC 1a01e0 0 __25-[__NSSetM copyWithZone:]_block_invoke
PUBLIC 1a0210 0 -[__NSSetM mutableCopyWithZone:]
PUBLIC 1a0310 0 __32-[__NSSetM mutableCopyWithZone:]_block_invoke
PUBLIC 1a0340 0 -[__NSFrozenSetM count]
PUBLIC 1a0360 0 -[__NSFrozenSetM member:]
PUBLIC 1a0470 0 -[__NSFrozenSetM objectEnumerator]
PUBLIC 1a04f0 0 -[__NSFrozenSetM clumpingFactor]
PUBLIC 1a0750 0 -[__NSFrozenSetM clumpingInterestingThreshold]
PUBLIC 1a07b0 0 -[__NSFrozenSetM countByEnumeratingWithState:objects:count:]
PUBLIC 1a0890 0 -[__NSFrozenSetM enumerateObjectsWithOptions:usingBlock:]
PUBLIC 1a0a00 0 -[__NSFrozenSetM getObjects:count:]
PUBLIC 1a0ac0 0 +[__NSFrozenSetM allocWithZone:]
PUBLIC 1a0ae0 0 -[__NSFrozenSetM dealloc]
PUBLIC 1a0b30 0 -[__NSFrozenSetM copyWithZone:]
PUBLIC 1a0b50 0 -[__NSFrozenSetM mutableCopyWithZone:]
PUBLIC 1a0c50 0 __38-[__NSFrozenSetM mutableCopyWithZone:]_block_invoke
PUBLIC 1a0c80 0 __CLUMPINESS_block_invoke
PUBLIC 1a0ca0 0 __mset_enumerateObjectsWithOptionsUsingBlock_block_invoke
PUBLIC 1a0d20 0 __copy_helper_block_
PUBLIC 1a0d60 0 __destroy_helper_block_
PUBLIC 1a0d90 0 cow_copy_instance
PUBLIC 1a0e00 0 cow_copy_storage
PUBLIC 1a0ec0 0 cow_set_cow
PUBLIC 1a0ee0 0 cbInit
PUBLIC 1a0fc0 0 cbDestroy
PUBLIC 1a1000 0 _cbCanRead
PUBLIC 1a1020 0 cbRead
PUBLIC 1a1330 0 __cbRead
PUBLIC 1a1420 0 _cbCanWrite
PUBLIC 1a1430 0 cbWrite
PUBLIC 1a15b0 0 __cbWrite
PUBLIC 1a16a0 0 ____initDayChangedNotification_block_invoke_3
PUBLIC 1a16c0 0 ____initDayChangedNotification_block_invoke_4
PUBLIC 1a16e0 0 -[_NSCopyOnWriteCalendarWrapper setFirstWeekday:]
PUBLIC 1a17b0 0 -[_NSCopyOnWriteCalendarWrapper setMinimumDaysInFirstWeek:]
PUBLIC 1a1880 0 -[_NSCopyOnWriteCalendarWrapper minimumDaysInFirstWeek]
PUBLIC 1a1930 0 -[_NSCopyOnWriteCalendarWrapper gregorianStartDate]
PUBLIC 1a19e0 0 -[_NSCopyOnWriteCalendarWrapper setGregorianStartDate:]
PUBLIC 1a1ab0 0 -[_NSCopyOnWriteCalendarWrapper minimumRangeOfUnit:]
PUBLIC 1a1b70 0 -[_NSCopyOnWriteCalendarWrapper ordinalityOfUnit:inUnit:forDate:]
PUBLIC 1a1c40 0 -[_NSCopyOnWriteCalendarWrapper hash]
PUBLIC 1a1cf0 0 -[_NSCopyOnWriteCalendarWrapper nextWeekendStartDate:interval:options:afterDate:]
PUBLIC 1a1dd0 0 -[_NSCopyOnWriteCalendarWrapper enumerateDatesStartingAfterDate:matchingComponents:options:usingBlock:]
PUBLIC 1a1e80 0 _CFCalendarCopyCoWCurrentCalendar
PUBLIC 1a1ed0 0 _CFCalendarCreateCoWWithIdentifier
PUBLIC 1a1f50 0 +[NSCalendar autoupdatingCurrentCalendar]
PUBLIC 1a1f90 0 -[NSCalendar init]
PUBLIC 1a1fa0 0 -[NSCalendar _cfTypeID]
PUBLIC 1a1fe0 0 -[NSCalendar hash]
PUBLIC 1a2010 0 -[NSCalendar isEqual:]
PUBLIC 1a2220 0 -[NSCalendar copyWithZone:]
PUBLIC 1a2320 0 +[NSCalendar supportsSecureCoding]
PUBLIC 1a2330 0 -[NSCalendar initWithCoder:]
PUBLIC 1a2340 0 -[NSCalendar encodeWithCoder:]
PUBLIC 1a2350 0 -[NSCalendar getEra:year:month:day:fromDate:]
PUBLIC 1a24f0 0 -[NSCalendar getEra:yearForWeekOfYear:weekOfYear:weekday:fromDate:]
PUBLIC 1a2690 0 -[NSCalendar getHour:minute:second:nanosecond:fromDate:]
PUBLIC 1a2830 0 -[NSCalendar dateWithEra:year:month:day:hour:minute:second:nanosecond:]
PUBLIC 1a2940 0 -[NSCalendar dateWithEra:yearForWeekOfYear:weekOfYear:weekday:hour:minute:second:nanosecond:]
PUBLIC 1a2a50 0 -[NSCalendar componentsInTimeZone:fromDate:]
PUBLIC 1a2ad0 0 -[NSCalendar isDateInYesterday:]
PUBLIC 1a2c60 0 -[NSCalendar isDateInTomorrow:]
PUBLIC 1a2e00 0 -[NSCalendar rangeOfWeekendStartDate:interval:containingDate:]
PUBLIC 1a2f00 0 -[NSCalendar components:fromDateComponents:toDateComponents:options:]
PUBLIC 1a2fb0 0 -[NSCalendar nextDateAfterDate:matchingComponents:options:]
PUBLIC 1a3080 0 __Block_byref_object_copy_
PUBLIC 1a30a0 0 __Block_byref_object_dispose_
PUBLIC 1a30c0 0 __59-[NSCalendar nextDateAfterDate:matchingComponents:options:]_block_invoke
PUBLIC 1a30e0 0 __copy_helper_block_
PUBLIC 1a3100 0 __destroy_helper_block_
PUBLIC 1a3120 0 -[NSCalendar nextDateAfterDate:matchingUnit:value:options:]
PUBLIC 1a32a0 0 -[NSCalendar nextDateAfterDate:matchingHour:minute:second:options:]
PUBLIC 1a3450 0 -[NSCalendar dateBySettingUnit:value:ofDate:options:]
PUBLIC 1a35d0 0 __53-[NSCalendar dateBySettingUnit:value:ofDate:options:]_block_invoke
PUBLIC 1a35f0 0 __copy_helper_block_.230
PUBLIC 1a3610 0 __destroy_helper_block_.231
PUBLIC 1a3630 0 -[NSCalendar dateBySettingHour:minute:second:ofDate:options:]
PUBLIC 1a3880 0 -[NSCalendar date:matchesComponents:]
PUBLIC 1a3c80 0 -[NSCalendar isDateInWeekend:]
PUBLIC 1a3cb0 0 -[NSCalendar nextWeekendStartDate:interval:options:afterDate:]
PUBLIC 1a3ce0 0 -[NSCalendar enumerateDatesStartingAfterDate:matchingComponents:options:usingBlock:]
PUBLIC 1a3d10 0 -[NSCalendar initWithCalendarIdentifier:]
PUBLIC 1a3d20 0 -[NSCalendar calendarIdentifier]
PUBLIC 1a3d50 0 -[NSCalendar setLocale:]
PUBLIC 1a3d80 0 -[NSCalendar locale]
PUBLIC 1a3db0 0 -[NSCalendar setTimeZone:]
PUBLIC 1a3de0 0 -[NSCalendar timeZone]
PUBLIC 1a3e10 0 -[NSCalendar setFirstWeekday:]
PUBLIC 1a3e40 0 -[NSCalendar firstWeekday]
PUBLIC 1a3e70 0 -[NSCalendar setMinimumDaysInFirstWeek:]
PUBLIC 1a3ea0 0 -[NSCalendar minimumDaysInFirstWeek]
PUBLIC 1a3ed0 0 -[NSCalendar setGregorianStartDate:]
PUBLIC 1a3ee0 0 -[NSCalendar gregorianStartDate]
PUBLIC 1a3ef0 0 -[NSCalendar minimumRangeOfUnit:]
PUBLIC 1a3f20 0 -[NSCalendar maximumRangeOfUnit:]
PUBLIC 1a3f50 0 -[NSCalendar rangeOfUnit:inUnit:forDate:]
PUBLIC 1a3f80 0 -[NSCalendar ordinalityOfUnit:inUnit:forDate:]
PUBLIC 1a3fb0 0 -[NSCalendar rangeOfUnit:startDate:interval:forDate:]
PUBLIC 1a3fc0 0 -[NSCalendar dateFromComponents:]
PUBLIC 1a3ff0 0 -[NSCalendar components:fromDate:]
PUBLIC 1a4020 0 -[NSCalendar dateByAddingComponents:toDate:options:]
PUBLIC 1a4050 0 -[NSCalendar components:fromDate:toDate:options:]
PUBLIC 1a4080 0 -[NSCalendar _copyLocale]
PUBLIC 1a40b0 0 -[NSCalendar _copyTimeZone]
PUBLIC 1a40e0 0 -[NSCalendar _setGregorianStartDate:]
PUBLIC 1a4100 0 -[NSCalendar _gregorianStartDate]
PUBLIC 1a4130 0 -[NSCalendar eraSymbols]
PUBLIC 1a41c0 0 -[NSCalendar monthSymbols]
PUBLIC 1a4250 0 -[NSCalendar shortMonthSymbols]
PUBLIC 1a42e0 0 -[NSCalendar weekdaySymbols]
PUBLIC 1a4370 0 -[NSCalendar shortWeekdaySymbols]
PUBLIC 1a4400 0 -[NSCalendar AMSymbol]
PUBLIC 1a4490 0 -[NSCalendar PMSymbol]
PUBLIC 1a4520 0 -[NSCalendar longEraSymbols]
PUBLIC 1a45b0 0 -[NSCalendar veryShortMonthSymbols]
PUBLIC 1a4640 0 -[NSCalendar standaloneMonthSymbols]
PUBLIC 1a46d0 0 -[NSCalendar shortStandaloneMonthSymbols]
PUBLIC 1a4760 0 -[NSCalendar veryShortStandaloneMonthSymbols]
PUBLIC 1a47f0 0 -[NSCalendar veryShortWeekdaySymbols]
PUBLIC 1a4880 0 -[NSCalendar standaloneWeekdaySymbols]
PUBLIC 1a4910 0 -[NSCalendar shortStandaloneWeekdaySymbols]
PUBLIC 1a49a0 0 -[NSCalendar veryShortStandaloneWeekdaySymbols]
PUBLIC 1a4a30 0 -[NSCalendar quarterSymbols]
PUBLIC 1a4ac0 0 -[NSCalendar shortQuarterSymbols]
PUBLIC 1a4b50 0 -[NSCalendar standaloneQuarterSymbols]
PUBLIC 1a4be0 0 -[NSCalendar shortStandaloneQuarterSymbols]
PUBLIC 1a4c70 0 -[NSCalendar _minimumRangeOfUnit:]
PUBLIC 1a4ca0 0 -[NSCalendar _maximumRangeOfUnit:]
PUBLIC 1a4cd0 0 -[NSCalendar _rangeOfUnit:inUnit:forAT:]
PUBLIC 1a4d40 0 -[NSCalendar _ordinalityOfUnit:inUnit:forAT:]
PUBLIC 1a4db0 0 -[NSCalendar _rangeOfUnit:startTime:interval:forAT:]
PUBLIC 1a4e60 0 -[NSCalendar _composeAbsoluteTime:::]
PUBLIC 1a5280 0 -[NSCalendar _decomposeAbsoluteTime:::]
PUBLIC 1a5930 0 -[NSCalendar _addComponents::::]
PUBLIC 1a5d60 0 -[NSCalendar _diffComponents:::::]
PUBLIC 1a6440 0 -[__NSCFCalendar isEqual:]
PUBLIC 1a6460 0 -[__NSCFCalendar hash]
PUBLIC 1a6470 0 -[__NSCFCalendar _tryRetain]
PUBLIC 1a6490 0 -[__NSCFCalendar _isDeallocating]
PUBLIC 1a64a0 0 -[__NSCFCalendar retainCount]
PUBLIC 1a64b0 0 +[__NSCFCalendar automaticallyNotifiesObserversForKey:]
PUBLIC 1a64c0 0 -[__NSCFCalendar setFirstWeekday:]
PUBLIC 1a64d0 0 CFCalendarSetFirstWeekday
PUBLIC 1a65a0 0 -[__NSCFCalendar setMinimumDaysInFirstWeek:]
PUBLIC 1a65b0 0 CFCalendarSetMinimumDaysInFirstWeek
PUBLIC 1a6680 0 -[__NSCFCalendar minimumDaysInFirstWeek]
PUBLIC 1a6730 0 -[__NSCFCalendar setGregorianStartDate:]
PUBLIC 1a6740 0 CFCalendarSetGregorianStartDate
PUBLIC 1a6950 0 -[__NSCFCalendar gregorianStartDate]
PUBLIC 1a6970 0 CFCalendarCopyGregorianStartDate
PUBLIC 1a6a20 0 -[__NSCFCalendar minimumRangeOfUnit:]
PUBLIC 1a6a50 0 CFCalendarGetMinimumRangeOfUnit
PUBLIC 1a6de0 0 -[__NSCFCalendar ordinalityOfUnit:inUnit:forDate:]
PUBLIC 1a6f20 0 +[__NSCFCalendar calendarWithIdentifier:]
PUBLIC 1a6f60 0 -[__NSCFCalendar nextWeekendStartDate:interval:options:afterDate:]
PUBLIC 1a77f0 0 -[__NSCFCalendar __checkIfEra:hasYear:resultDate:]
PUBLIC 1a7a10 0 -[__NSCFCalendar __checkIfEra:hasYearForWeekOfYear:resultDate:resultInterval:]
PUBLIC 1a7a80 0 -[__NSCFCalendar __checkDate:containsMatchingComponents:mismatchedUnits:]
PUBLIC 1a8050 0 -[__NSCFCalendar __findMatchingDate:afterStartDate:matchingComponents:goingBackwards:findLastMatch:options:]
PUBLIC 1a9ef0 0 -[__NSCFCalendar __findHighestSetUnitInDateComponents:]
PUBLIC 1aa0d0 0 -[__NSCFCalendar __findLowestSetUnitInDateComponents:]
PUBLIC 1aa2b0 0 -[__NSCFCalendar __verifyNSDateComponentsValues:]
PUBLIC 1aa740 0 -[__NSCFCalendar __findMatchingDate:matchingComponents:inNextHighestUnitRange:afterStartDate:goBackwards:findLastMatch:options:]
PUBLIC 1aa860 0 -[__NSCFCalendar __ensureThoroughEnumerationByAdjustingComponents:usingSearchDate:goBackwards:]
PUBLIC 1aaa10 0 -[__NSCFCalendar __bumpSearchingDate:upToNextHigherUnitInComponents:goBackwards:usingMatchDate:]
PUBLIC 1aad80 0 _NSCalendarPreserveSmallerUnits
PUBLIC 1aae90 0 -[__NSCFCalendar enumerateDatesStartingAfterDate:matchingComponents:options:usingBlock:]
PUBLIC 1acc50 0 CFCalendarAddComponents
PUBLIC 1aceb0 0 CFCalendarGetComponentDifference
PUBLIC 1ad130 0 __CFCalendarGetRangeOfUnit2
PUBLIC 1ad880 0 __CFCalendarEqual
PUBLIC 1ad8a0 0 __CFCalendarHash
PUBLIC 1ad8b0 0 __CFCalendarCopyDescription
PUBLIC 1ad8f0 0 -[__NSTimeZone isDaylightSavingTimeForDate:]
PUBLIC 1ad920 0 -[__NSTimeZone nextDaylightSavingTimeTransitionAfterDate:]
PUBLIC 1adb30 0 -[__NSTimeZone localizedName:locale:]
PUBLIC 1addf0 0 -[__NSTimeZone dealloc]
PUBLIC 1ade70 0 +[__NSTimeZone automaticallyNotifiesObserversForKey:]
PUBLIC 1ade80 0 +[__NSTimeZone allocWithZone:]
PUBLIC 1adea0 0 CFTimeZoneGetTypeID
PUBLIC 1adee0 0 -[__NSPlaceholderTimeZone init]
PUBLIC 1adf00 0 -[__NSPlaceholderTimeZone retain]
PUBLIC 1adf10 0 -[__NSPlaceholderTimeZone release]
PUBLIC 1adf20 0 -[__NSPlaceholderTimeZone retainCount]
PUBLIC 1adf30 0 -[__NSPlaceholderTimeZone dealloc]
PUBLIC 1adf40 0 -[__NSPlaceholderTimeZone name]
PUBLIC 1adfc0 0 -[__NSPlaceholderTimeZone data]
PUBLIC 1ae040 0 -[__NSPlaceholderTimeZone secondsFromGMTForDate:]
PUBLIC 1ae0c0 0 -[__NSPlaceholderTimeZone abbreviationForDate:]
PUBLIC 1ae140 0 -[__NSPlaceholderTimeZone isDaylightSavingTimeForDate:]
PUBLIC 1ae1c0 0 -[__NSPlaceholderTimeZone daylightSavingTimeOffsetForDate:]
PUBLIC 1ae240 0 -[__NSPlaceholderTimeZone nextDaylightSavingTimeTransitionAfterDate:]
PUBLIC 1ae2c0 0 -[NSTimeZone name]
PUBLIC 1ae2f0 0 -[NSTimeZone data]
PUBLIC 1ae320 0 -[NSTimeZone secondsFromGMTForDate:]
PUBLIC 1ae350 0 -[NSTimeZone abbreviationForDate:]
PUBLIC 1ae380 0 -[NSTimeZone isDaylightSavingTimeForDate:]
PUBLIC 1ae3b0 0 -[NSTimeZone daylightSavingTimeOffsetForDate:]
PUBLIC 1ae3c0 0 -[NSTimeZone nextDaylightSavingTimeTransitionAfterDate:]
PUBLIC 1ae3d0 0 -[NSTimeZone _cfTypeID]
PUBLIC 1ae410 0 __resetTimeZone
PUBLIC 1ae4b0 0 +[NSTimeZone resetSystemTimeZone]
PUBLIC 1ae4d0 0 +[NSTimeZone setDefaultTimeZone:]
PUBLIC 1ae5b0 0 __27+[NSTimeZone localTimeZone]_block_invoke
PUBLIC 1ae5e0 0 +[NSTimeZone knownTimeZoneNames]
PUBLIC 1ae630 0 __createTimeZoneNamesFromICU
PUBLIC 1b63e0 0 +[NSTimeZone setAbbreviationDictionary:]
PUBLIC 1b6450 0 +[NSTimeZone timeZoneDataVersion]
PUBLIC 1b64a0 0 -[NSTimeZone secondsFromGMT]
PUBLIC 1b64e0 0 -[NSTimeZone isDaylightSavingTime]
PUBLIC 1b6520 0 -[NSTimeZone daylightSavingTimeOffset]
PUBLIC 1b6560 0 -[NSTimeZone nextDaylightSavingTimeTransition]
PUBLIC 1b65a0 0 -[NSTimeZone localizedName:locale:]
PUBLIC 1b65b0 0 -[NSTimeZone description]
PUBLIC 1b6660 0 +[NSTimeZone timeZoneWithName:data:]
PUBLIC 1b66b0 0 -[NSTimeZone initWithName:data:]
PUBLIC 1b66e0 0 -[NSTimeZone initWithName:]
PUBLIC 1b6710 0 +[NSTimeZone supportsSecureCoding]
PUBLIC 1b6720 0 -[NSTimeZone initWithCoder:]
PUBLIC 1b6730 0 -[NSTimeZone encodeWithCoder:]
PUBLIC 1b6740 0 -[__NSLocalTimeZone data]
PUBLIC 1b6780 0 -[__NSLocalTimeZone abbreviationForDate:]
PUBLIC 1b67c0 0 -[__NSLocalTimeZone isDaylightSavingTimeForDate:]
PUBLIC 1b6800 0 -[__NSLocalTimeZone daylightSavingTimeOffsetForDate:]
PUBLIC 1b6840 0 -[__NSLocalTimeZone nextDaylightSavingTimeTransitionAfterDate:]
PUBLIC 1b6880 0 -[__NSLocalTimeZone localizedName:locale:]
PUBLIC 1b68d0 0 -[__NSLocalTimeZone description]
PUBLIC 1b6930 0 +[__NSLocalTimeZone supportsSecureCoding]
PUBLIC 1b6940 0 -[__NSLocalTimeZone initWithCoder:]
PUBLIC 1b69a0 0 -[__NSLocalTimeZone encodeWithCoder:]
PUBLIC 1b69b0 0 -[__NSLocalTimeZone classForCoder]
PUBLIC 1b69d0 0 -[__NSLocalTimeZone replacementObjectForPortCoder:]
PUBLIC 1b69e0 0 -[__NSLocalTimeZoneI retain]
PUBLIC 1b69f0 0 -[__NSLocalTimeZoneI release]
PUBLIC 1b6a00 0 -[__NSLocalTimeZoneI retainCount]
PUBLIC 1b6a10 0 -[__NSLocalTimeZoneI _isDeallocating]
PUBLIC 1b6a20 0 -[__NSLocalTimeZoneI _tryRetain]
PUBLIC 1b6a30 0 CFTimeZoneResetSystem
PUBLIC 1b6a70 0 CFTimeZoneSetDefault
PUBLIC 1b6ab0 0 CFTimeZoneCopyKnownNames
PUBLIC 1b6b00 0 CFTimeZoneCopyAbbreviationDictionary
PUBLIC 1b6b50 0 CFTimeZoneSetAbbreviationDictionary
PUBLIC 1b6b90 0 CFTimeZoneCreate
PUBLIC 1b6bf0 0 CFTimeZoneCreateWithName
PUBLIC 1b6d30 0 CFTimeZoneGetData
PUBLIC 1b6d50 0 CFTimeZoneCopyAbbreviation
PUBLIC 1b6dd0 0 CFTimeZoneIsDaylightSavingTime
PUBLIC 1b6e40 0 CFTimeZoneGetDaylightSavingTimeOffset
PUBLIC 1b6eb0 0 CFTimeZoneGetNextDaylightSavingTimeTransition
PUBLIC 1b6f40 0 CFTimeZoneCopyLocalizedName
PUBLIC 1b6fa0 0 +[__NSArrayI automaticallyNotifiesObserversForKey:]
PUBLIC 1b6fb0 0 __copy_helper_block_
PUBLIC 1b7000 0 __destroy_helper_block_
PUBLIC 1b7040 0 -[__NSArrayI objectAtIndexedSubscript:]
PUBLIC 1b70a0 0 +[__NSArrayI allocWithZone:]
PUBLIC 1b70c0 0 +[__NSArrayI __new::::]
PUBLIC 1b71d0 0 -[__NSArrayI mutableCopyWithZone:]
PUBLIC 1b7210 0 -[__NSArrayI_Transfer count]
PUBLIC 1b7230 0 -[__NSArrayI_Transfer objectAtIndex:]
PUBLIC 1b72a0 0 -[__NSArrayI_Transfer getObjects:range:]
PUBLIC 1b73f0 0 +[__NSArrayI_Transfer automaticallyNotifiesObserversForKey:]
PUBLIC 1b7400 0 -[__NSArrayI_Transfer countByEnumeratingWithState:objects:count:]
PUBLIC 1b7490 0 -[__NSArrayI_Transfer enumerateObjectsWithOptions:usingBlock:]
PUBLIC 1b7670 0 __62-[__NSArrayI_Transfer enumerateObjectsWithOptions:usingBlock:]_block_invoke
PUBLIC 1b76f0 0 __copy_helper_block_.45
PUBLIC 1b7740 0 __destroy_helper_block_.46
PUBLIC 1b7780 0 -[__NSArrayI_Transfer objectAtIndexedSubscript:]
PUBLIC 1b77f0 0 +[__NSArrayI_Transfer allocWithZone:]
PUBLIC 1b7810 0 +[__NSArrayI_Transfer __transferNew:::]
PUBLIC 1b7860 0 -[__NSArrayI_Transfer dealloc]
PUBLIC 1b78e0 0 -[__NSArrayI_Transfer copyWithZone:]
PUBLIC 1b7900 0 -[__NSArrayI_Transfer mutableCopyWithZone:]
PUBLIC 1b7940 0 -[_NSPlaceholderLocale retain]
PUBLIC 1b7950 0 -[_NSPlaceholderLocale release]
PUBLIC 1b7960 0 -[_NSPlaceholderLocale autorelease]
PUBLIC 1b7970 0 -[NSLocale objectForKey:]
PUBLIC 1b79a0 0 -[NSLocale displayNameForKey:value:]
PUBLIC 1b79d0 0 -[NSLocale _nullLocale]
PUBLIC 1b79e0 0 -[NSLocale _setNullLocale]
PUBLIC 1b79f0 0 -[NSLocale _cfTypeID]
PUBLIC 1b7a00 0 -[NSLocale hash]
PUBLIC 1b7a30 0 -[NSLocale isEqual:]
PUBLIC 1b7ad0 0 +[NSLocale supportsSecureCoding]
PUBLIC 1b7ae0 0 -[NSLocale initWithCoder:]
PUBLIC 1b7af0 0 -[NSLocale encodeWithCoder:]
PUBLIC 1b7b00 0 -[NSLocale localizedStringForLocaleIdentifier:]
PUBLIC 1b7b20 0 -[NSLocale languageCode]
PUBLIC 1b7b40 0 -[NSLocale localizedStringForLanguageCode:]
PUBLIC 1b7b60 0 -[NSLocale countryCode]
PUBLIC 1b7b80 0 -[NSLocale localizedStringForCountryCode:]
PUBLIC 1b7ba0 0 -[NSLocale scriptCode]
PUBLIC 1b7bc0 0 -[NSLocale localizedStringForScriptCode:]
PUBLIC 1b7be0 0 -[NSLocale variantCode]
PUBLIC 1b7c00 0 -[NSLocale localizedStringForVariantCode:]
PUBLIC 1b7c20 0 -[NSLocale calendarIdentifier]
PUBLIC 1b7c40 0 -[NSLocale localizedStringForCalendarIdentifier:]
PUBLIC 1b7c60 0 -[NSLocale collationIdentifier]
PUBLIC 1b7c80 0 -[NSLocale localizedStringForCollationIdentifier:]
PUBLIC 1b7ca0 0 -[NSLocale decimalSeparator]
PUBLIC 1b7cc0 0 -[NSLocale localizedStringForDecimalSeparator:]
PUBLIC 1b7ce0 0 -[NSLocale groupingSeparator]
PUBLIC 1b7d00 0 -[NSLocale localizedStringForGroupingSeparator:]
PUBLIC 1b7d20 0 -[NSLocale currencySymbol]
PUBLIC 1b7d40 0 -[NSLocale localizedStringForCurrencySymbol:]
PUBLIC 1b7d60 0 -[NSLocale currencyCode]
PUBLIC 1b7d80 0 -[NSLocale localizedStringForCurrencyCode:]
PUBLIC 1b7da0 0 -[NSLocale collatorIdentifier]
PUBLIC 1b7dc0 0 -[NSLocale localizedStringForCollatorIdentifier:]
PUBLIC 1b7de0 0 -[NSLocale quotationBeginDelimiter]
PUBLIC 1b7e00 0 -[NSLocale localizedStringForQuotationBeginDelimiter:]
PUBLIC 1b7e20 0 -[NSLocale quotationEndDelimiter]
PUBLIC 1b7e40 0 -[NSLocale localizedStringForQuotationEndDelimiter:]
PUBLIC 1b7e60 0 -[NSLocale alternateQuotationBeginDelimiter]
PUBLIC 1b7e80 0 -[NSLocale localizedStringForAlternateQuotationBeginDelimiter:]
PUBLIC 1b7ea0 0 -[NSLocale alternateQuotationEndDelimiter]
PUBLIC 1b7ec0 0 -[NSLocale localizedStringForAlternateQuotationEndDelimiter:]
PUBLIC 1b7ee0 0 -[NSLocale exemplarCharacterSet]
PUBLIC 1b7f00 0 -[NSLocale usesMetricSystem]
PUBLIC 1b7f40 0 -[NSLocale identifier]
PUBLIC 1b7f60 0 -[NSLocale initWithLocaleIdentifier:]
PUBLIC 1b7f90 0 +[NSLocale ISOLanguageCodes]
PUBLIC 1b7fb0 0 +[NSLocale ISOCurrencyCodes]
PUBLIC 1b7fd0 0 +[NSLocale commonISOCurrencyCodes]
PUBLIC 1b7ff0 0 +[NSLocale localeIdentifierFromWindowsLocaleCode:]
PUBLIC 1b8020 0 +[NSLocale windowsLocaleCodeFromLocaleIdentifier:]
PUBLIC 1b8030 0 +[NSLocale lineDirectionForLanguage:]
PUBLIC 1b8040 0 -[NSLocale _copyDisplayNameForKey:value:]
PUBLIC 1b8070 0 -[NSLocale _prefs]
PUBLIC 1b8080 0 __CFStringEncodingGetFromICUName
PUBLIC 1b8240 0 __CFStringEncodingICUToBytes
PUBLIC 1b86f0 0 __CFStringEncodingICUByteLength
PUBLIC 1b8720 0 __CFStringEncodingCreateICUEncodings
PUBLIC 1b87d0 0 __CFICUThreadDataDestructor
PUBLIC 1b8840 0 _CFPrefsCopyDescriptionOfAllSearchLists
PUBLIC 1b8850 0 _CFPrefsDumpDescriptionOfAllSearchLists
PUBLIC 1b89b0 0 -[CFPrefsSearchListSource initWithIdentifier:containingPreferences:]
PUBLIC 1b8a60 0 _CFPrefsSetEphemeralMultiUserEnabled
PUBLIC 1b8a70 0 eduModeEnabled
PUBLIC 1b8a90 0 _CFPrefsCreateConfigurationFileNameFromIdentifier
PUBLIC 1b8af0 0 _CFPrefsCopyCloudConfigurationURLFromBundle
PUBLIC 1b8ba0 0 _CFPrefsEnableWritingToExternalAppCloudPreferences
PUBLIC 1b8bb0 0 -[CFPrefsSearchListSource copyCloudConfigurationWithURL:outConfigFileSource:outStoreName:]
PUBLIC 1b9040 0 -[CFPrefsSearchListSource alreadylocked_setObservingContents:]
PUBLIC 1b9110 0 -[CFPrefsSearchListSource addPreferencesObserver:]
PUBLIC 1b9200 0 -[CFPrefsSearchListSource removePreferencesObserver:]
PUBLIC 1b9290 0 -[CFPrefsSearchListSource lockObservers]
PUBLIC 1b92b0 0 -[CFPrefsSearchListSource unlockObservers]
PUBLIC 1b92d0 0 -[CFPrefsSearchListSource lock]
PUBLIC 1b92e0 0 -[CFPrefsSearchListSource unlock]
PUBLIC 1b92f0 0 __copy_helper_block_
PUBLIC 1b9310 0 __destroy_helper_block_
PUBLIC 1b9330 0 __copy_helper_block_.49
PUBLIC 1b9350 0 __destroy_helper_block_.50
PUBLIC 1b9370 0 -[CFPrefsSearchListSource addCloudSourceForIdentifier:configurationPath:storeName:container:]
PUBLIC 1b93f0 0 __93-[CFPrefsSearchListSource addCloudSourceForIdentifier:configurationPath:storeName:container:]_block_invoke
PUBLIC 1b9450 0 __copy_helper_block_.59
PUBLIC 1b9470 0 __destroy_helper_block_.60
PUBLIC 1b9490 0 __copy_helper_block_.62
PUBLIC 1b94b0 0 __destroy_helper_block_.63
PUBLIC 1b94d0 0 __copy_helper_block_.68
PUBLIC 1b94f0 0 __destroy_helper_block_.69
PUBLIC 1b9510 0 -[CFPrefsSearchListSource alreadylocked_useCloudForKey:]
PUBLIC 1b95c0 0 -[CFPrefsSearchListSource alreadylocked_hasCloudValueForKey:]
PUBLIC 1b9630 0 -[CFPrefsSearchListSource alreadylocked_hasNonRegisteredValueForKey:]
PUBLIC 1b9740 0 -[CFPrefsSearchListSource alreadylocked_setValues:forKeys:count:from:]
PUBLIC 1b9d90 0 -[CFPrefsSearchListSource fullCloudSynchronizeWithCompletionHandler:]
PUBLIC 1b9dc0 0 -[CFPrefsSearchListSource alreadylocked_copyKeyList]
PUBLIC 1b9f70 0 __copy_helper_block_.107
PUBLIC 1b9fc0 0 __destroy_helper_block_.108
PUBLIC 1ba000 0 CFPREFERENCES_IS_WAITING_FOR_SYSTEM_CFPREFSD
PUBLIC 1ba060 0 CFPREFERENCES_IS_WAITING_FOR_USER_CFPREFSD
PUBLIC 1ba0c0 0 _CFPrefsClientLog
PUBLIC 1ba100 0 ___CFPrefsClientLog_block_invoke
PUBLIC 1ba120 0 _CFPrefsDaemonLog
PUBLIC 1ba160 0 ___CFPrefsDaemonLog_block_invoke
PUBLIC 1ba180 0 -[CFPrefsSearchListSource alreadylocked_generationCountFromListOfSources:count:]
PUBLIC 1ba350 0 __80-[CFPrefsSearchListSource alreadylocked_generationCountFromListOfSources:count:]_block_invoke
PUBLIC 1ba460 0 __80-[CFPrefsSearchListSource alreadylocked_generationCountFromListOfSources:count:]_block_invoke_2
PUBLIC 1ba4f0 0 __80-[CFPrefsSearchListSource alreadylocked_generationCountFromListOfSources:count:]_block_invoke_3
PUBLIC 1ba550 0 __copy_helper_block_.123
PUBLIC 1ba5b0 0 __destroy_helper_block_.124
PUBLIC 1ba600 0 __copy_helper_block_.127
PUBLIC 1ba650 0 __destroy_helper_block_.128
PUBLIC 1ba690 0 __copy_helper_block_.132
PUBLIC 1ba6b0 0 __destroy_helper_block_.133
PUBLIC 1ba6d0 0 __80-[CFPrefsSearchListSource alreadylocked_generationCountFromListOfSources:count:]_block_invoke.136
PUBLIC 1ba770 0 __80-[CFPrefsSearchListSource alreadylocked_generationCountFromListOfSources:count:]_block_invoke_2.138
PUBLIC 1ba7f0 0 __80-[CFPrefsSearchListSource alreadylocked_generationCountFromListOfSources:count:]_block_invoke_3.139
PUBLIC 1ba860 0 __copy_helper_block_.140
PUBLIC 1ba8a0 0 __destroy_helper_block_.141
PUBLIC 1ba8d0 0 __copy_helper_block_.143
PUBLIC 1ba910 0 __destroy_helper_block_.144
PUBLIC 1ba940 0 __copy_helper_block_.146
PUBLIC 1ba960 0 __destroy_helper_block_.147
PUBLIC 1ba980 0 __80-[CFPrefsSearchListSource alreadylocked_generationCountFromListOfSources:count:]_block_invoke.150
PUBLIC 1ba9a0 0 __copy_helper_block_.151
PUBLIC 1ba9f0 0 __destroy_helper_block_.152
PUBLIC 1baa30 0 -[CFPrefsSearchListSource handleRemoteChangeNotificationForDomainIdentifier:]
PUBLIC 1bab70 0 -[CFPrefsSearchListSource generationCount]
PUBLIC 1babc0 0 -[CFPrefsSearchListSource deferredNotifyCausedByLocalWriteOfChangesFromDictionary:toDictionary:]
PUBLIC 1bac30 0 __96-[CFPrefsSearchListSource deferredNotifyCausedByLocalWriteOfChangesFromDictionary:toDictionary:]_block_invoke
PUBLIC 1bac80 0 __copy_helper_block_.165
PUBLIC 1baca0 0 __destroy_helper_block_.166
PUBLIC 1bacc0 0 -[CFPrefsSearchListSource deferredNotifyCausedByLoadingOfChangesFromDictionary:toDictionary:]
PUBLIC 1bad30 0 __93-[CFPrefsSearchListSource deferredNotifyCausedByLoadingOfChangesFromDictionary:toDictionary:]_block_invoke
PUBLIC 1bad80 0 __copy_helper_block_.170
PUBLIC 1bada0 0 __destroy_helper_block_.171
PUBLIC 1badc0 0 -[CFPrefsSearchListSource _deferredNotify:ofChangesFromDictionary:toDictionary:]
PUBLIC 1baea0 0 pendingKVODestructor
PUBLIC 1baeb0 0 -[CFPrefsSearchListSource alreadylocked_copyManagedValueForKey:]
PUBLIC 1bb000 0 -[CFPrefsSearchListSource alreadylocked_copyManagedDictionary]
PUBLIC 1bb0d0 0 -[CFPrefsSearchListSource removeSource:]
PUBLIC 1bb180 0 -[CFPrefsSearchListSource domainIdentifier]
PUBLIC 1bb1a0 0 -[CFPrefsSearchListSource setCloudEnabled:forKeyPrefix:]
PUBLIC 1bb290 0 -[CFPrefsSearchListSource setCloudEnabled:forKey:]
PUBLIC 1bb350 0 -[CFPrefsSearchListSource description]
PUBLIC 1bb580 0 -[CFPrefsSearchListSource copyOSLogDescription]
PUBLIC 1bb600 0 -[_CFXPreferences(SearchListAdditions) with23930198HackSourceForIdentifier:user:byHost:container:cloud:perform:]
PUBLIC 1bb620 0 -[_CFXPreferences(SearchListAdditions) updateSearchListsForIdentifier:]
PUBLIC 1bb6f0 0 __71-[_CFXPreferences(SearchListAdditions) updateSearchListsForIdentifier:]_block_invoke
PUBLIC 1bb720 0 __copy_helper_block_.274
PUBLIC 1bb740 0 __destroy_helper_block_.275
PUBLIC 1bb760 0 notifySearchListOfRemoteChangesCallback
PUBLIC 1bb780 0 -[_CFXPreferences(SearchListAdditions) withSearchListForIdentifier:container:cloudConfigurationURL:perform:]
PUBLIC 1bb940 0 __108-[_CFXPreferences(SearchListAdditions) withSearchListForIdentifier:container:cloudConfigurationURL:perform:]_block_invoke
PUBLIC 1bbb00 0 __Block_byref_object_copy_
PUBLIC 1bbb20 0 __Block_byref_object_dispose_
PUBLIC 1bbb40 0 __108-[_CFXPreferences(SearchListAdditions) withSearchListForIdentifier:container:cloudConfigurationURL:perform:]_block_invoke.280
PUBLIC 1bbf80 0 __copy_helper_block_.295
PUBLIC 1bbfc0 0 __destroy_helper_block_.296
PUBLIC 1bbff0 0 __copy_helper_block_.298
PUBLIC 1bc030 0 __destroy_helper_block_.299
PUBLIC 1bc060 0 -[_CFXPreferences(SearchListAdditions) assertEquivalence:ofIdentifiers:containers:cloudConfigurationURLs:]
PUBLIC 1bc270 0 __106-[_CFXPreferences(SearchListAdditions) assertEquivalence:ofIdentifiers:containers:cloudConfigurationURLs:]_block_invoke
PUBLIC 1bc320 0 __copy_helper_block_.305
PUBLIC 1bc340 0 __destroy_helper_block_.306
PUBLIC 1bc360 0 -[_CFXPreferences(SearchListAdditions) withSnapshotSearchList:]
PUBLIC 1bc4a0 0 __63-[_CFXPreferences(SearchListAdditions) withSnapshotSearchList:]_block_invoke
PUBLIC 1bc710 0 __copy_helper_block_.312
PUBLIC 1bc750 0 __destroy_helper_block_.313
PUBLIC 1bc780 0 -[_CFXPreferences(SearchListAdditions) withSuiteSearchListForIdentifier:user:locked:perform:]
PUBLIC 1bc9c0 0 __93-[_CFXPreferences(SearchListAdditions) withSuiteSearchListForIdentifier:user:locked:perform:]_block_invoke
PUBLIC 1bcaf0 0 __copy_helper_block_.316
PUBLIC 1bcb40 0 __destroy_helper_block_.317
PUBLIC 1bcb80 0 -[_CFXPreferences(SearchListAdditions) replaceSearchList:withSearchList:]
PUBLIC 1bcc10 0 __73-[_CFXPreferences(SearchListAdditions) replaceSearchList:withSearchList:]_block_invoke
PUBLIC 1bceb0 0 __copy_helper_block_.324
PUBLIC 1bcf00 0 __destroy_helper_block_.325
PUBLIC 1bcf40 0 -[_CFXPreferences(SearchListAdditions) alreadylocked_withSearchLists:]
PUBLIC 1bcf60 0 -[_CFXPreferences(SearchListAdditions) withSearchLists:]
PUBLIC 1bcfd0 0 -[_CFXPreferences(SearchListAdditions) copyDescriptionOfSearchLists]
PUBLIC 1bd050 0 __68-[_CFXPreferences(SearchListAdditions) copyDescriptionOfSearchLists]_block_invoke
PUBLIC 1bd070 0 copyDescriptionApplier
PUBLIC 1bd0d0 0 -[CFPrefsSuiteSearchListSource _deferredNotify:ofChangesFromDictionary:toDictionary:]
PUBLIC 1bd0f0 0 -[CFPrefsSuiteSearchListSource _notifyObserversOfChangeFromValuesForKeys:toValuesForKeys:]
PUBLIC 1bd110 0 __90-[CFPrefsSuiteSearchListSource _notifyObserversOfChangeFromValuesForKeys:toValuesForKeys:]_block_invoke
PUBLIC 1bd190 0 ___CFPrefsCurrentPID_block_invoke
PUBLIC 1bd1b0 0 _NSURLCreateNSColorWithRGBAValues
PUBLIC 1bd230 0 -[NSURL removeCachedResourceValueForKey:]
PUBLIC 1bd300 0 -[NSURL removeAllCachedResourceValues]
PUBLIC 1bd3d0 0 +[NSURL writeBookmarkData:toURL:options:error:]
PUBLIC 1bd420 0 -[NSURL bookmarkDataWithAliasRecord:]
PUBLIC 1bd450 0 -[NSURL startAccessingSecurityScopedResource]
PUBLIC 1bd500 0 -[NSURL stopAccessingSecurityScopedResource]
PUBLIC 1bd5c0 0 +[NSBlock allocWithZone:]
PUBLIC 1bd5e0 0 +[NSBlock alloc]
PUBLIC 1bd600 0 -[NSBlock invoke]
PUBLIC 1bd610 0 -[NSBlock performAfterDelay:]
PUBLIC 1bd6a0 0 -[__NSStackBlock retainCount]
PUBLIC 1bd6b0 0 -[__NSStackBlock autorelease]
PUBLIC 1bd6c0 0 -[__NSMallocBlock retainCount]
PUBLIC 1bd6d0 0 -[__NSMallocBlock _tryRetain]
PUBLIC 1bd6e0 0 -[__NSMallocBlock _isDeallocating]
PUBLIC 1bd6f0 0 -[__NSAutoBlock copy]
PUBLIC 1bd700 0 -[__NSAutoBlock copyWithZone:]
PUBLIC 1bd710 0 -[__NSFinalizingBlock finalize]
PUBLIC 1bd730 0 -[__NSGlobalBlock retainCount]
PUBLIC 1bd740 0 -[__NSGlobalBlock _tryRetain]
PUBLIC 1bd750 0 -[__NSGlobalBlock _isDeallocating]
PUBLIC 1bd760 0 -[_CFXNotificationObserverRegistration enumerate:]
PUBLIC 1bd930 0 -[_CFXNotificationObserverRegistration resetObserverAndChildren:]
PUBLIC 1bd960 0 -[_CFXNotificationObjcObserverRegistration observer]
PUBLIC 1bd990 0 -[_CFXNotificationObjcObserverRegistration retainedObserver]
PUBLIC 1bd9c0 0 -[_CFXNotificationObjcObserverRegistration resetObserverAndChildren:]
PUBLIC 1bda00 0 NSMoribundCache_invalidAccess
PUBLIC 1bda30 0 __NSMoribundCache_invalidAccess_block_invoke
PUBLIC 1bda50 0 -[_NSMoribundCache copy]
PUBLIC 1bda60 0 -[_NSMoribundCache copyWithZone:]
PUBLIC 1bda70 0 -[_NSMoribundCache retainCount]
PUBLIC 1bda80 0 -[_NSMoribundCache retain]
PUBLIC 1bda90 0 -[_NSMoribundCache release]
PUBLIC 1bdaa0 0 -[_NSMoribundCache autorelease]
PUBLIC 1bdab0 0 -[_NSMoribundCache dealloc]
PUBLIC 1bdaf0 0 -[_NSMoribundCache name]
PUBLIC 1bdb10 0 -[_NSMoribundCache setName:]
PUBLIC 1bdb20 0 -[_NSMoribundCache delegate]
PUBLIC 1bdb30 0 -[_NSMoribundCache setDelegate:]
PUBLIC 1bdb40 0 -[_NSMoribundCache objectForKey:]
PUBLIC 1bdb50 0 -[_NSMoribundCache setObject:forKey:]
PUBLIC 1bdb60 0 -[_NSMoribundCache setObject:forKey:cost:]
PUBLIC 1bdb70 0 -[_NSMoribundCache removeObjectForKey:]
PUBLIC 1bdb80 0 -[_NSMoribundCache removeAllObjects]
PUBLIC 1bdb90 0 -[_NSMoribundCache totalCostLimit]
PUBLIC 1bdba0 0 -[_NSMoribundCache setTotalCostLimit:]
PUBLIC 1bdbb0 0 -[_NSMoribundCache countLimit]
PUBLIC 1bdbc0 0 -[_NSMoribundCache setCountLimit:]
PUBLIC 1bdbd0 0 -[_NSMoribundCache evictsObjectsWithDiscardedContent]
PUBLIC 1bdbe0 0 -[_NSMoribundCache setEvictsObjectsWithDiscardedContent:]
PUBLIC 1bdbf0 0 -[NSCache name]
PUBLIC 1bdc40 0 -[NSCache delegate]
PUBLIC 1bdc60 0 -[NSCache totalCostLimit]
PUBLIC 1bdc80 0 -[NSCache countLimit]
PUBLIC 1bdca0 0 -[NSCache minimumObjectCount]
PUBLIC 1bdcb0 0 -[NSCache allObjects]
PUBLIC 1bdd50 0 _allObjectsInvokeFunction
PUBLIC 1bdd70 0 __21-[NSCache allObjects]_block_invoke
PUBLIC 1bdd90 0 __copy_helper_block_
PUBLIC 1bddb0 0 __destroy_helper_block_
PUBLIC 1bddd0 0 -[NSCache __apply:]
PUBLIC 1bddf0 0 ____NSCacheValueRelease_block_invoke
PUBLIC 1bde30 0 CFURLWriteBookmarkDataToFile
PUBLIC 1bdea0 0 _CFURLBookmarkDataCompare
PUBLIC 1bdf00 0 _CFURLCreateByResolvingAliasFile
PUBLIC 1bdf80 0 _CFURLBookmarkCopyDescription
PUBLIC 1bdfd0 0 _CFURLBookmarkDataToAliasHandle
PUBLIC 1be020 0 ____CFCoreServicesInternal__CFURLCreateBookmarkData_block_invoke
PUBLIC 1be040 0 ____CFCoreServicesInternal__CFURLCreateByResolvingBookmarkData_block_invoke
PUBLIC 1be060 0 ____CFCoreServicesInternal__CFURLCreateResourcePropertiesForKeysFromBookmarkData_block_invoke
PUBLIC 1be080 0 ____CFCoreServicesInternal__CFURLCreateResourcePropertyForKeyFromBookmarkData_block_invoke
PUBLIC 1be0a0 0 ____CFCoreServicesInternal__CFURLCreateBookmarkDataFromFile_block_invoke
PUBLIC 1be0c0 0 ____CFCoreServicesInternal__CFURLWriteBookmarkDataToFile_block_invoke
PUBLIC 1be0e0 0 ____CFCoreServicesInternal__CFURLCompareBookmarkData_block_invoke
PUBLIC 1be100 0 ____CFCoreServicesInternal__URLCreateByResolvingAliasFile_block_invoke
PUBLIC 1be120 0 ____CFCoreServicesInternal__CFURLBookmarkDataCopyDescription_block_invoke
PUBLIC 1be140 0 ____CFCoreServicesInternal__CFURLCreateBookmarkDataFromAliasRecord_block_invoke
PUBLIC 1be160 0 ____CFCoreServicesInternal__CFURLBookmarkToAliasHandle_block_invoke
PUBLIC 1be180 0 CFURLEnumeratorGetTypeID
PUBLIC 1be1c0 0 _CFURLEnumeratorGetURLsBulk
PUBLIC 1be240 0 CFURLEnumeratorGetSourceDidChange
PUBLIC 1be290 0 ____CFCoreServicesInternal__URLEnumeratorGetTypeID_block_invoke
PUBLIC 1be2b0 0 ____CFCoreServicesInternal__URLEnumeratorCreateForDirectoryURL_block_invoke
PUBLIC 1be2d0 0 ____CFCoreServicesInternal__URLEnumeratorCreateForMountedVolumes_block_invoke
PUBLIC 1be2f0 0 ____CFCoreServicesInternal__URLEnumeratorGetNextURL_block_invoke
PUBLIC 1be310 0 ____CFCoreServicesInternal__URLEnumeratorGetURLsBulk_block_invoke
PUBLIC 1be330 0 ____CFCoreServicesInternal__URLEnumeratorSkipDescendents_block_invoke
PUBLIC 1be350 0 ____CFCoreServicesInternal__URLEnumeratorGetDescendentLevel_block_invoke
PUBLIC 1be370 0 ____CFCoreServicesInternal__URLEnumeratorGetSourceDidChange_block_invoke
PUBLIC 1be390 0 CFBasicHashHasStrongValues
PUBLIC 1be3a0 0 CFBasicHashHasStrongKeys
PUBLIC 1be3b0 0 CFBasicHashGetNumBuckets
PUBLIC 1be3d0 0 CFBasicHashGetCapacity
PUBLIC 1be3f0 0 CFBasicHashGetFlags
PUBLIC 1be460 0 __copy_helper_block_
PUBLIC 1be480 0 __destroy_helper_block_
PUBLIC 1be4a0 0 __copy_helper_block_.1
PUBLIC 1be4c0 0 __destroy_helper_block_.2
PUBLIC 1be4e0 0 CFBasicHashApplyIndexed
PUBLIC 1be590 0 CFBasicHashRemoveValueAtIndex
PUBLIC 1be640 0 CFBasicHashAddIntValueAndInc
PUBLIC 1bf9c0 0 CFBasicHashRemoveIntValueAndDec
PUBLIC 1bfac0 0 CFBasicHashGetSize
PUBLIC 1bfb80 0 CFBasicHashShow
PUBLIC 1bfbc0 0 -[_CFXNotificationObjectRegistration enumerate:]
PUBLIC 1bfdc0 0 -[_CFXNotificationObjectRegistration object]
PUBLIC 1bfde0 0 +[__NSPlaceholderOrderedSet allocWithZone:]
PUBLIC 1bfdf0 0 -[__NSPlaceholderOrderedSet retain]
PUBLIC 1bfe00 0 -[__NSPlaceholderOrderedSet release]
PUBLIC 1bfe10 0 -[__NSPlaceholderOrderedSet retainCount]
PUBLIC 1bfe20 0 -[__NSPlaceholderOrderedSet dealloc]
PUBLIC 1bfe30 0 -[__NSPlaceholderOrderedSet count]
PUBLIC 1bfef0 0 -[__NSPlaceholderOrderedSet indexOfObject:]
PUBLIC 1bffb0 0 -[__NSPlaceholderOrderedSet objectAtIndex:]
PUBLIC 1c0070 0 -[__NSPlaceholderOrderedSet insertObject:atIndex:]
PUBLIC 1c0130 0 -[__NSPlaceholderOrderedSet removeObjectAtIndex:]
PUBLIC 1c01f0 0 -[__NSPlaceholderOrderedSet replaceObjectAtIndex:withObject:]
PUBLIC 1c02b0 0 -[__NSWindows1258TrigramKeySet dealloc]
PUBLIC 1c0340 0 -[__NSWindows1258TrigramKeySet finalize]
PUBLIC 1c03d0 0 -[__NSWindows1258TrigramKeySet initWithKeys:keyLenghtInBytes:count:]
PUBLIC 1c03e0 0 -[__NSWindows1258TrigramKeySet isEmpty]
PUBLIC 1c03f0 0 _copyStringFromTable
PUBLIC 1c0ae0 0 __CFLocalizedFormatStringApplyFunction
PUBLIC 1c0b60 0 __CFVariableWidthStringDictionaryApplyFunction
PUBLIC 1c0c20 0 __CFVariableWidthStringApplyFunction
PUBLIC 1c0ca0 0 -[__NSWindows1256TrigramKeySet dealloc]
PUBLIC 1c0d30 0 -[__NSWindows1256TrigramKeySet finalize]
PUBLIC 1c0dc0 0 -[__NSWindows1256TrigramKeySet initWithKeys:keyLenghtInBytes:count:]
PUBLIC 1c0dd0 0 -[__NSWindows1256TrigramKeySet isEmpty]
PUBLIC 1c0de0 0 -[__NSWindows1257TrigramKeySet dealloc]
PUBLIC 1c0e70 0 -[__NSWindows1257TrigramKeySet finalize]
PUBLIC 1c0f00 0 -[__NSWindows1257TrigramKeySet initWithKeys:keyLenghtInBytes:count:]
PUBLIC 1c0f10 0 -[__NSWindows1257TrigramKeySet isEmpty]
PUBLIC 1c0f20 0 -[NSOrderedSet count]
PUBLIC 1c0f50 0 -[NSOrderedSet indexOfObject:]
PUBLIC 1c0f90 0 -[NSOrderedSet objectAtIndex:]
PUBLIC 1c0fc0 0 -[NSOrderedSet isNSOrderedSet__]
PUBLIC 1c0fd0 0 -[NSOrderedSet allObjects]
PUBLIC 1c1140 0 -[NSOrderedSet containsObject:inRange:]
PUBLIC 1c1230 0 -[NSOrderedSet countByEnumeratingWithState:objects:count:]
PUBLIC 1c1360 0 -[NSOrderedSet countForObject:inRange:]
PUBLIC 1c1450 0 -[NSOrderedSet countForObject:]
PUBLIC 1c14c0 0 -[NSOrderedSet enumerateObjectsWithOptions:usingBlock:]
PUBLIC 1c1560 0 -[NSOrderedSet getObjects:range:]
PUBLIC 1c16b0 0 -[NSOrderedSet getObjects:]
PUBLIC 1c1760 0 -[NSOrderedSet indexOfObject:inRange:]
PUBLIC 1c1860 0 -[NSOrderedSet indexOfObjectWithOptions:passingTest:]
PUBLIC 1c1920 0 -[NSOrderedSet indexOfObjectPassingTest:]
PUBLIC 1c19a0 0 -[NSOrderedSet indexesOfObjectsAtIndexes:options:passingTest:]
PUBLIC 1c1ae0 0 -[NSOrderedSet indexesOfObjectsWithOptions:passingTest:]
PUBLIC 1c1ba0 0 -[NSOrderedSet indexesOfObjectsPassingTest:]
PUBLIC 1c1c20 0 -[NSOrderedSet intersectsOrderedSet:]
PUBLIC 1c1df0 0 -[NSOrderedSet isSubsetOfOrderedSet:]
PUBLIC 1c1fb0 0 -[NSOrderedSet isSubsetOfSet:]
PUBLIC 1c2170 0 -[NSOrderedSet objectAtIndexes:options:passingTest:]
PUBLIC 1c22a0 0 -[NSOrderedSet objectWithOptions:passingTest:]
PUBLIC 1c2360 0 -[NSOrderedSet objectPassingTest:]
PUBLIC 1c23e0 0 -[NSOrderedSet objectsAtIndexes:options:passingTest:]
PUBLIC 1c2520 0 -[NSOrderedSet objectsWithOptions:passingTest:]
PUBLIC 1c25e0 0 -[NSOrderedSet objectsPassingTest:]
PUBLIC 1c2660 0 -[NSOrderedSet sortedArrayFromRange:options:usingComparator:]
PUBLIC 1c2a50 0 __61-[NSOrderedSet sortedArrayFromRange:options:usingComparator:]_block_invoke
PUBLIC 1c2a70 0 __copy_helper_block_
PUBLIC 1c2a90 0 __destroy_helper_block_
PUBLIC 1c2ab0 0 -[NSOrderedSet sortedArrayWithOptions:usingComparator:]
PUBLIC 1c2b50 0 -[NSOrderedSet sortedArrayUsingComparator:]
PUBLIC 1c2bf0 0 -[NSOrderedSet set]
PUBLIC 1c2c70 0 -[NSOrderedSet descriptionWithLocale:indent:]
PUBLIC 1c2fd0 0 -[NSOrderedSet descriptionWithLocale:]
PUBLIC 1c3030 0 -[NSOrderedSet description]
PUBLIC 1c3080 0 -[NSOrderedSet hash]
PUBLIC 1c30d0 0 -[NSOrderedSet isEqualToOrderedSet:]
PUBLIC 1c32c0 0 -[NSOrderedSet initWithObjects:count:]
PUBLIC 1c32f0 0 +[NSOrderedSet newOrderedSetWithObjects:count:]
PUBLIC 1c3420 0 -[NSOrderedSet initWithArray:range:]
PUBLIC 1c3440 0 -[NSOrderedSet initWithArray:copyItems:]
PUBLIC 1c3490 0 -[NSOrderedSet initWithObject:]
PUBLIC 1c34c0 0 -[NSOrderedSet initWithObjects:]
PUBLIC 1c3720 0 -[NSOrderedSet initWithOrderedSet:range:]
PUBLIC 1c3740 0 -[NSOrderedSet initWithOrderedSet:copyItems:]
PUBLIC 1c3790 0 -[NSOrderedSet initWithOrderedSet:]
PUBLIC 1c37e0 0 +[NSOrderedSet orderedSetWithObjects:count:]
PUBLIC 1c3830 0 +[NSOrderedSet orderedSetWithObject:]
PUBLIC 1c3870 0 __createOrderedSet
PUBLIC 1c38a0 0 +[NSOrderedSet orderedSetWithObjects:]
PUBLIC 1c3b30 0 +[NSOrderedSet orderedSetWithArray:range:copyItems:]
PUBLIC 1c3ba0 0 +[NSOrderedSet orderedSetWithArray:range:]
PUBLIC 1c3c00 0 +[NSOrderedSet orderedSetWithArray:copyItems:]
PUBLIC 1c3c70 0 +[NSOrderedSet orderedSetWithOrderedSet:range:]
PUBLIC 1c3cd0 0 +[NSOrderedSet orderedSetWithOrderedSet:copyItems:]
PUBLIC 1c3d40 0 +[NSOrderedSet orderedSetWithSet:copyItems:]
PUBLIC 1c3d90 0 +[NSOrderedSet orderedSetWithSet:]
PUBLIC 1c3dd0 0 +[NSOrderedSet supportsSecureCoding]
PUBLIC 1c3de0 0 -[NSOrderedSet initWithCoder:]
PUBLIC 1c3df0 0 -[NSOrderedSet encodeWithCoder:]
PUBLIC 1c3e00 0 _CFStringCopyWithFomatStringConfiguration
PUBLIC 1c3e80 0 _CFStringCreateWithWidthContexts
PUBLIC 1c3ee0 0 _CFCopyResolvedFormatStringWithConfiguration
PUBLIC 1c45c0 0 __copy_helper_block_
PUBLIC 1c45e0 0 __destroy_helper_block_
PUBLIC 1c4600 0 ___CFXPCCreateCFObjectFromXPCObject_block_invoke.9
PUBLIC 1c4690 0 __copy_helper_block_.10
PUBLIC 1c46b0 0 __destroy_helper_block_.11
PUBLIC 1c46d0 0 -[__NSFileSecurity getOwner:]
PUBLIC 1c4710 0 -[__NSFileSecurity setOwner:]
PUBLIC 1c4750 0 -[__NSFileSecurity setGroup:]
PUBLIC 1c4790 0 -[__NSFileSecurity getOwnerUUID:]
PUBLIC 1c4800 0 -[__NSFileSecurity setOwnerUUID:]
PUBLIC 1c4830 0 -[__NSFileSecurity getGroupUUID:]
PUBLIC 1c48a0 0 -[__NSFileSecurity setGroupUUID:]
PUBLIC 1c48d0 0 -[__NSFileSecurity setAccessControlList:]
PUBLIC 1c4920 0 -[__NSFileSecurity hash]
PUBLIC 1c4a40 0 -[__NSFileSecurity isEqual:]
PUBLIC 1c4da0 0 -[__NSFileSecurity description]
PUBLIC 1c5080 0 -[__NSFileSecurity copyWithZone:]
PUBLIC 1c5100 0 +[__NSFileSecurity automaticallyNotifiesObserversForKey:]
PUBLIC 1c5110 0 +[__NSFileSecurity allocWithZone:]
PUBLIC 1c5130 0 -[__NSFileSecurity encodeWithCoder:]
PUBLIC 1c53c0 0 -[__NSFileSecurity initWithCoder:]
PUBLIC 1c53d0 0 +[__NSFileSecurity supportsSecureCoding]
PUBLIC 1c53e0 0 CFFileSecurityGetTypeID
PUBLIC 1c5420 0 -[__NSPlaceholderFileSecurity init]
PUBLIC 1c5460 0 -[__NSPlaceholderFileSecurity retain]
PUBLIC 1c5470 0 -[__NSPlaceholderFileSecurity release]
PUBLIC 1c5480 0 -[__NSPlaceholderFileSecurity retainCount]
PUBLIC 1c5490 0 -[__NSPlaceholderFileSecurity dealloc]
PUBLIC 1c54a0 0 -[__NSPlaceholderFileSecurity initWithCoder:]
PUBLIC 1c5bd0 0 -[__NSPlaceholderFileSecurity encodeWithCoder:]
PUBLIC 1c5c50 0 -[__NSPlaceholderFileSecurity copyWithZone:]
PUBLIC 1c5cd0 0 -[NSFileSecurity _cfTypeID]
PUBLIC 1c5d10 0 -[NSFileSecurity copyWithZone:]
PUBLIC 1c5d50 0 -[NSFileSecurity initWithCoder:]
PUBLIC 1c5d60 0 -[NSFileSecurity encodeWithCoder:]
PUBLIC 1c5d70 0 +[NSFileSecurity supportsSecureCoding]
PUBLIC 1c5d80 0 CFFileSecurityCopyOwnerUUID
PUBLIC 1c5de0 0 CFFileSecuritySetOwnerUUID
PUBLIC 1c5e20 0 CFFileSecurityCopyGroupUUID
PUBLIC 1c5e80 0 CFFileSecuritySetGroupUUID
PUBLIC 1c5ec0 0 CFFileSecuritySetAccessControlList
PUBLIC 1c5ee0 0 CFFileSecurityGetOwner
PUBLIC 1c5f00 0 CFFileSecuritySetOwner
PUBLIC 1c5f20 0 CFFileSecuritySetGroup
PUBLIC 1c5f40 0 -[__NSSingleObjectArrayI count]
PUBLIC 1c5f50 0 -[__NSSingleObjectArrayI objectAtIndex:]
PUBLIC 1c5fc0 0 -[__NSSingleObjectArrayI getObjects:range:]
PUBLIC 1c6060 0 +[__NSSingleObjectArrayI automaticallyNotifiesObserversForKey:]
PUBLIC 1c6070 0 -[__NSSingleObjectArrayI countByEnumeratingWithState:objects:count:]
PUBLIC 1c60f0 0 -[__NSSingleObjectArrayI enumerateObjectsWithOptions:usingBlock:]
PUBLIC 1c6160 0 -[__NSSingleObjectArrayI firstObject]
PUBLIC 1c6180 0 -[__NSSingleObjectArrayI isEqualToArray:]
PUBLIC 1c6240 0 -[__NSSingleObjectArrayI lastObject]
PUBLIC 1c6260 0 -[__NSSingleObjectArrayI objectEnumerator]
PUBLIC 1c62b0 0 +[__NSSingleObjectArrayI allocWithZone:]
PUBLIC 1c62d0 0 +[__NSSingleObjectArrayI __new::]
PUBLIC 1c6330 0 -[__NSSingleObjectArrayI dealloc]
PUBLIC 1c6390 0 -[__NSSingleObjectArrayI copyWithZone:]
PUBLIC 1c63b0 0 -[__NSSingleObjectArrayI mutableCopyWithZone:]
PUBLIC 1c63e0 0 CFBurstTrieCreateWithOptions
PUBLIC 1c6470 0 CFBurstTrieCreateFromFile
PUBLIC 1c65d0 0 CFBurstTrieCreateFromMapBytes
PUBLIC 1c6660 0 CFBurstTrieInsert
PUBLIC 1c6680 0 CFBurstTrieAddWithWeight
PUBLIC 1c67c0 0 CFBurstTrieAdd
PUBLIC 1c67e0 0 CFBurstTrieInsertCharacters
PUBLIC 1c6800 0 CFBurstTrieAddCharactersWithWeight
PUBLIC 1c68f0 0 CFBurstTrieAddCharacters
PUBLIC 1c6910 0 CFBurstTrieInsertUTF8String
PUBLIC 1c6930 0 CFBurstTrieInsertWithWeight
PUBLIC 1c6940 0 CFBurstTrieInsertCharactersWithWeight
PUBLIC 1c6950 0 burstTrieConvertCharactersToUTF8
PUBLIC 1c6ab0 0 CFBurstTrieInsertUTF8StringWithWeight
PUBLIC 1c6ac0 0 CFBurstTrieFind
PUBLIC 1c6b00 0 CFBurstTrieContains
PUBLIC 1c6c10 0 CFBurstTrieFindCharacters
PUBLIC 1c6cf0 0 CFBurstTrieContainsCharacters
PUBLIC 1c6dc0 0 CFBurstTrieFindUTF8String
PUBLIC 1c6e00 0 burstTrieMappedFind
PUBLIC 1c6ea0 0 CFBurstTrieSetCursorForBytes
PUBLIC 1c6f30 0 CFBurstTrieCursorGetPayload
PUBLIC 1c6f60 0 CFBurstTrieSerialize
PUBLIC 1c7020 0 CFBurstTrieSerializeWithFileDescriptor
PUBLIC 1c7180 0 CFBurstTrieTraverse
PUBLIC 1c71d0 0 foundKey
PUBLIC 1c7200 0 CFBurstTrieTraverseWithCursor
PUBLIC 1c7210 0 CFBurstTriePrint
PUBLIC 1c7220 0 CFBurstTrieGetCount
PUBLIC 1c7230 0 CFBurstTrieRetain
PUBLIC 1c7240 0 CFBurstTrieCursorAdvanceForBytes
PUBLIC 1c72a0 0 CFBurstTrieCreateCursorForBytes
PUBLIC 1c7350 0 CFBurstTrieCursorRelease
PUBLIC 1c7370 0 CFBurstTrieCursorCreateByCopy
PUBLIC 1c73e0 0 CFBurstTrieCursorIsEqual
PUBLIC 1c7430 0 advanceMapCursor
PUBLIC 1c7ad0 0 CFBurstTrieTraverseFromCursor
PUBLIC 1c7b50 0 traverseFromMapCursor
PUBLIC 1c8250 0 findCFBurstTrieMappedLevel
PUBLIC 1c8380 0 findCFBurstTrieCompactMappedLevel
PUBLIC 1c8620 0 findCFBurstTrieMappedPage
PUBLIC 1c8990 0 traverseCFBurstTrieMappedLevel
PUBLIC 1c8b40 0 traverseCFBurstTrieCompactMappedLevel
PUBLIC 1c8e40 0 traverseCFBurstTrieLevel
PUBLIC 1c8f50 0 traverseFromMapCursorMappedLevel
PUBLIC 1c9070 0 burstTrieCompactTrieMappedFind
PUBLIC 1c92a0 0 burstTrieMappedPageFind
PUBLIC 1c9470 0 serializeCFBurstTrieLists
PUBLIC 1c9550 0 serializeCFBurstTrieLevels
PUBLIC 1c9940 0 serializeCFBurstTrieList
PUBLIC 1c9c60 0 nodeStringCompare
PUBLIC 1c9ca0 0 nodeWeightCompare
PUBLIC 1c9cc0 0 _CFFileCoordinateReadingItemAtURL2
PUBLIC 1c9dd0 0 ___CFFileCoordinateReadingItemAtURL2_block_invoke
PUBLIC 1c9de0 0 ___CFFileCoordinateReadingItemAtURL2_block_invoke_2
PUBLIC 1c9df0 0 __copy_helper_block_
PUBLIC 1c9e10 0 __destroy_helper_block_
PUBLIC 1c9e30 0 _CFFileCoordinateWritingItemAtURL2
PUBLIC 1c9f40 0 ___CFFileCoordinateWritingItemAtURL2_block_invoke
PUBLIC 1c9f50 0 ___CFFileCoordinateWritingItemAtURL2_block_invoke_2
PUBLIC 1c9f60 0 __copy_helper_block_.12
PUBLIC 1c9f80 0 __destroy_helper_block_.13
PUBLIC 1c9fa0 0 _CFFileCoordinateReadingWritingItemsAtURLs2
PUBLIC 1ca0d0 0 ___CFFileCoordinateReadingWritingItemsAtURLs2_block_invoke
PUBLIC 1ca0e0 0 ___CFFileCoordinateReadingWritingItemsAtURLs2_block_invoke_2
PUBLIC 1ca0f0 0 __copy_helper_block_.19
PUBLIC 1ca110 0 __destroy_helper_block_.20
PUBLIC 1ca130 0 _CFFileCoordinateWritingItemsAtURLs2
PUBLIC 1ca260 0 ___CFFileCoordinateWritingItemsAtURLs2_block_invoke
PUBLIC 1ca270 0 ___CFFileCoordinateWritingItemsAtURLs2_block_invoke_2
PUBLIC 1ca280 0 __copy_helper_block_.27
PUBLIC 1ca2a0 0 __destroy_helper_block_.28
PUBLIC 1ca2c0 0 _CFFileDidMove2
PUBLIC 1ca310 0 _CFFileDidDisconnect2
PUBLIC 1ca350 0 _CFFileDidReconnect2
PUBLIC 1ca390 0 _CFFileDidGainVersion2
PUBLIC 1ca3e0 0 _CFFileDidLoseVersion2
PUBLIC 1ca430 0 _CFFileDidResolveConflictVersion2
PUBLIC 1ca480 0 _CFFileCoordinateReadingItemAtURL
PUBLIC 1ca4a0 0 _CFFileCoordinateWritingItemAtURL
PUBLIC 1ca4c0 0 _CFFileCoordinateReadWriteItemsAtURLs
PUBLIC 1ca4e0 0 _CFHyphenationGetLinguisticDataPath
PUBLIC 1ca500 0 _CFHyphenationSetLinguisticDataPath
PUBLIC 1ca530 0 _CFHyphenationGetAllPossibleHyphenationLocations
PUBLIC 1ca550 0 _CFHyphenationGetHyphenationLocations
PUBLIC 1cae90 0 _CFStringHyphenationCompileHyphenatorData
PUBLIC 1cb4c0 0 __CFHyphenationMapFileContents
PUBLIC 1cb5d0 0 CFStringIsHyphenationAvailableForLocale
PUBLIC 1cb5f0 0 __CFHyphenationGetTrieInstance
PUBLIC 1cb720 0 CFStringGetHyphenationLocationBeforeIndex
PUBLIC 1cb830 0 __CFHyphenationGetHyphensForString
PUBLIC 1cba80 0 getTokenizersForLocale
PUBLIC 1cbb20 0 __CFHyphenationCreateDictionaryPathForLanguageAndRegion
PUBLIC 1cbc00 0 _CFXNotificationChildrenAddValue
PUBLIC 1cbdc0 0 -[_CFXNotificationNameRegistration enumerate:]
PUBLIC 1cbfc0 0 -[_CFXNotificationNameRegistration name]
PUBLIC 1cbfe0 0 -[_CFXNotificationNameWildcardObjectRegistration match:observer:matching:]
PUBLIC 1cc000 0 -[_CFXNotificationNameWildcardObjectRegistration acquireObject:options:]
PUBLIC 1cc010 0 -[_CFXNotificationNameWildcardObjectRegistration enumerate:]
PUBLIC 1cc210 0 _CFPropertyListMissingSemicolon
PUBLIC 1cc230 0 _CFPropertyListMissingSemicolonOrValue
PUBLIC 1cc250 0 -[__NSWindows874TrigramKeySet dealloc]
PUBLIC 1cc2e0 0 -[__NSWindows874TrigramKeySet finalize]
PUBLIC 1cc370 0 -[__NSWindows874TrigramKeySet initWithKeys:keyLenghtInBytes:count:]
PUBLIC 1cc380 0 -[__NSWindows874TrigramKeySet isEmpty]
PUBLIC 1cc390 0 -[NSSharedKeyDictionary keyEnumerator]
PUBLIC 1cc500 0 __copy_helper_block_
PUBLIC 1cc550 0 __destroy_helper_block_
PUBLIC 1cc590 0 -[NSSharedKeyDictionary keySet]
PUBLIC 1cc5b0 0 -[NSSharedKeyDictionary mutableCopyWithZone:]
PUBLIC 1cc5d0 0 -[NSSharedKeyDictionary classForCoder]
PUBLIC 1cc5f0 0 -[NSSharedKeyDictionary encodeWithCoder:]
PUBLIC 1cc8f0 0 -[NSSharedKeyDictionary initWithCoder:]
PUBLIC 1cd0e0 0 __39-[NSSharedKeyDictionary initWithCoder:]_block_invoke
PUBLIC 1cd1a0 0 +[NSSharedKeyDictionary supportsSecureCoding]
PUBLIC 1cd1b0 0 compareHashesAscending
PUBLIC 1cd1d0 0 -[NSSharedKeySet copyWithZone:]
PUBLIC 1cd1f0 0 -[NSSharedKeySet encodeWithCoder:]
PUBLIC 1cd4a0 0 +[NSSharedKeySet supportsSecureCoding]
PUBLIC 1cd4b0 0 -[NSSharedKeySet initWithCoder:]
PUBLIC 1ce290 0 __32-[NSSharedKeySet initWithCoder:]_block_invoke
PUBLIC 1ce350 0 -[NSSharedKeySet maximumIndex]
PUBLIC 1ce370 0 -[NSSharedKeySet allKeys]
PUBLIC 1ce540 0 -[NSSharedKeySet countByEnumeratingWithState:objects:count:]
PUBLIC 1ce600 0 -[NSSharedKeySet hash]
PUBLIC 1ce620 0 -[NSSharedKeySet isEqual:]
PUBLIC 1ceac0 0 -[NSSharedKeySet dealloc]
PUBLIC 1cebc0 0 -[NSSharedKeySet keySetCount]
PUBLIC 1cec00 0 -[NSSharedKeySet debugDescription]
PUBLIC 1cf180 0 -[NSSharedKeySet g]
PUBLIC 1cf1a0 0 -[NSSharedKeySet select]
PUBLIC 1cf1c0 0 -[NSSharedKeySet rankTable]
PUBLIC 1cf1e0 0 -[NSSharedKeySet M]
PUBLIC 1cf1f0 0 -[NSSharedKeySet factor]
PUBLIC 1cf200 0 -[NSSharedKeySet numKey]
PUBLIC 1cf210 0 -[NSSharedKeySet seeds]
PUBLIC 1cf230 0 -[NSSharedKeySet keys]
PUBLIC 1cf250 0 -[NSSharedKeySet subSharedKeySet]
PUBLIC 1cf270 0 +[_CFPrefsSynchronizer sharedInstance]
PUBLIC 1cf2b0 0 __38+[_CFPrefsSynchronizer sharedInstance]_block_invoke
PUBLIC 1cf2f0 0 -[_CFPrefsSynchronizer init]
PUBLIC 1cf3b0 0 __28-[_CFPrefsSynchronizer init]_block_invoke
PUBLIC 1cf3f0 0 -[_CFPrefsSynchronizer enableTimer_alreadyLocked]
PUBLIC 1cf420 0 -[_CFPrefsSynchronizer disableTimer_alreadyLocked]
PUBLIC 1cf460 0 -[_CFPrefsSynchronizer noteDirtySource:]
PUBLIC 1cf4c0 0 -[_CFPrefsSynchronizer copyDirtySourcesSnapshotAndClear]
PUBLIC 1cf530 0 -[_CFPrefsSynchronizer synchronizeForDaemonTermination]
PUBLIC 1cf570 0 _CFPrefsSynchronizeDirtySourceForDaemonTermination
PUBLIC 1cf5d0 0 -[_CFPrefsSynchronizer synchronize]
PUBLIC 1cf610 0 _CFPrefsSynchronizeDirtySourceOnTimer
PUBLIC 1cf670 0 -[_CFPrefsSynchronizer clear_alreadyLocked]
PUBLIC 1cf6a0 0 -[_CFPrefsSynchronizer clear]
PUBLIC 1cf6e0 0 _CFPrefsSynchronizeForDaemonTermination
PUBLIC 1cf720 0 _CFPrefsDInternString
PUBLIC 1cf730 0 _internString
PUBLIC 1cf810 0 -[CFPrefsDaemon(SourceSupport) synchronousWithSourceCache:]
PUBLIC 1cf860 0 -[CFPrefsDaemon(SourceSupport) withSources:]
PUBLIC 1cf990 0 -[CFPrefsDaemon(SourceSupport) withSourceForDomain:inContainer:user:byHost:managed:managedUsesContainer:cloudStoreEntitlement:cloudConfigurationPath:performWithSourceLock:afterReleasingSourceLock:]
PUBLIC 1cfd50 0 __Block_byref_object_copy_
PUBLIC 1cfd70 0 __Block_byref_object_dispose_
PUBLIC 1cfd90 0 __197-[CFPrefsDaemon(SourceSupport) withSourceForDomain:inContainer:user:byHost:managed:managedUsesContainer:cloudStoreEntitlement:cloudConfigurationPath:performWithSourceLock:afterReleasingSourceLock:]_block_invoke
PUBLIC 1cffe0 0 __copy_helper_block_.61
PUBLIC 1d0040 0 __destroy_helper_block_.62
PUBLIC 1d0090 0 __197-[CFPrefsDaemon(SourceSupport) withSourceForDomain:inContainer:user:byHost:managed:managedUsesContainer:cloudStoreEntitlement:cloudConfigurationPath:performWithSourceLock:afterReleasingSourceLock:]_block_invoke.64
PUBLIC 1d0100 0 __copy_helper_block_.65
PUBLIC 1d0150 0 __destroy_helper_block_.66
PUBLIC 1d0190 0 -[CFPDSource shouldBePurgable]
PUBLIC 1d0220 0 _CFPrefsDCurrentUserName
PUBLIC 1d0270 0 _CFPrefsCopyUserNameForUID
PUBLIC 1d03a0 0 -[CFPDSource beginHandlingRequest]
PUBLIC 1d04e0 0 -[CFPDSource endHandlingRequest]
PUBLIC 1d0570 0 -[CFPDSource isEqual:]
PUBLIC 1d0590 0 _CFPrefsEqualKeyOrSource
PUBLIC 1d0980 0 -[CFPDSource hash]
PUBLIC 1d0990 0 _CFPrefsHashKeyOrSource
PUBLIC 1d0c20 0 -[CFPDSource cacheActualPath]
PUBLIC 1d0c40 0 -[CFPDSource cacheActualPathCreatingIfNecessary:euid:egid:]
PUBLIC 1d10d0 0 _CFPrefsWatchForDeletionOfDirectory
PUBLIC 1d1210 0 -[CFPDSource cacheActualAndTemporaryPathsWithEUID:egid:]
PUBLIC 1d13a0 0 -[CFPDSource copyUncanonicalizedPath]
PUBLIC 1d1430 0 -[CFPDSource getUncanonicalizedPath:]
PUBLIC 1d1500 0 cfprefsdEuid
PUBLIC 1d1540 0 __cfprefsdEuid_block_invoke
PUBLIC 1d1560 0 ___CFPrefsWatchForDeletionOfDirectory_block_invoke
PUBLIC 1d15b0 0 -[CFPDSource initWithDomain:userName:byHost:managed:shmemIndex:daemon:]
PUBLIC 1d1690 0 -[CFPDSource managed]
PUBLIC 1d16b0 0 -[CFPDSource setManagedPreferencesUseContainer:]
PUBLIC 1d16c0 0 -[CFPDSource domain]
PUBLIC 1d16e0 0 -[CFPDSource user]
PUBLIC 1d1700 0 -[CFPDSource container]
PUBLIC 1d1710 0 -[CFPDSource cloudConfigurationPath]
PUBLIC 1d1720 0 -[CFPDSource respondToFileWrittenToBehindOurBack]
PUBLIC 1d1780 0 __49-[CFPDSource respondToFileWrittenToBehindOurBack]_block_invoke
PUBLIC 1d17d0 0 __copy_helper_block_.109
PUBLIC 1d17f0 0 __destroy_helper_block_.110
PUBLIC 1d1810 0 -[CFPDSource transitionToMultiOwner]
PUBLIC 1d1850 0 -[CFPDSource addOwner:]
PUBLIC 1d1940 0 __23-[CFPDSource addOwner:]_block_invoke
PUBLIC 1d19a0 0 __copy_helper_block_.114
PUBLIC 1d19c0 0 __destroy_helper_block_.115
PUBLIC 1d19e0 0 -[CFPDSource removeOwner]
PUBLIC 1d1a30 0 -[CFPDSource byHost]
PUBLIC 1d1a50 0 -[CFPDSource description]
PUBLIC 1d1a80 0 -[CFPDSource shmemIndex]
PUBLIC 1d1aa0 0 -[CFPDSource owner]
PUBLIC 1d1ae0 0 -[CFPDSource hasEverHadMultipleOwners]
PUBLIC 1d1b20 0 -[CFPDSource updateShmemEntry]
PUBLIC 1d1b60 0 -[CFPDSource setDirty:]
PUBLIC 1d1bf0 0 -[CFPDSource handleOpenForWritingFailureWithErrno:]
PUBLIC 1d1cc0 0 -[CFPDSource _writeToDisk:]
PUBLIC 1d1ef0 0 __27-[CFPDSource _writeToDisk:]_block_invoke
PUBLIC 1d1fe0 0 __copy_helper_block_.133
PUBLIC 1d2020 0 __destroy_helper_block_.134
PUBLIC 1d2050 0 -[CFPDSource setPlist:]
PUBLIC 1d20e0 0 -[CFPDSource syncWriteToDiskAndFlushCache]
PUBLIC 1d2110 0 -[CFPDSource asyncWriteToDisk]
PUBLIC 1d2130 0 -[CFPDSource syncWriteToDisk]
PUBLIC 1d2150 0 -[CFPDSource markNeedsToReloadFromDiskDueToFailedWrite]
PUBLIC 1d21b0 0 __55-[CFPDSource markNeedsToReloadFromDiskDueToFailedWrite]_block_invoke
PUBLIC 1d21f0 0 __copy_helper_block_.146
PUBLIC 1d2210 0 __destroy_helper_block_.147
PUBLIC 1d2230 0 -[CFPDSource copyPropertyListWithoutDrainingPendingChangesValidatingPlist:]
PUBLIC 1d2490 0 -[CFPDSource copyPropertyListValidatingPlist:]
PUBLIC 1d24e0 0 _CFPrefsApplyChangesQueueToDictionary
PUBLIC 1d2860 0 -[CFPDSource asyncNotifyObserversOfWriteFromConnection:]
PUBLIC 1d28c0 0 __56-[CFPDSource asyncNotifyObserversOfWriteFromConnection:]_block_invoke
PUBLIC 1d2ab0 0 notifyFunc
PUBLIC 1d2b00 0 __copy_helper_block_.174
PUBLIC 1d2b40 0 __destroy_helper_block_.175
PUBLIC 1d2b70 0 -[CFPDSource drainPendingChanges]
PUBLIC 1d2da0 0 -[CFPDSource hasObservers]
PUBLIC 1d2e10 0 -[CFPDSource enqueueNewKey:value:size:encoding:]
PUBLIC 1d3060 0 __48-[CFPDSource enqueueNewKey:value:size:encoding:]_block_invoke
PUBLIC 1d3090 0 -[CFPDSource debugDump]
PUBLIC 1d3240 0 -[CFPDSource clearCache]
PUBLIC 1d3310 0 -[CFPDSource lockedAsync:]
PUBLIC 1d33a0 0 __26-[CFPDSource lockedAsync:]_block_invoke
PUBLIC 1d3410 0 __copy_helper_block_.194
PUBLIC 1d3450 0 __destroy_helper_block_.195
PUBLIC 1d3480 0 -[CFPDSource lockedSync:]
PUBLIC 1d34e0 0 -[CFPDSource observingConnectionsLockedSync:]
PUBLIC 1d3510 0 -[CFPDSource validateAccessToken:accessType:]
PUBLIC 1d3690 0 -[CFPDSource validateSandboxForWrite:containerPath:]
PUBLIC 1d38e0 0 checkFileWriteData
PUBLIC 1d39f0 0 -[CFPDSource validateSandboxForRead:containerPath:]
PUBLIC 1d3de0 0 ___CFPrefsCopyUserNameForUID_block_invoke
PUBLIC 1d3e90 0 _calculateUserNameForUID
PUBLIC 1d3fc0 0 -[CFPDSource validatePOSIXPermissionsForMessage:accessType:fullyValidated:]
PUBLIC 1d4120 0 -[CFPDSource validateSandboxPermissionsForMessage:containerPath:accessType:]
PUBLIC 1d4160 0 -[CFPDSource validateMessage:withNewKey:newValue:currentPlistData:containerPath:diagnosticMessage:]
PUBLIC 1d4230 0 -[CFPDSource stopNotifyingObserver:]
PUBLIC 1d42a0 0 -[CFPDSource setObserved:bySenderOfMessage:]
PUBLIC 1d43a0 0 __44-[CFPDSource setObserved:bySenderOfMessage:]_block_invoke
PUBLIC 1d44f0 0 __copy_helper_block_.222
PUBLIC 1d4540 0 __destroy_helper_block_.223
PUBLIC 1d4580 0 +[CFPDSource removeObservationConnectionsForIdentifier:]
PUBLIC 1d4600 0 __56+[CFPDSource removeObservationConnectionsForIdentifier:]_block_invoke
PUBLIC 1d4620 0 -[CFPDSource copyCachedObservationConnectionForMessage:]
PUBLIC 1d4790 0 __56-[CFPDSource copyCachedObservationConnectionForMessage:]_block_invoke
PUBLIC 1d47c0 0 __56-[CFPDSource copyCachedObservationConnectionForMessage:]_block_invoke_2
PUBLIC 1d4a10 0 __56-[CFPDSource copyCachedObservationConnectionForMessage:]_block_invoke_3
PUBLIC 1d4be0 0 __56-[CFPDSource copyCachedObservationConnectionForMessage:]_block_invoke_4
PUBLIC 1d4c10 0 __copy_helper_block_.231
PUBLIC 1d4c50 0 __destroy_helper_block_.232
PUBLIC 1d4c80 0 __copy_helper_block_.234
PUBLIC 1d4cc0 0 __destroy_helper_block_.235
PUBLIC 1d4cf0 0 __copy_helper_block_.238
PUBLIC 1d4d40 0 __destroy_helper_block_.239
PUBLIC 1d4d80 0 -[CFPDSource handleAvoidCache]
PUBLIC 1d4da0 0 -[CFPDSource handleNeverCache]
PUBLIC 1d4dc0 0 -[CFPDSource handleEUIDorEGIDMismatch]
PUBLIC 1d4de0 0 -[CFPDSource handleSynchronous]
PUBLIC 1d4e00 0 -[CFPDSource handleNoPlistFound]
PUBLIC 1d4e20 0 -[CFPDSource attachSizeWarningsToReply:forByteCount:]
PUBLIC 1d4e60 0 -[CFPDSource requiresSynchronousWriteAndFlushToDaemonInAgentForWorkaroundFor35459826]
PUBLIC 1d4ed0 0 -[CFPDSource acceptMessage:]
PUBLIC 1d5f20 0 __28-[CFPDSource acceptMessage:]_block_invoke
PUBLIC 1d5f40 0 __copy_helper_block_.289
PUBLIC 1d5f60 0 __destroy_helper_block_.290
PUBLIC 1d5f80 0 -[CFPDSource cleanUpAfterAcceptingMessage:]
PUBLIC 1d6070 0 -[CFPDSource dealloc]
PUBLIC 1d6080 0 -[CFPDContainerSource initWithDomain:userName:container:byHost:managed:shmemIndex:daemon:]
PUBLIC 1d60f0 0 -[CFPDContainerSource container]
PUBLIC 1d6110 0 -[CFPDSourceLookUpKey isEqual:]
PUBLIC 1d6130 0 -[CFPDSourceLookUpKey hash]
PUBLIC 1d6140 0 -[CFPDSourceLookUpKey dealloc]
PUBLIC 1d61a0 0 ___CFPrefsSynchronizeDirtySourceForDaemonTermination_block_invoke
PUBLIC 1d61c0 0 __copy_helper_block_.401
PUBLIC 1d61e0 0 __destroy_helper_block_.402
PUBLIC 1d6200 0 ___CFPrefsSynchronizeDirtySourceOnTimer_block_invoke
PUBLIC 1d6220 0 __copy_helper_block_.404
PUBLIC 1d6240 0 __destroy_helper_block_.405
PUBLIC 1d6260 0 ___CFPrefsEqualKeyOrSource_block_invoke
PUBLIC 1d62d0 0 ___CFPrefsHashKeyOrSource_block_invoke
PUBLIC 1d6340 0 __initializeFSEvents_block_invoke
PUBLIC 1d6400 0 _CFPrefsRecreateFileWatcher
PUBLIC 1d6500 0 deletionStreamCallback
PUBLIC 1d66b0 0 __deletionStreamCallback_block_invoke
PUBLIC 1d66e0 0 __copy_helper_block_.439
PUBLIC 1d6700 0 __destroy_helper_block_.440
PUBLIC 1d6720 0 __IOQueue_block_invoke
PUBLIC 1d6750 0 _extractCFPDBits
PUBLIC 1d68e0 0 __DEBUG_CACHE_MISS_block_invoke
PUBLIC 1d69e0 0 toCString
PUBLIC 1d6ac0 0 __DEBUG_NOTIFY_OBSERVERS_block_invoke
PUBLIC 1d6bb0 0 __DEBUG_CACHE_EVICT_block_invoke
PUBLIC 1d6ca0 0 ___CFPrefsMessageSenderIsSandboxed_block_invoke
PUBLIC 1d6d30 0 __copy_helper_block_.463
PUBLIC 1d6d50 0 __destroy_helper_block_.464
PUBLIC 1d6d70 0 __DEBUG_BEGAN_OBSERVING_block_invoke
PUBLIC 1d6e70 0 __DEBUG_STOPPED_OBSERVING_block_invoke
PUBLIC 1d7020 0 __copy_helper_block_.470
PUBLIC 1d7040 0 __destroy_helper_block_.471
PUBLIC 1d7060 0 ___CFPrefsObservationConnectionQueue_block_invoke
PUBLIC 1d7080 0 __DEBUG_REQUEST_block_invoke
PUBLIC 1d7180 0 __cachedPermissionForMessage_block_invoke
PUBLIC 1d71d0 0 __copy_helper_block_.478
PUBLIC 1d7210 0 __destroy_helper_block_.479
PUBLIC 1d7240 0 __setCachedPermissionForMessage_block_invoke
PUBLIC 1d72c0 0 __copy_helper_block_.481
PUBLIC 1d72e0 0 __destroy_helper_block_.482
PUBLIC 1d7300 0 __DEBUG_WRITE_block_invoke
PUBLIC 1d7420 0 __DEBUG_READ_block_invoke
PUBLIC 1d7530 0 __DEBUG_READ_EMPTY_block_invoke
PUBLIC 1d7640 0 __FAULT_WRITE_REJECTED_block_invoke
PUBLIC 1d7770 0 __FAULT_READ_REJECTED_block_invoke
PUBLIC 1d7880 0 _CFBigNumInitWithInt8
PUBLIC 1d78b0 0 _CFBigNumInitWithInt16
PUBLIC 1d78e0 0 _CFBigNumInitWithInt128
PUBLIC 1d7a40 0 _CFBigNumInitWithUInt8
PUBLIC 1d7a60 0 _CFBigNumInitWithUInt16
PUBLIC 1d7a80 0 _CFBigNumInitWithUInt32
PUBLIC 1d7ac0 0 _CFBigNumInitWithUInt64
PUBLIC 1d7b40 0 _CFBigNumInitWithUInt128
PUBLIC 1d7c80 0 _CFBigNumGetInt8
PUBLIC 1d7ca0 0 _CFBigNumGetInt16
PUBLIC 1d7cc0 0 _CFBigNumGetInt32
PUBLIC 1d7ce0 0 _CFBigNumGetInt64
PUBLIC 1d7d20 0 _CFBigNumGetInt128
PUBLIC 1d7dd0 0 _CFBigNumGetUInt8
PUBLIC 1d7de0 0 _CFBigNumGetUInt16
PUBLIC 1d7df0 0 _CFBigNumGetUInt32
PUBLIC 1d7e00 0 _CFBigNumGetUInt64
PUBLIC 1d7e30 0 _CFBigNumGetUInt128
PUBLIC 1d7ec0 0 _CFBigNumInitWithCFNumber
PUBLIC 1d7f70 0 _CFBigNumInitWithBytes
PUBLIC 1d8240 0 _CFNumberCreateWithBigNum
PUBLIC 1d88f0 0 _CFBigNumCompare
PUBLIC 1d8960 0 _CFBigNumNeg
PUBLIC 1d89b0 0 _CFBigNumAdd
PUBLIC 1d8ba0 0 _CFBigNumSub
PUBLIC 1d8c00 0 _CFBigNumFromCString
PUBLIC 1d8d10 0 _CFBigNumCopyDescription
PUBLIC 1d8d90 0 -[__NSOrderedSetArrayProxy copyWithZone:]
PUBLIC 1d8df0 0 -[__NSOrderedSetSetProxy initWithOrderedSet:]
PUBLIC 1d8e20 0 -[__NSOrderedSetSetProxy dealloc]
PUBLIC 1d8e70 0 -[__NSOrderedSetSetProxy count]
PUBLIC 1d8e90 0 -[__NSOrderedSetSetProxy member:]
PUBLIC 1d8ee0 0 -[__NSOrderedSetSetProxy objectEnumerator]
PUBLIC 1d8f00 0 -[__NSOrderedSetSetProxy copyWithZone:]
PUBLIC 1d8f40 0 -[__NSISOLatin8TrigramKeySet dealloc]
PUBLIC 1d8fd0 0 -[__NSISOLatin8TrigramKeySet finalize]
PUBLIC 1d9060 0 -[__NSISOLatin8TrigramKeySet initWithKeys:keyLenghtInBytes:count:]
PUBLIC 1d9070 0 -[__NSISOLatin8TrigramKeySet isEmpty]
PUBLIC 1d9080 0 -[_NSChineseBigramKeySet_SKS_SKS dealloc]
PUBLIC 1d9110 0 -[_NSChineseBigramKeySet_SKS_SKS finalize]
PUBLIC 1d91a0 0 -[_NSChineseBigramKeySet_SKS_SKS initWithKeys:keyLenghtInBytes:count:]
PUBLIC 1d91b0 0 -[_NSChineseBigramKeySet_SKS_SKS isEmpty]
PUBLIC 1d91c0 0 _CFPrefsSetDirectModeEnabled
PUBLIC 1d91e0 0 populateErrorReply
PUBLIC 1d9260 0 withClientContext
PUBLIC 1d92d0 0 _CFPrefsFixUpIncomingMessageForPIDImpersonationIfNeeded
PUBLIC 1d94e0 0 _CFPrefsCopyFixedUpDomainForMessage
PUBLIC 1d9730 0 _CFPrefsCopyFixedUpContainerForMessage
PUBLIC 1d9ba0 0 _CFPrefsCopyFixedUpUserForMessage
PUBLIC 1d9cb0 0 -[CFPrefsDaemon flushDomainInAgents:]
PUBLIC 1d9d40 0 -[CFPrefsDaemon flushDomainInDaemon:]
PUBLIC 1d9df0 0 -[CFPrefsDaemon logDomainInconsistencyForProcess:message:source:]
PUBLIC 1d9e90 0 __65-[CFPrefsDaemon logDomainInconsistencyForProcess:message:source:]_block_invoke
PUBLIC 1d9fa0 0 __65-[CFPrefsDaemon logDomainInconsistencyForProcess:message:source:]_block_invoke_2
PUBLIC 1da220 0 indexSearchCallback
PUBLIC 1da250 0 __65-[CFPrefsDaemon logDomainInconsistencyForProcess:message:source:]_block_invoke_3
PUBLIC 1da280 0 __copy_helper_block_
PUBLIC 1da2c0 0 __destroy_helper_block_
PUBLIC 1da2f0 0 __65-[CFPrefsDaemon logDomainInconsistencyForProcess:message:source:]_block_invoke.57
PUBLIC 1da320 0 __copy_helper_block_.58
PUBLIC 1da360 0 __destroy_helper_block_.59
PUBLIC 1da390 0 __copy_helper_block_.63
PUBLIC 1da3d0 0 __destroy_helper_block_.64
PUBLIC 1da400 0 __copy_helper_block_.69
PUBLIC 1da450 0 __destroy_helper_block_.70
PUBLIC 1da490 0 -[CFPrefsDaemon handleMessage:fromPeer:replyHandler:]
PUBLIC 1da680 0 -[CFPrefsDaemon handleSourceMessage:replyHandler:]
PUBLIC 1db4e0 0 __Block_byref_object_copy_
PUBLIC 1db500 0 __Block_byref_object_dispose_
PUBLIC 1db520 0 __50-[CFPrefsDaemon handleSourceMessage:replyHandler:]_block_invoke
PUBLIC 1db580 0 __copy_helper_block_.99
PUBLIC 1db5c0 0 __destroy_helper_block_.100
PUBLIC 1db5f0 0 __50-[CFPrefsDaemon handleSourceMessage:replyHandler:]_block_invoke.104
PUBLIC 1db650 0 __copy_helper_block_.105
PUBLIC 1db690 0 __destroy_helper_block_.106
PUBLIC 1db6c0 0 __50-[CFPrefsDaemon handleSourceMessage:replyHandler:]_block_invoke.112
PUBLIC 1db920 0 __copy_helper_block_.129
PUBLIC 1db980 0 __destroy_helper_block_.130
PUBLIC 1db9d0 0 __50-[CFPrefsDaemon handleSourceMessage:replyHandler:]_block_invoke.133
PUBLIC 1dba10 0 __copy_helper_block_.136
PUBLIC 1dba50 0 __destroy_helper_block_.137
PUBLIC 1dba80 0 -[CFPrefsDaemon handleError:]
PUBLIC 1dba90 0 -[CFPrefsDaemon handleFlushManagedMessage:replyHandler:]
PUBLIC 1dbb70 0 __56-[CFPrefsDaemon handleFlushManagedMessage:replyHandler:]_block_invoke
PUBLIC 1dbc00 0 __copy_helper_block_.145
PUBLIC 1dbc40 0 __destroy_helper_block_.146
PUBLIC 1dbc70 0 -[CFPrefsDaemon handleAgentCheckInMessage:replyHandler:]
PUBLIC 1dbe30 0 __56-[CFPrefsDaemon handleAgentCheckInMessage:replyHandler:]_block_invoke
PUBLIC 1dbe40 0 __56-[CFPrefsDaemon handleAgentCheckInMessage:replyHandler:]_block_invoke_2
PUBLIC 1dbe60 0 __copy_helper_block_.156
PUBLIC 1dbe80 0 __destroy_helper_block_.157
PUBLIC 1dbea0 0 -[CFPrefsDaemon handleFlushSourceForDomainMessage:replyHandler:]
PUBLIC 1dbf50 0 __64-[CFPrefsDaemon handleFlushSourceForDomainMessage:replyHandler:]_block_invoke
PUBLIC 1dbff0 0 -[CFPrefsDaemon handleMultiMessage:replyHandler:]
PUBLIC 1dc380 0 __49-[CFPrefsDaemon handleMultiMessage:replyHandler:]_block_invoke
PUBLIC 1dc3b0 0 __49-[CFPrefsDaemon handleMultiMessage:replyHandler:]_block_invoke_2
PUBLIC 1dc440 0 __49-[CFPrefsDaemon handleMultiMessage:replyHandler:]_block_invoke_3
PUBLIC 1dc470 0 __copy_helper_block_.179
PUBLIC 1dc4b0 0 __destroy_helper_block_.180
PUBLIC 1dc4e0 0 -[CFPrefsDaemon handleUserDeletedMessage:replyHandler:]
PUBLIC 1dc6c0 0 __55-[CFPrefsDaemon handleUserDeletedMessage:replyHandler:]_block_invoke
PUBLIC 1dc710 0 -[CFPrefsDaemon initWithRole:testMode:]
PUBLIC 1dca10 0 __39-[CFPrefsDaemon initWithRole:testMode:]_block_invoke
PUBLIC 1dca70 0 __39-[CFPrefsDaemon initWithRole:testMode:]_block_invoke_2
PUBLIC 1dcbf0 0 client_context_finalizer
PUBLIC 1dcd10 0 __copy_helper_block_.203
PUBLIC 1dcd30 0 __destroy_helper_block_.204
PUBLIC 1dcd50 0 __39-[CFPrefsDaemon initWithRole:testMode:]_block_invoke.209
PUBLIC 1dcd70 0 __copy_helper_block_.210
PUBLIC 1dcd90 0 __destroy_helper_block_.211
PUBLIC 1dcdb0 0 -[CFPrefsDaemon role]
PUBLIC 1dcdc0 0 -[CFPrefsDaemon isInTestMode]
PUBLIC 1dcde0 0 -[CFPrefsDaemon _initializeShmemPage:]
PUBLIC 1dcf90 0 -[CFPrefsDaemon shmem]
PUBLIC 1dd070 0 __22-[CFPrefsDaemon shmem]_block_invoke
PUBLIC 1dd090 0 __copy_helper_block_.220
PUBLIC 1dd0b0 0 __destroy_helper_block_.221
PUBLIC 1dd0d0 0 -[CFPrefsDaemon userID]
PUBLIC 1dd0f0 0 -[CFPrefsDaemon getShmemName:bufLen:]
PUBLIC 1dd1c0 0 -[CFPrefsDaemon copyResumedAgentToDaemonXPCConnection]
PUBLIC 1dd240 0 __54-[CFPrefsDaemon copyResumedAgentToDaemonXPCConnection]_block_invoke
PUBLIC 1dd250 0 -[CFPrefsDaemon checkIn]
PUBLIC 1dd3d0 0 -[CFPrefsDaemon withAgentDictionaryIfApplicable:]
PUBLIC 1dd480 0 __49-[CFPrefsDaemon withAgentDictionaryIfApplicable:]_block_invoke
PUBLIC 1dd4b0 0 __copy_helper_block_.237
PUBLIC 1dd4f0 0 __destroy_helper_block_.238
PUBLIC 1dd520 0 -[CFPrefsDaemon removeAgentConnectionsWithUserName:]
PUBLIC 1dd580 0 __52-[CFPrefsDaemon removeAgentConnectionsWithUserName:]_block_invoke
PUBLIC 1dd670 0 __52-[CFPrefsDaemon removeAgentConnectionsWithUserName:]_block_invoke_2
PUBLIC 1dd680 0 __52-[CFPrefsDaemon removeAgentConnectionsWithUserName:]_block_invoke_3
PUBLIC 1dd6a0 0 __copy_helper_block_.243
PUBLIC 1dd6c0 0 __destroy_helper_block_.244
PUBLIC 1dd6e0 0 -[CFPrefsDaemon sendEachAgent:]
PUBLIC 1dd770 0 __31-[CFPrefsDaemon sendEachAgent:]_block_invoke
PUBLIC 1dd7d0 0 __31-[CFPrefsDaemon sendEachAgent:]_block_invoke_2
PUBLIC 1dd860 0 __31-[CFPrefsDaemon sendEachAgent:]_block_invoke_3
PUBLIC 1dd8f0 0 __31-[CFPrefsDaemon sendEachAgent:]_block_invoke_4
PUBLIC 1dd920 0 __copy_helper_block_.248
PUBLIC 1dd940 0 __destroy_helper_block_.249
PUBLIC 1dd960 0 __copy_helper_block_.251
PUBLIC 1dd9b0 0 __destroy_helper_block_.252
PUBLIC 1dd9f0 0 __copy_helper_block_.254
PUBLIC 1dda30 0 __destroy_helper_block_.255
PUBLIC 1dda60 0 __copy_helper_block_.258
PUBLIC 1ddaa0 0 __destroy_helper_block_.259
PUBLIC 1ddad0 0 -[CFPrefsDaemon listener]
PUBLIC 1ddaf0 0 __CFXPreferencesDaemon_main
PUBLIC 1ddc10 0 ____CFXPreferencesDaemon_main_block_invoke
PUBLIC 1ddc30 0 ____CFXPreferencesDaemon_main_block_invoke_2
PUBLIC 1ddc50 0 ____CFXPreferencesDaemon_main_block_invoke_3
PUBLIC 1dddd0 0 ___CFPrefsMessageSenderIsSandboxed_block_invoke
PUBLIC 1dde60 0 __copy_helper_block_.318
PUBLIC 1dde80 0 __destroy_helper_block_.319
PUBLIC 1ddea0 0 ___CFPrefsIsAppleInternal_block_invoke
PUBLIC 1ddee0 0 ___CFPrefsGetSuiteContainer_block_invoke
PUBLIC 1de180 0 ___CFPrefsGetSuiteContainer_block_invoke_2
PUBLIC 1de200 0 __copy_helper_block_.326
PUBLIC 1de220 0 __destroy_helper_block_.327
PUBLIC 1de240 0 __copy_helper_block_.330
PUBLIC 1de280 0 __destroy_helper_block_.331
PUBLIC 1de2b0 0 _CFPrefsEntitlementForConnectionWithContext
PUBLIC 1de590 0 __ifIsInGroup_block_invoke
PUBLIC 1de610 0 __copy_helper_block_.335
PUBLIC 1de630 0 __destroy_helper_block_.336
PUBLIC 1de650 0 ___CFPrefsEntitlementForConnectionWithContext_block_invoke
PUBLIC 1de670 0 ___CFPrefsEntitlementForConnection_block_invoke
PUBLIC 1de6a0 0 __copy_helper_block_.344
PUBLIC 1de6e0 0 __destroy_helper_block_.345
PUBLIC 1de710 0 incomingMessageHandler_block_invoke_2
PUBLIC 1de810 0 incomingMessageHandler_block_invoke_3
PUBLIC 1de820 0 __copy_helper_block_.348
PUBLIC 1de840 0 __destroy_helper_block_.349
PUBLIC 1de860 0 __dumpDebugInfoCallback_block_invoke
PUBLIC 1de910 0 __copy_helper_block_.363
PUBLIC 1de930 0 __destroy_helper_block_.364
PUBLIC 1de950 0 _CFPrefsDictionaryApplyBlock
PUBLIC 1de970 0 applyBlockApplier
PUBLIC 1de990 0 -[NSUserDefaults _identifier]
PUBLIC 1de9b0 0 -[NSUserDefaults _setIdentifier:]
PUBLIC 1dea10 0 -[NSUserDefaults _container]
PUBLIC 1dea30 0 -[NSUserDefaults _setContainer:]
PUBLIC 1dea90 0 -[NSUserDefaults _observingCFPreferences]
PUBLIC 1deab0 0 _CFPrefsArmPendingKVOSlot
PUBLIC 1deaf0 0 dummyKVODestructor
PUBLIC 1deb00 0 _CFPrefsDeliverPendingKVONotifications
PUBLIC 1debc0 0 -[_CFXPreferencesHandle init]
PUBLIC 1dec50 0 -[_CFXPreferencesHandle dealloc]
PUBLIC 1deca0 0 -[_CFXPreferencesHandle setEUIDOverride:]
PUBLIC 1decb0 0 -[_CFXPreferencesHandle copyPrefs]
PUBLIC 1dee30 0 -[_CFXPreferences euid]
PUBLIC 1dee40 0 -[_CFXPreferences canLookUpAgents]
PUBLIC 1def00 0 __34-[_CFXPreferences canLookUpAgents]_block_invoke
PUBLIC 1def70 0 -[_CFXPreferences copyObservationConnection]
PUBLIC 1df030 0 __44-[_CFXPreferences copyObservationConnection]_block_invoke
PUBLIC 1df0c0 0 __44-[_CFXPreferences copyObservationConnection]_block_invoke_2
PUBLIC 1df350 0 __44-[_CFXPreferences copyObservationConnection]_block_invoke_3
PUBLIC 1df3a0 0 __copy_helper_block_
PUBLIC 1df3c0 0 __destroy_helper_block_
PUBLIC 1df3e0 0 __copy_helper_block_.54
PUBLIC 1df420 0 __destroy_helper_block_.55
PUBLIC 1df450 0 -[_CFXPreferences cancelObservationConnection]
PUBLIC 1df4a0 0 -[_CFXPreferences init]
PUBLIC 1df5d0 0 +[_CFXPreferences copyDefaultPreferences]
PUBLIC 1df620 0 -[_CFXPreferences unregisterUserDefaultsInstance:]
PUBLIC 1df6c0 0 __50-[_CFXPreferences unregisterUserDefaultsInstance:]_block_invoke
PUBLIC 1df6e0 0 __copy_helper_block_.62
PUBLIC 1df700 0 __destroy_helper_block_.63
PUBLIC 1df720 0 -[_CFXPreferences registerUserDefaultsInstance:configurationURL:]
PUBLIC 1df7c0 0 __65-[_CFXPreferences registerUserDefaultsInstance:configurationURL:]_block_invoke
PUBLIC 1df800 0 __copy_helper_block_.71
PUBLIC 1df820 0 __destroy_helper_block_.72
PUBLIC 1df840 0 -[_CFXPreferences flushManagedSources]
PUBLIC 1df870 0 __38-[_CFXPreferences flushManagedSources]_block_invoke
PUBLIC 1df9f0 0 __Block_byref_object_copy_
PUBLIC 1dfa10 0 __Block_byref_object_dispose_
PUBLIC 1dfa30 0 __38-[_CFXPreferences flushManagedSources]_block_invoke.75
PUBLIC 1dfa60 0 __copy_helper_block_.76
PUBLIC 1dfab0 0 __destroy_helper_block_.77
PUBLIC 1dfaf0 0 -[_CFXPreferences appValueIsForcedForKey:appIdentifier:]
PUBLIC 1dfc40 0 __56-[_CFXPreferences appValueIsForcedForKey:appIdentifier:]_block_invoke
PUBLIC 1dfc90 0 __copy_helper_block_.85
PUBLIC 1dfcb0 0 __destroy_helper_block_.86
PUBLIC 1dfcd0 0 __56-[_CFXPreferences appValueIsForcedForKey:appIdentifier:]_block_invoke.91
PUBLIC 1dfd20 0 __copy_helper_block_.92
PUBLIC 1dfd40 0 __destroy_helper_block_.93
PUBLIC 1dfd60 0 -[_CFXPreferences hasCloudValueForKey:appIdentifier:container:configurationURL:]
PUBLIC 1dfe20 0 __80-[_CFXPreferences hasCloudValueForKey:appIdentifier:container:configurationURL:]_block_invoke
PUBLIC 1dfe60 0 __copy_helper_block_.97
PUBLIC 1dfe80 0 __destroy_helper_block_.98
PUBLIC 1dfea0 0 -[_CFXPreferences hasNonRegisteredValueForKey:appIdentifier:container:configurationURL:]
PUBLIC 1dff60 0 __88-[_CFXPreferences hasNonRegisteredValueForKey:appIdentifier:container:configurationURL:]_block_invoke
PUBLIC 1dffa0 0 __copy_helper_block_.102
PUBLIC 1dffc0 0 __destroy_helper_block_.103
PUBLIC 1dffe0 0 -[_CFXPreferences copyKeyListForIdentifier:user:host:container:]
PUBLIC 1e0110 0 __64-[_CFXPreferences copyKeyListForIdentifier:user:host:container:]_block_invoke
PUBLIC 1e0140 0 __copy_helper_block_.107
PUBLIC 1e0160 0 __destroy_helper_block_.108
PUBLIC 1e0180 0 -[_CFXPreferences synchronizeEverything]
PUBLIC 1e0250 0 __40-[_CFXPreferences synchronizeEverything]_block_invoke
PUBLIC 1e0280 0 __copy_helper_block_.113
PUBLIC 1e02a0 0 __destroy_helper_block_.114
PUBLIC 1e02c0 0 synchronizeApplier
PUBLIC 1e02e0 0 -[_CFXPreferences synchronizeIdentifier:user:host:container:]
PUBLIC 1e03d0 0 __61-[_CFXPreferences synchronizeIdentifier:user:host:container:]_block_invoke
PUBLIC 1e0400 0 __copy_helper_block_.121
PUBLIC 1e0420 0 __destroy_helper_block_.122
PUBLIC 1e0440 0 -[_CFXPreferences setDaemonCacheEnabled:identifier:user:host:container:]
PUBLIC 1e04e0 0 __72-[_CFXPreferences setDaemonCacheEnabled:identifier:user:host:container:]_block_invoke
PUBLIC 1e0500 0 -[_CFXPreferences notifyOfImpendingDeletionOfUser:]
PUBLIC 1e0560 0 __51-[_CFXPreferences notifyOfImpendingDeletionOfUser:]_block_invoke
PUBLIC 1e0730 0 __51-[_CFXPreferences notifyOfImpendingDeletionOfUser:]_block_invoke_2
PUBLIC 1e0760 0 __copy_helper_block_.128
PUBLIC 1e07b0 0 __destroy_helper_block_.129
PUBLIC 1e07f0 0 -[_CFXPreferences flushCachesForAppIdentifier:user:]
PUBLIC 1e0880 0 __52-[_CFXPreferences flushCachesForAppIdentifier:user:]_block_invoke
PUBLIC 1e0a60 0 __52-[_CFXPreferences flushCachesForAppIdentifier:user:]_block_invoke_2
PUBLIC 1e0a90 0 __copy_helper_block_.133
PUBLIC 1e0ae0 0 __destroy_helper_block_.134
PUBLIC 1e0b20 0 -[_CFXPreferences setAccessRestricted:forAppIdentifier:]
PUBLIC 1e0bd0 0 __56-[_CFXPreferences setAccessRestricted:forAppIdentifier:]_block_invoke
PUBLIC 1e0bf0 0 -[_CFXPreferences addSuitePreferences:toAppIdentifier:container:]
PUBLIC 1e0d20 0 __65-[_CFXPreferences addSuitePreferences:toAppIdentifier:container:]_block_invoke
PUBLIC 1e0ee0 0 __65-[_CFXPreferences addSuitePreferences:toAppIdentifier:container:]_block_invoke_3
PUBLIC 1e1090 0 __65-[_CFXPreferences addSuitePreferences:toAppIdentifier:container:]_block_invoke_4
PUBLIC 1e10b0 0 __copy_helper_block_.149
PUBLIC 1e10d0 0 __destroy_helper_block_.150
PUBLIC 1e10f0 0 __65-[_CFXPreferences addSuitePreferences:toAppIdentifier:container:]_block_invoke.152
PUBLIC 1e1110 0 __copy_helper_block_.153
PUBLIC 1e1130 0 __destroy_helper_block_.154
PUBLIC 1e1150 0 __65-[_CFXPreferences addSuitePreferences:toAppIdentifier:container:]_block_invoke.156
PUBLIC 1e1170 0 __copy_helper_block_.157
PUBLIC 1e1190 0 __destroy_helper_block_.158
PUBLIC 1e11b0 0 __copy_helper_block_.164
PUBLIC 1e1200 0 __destroy_helper_block_.165
PUBLIC 1e1240 0 __65-[_CFXPreferences addSuitePreferences:toAppIdentifier:container:]_block_invoke.169
PUBLIC 1e13f0 0 __65-[_CFXPreferences addSuitePreferences:toAppIdentifier:container:]_block_invoke_2.170
PUBLIC 1e1410 0 __copy_helper_block_.171
PUBLIC 1e1430 0 __destroy_helper_block_.172
PUBLIC 1e1450 0 __65-[_CFXPreferences addSuitePreferences:toAppIdentifier:container:]_block_invoke.174
PUBLIC 1e1470 0 __copy_helper_block_.175
PUBLIC 1e1490 0 __destroy_helper_block_.176
PUBLIC 1e14b0 0 __65-[_CFXPreferences addSuitePreferences:toAppIdentifier:container:]_block_invoke.178
PUBLIC 1e14d0 0 __copy_helper_block_.179
PUBLIC 1e14f0 0 __destroy_helper_block_.180
PUBLIC 1e1510 0 __copy_helper_block_.182
PUBLIC 1e1560 0 __destroy_helper_block_.183
PUBLIC 1e15a0 0 __copy_helper_block_.185
PUBLIC 1e15f0 0 __destroy_helper_block_.186
PUBLIC 1e1630 0 -[_CFXPreferences fullCloudSynchronizeForAppIdentifier:container:configurationURL:completionHandler:]
PUBLIC 1e1690 0 __101-[_CFXPreferences fullCloudSynchronizeForAppIdentifier:container:configurationURL:completionHandler:]_block_invoke
PUBLIC 1e16b0 0 __copy_helper_block_.192
PUBLIC 1e16d0 0 __destroy_helper_block_.193
PUBLIC 1e16f0 0 -[_CFXPreferences setCloudSyncEnabled:forKey:appIdentifier:container:]
PUBLIC 1e1760 0 __70-[_CFXPreferences setCloudSyncEnabled:forKey:appIdentifier:container:]_block_invoke
PUBLIC 1e1780 0 -[_CFXPreferences setValuesForKeys:removingValuesForKeys:identifier:user:host:container:]
PUBLIC 1e1820 0 __89-[_CFXPreferences setValuesForKeys:removingValuesForKeys:identifier:user:host:container:]_block_invoke
PUBLIC 1e1880 0 withKeysAndValues
PUBLIC 1e19f0 0 __89-[_CFXPreferences setValuesForKeys:removingValuesForKeys:identifier:user:host:container:]_block_invoke_2
PUBLIC 1e1b60 0 __copy_helper_block_.204
PUBLIC 1e1b80 0 __destroy_helper_block_.205
PUBLIC 1e1ba0 0 -[_CFXPreferences setValue:forKey:appIdentifier:container:configurationURL:]
PUBLIC 1e1c10 0 __76-[_CFXPreferences setValue:forKey:appIdentifier:container:configurationURL:]_block_invoke
PUBLIC 1e1c40 0 -[_CFXPreferences copyValuesForKeys:identifier:user:host:container:]
PUBLIC 1e1d60 0 __68-[_CFXPreferences copyValuesForKeys:identifier:user:host:container:]_block_invoke
PUBLIC 1e1eb0 0 __copy_helper_block_.220
PUBLIC 1e1ed0 0 __destroy_helper_block_.221
PUBLIC 1e1ef0 0 -[_CFXPreferences copyManagedValuesForKeys:identifier:useSystemContainer:]
PUBLIC 1e2000 0 __74-[_CFXPreferences copyManagedValuesForKeys:identifier:useSystemContainer:]_block_invoke
PUBLIC 1e2150 0 __copy_helper_block_.229
PUBLIC 1e2170 0 __destroy_helper_block_.230
PUBLIC 1e2190 0 -[_CFXPreferences setValue:forKey:identifier:user:host:container:]
PUBLIC 1e2230 0 __66-[_CFXPreferences setValue:forKey:identifier:user:host:container:]_block_invoke
PUBLIC 1e2260 0 -[_CFXPreferences copyValueForKey:identifier:user:host:container:]
PUBLIC 1e2360 0 __66-[_CFXPreferences copyValueForKey:identifier:user:host:container:]_block_invoke
PUBLIC 1e23a0 0 __copy_helper_block_.234
PUBLIC 1e23c0 0 __destroy_helper_block_.235
PUBLIC 1e23e0 0 -[_CFXPreferences copyAppValueForKey:identifier:container:configurationURL:]
PUBLIC 1e24a0 0 __76-[_CFXPreferences copyAppValueForKey:identifier:container:configurationURL:]_block_invoke
PUBLIC 1e24e0 0 __copy_helper_block_.237
PUBLIC 1e2500 0 __destroy_helper_block_.238
PUBLIC 1e2520 0 -[_CFXPreferences replaceValuesInSourceForIdentifier:user:host:container:withValues:]
PUBLIC 1e2590 0 __85-[_CFXPreferences replaceValuesInSourceForIdentifier:user:host:container:withValues:]_block_invoke
PUBLIC 1e2650 0 __85-[_CFXPreferences replaceValuesInSourceForIdentifier:user:host:container:withValues:]_block_invoke_2
PUBLIC 1e2680 0 __copy_helper_block_.244
PUBLIC 1e26a0 0 __destroy_helper_block_.245
PUBLIC 1e26c0 0 -[_CFXPreferences removeVolatileSourceForName:]
PUBLIC 1e2750 0 __47-[_CFXPreferences removeVolatileSourceForName:]_block_invoke
PUBLIC 1e2770 0 -[_CFXPreferences copyDictionaryForSourceWithIdentifier:]
PUBLIC 1e2840 0 __57-[_CFXPreferences copyDictionaryForSourceWithIdentifier:]_block_invoke
PUBLIC 1e2870 0 __copy_helper_block_.257
PUBLIC 1e2890 0 __destroy_helper_block_.258
PUBLIC 1e28b0 0 -[_CFXPreferences copyDictionaryForVolatileSourceWithName:]
PUBLIC 1e29a0 0 __59-[_CFXPreferences copyDictionaryForVolatileSourceWithName:]_block_invoke
PUBLIC 1e29e0 0 __copy_helper_block_.260
PUBLIC 1e2a00 0 __destroy_helper_block_.261
PUBLIC 1e2a20 0 -[_CFXPreferences copyDictionaryForApp:withContainer:]
PUBLIC 1e2b00 0 __54-[_CFXPreferences copyDictionaryForApp:withContainer:]_block_invoke
PUBLIC 1e2b30 0 __copy_helper_block_.263
PUBLIC 1e2b50 0 __destroy_helper_block_.264
PUBLIC 1e2b70 0 -[_CFXPreferences volatileSourceNames]
PUBLIC 1e2c20 0 __38-[_CFXPreferences volatileSourceNames]_block_invoke
PUBLIC 1e2d60 0 __copy_helper_block_.266
PUBLIC 1e2d80 0 __destroy_helper_block_.267
PUBLIC 1e2da0 0 -[_CFXPreferences registerDefaultValues:]
PUBLIC 1e2df0 0 __41-[_CFXPreferences registerDefaultValues:]_block_invoke
PUBLIC 1e2e60 0 __41-[_CFXPreferences registerDefaultValues:]_block_invoke_2
PUBLIC 1e2e90 0 __copy_helper_block_.275
PUBLIC 1e2eb0 0 __destroy_helper_block_.276
PUBLIC 1e2ed0 0 -[_CFXPreferences ingestVolatileStateFromPreferences:]
PUBLIC 1e2f50 0 __54-[_CFXPreferences ingestVolatileStateFromPreferences:]_block_invoke
PUBLIC 1e2fb0 0 __54-[_CFXPreferences ingestVolatileStateFromPreferences:]_block_invoke_2
PUBLIC 1e3010 0 __54-[_CFXPreferences ingestVolatileStateFromPreferences:]_block_invoke_3
PUBLIC 1e3020 0 __copy_helper_block_.284
PUBLIC 1e3040 0 __destroy_helper_block_.285
PUBLIC 1e3060 0 -[_CFXPreferences resetPreferences:]
PUBLIC 1e30c0 0 __36-[_CFXPreferences resetPreferences:]_block_invoke
PUBLIC 1e3130 0 __36-[_CFXPreferences resetPreferences:]_block_invoke_2
PUBLIC 1e31a0 0 __36-[_CFXPreferences resetPreferences:]_block_invoke_3
PUBLIC 1e32c0 0 __copy_helper_block_.289
PUBLIC 1e32e0 0 __destroy_helper_block_.290
PUBLIC 1e3300 0 __copy_helper_block_.292
PUBLIC 1e3320 0 __destroy_helper_block_.293
PUBLIC 1e3340 0 __copy_helper_block_.295
PUBLIC 1e3360 0 __destroy_helper_block_.296
PUBLIC 1e3380 0 -[_CFXPreferences shmemForRole:name:]
PUBLIC 1e3590 0 __37-[_CFXPreferences shmemForRole:name:]_block_invoke
PUBLIC 1e3630 0 -[_CFXPreferences destroyConnections]
PUBLIC 1e36b0 0 -[_CFXPreferences dealloc]
PUBLIC 1e37b0 0 -[_CFXPreferences _copyDaemonConnectionSettingUpIfNecessaryForRole:]
PUBLIC 1e39c0 0 __68-[_CFXPreferences _copyDaemonConnectionSettingUpIfNecessaryForRole:]_block_invoke
PUBLIC 1e39d0 0 -[_CFXPreferences withConnectionForRole:performBlock:]
PUBLIC 1e3a10 0 -[_CFXPreferences appSynchronizeWithIdentifier:container:]
PUBLIC 1e3ac0 0 __58-[_CFXPreferences appSynchronizeWithIdentifier:container:]_block_invoke
PUBLIC 1e3af0 0 __copy_helper_block_.314
PUBLIC 1e3b10 0 __destroy_helper_block_.315
PUBLIC 1e3b30 0 -[_CFXPreferences removeSuite:fromApp:withContainer:]
PUBLIC 1e3b90 0 __53-[_CFXPreferences removeSuite:fromApp:withContainer:]_block_invoke
PUBLIC 1e3c80 0 __53-[_CFXPreferences removeSuite:fromApp:withContainer:]_block_invoke_2
PUBLIC 1e3e10 0 __53-[_CFXPreferences removeSuite:fromApp:withContainer:]_block_invoke_3
PUBLIC 1e3e30 0 __copy_helper_block_.319
PUBLIC 1e3e50 0 __destroy_helper_block_.320
PUBLIC 1e3e70 0 __53-[_CFXPreferences removeSuite:fromApp:withContainer:]_block_invoke.323
PUBLIC 1e3e90 0 __copy_helper_block_.324
PUBLIC 1e3eb0 0 __destroy_helper_block_.325
PUBLIC 1e3ed0 0 __53-[_CFXPreferences removeSuite:fromApp:withContainer:]_block_invoke.327
PUBLIC 1e3ef0 0 __copy_helper_block_.328
PUBLIC 1e3f10 0 __destroy_helper_block_.329
PUBLIC 1e3f30 0 __copy_helper_block_.331
PUBLIC 1e3f50 0 __destroy_helper_block_.332
PUBLIC 1e3f70 0 __53-[_CFXPreferences removeSuite:fromApp:withContainer:]_block_invoke.334
PUBLIC 1e4100 0 __53-[_CFXPreferences removeSuite:fromApp:withContainer:]_block_invoke_2.335
PUBLIC 1e4120 0 __copy_helper_block_.336
PUBLIC 1e4140 0 __destroy_helper_block_.337
PUBLIC 1e4160 0 __53-[_CFXPreferences removeSuite:fromApp:withContainer:]_block_invoke.339
PUBLIC 1e4180 0 __copy_helper_block_.340
PUBLIC 1e41a0 0 __destroy_helper_block_.341
PUBLIC 1e41c0 0 __53-[_CFXPreferences removeSuite:fromApp:withContainer:]_block_invoke.343
PUBLIC 1e41e0 0 __copy_helper_block_.344
PUBLIC 1e4200 0 __destroy_helper_block_.345
PUBLIC 1e4220 0 __copy_helper_block_.347
PUBLIC 1e4240 0 __destroy_helper_block_.348
PUBLIC 1e4260 0 __copy_helper_block_.350
PUBLIC 1e4280 0 __destroy_helper_block_.351
PUBLIC 1e42a0 0 -[_CFXPreferences replaceValuesInVolatileSourceNamed:withValues:]
PUBLIC 1e4300 0 __65-[_CFXPreferences replaceValuesInVolatileSourceNamed:withValues:]_block_invoke
PUBLIC 1e4370 0 __65-[_CFXPreferences replaceValuesInVolatileSourceNamed:withValues:]_block_invoke_2
PUBLIC 1e43a0 0 __copy_helper_block_.355
PUBLIC 1e43c0 0 __destroy_helper_block_.356
PUBLIC 1e43e0 0 _CFPrefsResetPreferences
PUBLIC 1e44c0 0 _CFPreferencesRegisterStandardUserDefaultsExists
PUBLIC 1e44f0 0 ___CFPreferencesRegisterStandardUserDefaultsExists_block_invoke
PUBLIC 1e4500 0 _CFPreferencesDoesNSUserDefaultsExist
PUBLIC 1e4510 0 _CFPreferencesCopyStandardUserDefaults
PUBLIC 1e4560 0 _CFPrefsRegisterUserDefaultsInstanceWithCloudConfigurationURL
PUBLIC 1e45f0 0 _CFPrefsRegisterUserDefaultsInstance
PUBLIC 1e4680 0 _CFPrefsUnregisterUserDefaultsInstance
PUBLIC 1e4700 0 _CFPrefsImpersonateApplicationWithIdentifierAndContainerDataPath
PUBLIC 1e4750 0 _CFPreferencesCopyValueNoCache
PUBLIC 1e4800 0 __copy_helper_block_.493
PUBLIC 1e4820 0 __destroy_helper_block_.494
PUBLIC 1e4840 0 _CFXPreferencesCopyVolatileSourceNames
PUBLIC 1e48c0 0 _CFXPreferencesRemoveNamedVolatileSource
PUBLIC 1e4940 0 _CFPrefsCopyAppDictionary
PUBLIC 1e49d0 0 _CFXPreferencesCopyDictionaryForApplicationPreferences
PUBLIC 1e4a60 0 _CFXPreferencesReplaceValuesInSourceWithBundleIDWithContainer
PUBLIC 1e4b10 0 _CFXPreferencesReplaceValuesInSourceWithBundleID
PUBLIC 1e4bb0 0 _CFPreferencesCopyAppValueWithContainerAndConfiguration
PUBLIC 1e4c60 0 _CFPreferencesSetAppValueWithContainerAndConfiguration
PUBLIC 1e4d10 0 _CFPreferencesSetAppCloudSyncEnabled
PUBLIC 1e4db0 0 _CFPreferencesAppFullCloudSynchronizeWithConfiguration
PUBLIC 1e4e50 0 _CFPreferencesAppFullCloudSynchronize
PUBLIC 1e4ef0 0 _CFPreferencesHasAppCloudValue
PUBLIC 1e4fa0 0 _CFPreferencesHasAppValue
PUBLIC 1e5050 0 CFPreferencesAddSuitePreferencesToApp
PUBLIC 1e50e0 0 _CFPreferencesRemoveSuitePreferencesFromAppWithContainer
PUBLIC 1e5180 0 CFPreferencesRemoveSuitePreferencesFromApp
PUBLIC 1e5210 0 CFPreferencesSetMultiple
PUBLIC 1e52c0 0 _CFPreferencesSetAccessRestricted
PUBLIC 1e5350 0 _CFPreferencesFlushCachesForIdentifier
PUBLIC 1e53e0 0 _CFPreferencesNotifyOfImpendingUserDeletion
PUBLIC 1e5460 0 _CFPreferencesSetBackupDisabled
PUBLIC 1e5480 0 _CFPreferencesSetDaemonCacheEnabled
PUBLIC 1e5530 0 CFPreferencesCopyApplicationList
PUBLIC 1e5560 0 _CFPrefsResetManagedPreferencesStateCache
PUBLIC 1e5600 0 _CFPreferencesCopyMultipleManaged
PUBLIC 1e56a0 0 _CFPreferencesWriteManagedDomain
PUBLIC 1e5790 0 _CFPreferencesWriteManagedDomainForUser
PUBLIC 1e57b0 0 _CFPreferencesPostValuesChangedInDomains
PUBLIC 1e57e0 0 ___CFPrefsCopyDefaultPreferences_block_invoke
PUBLIC 1e5820 0 __localDaemon_block_invoke
PUBLIC 1e5890 0 __localAgent_block_invoke
PUBLIC 1e5900 0 -[__NSISOLatin10TrigramKeySet dealloc]
PUBLIC 1e5990 0 -[__NSISOLatin10TrigramKeySet finalize]
PUBLIC 1e5a20 0 -[__NSISOLatin10TrigramKeySet initWithKeys:keyLenghtInBytes:count:]
PUBLIC 1e5a30 0 -[__NSISOLatin10TrigramKeySet isEmpty]
PUBLIC 1e5a40 0 _CFWebServicesSetProviderInfo
PUBLIC 1e5c50 0 _CFPreferencesWebServicesCopyProvider
PUBLIC 1e5ce0 0 _CFPreferencesWebServicesSetProvider
PUBLIC 1e5d60 0 -[__NSPlaceholderDictionary count]
PUBLIC 1e5e20 0 -[__NSPlaceholderDictionary objectForKey:]
PUBLIC 1e5ee0 0 -[__NSPlaceholderDictionary keyEnumerator]
PUBLIC 1e5fa0 0 -[__NSPlaceholderDictionary setObject:forKey:]
PUBLIC 1e6060 0 -[__NSPlaceholderDictionary removeObjectForKey:]
PUBLIC 1e6120 0 +[__NSPlaceholderDictionary allocWithZone:]
PUBLIC 1e6130 0 -[__NSPlaceholderDictionary initWithDictionary:copyItems:]
PUBLIC 1e6210 0 __58-[__NSPlaceholderDictionary initWithDictionary:copyItems:]_block_invoke
PUBLIC 1e6270 0 -[__NSPlaceholderDictionary retain]
PUBLIC 1e6280 0 -[__NSPlaceholderDictionary release]
PUBLIC 1e6290 0 -[__NSPlaceholderDictionary retainCount]
PUBLIC 1e62a0 0 -[__NSPlaceholderDictionary dealloc]
PUBLIC 1e62b0 0 mdict_keysOfEntriesWithOptionsPassingTest
PUBLIC 1e64b0 0 __mdict_keysOfEntriesWithOptionsPassingTest_block_invoke
PUBLIC 1e6570 0 __copy_helper_block_
PUBLIC 1e65c0 0 __destroy_helper_block_
PUBLIC 1e6600 0 mdict_removeObjectForKey
PUBLIC 1e6840 0 -[__NSDictionaryM setObject:forKeyedSubscript:]
PUBLIC 1e6c20 0 -[__NSDictionaryM keyOfEntryWithOptions:passingTest:]
PUBLIC 1e6e60 0 -[__NSDictionaryM keysOfEntriesWithOptions:passingTest:]
PUBLIC 1e6ef0 0 -[__NSDictionaryM objectForKeyedSubscript:]
PUBLIC 1e7020 0 -[__NSDictionaryM removeEntriesWithOptions:passingTest:]
PUBLIC 1e7410 0 __56-[__NSDictionaryM removeEntriesWithOptions:passingTest:]_block_invoke
PUBLIC 1e74d0 0 __copy_helper_block_.40
PUBLIC 1e7520 0 __destroy_helper_block_.41
PUBLIC 1e7560 0 cow_cleanup
PUBLIC 1e7630 0 +[__NSDictionaryM allocWithZone:]
PUBLIC 1e7650 0 __32-[__NSDictionaryM copyWithZone:]_block_invoke
PUBLIC 1e7680 0 __39-[__NSDictionaryM mutableCopyWithZone:]_block_invoke
PUBLIC 1e76b0 0 -[__NSDictionaryM _clumpingFactor]
PUBLIC 1e7910 0 -[__NSDictionaryM _clumpingInterestingThreshold]
PUBLIC 1e7970 0 -[__NSFrozenDictionaryM count]
PUBLIC 1e7990 0 -[__NSFrozenDictionaryM getObjects:andKeys:count:]
PUBLIC 1e7a80 0 -[__NSFrozenDictionaryM keyEnumerator]
PUBLIC 1e7ad0 0 -[__NSFrozenDictionaryM objectForKey:]
PUBLIC 1e7bd0 0 -[__NSFrozenDictionaryM __apply:context:]
PUBLIC 1e7ca0 0 -[__NSFrozenDictionaryM countByEnumeratingWithState:objects:count:]
PUBLIC 1e7d80 0 -[__NSFrozenDictionaryM enumerateKeysAndObjectsWithOptions:usingBlock:]
PUBLIC 1e7f10 0 -[__NSFrozenDictionaryM keyOfEntryWithOptions:passingTest:]
PUBLIC 1e8120 0 -[__NSFrozenDictionaryM keysOfEntriesWithOptions:passingTest:]
PUBLIC 1e8160 0 -[__NSFrozenDictionaryM objectForKeyedSubscript:]
PUBLIC 1e8260 0 +[__NSFrozenDictionaryM allocWithZone:]
PUBLIC 1e8280 0 -[__NSFrozenDictionaryM dealloc]
PUBLIC 1e82d0 0 -[__NSFrozenDictionaryM copyWithZone:]
PUBLIC 1e82f0 0 -[__NSFrozenDictionaryM mutableCopyWithZone:]
PUBLIC 1e83d0 0 __45-[__NSFrozenDictionaryM mutableCopyWithZone:]_block_invoke
PUBLIC 1e8400 0 mdict_rehashd
PUBLIC 1e85c0 0 __mdict_enumerateKeysAndObjectsWithOptionsUsingBlock_block_invoke
PUBLIC 1e8650 0 __copy_helper_block_.141
PUBLIC 1e8690 0 __destroy_helper_block_.142
PUBLIC 1e86c0 0 __mdict_keyOfEntryWithOptionsPassingTest_block_invoke
PUBLIC 1e8760 0 __copy_helper_block_.144
PUBLIC 1e87b0 0 __destroy_helper_block_.145
PUBLIC 1e87f0 0 cow_copy_instance
PUBLIC 1e8860 0 cow_copy_storage
PUBLIC 1e8980 0 cow_set_cow
PUBLIC 1e89a0 0 __CLUMPINESS_block_invoke
PUBLIC 1e89c0 0 __CFGenerateReport
PUBLIC 1e8ed0 0 ____CFGenerateReport_block_invoke
PUBLIC 1e8f10 0 __copy_helper_block_
PUBLIC 1e8f50 0 __destroy_helper_block_
PUBLIC 1e8f80 0 bufferWrite
PUBLIC 1e90d0 0 __initStatics_block_invoke
PUBLIC 1e9160 0 writeBytes
PUBLIC 1e91f0 0 _CFAppSleepGetDebugInfo
PUBLIC 1e9530 0 _readAppSleepPreferencesNotification
PUBLIC 1e9550 0 ____CFRunLoopSetOptionsReason_block_invoke_3
PUBLIC 1e9570 0 ____CFRunLoopSetOptionsReason_block_invoke_4
PUBLIC 1e9590 0 __copy_helper_block_
PUBLIC 1e95d0 0 __destroy_helper_block_
PUBLIC 1e9600 0 ____CFRunLoopSetOptionsReason_block_invoke.61
PUBLIC 1e9610 0 ____CFRunLoopSetOptionsReason_block_invoke_2.63
PUBLIC 1e9660 0 __copy_helper_block_.67
PUBLIC 1e9680 0 __destroy_helper_block_.68
PUBLIC 1e96a0 0 __copy_helper_block_.72
PUBLIC 1e96e0 0 __destroy_helper_block_.73
PUBLIC 1e9710 0 ____CFRunLoopSetOptionsReason_block_invoke.76
PUBLIC 1e9730 0 ____CFRunLoopSetOptionsReason_block_invoke_2.83
PUBLIC 1e9750 0 ____CFRunLoopSetOptionsReason_block_invoke_3.104
PUBLIC 1e9980 0 ____CFRunLoopSetOptionsReason_block_invoke_4.107
PUBLIC 1e99a0 0 ____CFRunLoopSetOptionsReason_block_invoke_5.111
PUBLIC 1e99d0 0 __copy_helper_block_.112
PUBLIC 1e99f0 0 __destroy_helper_block_.113
PUBLIC 1e9a10 0 _CFSetProductName
PUBLIC 1e9a40 0 _CFBundleGetProductNameSuffix
PUBLIC 1e9a50 0 _CFBundleGetPlatformNameSuffix
PUBLIC 1e9a60 0 _CFGetAlternatePlatformName
PUBLIC 1e9a70 0 _CFBundleSupportedPlatformName
PUBLIC 1e9b90 0 _CFBundleSupportedProductName
PUBLIC 1e9c20 0 _CFBundleGetPackageInfoInDirectory
PUBLIC 1e9c40 0 CFBundleGetPackageInfoInDirectory
PUBLIC 1e9c60 0 _CFBundleGetLocalInfoDictionary
PUBLIC 1e9c70 0 _CFBundleCreateFilteredInfoPlist
PUBLIC 1e9ce0 0 _CFBundleCreateFilteredInfoPlistWithURL
PUBLIC 1e9f00 0 _CFBundleCreateFilteredLocalizedInfoPlist
PUBLIC 1e9f60 0 __copy_helper_block_
PUBLIC 1e9fa0 0 __destroy_helper_block_
PUBLIC 1e9fd0 0 __addPlatformAndProductNamesToKeys
PUBLIC 1ea180 0 -[__NSCFSet isEqual:]
PUBLIC 1ea210 0 -[__NSCFSet hash]
PUBLIC 1ea220 0 -[__NSCFSet _tryRetain]
PUBLIC 1ea240 0 -[__NSCFSet _isDeallocating]
PUBLIC 1ea250 0 -[__NSCFSet retainCount]
PUBLIC 1ea260 0 +[__NSCFSet automaticallyNotifiesObserversForKey:]
PUBLIC 1ea270 0 -[__NSCFSet classForCoder]
PUBLIC 1ea2a0 0 -[__NSCFSet _trueCount]
PUBLIC 1ea2b0 0 -[__NSISOLatin7TrigramKeySet dealloc]
PUBLIC 1ea340 0 -[__NSISOLatin7TrigramKeySet finalize]
PUBLIC 1ea3d0 0 -[__NSISOLatin7TrigramKeySet initWithKeys:keyLenghtInBytes:count:]
PUBLIC 1ea3e0 0 -[__NSISOLatin7TrigramKeySet isEmpty]
PUBLIC 1ea3f0 0 _CFPrefsSetSynchronizeIsSynchronous
PUBLIC 1ea400 0 _CFPreferencesWriteUserPreferencesWithCorrectOwner
PUBLIC 1ea410 0 _CFPrefsImpersonateApplicationWithIdentifierAndPID
PUBLIC 1ea430 0 -[CFPrefsPlistSource isByHost]
PUBLIC 1ea450 0 -[CFPrefsPlistSource initWithDomain:user:byHost:containerPath:containingPreferences:]
PUBLIC 1ea520 0 -[CFPrefsPlistSource setAccessRestricted:]
PUBLIC 1ea530 0 -[CFPrefsPlistSource setDaemonCacheEnabled:]
PUBLIC 1ea550 0 ___CFPrefsCopyBackstopAppleLocaleOrLanguageForKey_block_invoke
PUBLIC 1ea5c0 0 locallySetValueOverlayMergeFunc
PUBLIC 1ea5f0 0 -[CFPrefsPlistSource alreadylocked_setValues:forKeys:count:from:]
PUBLIC 1eace0 0 -[CFPrefsPlistSource isVolatile]
PUBLIC 1ead00 0 -[CFPrefsPlistSource goReadOnlyAfterTryingToWriteKey:value:]
PUBLIC 1ead30 0 __98-[CFPrefsPlistSource handleErrorReply:fromMessageSettingKey:toValue:retryCount:retryContinuation:]_block_invoke
PUBLIC 1ead60 0 __98-[CFPrefsPlistSource handleErrorReply:fromMessageSettingKey:toValue:retryCount:retryContinuation:]_block_invoke_2
PUBLIC 1eadd0 0 -[CFPrefsPlistSource sendFullyPreparedMessage:toConnection:settingValue:forKey:retryCount:]
PUBLIC 1eb0c0 0 __91-[CFPrefsPlistSource sendFullyPreparedMessage:toConnection:settingValue:forKey:retryCount:]_block_invoke
PUBLIC 1eb160 0 __91-[CFPrefsPlistSource sendFullyPreparedMessage:toConnection:settingValue:forKey:retryCount:]_block_invoke_2
PUBLIC 1eb230 0 __91-[CFPrefsPlistSource sendFullyPreparedMessage:toConnection:settingValue:forKey:retryCount:]_block_invoke_3
PUBLIC 1eb2e0 0 __copy_helper_block_
PUBLIC 1eb330 0 __destroy_helper_block_
PUBLIC 1eb370 0 __copy_helper_block_.78
PUBLIC 1eb3c0 0 __destroy_helper_block_.79
PUBLIC 1eb400 0 __copy_helper_block_.82
PUBLIC 1eb440 0 __destroy_helper_block_.83
PUBLIC 1eb470 0 __copy_helper_block_.97
PUBLIC 1eb4b0 0 __destroy_helper_block_.98
PUBLIC 1eb4e0 0 __Block_byref_object_copy_
PUBLIC 1eb500 0 __Block_byref_object_dispose_
PUBLIC 1eb520 0 __copy_helper_block_.103
PUBLIC 1eb560 0 __destroy_helper_block_.104
PUBLIC 1eb590 0 _CFPrefSetInvalidPropertyListDeletionEnabled
PUBLIC 1eb5a0 0 -[CFPrefsPlistSource requestPlistValidation]
PUBLIC 1eb650 0 __44-[CFPrefsPlistSource requestPlistValidation]_block_invoke
PUBLIC 1eb700 0 __44-[CFPrefsPlistSource requestPlistValidation]_block_invoke_2
PUBLIC 1eb710 0 __copy_helper_block_.109
PUBLIC 1eb730 0 __destroy_helper_block_.110
PUBLIC 1eb750 0 __88-[CFPrefsPlistSource handleReply:toRequestNewDataMessage:onConnection:retryCount:error:]_block_invoke
PUBLIC 1eb7a0 0 __copy_helper_block_.112
PUBLIC 1eb7f0 0 __destroy_helper_block_.113
PUBLIC 1eb830 0 __copy_helper_block_.133
PUBLIC 1eb880 0 __destroy_helper_block_.134
PUBLIC 1eb8c0 0 -[CFPrefsPlistSource alreadylocked_clearCache]
PUBLIC 1eb980 0 -[CFPrefsPlistSource alreadylocked_generationCount]
PUBLIC 1ebc50 0 -[CFPrefsPlistSource generationCount]
PUBLIC 1ebf50 0 -[CFPrefsPlistSource alreadylocked_updateObservingRemoteChanges]
PUBLIC 1ec100 0 __64-[CFPrefsPlistSource alreadylocked_updateObservingRemoteChanges]_block_invoke
PUBLIC 1ec270 0 __64-[CFPrefsPlistSource alreadylocked_updateObservingRemoteChanges]_block_invoke_2
PUBLIC 1ec2a0 0 __copy_helper_block_.146
PUBLIC 1ec2e0 0 __destroy_helper_block_.147
PUBLIC 1ec310 0 __copy_helper_block_.149
PUBLIC 1ec350 0 __destroy_helper_block_.150
PUBLIC 1ec380 0 -[CFPrefsManagedSource initWithDomain:user:byHost:containingPreferences:]
PUBLIC 1ec3c0 0 -[CFPrefsManagedSource sendMessageSettingValue:forKey:]
PUBLIC 1ec3d0 0 -[CFPrefsManagedSource alreadylocked_setValues:forKeys:count:from:]
PUBLIC 1ec3e0 0 -[_CFXPreferences(PlistSourceAdditions) withManagedSourceForIdentifier:user:perform:]
PUBLIC 1ec590 0 __85-[_CFXPreferences(PlistSourceAdditions) withManagedSourceForIdentifier:user:perform:]_block_invoke
PUBLIC 1ec650 0 __copy_helper_block_.215
PUBLIC 1ec690 0 __destroy_helper_block_.216
PUBLIC 1ec6c0 0 __copy_helper_block_.225
PUBLIC 1ec6e0 0 __destroy_helper_block_.226
PUBLIC 1ec700 0 ___CFPrefsCurrentPID_block_invoke
PUBLIC 1ec720 0 __Block_byref_object_copy_
PUBLIC 1ec740 0 __Block_byref_object_dispose_
PUBLIC 1ec760 0 ___CFPrefsGetCompatibilitySource_block_invoke
PUBLIC 1ec840 0 __copy_helper_block_
PUBLIC 1ec860 0 __destroy_helper_block_
PUBLIC 1ec880 0 -[CFPrefsCompatibilitySource alreadylocked_copyValueForKey:]
PUBLIC 1ed6d0 0 -[CFPrefsCompatibilitySource alreadylocked_setValues:forKeys:count:]
PUBLIC 1ed6e0 0 -[CFPrefsCompatibilitySource alreadylocked_requestNewData]
PUBLIC 1ed730 0 -[CFPrefsCompatibilitySource alreadylocked_copyKeyList]
PUBLIC 1ed770 0 __55-[CFPrefsCompatibilitySource alreadylocked_copyKeyList]_block_invoke
PUBLIC 1ed7a0 0 -[CFPrefsCompatibilitySource mergeIntoDictionary:sourceDictionary:]
PUBLIC 1ed7e0 0 -[CFPrefsCompatibilitySource alreadylocked_copyDictionary]
PUBLIC 1ed870 0 __CFCreateCocoaDateFormatFromICUFormat
PUBLIC 1edd20 0 -[_NSChineseBigramKeySet_SKS dealloc]
PUBLIC 1eddb0 0 -[_NSChineseBigramKeySet_SKS finalize]
PUBLIC 1ede40 0 -[_NSChineseBigramKeySet_SKS initWithKeys:keyLenghtInBytes:count:]
PUBLIC 1ede50 0 -[_NSChineseBigramKeySet_SKS isEmpty]
PUBLIC 1ede60 0 displayWillSleep
PUBLIC 1ede80 0 displayDidWake
PUBLIC 1edea0 0 ___CFAppSleepSetupAppSleepDebug_block_invoke_2
PUBLIC 1edec0 0 _setupDebugConnection
PUBLIC 1edfe0 0 ___setupDebugConnection_block_invoke
PUBLIC 1ee070 0 ___setupDebugConnection_block_invoke_2
PUBLIC 1ee0f0 0 ___setupDebugConnection_block_invoke_3
PUBLIC 1ee1b0 0 ___setupDebugConnection_block_invoke_4
PUBLIC 1ee1c0 0 ___setupDebugConnection_block_invoke_5
PUBLIC 1f0e78 0 __kCFNullArrayCallBacks
PUBLIC 1f0ea0 0 _CFArrayFastEnumeration.const_mu
PUBLIC 1f0eb0 0 _NSSharedKeySet_seeds
PUBLIC 1f0ec0 0 _NSSharedKeySet_g
PUBLIC 1f10f0 0 _NSSharedKeySet_r
PUBLIC 1f3360 0 _NSSharedKeySet_keys
PUBLIC 1f5380 0 kCFAllocatorDefault
PUBLIC 1f5388 0 kCFAllocatorUseContext
PUBLIC 1f5390 0 kCFAllocatorSystemDefaultGCRefZero
PUBLIC 1f5398 0 kCFAllocatorDefaultGCRefZero
PUBLIC 1f53a0 0 __NSOrderedSetSizes
PUBLIC 1f55a0 0 countByEnumeratingWithState:objects:count:.const_mu
PUBLIC 1f55b0 0 __NSOrderedSetCapacities
PUBLIC 1f57b0 0 actionWeak
PUBLIC 1f5ad0 0 stateWeak
PUBLIC 1f5df0 0 actionNeutrals
PUBLIC 1f5e70 0 stateNeutrals
PUBLIC 1f5ef0 0 addLevel
PUBLIC 1f5f40 0 sixBitToCharLookup
PUBLIC 1f5f80 0 charToSixBitLookup
PUBLIC 1f60a0 0 _deque_countByEnumeratingWithStateObjectsCount.const_mu
PUBLIC 1f60b0 0 _NSSharedKeySetS_seeds
PUBLIC 1f60c0 0 _NSSharedKeySetS_g
PUBLIC 1f6e60 0 _NSSharedKeySetS_r
PUBLIC 2047a0 0 _NSSharedKeySetS_keys
PUBLIC 20c3c0 0 _NSSharedKeySetS_seeds
PUBLIC 20c3d0 0 _NSSharedKeySetS_g
PUBLIC 20ce10 0 _NSSharedKeySetS_r
PUBLIC 217170 0 _NSSharedKeySetS_keys
PUBLIC 21de50 0 _NSSharedKeySet_seeds
PUBLIC 21de58 0 _NSSharedKeySet_g
PUBLIC 21de60 0 _NSSharedKeySet_r
PUBLIC 21de80 0 _NSSharedKeySet_keys
PUBLIC 21ded0 0 _NSSharedKeySetS_seeds
PUBLIC 21dee0 0 _NSSharedKeySetS_g
PUBLIC 21e650 0 _NSSharedKeySetS_r
PUBLIC 225cd0 0 _NSSharedKeySetS_keys
PUBLIC 22a3e0 0 __CFBitVectorCountBits.__CFNibbleBitCount
PUBLIC 22a3f0 0 _NSSharedKeySetS_seeds
PUBLIC 22a400 0 _NSSharedKeySetS_g
PUBLIC 22ae80 0 _NSSharedKeySetS_r
PUBLIC 235650 0 _NSSharedKeySetS_keys
PUBLIC 23ccc0 0 __CFLatin1CombiningCharBitmap
PUBLIC 23ccd0 0 macRoman_from_uni
PUBLIC 23cee0 0 macRoman_to_uni
PUBLIC 23cfe0 0 cp1252_from_uni
PUBLIC 23d050 0 cp1252_to_uni
PUBLIC 23d090 0 nextstep_from_tab
PUBLIC 23d290 0 NSToPrecompUnicodeTable
PUBLIC 23d390 0 firstByteMark
PUBLIC 23d3a0 0 trailingBytesForUTF8
PUBLIC 23d4a0 0 offsetsFromUTF8
PUBLIC 23d4e0 0 _CFBundleCopyFindResources.extensionSep
PUBLIC 23d5d0 0 __NSDictionarySizes
PUBLIC 23d710 0 countByEnumeratingWithState:objects:count:.const_mu
PUBLIC 23d720 0 __NSDictionaryCapacities
PUBLIC 23d860 0 _NSSharedKeySetS_seeds
PUBLIC 23d870 0 _NSSharedKeySetS_g
PUBLIC 23e070 0 _NSSharedKeySetS_r
PUBLIC 246000 0 _NSSharedKeySetS_keys
PUBLIC 24ac78 0 countByEnumeratingWithState:objects:count:.const_mu
PUBLIC 24acc0 0 CFAbsoluteTimeGetDifferenceAsGregorianUnits.seconds
PUBLIC 24ace0 0 daysInMonth
PUBLIC 24acf0 0 daysBeforeMonth
PUBLIC 24ad10 0 _NSSharedKeySetS_seeds
PUBLIC 24ad20 0 _NSSharedKeySetS_g
PUBLIC 24b510 0 _NSSharedKeySetS_r
PUBLIC 253360 0 _NSSharedKeySetS_keys
PUBLIC 258d20 0 _NSSharedKeySetS_seeds
PUBLIC 258d30 0 _NSSharedKeySetS_g
PUBLIC 259850 0 _NSSharedKeySetS_r
PUBLIC 264a00 0 _NSSharedKeySetS_keys
PUBLIC 26c062 0 _CFAccentuatedStringCreate.acceptableAccentChars
PUBLIC 26c088 0 _CFAppendTrailingPathSlash2.slash
PUBLIC 26c08a 0 _CFAppendConditionalTrailingPathSlash2.slash
PUBLIC 26c08c 0 _CFAppendPathExtension2.dotChar
PUBLIC 26c090 0 countByEnumeratingWithState:objects:count:.const_mu
PUBLIC 26c0a0 0 _NSSharedKeySetS_seeds
PUBLIC 26c0b0 0 _NSSharedKeySetS_g
PUBLIC 26cde0 0 _NSSharedKeySetS_r
PUBLIC 27a010 0 _NSSharedKeySetS_keys
PUBLIC 2824e0 0 _NSSharedKeySetS_seeds
PUBLIC 2824f0 0 _NSSharedKeySetS_g
PUBLIC 282a00 0 _NSSharedKeySetS_r
PUBLIC 287af0 0 _NSSharedKeySetS_keys
PUBLIC 28b560 0 __CFNumberCanonicalTypeIndex
PUBLIC 28b580 0 __CFNumberCanonicalTypes
PUBLIC 28b5c0 0 __CFNumberTypeTable
PUBLIC 28b5f0 0 powersOf10
PUBLIC 28b860 0 neg_powersOf10
PUBLIC 28bb4c 0 $ld$hide$os10.5$_OBJC_CLASS_$_NSURL
PUBLIC 28bb4d 0 $ld$hide$os10.5$_OBJC_METACLASS_$_NSURL
PUBLIC 28bb4e 0 $ld$add$os10.5$_OBJC_CLASS_$_NSObject
PUBLIC 28bb4f 0 $ld$add$os10.5$_OBJC_METACLASS_$_NSObject
PUBLIC 28bb50 0 $ld$add$os10.6$_OBJC_CLASS_$_NSObject
PUBLIC 28bb51 0 $ld$add$os10.6$_OBJC_METACLASS_$_NSObject
PUBLIC 28bb52 0 $ld$add$os10.7$_OBJC_CLASS_$_NSObject
PUBLIC 28bb53 0 $ld$add$os10.7$_OBJC_METACLASS_$_NSObject
PUBLIC 28bb90 0 __CFStringEncodingDylibConveters
PUBLIC 28bc08 0 __CFPlatformBootstrap
PUBLIC 28bc50 0 __CFICUBootstrap
PUBLIC 28bca0 0 _NSSharedKeySetS_seeds
PUBLIC 28bcb0 0 _NSSharedKeySetS_g
PUBLIC 28bd20 0 _NSSharedKeySetS_r
PUBLIC 28c3e0 0 _NSSharedKeySetS_keys
PUBLIC 28c850 0 _NSSharedKeySetS_seeds
PUBLIC 28c860 0 _NSSharedKeySetS_g
PUBLIC 28d0a0 0 _NSSharedKeySetS_r
PUBLIC 295430 0 _NSSharedKeySetS_keys
PUBLIC 29b0e0 0 CFXMLPlistTagsUnicode
PUBLIC 29b1e4 0 _appendIndents.tabs
PUBLIC 29b1f0 0 CFXMLPlistTags
PUBLIC 29b280 0 parseDataTag.dataDecodeTable
PUBLIC 29b410 0 __NSSetSizes
PUBLIC 29b550 0 countByEnumeratingWithState:objects:count:.const_mu
PUBLIC 29b560 0 __NSSetCapacities
PUBLIC 29b6a0 0 _NSSharedKeySetS_seeds
PUBLIC 29b6b0 0 _NSSharedKeySetS_g
PUBLIC 29be30 0 _NSSharedKeySetS_r
PUBLIC 2a3610 0 _NSSharedKeySetS_keys
PUBLIC 2a85f0 0 _NSSharedKeySetS_seeds
PUBLIC 2a8600 0 _NSSharedKeySetS_g
PUBLIC 2a8b50 0 _NSSharedKeySetS_r
PUBLIC 2adf80 0 _NSSharedKeySetS_keys
PUBLIC 2b1c00 0 __CFBundleScriptCodesArray
PUBLIC 2b1e60 0 __CFBundleStringEncodingsArray
PUBLIC 2b20c0 0 kCFStreamErrorDomainSSL
PUBLIC 2b20c4 0 kCFStreamErrorDomainSOCKS
PUBLIC 2b2120 0 _NSSharedKeySet_seeds
PUBLIC 2b2130 0 _NSSharedKeySet_g
PUBLIC 2b2590 0 _NSSharedKeySet_r
PUBLIC 2b6b50 0 _NSSharedKeySet_keys
PUBLIC 2ba9e0 0 __CFHFSLowerTable
PUBLIC 2bbfe0 0 __CFTranscodingHintLength
PUBLIC 2bbff0 0 charToSixBitLookup
PUBLIC 2bc0f0 0 CFStringROMTableHashData
PUBLIC 2fc0f0 0 __CFBuiltinEncodings
PUBLIC 2fc130 0 _toLossyASCIITable
PUBLIC 2fc2b0 0 _NSSharedKeySetS_seeds
PUBLIC 2fc2c0 0 _NSSharedKeySetS_g
PUBLIC 2fc9f0 0 _NSSharedKeySetS_r
PUBLIC 303cd0 0 _NSSharedKeySetS_keys
PUBLIC 30a3f0 0 __CFNumberSet
PUBLIC 30a400 0 _NSSharedKeySetS_seeds
PUBLIC 30a410 0 _NSSharedKeySetS_g
PUBLIC 30a970 0 _NSSharedKeySetS_r
PUBLIC 30fe80 0 _NSSharedKeySetS_keys
PUBLIC 313a90 0 _NSSharedKeySetS_seeds
PUBLIC 313aa0 0 _NSSharedKeySetS_g
PUBLIC 314230 0 _NSSharedKeySetS_r
PUBLIC 31baf0 0 _NSSharedKeySetS_keys
PUBLIC 320b66 0 _bufferSizes
PUBLIC 320b80 0 CFStringConvertNSStringEncodingToEncoding.encodings
PUBLIC 320ba0 0 __kCFNullTreeCallBacks
PUBLIC 320bd0 0 UnescapeAllWithUTF8.hexvalues
PUBLIC 320cd0 0 sURLValidCharacters
PUBLIC 320d50 0 CanonicalFileURLStringToFileSystemRepresentation.hexvalues
PUBLIC 320e50 0 fileURLPrefixWithAuthority
PUBLIC 320e61 0 fileURLPrefix
PUBLIC 320e70 0 sURLValidBytes
PUBLIC 321070 0 CFUniCharFillDestinationBuffer.firstByteMark
PUBLIC 321090 0 _CFExecutableLinkedOnOrAfter.versionInfo
PUBLIC 321190 0 _CFExecutableLinkedOnOrAfter.embeddedVersionInfo
PUBLIC 321290 0 _CFLog_os_trace_type_map
PUBLIC 3212c0 0 _NSSharedKeySet_seeds
PUBLIC 3212d0 0 _NSSharedKeySet_g
PUBLIC 321390 0 _NSSharedKeySet_r
PUBLIC 321ef0 0 _NSSharedKeySet_keys
PUBLIC 3223c0 0 _NSSharedKeySetS_seeds
PUBLIC 3223d0 0 _NSSharedKeySetS_g
PUBLIC 322e70 0 _NSSharedKeySetS_r
PUBLIC 32d7b0 0 _NSSharedKeySetS_keys
PUBLIC 333d90 0 parseComment.dashes
PUBLIC 333d94 0 _DoctypeOpening
PUBLIC 333da2 0 parseExternalID.publicString
PUBLIC 333dae 0 parseExternalID.systemString
PUBLIC 333dba 0 parseAttributeListDeclaration.attList
PUBLIC 333dd0 0 parseAttributeType.attTypeStrings
PUBLIC 333e30 0 parseAttributeDefaultDeclaration.strings
PUBLIC 333e60 0 parseElementDeclaration.eltChars
PUBLIC 333e6e 0 parseElementContentSpec.eltContentEmpty
PUBLIC 333e78 0 parseElementContentSpec.eltContentAny
PUBLIC 333e7e 0 parseMixedElementContent.pcdataString
PUBLIC 333e8c 0 parseEntityDeclaration.entityStr
PUBLIC 333e98 0 parseEntityDeclaration.nDataStr
PUBLIC 333ea2 0 parseProcessingInstruction.piTermination
PUBLIC 333eac 0 parsePCData.endSequence
PUBLIC 333eb0 0 parseCDSect._CDSectOpening
PUBLIC 333ec2 0 parseCDSect._CDSectClose
PUBLIC 333ec8 0 parseCloseTag.beginEndTag
PUBLIC 333ed0 0 _NSSharedKeySetS_seeds
PUBLIC 333ee0 0 _NSSharedKeySetS_g
PUBLIC 3349a0 0 _NSSharedKeySetS_r
PUBLIC 33f590 0 _NSSharedKeySetS_keys
PUBLIC 346f00 0 __CFBundleMagicNumbersArray
PUBLIC 347150 0 _CFBundleGrokX11FromFile.libX11name
PUBLIC 3471c0 0 sURLAllowedCharacters
PUBLIC 3472c0 0 _CFStringCreateByRemovingPercentEncoding.hexvalues
PUBLIC 3473c0 0 _NSSharedKeySetS_seeds
PUBLIC 3473d0 0 _NSSharedKeySetS_g
PUBLIC 347600 0 _NSSharedKeySetS_r
PUBLIC 349810 0 _NSSharedKeySetS_keys
PUBLIC 34a810 0 _NSSharedKeySetS_seeds
PUBLIC 34a820 0 _NSSharedKeySetS_g
PUBLIC 34ac70 0 _NSSharedKeySetS_r
PUBLIC 34f0d0 0 _NSSharedKeySetS_keys
PUBLIC 352100 0 _NSSharedKeySetS_seeds
PUBLIC 352110 0 _NSSharedKeySetS_g
PUBLIC 352170 0 _NSSharedKeySetS_r
PUBLIC 352730 0 _NSSharedKeySetS_keys
PUBLIC 352a10 0 kCFAbsoluteTimeIntervalSince1970
PUBLIC 352a18 0 kCFAbsoluteTimeIntervalSince1904
PUBLIC 352b08 0 countByEnumeratingWithState:objects:count:.const_mu
PUBLIC 352b20 0 __NSSetCapacities
PUBLIC 352c60 0 __NSSetSizes
PUBLIC 352da0 0 mset_countByEnumeratingWithStateObjectsCount.const_mu
PUBLIC 352ea0 0 compareDate:toDate:toUnitGranularity:.calendarUnits1
PUBLIC 352ec0 0 compareDate:toDate:toUnitGranularity:.calendarUnits2
PUBLIC 352ef0 0 compareDate:toDate:toUnitGranularity:.calendarUnits3
PUBLIC 352f20 0 compareDate:toDate:toUnitGranularity:.calendarUnits4
PUBLIC 352f40 0 calendarUnits
PUBLIC 3531f0 0 __CFCalendarGetOrdinalityOfUnit2.multiple_table
PUBLIC 3532f8 0 getTimeZoneDisplayName.pattern
PUBLIC 353300 0 countByEnumeratingWithState:objects:count:.const_mu
PUBLIC 353308 0 countByEnumeratingWithState:objects:count:.const_mu.44
PUBLIC 353310 0 __CFWindowsCPList
PUBLIC 3533e0 0 __CFKnownEncodingList
PUBLIC 3534b0 0 __CFISO8859SimilarScriptList
PUBLIC 3534d0 0 __CFOtherSimilarScriptList
PUBLIC 353550 0 __CFBasicHashTableSizes
PUBLIC 353750 0 __CFBasicHashTableCapacities
PUBLIC 353970 0 __CFBasicHashPrimitiveRoots
PUBLIC 353b70 0 _NSSharedKeySetS_seeds
PUBLIC 353b80 0 _NSSharedKeySetS_g
PUBLIC 354000 0 _NSSharedKeySetS_r
PUBLIC 3587e0 0 _NSSharedKeySetS_keys
PUBLIC 35b2f0 0 _NSSharedKeySetS_seeds
PUBLIC 35b300 0 _NSSharedKeySetS_g
PUBLIC 35bb40 0 _NSSharedKeySetS_r
PUBLIC 363f40 0 _NSSharedKeySetS_keys
PUBLIC 369c60 0 _NSSharedKeySetS_seeds
PUBLIC 369c70 0 _NSSharedKeySetS_g
PUBLIC 36a9e0 0 _NSSharedKeySetS_r
PUBLIC 3780c0 0 _NSSharedKeySetS_keys
PUBLIC 380860 0 countByEnumeratingWithState:objects:count:.const_mu
PUBLIC 380890 0 _NSSharedKeySetS_seeds
PUBLIC 3808a0 0 _NSSharedKeySetS_g
PUBLIC 3810e0 0 _NSSharedKeySetS_r
PUBLIC 389470 0 _NSSharedKeySetS_keys
PUBLIC 38f120 0 countByEnumeratingWithState:objects:count:.const_mu
PUBLIC 38f170 0 _NSSharedKeySetS_seeds
PUBLIC 38f180 0 _NSSharedKeySetS_g
PUBLIC 38f4f0 0 _NSSharedKeySetS_r
PUBLIC 392b80 0 _NSSharedKeySetS_keys
PUBLIC 394fc8 0 _NSSharedKeySetS_seeds
PUBLIC 394fd0 0 _NSSharedKeySetS_g
PUBLIC 394fd1 0 _NSSharedKeySetS_r
PUBLIC 394fd8 0 _NSSharedKeySetS_keys
PUBLIC 394ff0 0 _NSSharedKeySetS_seeds
PUBLIC 395000 0 _NSSharedKeySetS_g
PUBLIC 395d60 0 _NSSharedKeySetS_r
PUBLIC 3a3300 0 _NSSharedKeySetS_keys
PUBLIC 3ac150 0 __NSDictionaryCapacities
PUBLIC 3ac290 0 __NSDictionarySizes
PUBLIC 3ac3d0 0 mdict_countByEnumeratingWithStateObjectsCount.const_mu
PUBLIC 3ac3e0 0 __CFGenerateReport.header_datetime
PUBLIC 3ac3f0 0 __CFGenerateReport.header_osversion
PUBLIC 3ac400 0 __CFGenerateReport.header_initial
PUBLIC 3ac440 0 _NSSharedKeySetS_seeds
PUBLIC 3ac450 0 _NSSharedKeySetS_g
PUBLIC 3ad120 0 _NSSharedKeySetS_r
PUBLIC 3b9dc0 0 _NSSharedKeySetS_keys
PUBLIC 3c1ee0 0 _NSSharedKeySetS_seeds
PUBLIC 3c1ee8 0 _NSSharedKeySetS_g
PUBLIC 3c1eea 0 _NSSharedKeySetS_r
PUBLIC 3c1f00 0 _NSSharedKeySetS_keys
PUBLIC 3c1f20 0 kCFCoreFoundationVersionString
PUBLIC 3c1f60 0 kCFCoreFoundationVersionNumber
PUBLIC 3d4710 0 _XMLPlistAppendDataUsingBase64.__CFPLDataEncodeTable
PUBLIC 471e10 0 CreateStringFromFileSystemRepresentationByAddingPercentEscapes.hexchars
PUBLIC 4738f0 0 _CFStringCreateByAddingPercentEncodingWithAllowedCharacters.hexchars
PUBLIC 488bd4 0 GCC_except_table14
PUBLIC 488c28 0 GCC_except_table21
PUBLIC 488c90 0 GCC_except_table1
PUBLIC 488cbc 0 GCC_except_table16
PUBLIC 488ce8 0 GCC_except_table0
PUBLIC 488d30 0 GCC_except_table2
PUBLIC 488d5c 0 GCC_except_table20
PUBLIC 488da4 0 GCC_except_table30
PUBLIC 488dd0 0 GCC_except_table33
PUBLIC 488e0c 0 GCC_except_table10
PUBLIC 488e50 0 GCC_except_table20
PUBLIC 488f84 0 GCC_except_table30
PUBLIC 488fc0 0 GCC_except_table41
PUBLIC 489030 0 GCC_except_table4
PUBLIC 48905c 0 GCC_except_table21
PUBLIC 489088 0 GCC_except_table34
PUBLIC 4890b4 0 GCC_except_table44
PUBLIC 489108 0 GCC_except_table49
PUBLIC 489144 0 GCC_except_table86
PUBLIC 489198 0 GCC_except_table90
PUBLIC 4891c4 0 GCC_except_table95
PUBLIC 4891f0 0 GCC_except_table118
PUBLIC 48922c 0 GCC_except_table126
PUBLIC 489274 0 GCC_except_table135
PUBLIC 489324 0 GCC_except_table206
PUBLIC 489350 0 GCC_except_table240
PUBLIC 4893b0 0 GCC_except_table241
PUBLIC 4893ec 0 GCC_except_table5
PUBLIC 489490 0 GCC_except_table1
PUBLIC 4894bc 0 GCC_except_table28
PUBLIC 48952c 0 GCC_except_table31
PUBLIC 489594 0 GCC_except_table34
PUBLIC 489638 0 GCC_except_table2
PUBLIC 489664 0 GCC_except_table71
PUBLIC 4896ac 0 GCC_except_table95
PUBLIC 4896cc 0 GCC_except_table11
PUBLIC 489708 0 GCC_except_table2
PUBLIC 489734 0 GCC_except_table22
PUBLIC 489760 0 GCC_except_table14
PUBLIC 4897d4 0 GCC_except_table26
PUBLIC 489848 0 GCC_except_table34
PUBLIC 4898b8 0 GCC_except_table61
PUBLIC 489948 0 GCC_except_table72
PUBLIC 4899d8 0 GCC_except_table80
PUBLIC 489a98 0 GCC_except_table57
PUBLIC 489ad4 0 GCC_except_table3
PUBLIC 489b00 0 GCC_except_table4
PUBLIC 489b20 0 GCC_except_table5
PUBLIC 489b4c 0 GCC_except_table7
PUBLIC 489b78 0 GCC_except_table8
PUBLIC 489b98 0 GCC_except_table27
PUBLIC 489bc4 0 GCC_except_table30
PUBLIC 489bf0 0 GCC_except_table31
PUBLIC 489c1c 0 GCC_except_table34
PUBLIC 489c48 0 GCC_except_table37
PUBLIC 489c74 0 GCC_except_table38
PUBLIC 489ca0 0 GCC_except_table40
PUBLIC 489ccc 0 GCC_except_table41
PUBLIC 489cf8 0 GCC_except_table43
PUBLIC 489d24 0 GCC_except_table44
PUBLIC 489d6c 0 GCC_except_table45
PUBLIC 489d98 0 GCC_except_table46
PUBLIC 489db8 0 GCC_except_table51
PUBLIC 489de4 0 GCC_except_table52
PUBLIC 489e10 0 GCC_except_table53
PUBLIC 489e3c 0 GCC_except_table56
PUBLIC 489e68 0 GCC_except_table57
PUBLIC 489e94 0 GCC_except_table60
PUBLIC 489ec0 0 GCC_except_table61
PUBLIC 489eec 0 GCC_except_table62
PUBLIC 489f18 0 GCC_except_table63
PUBLIC 489f38 0 GCC_except_table64
PUBLIC 489f74 0 GCC_except_table71
PUBLIC 489fa0 0 GCC_except_table87
PUBLIC 489fc0 0 GCC_except_table1
PUBLIC 48a054 0 GCC_except_table2
PUBLIC 48a0d8 0 GCC_except_table55
PUBLIC 48a134 0 GCC_except_table57
PUBLIC 48a190 0 GCC_except_table75
PUBLIC 48a2e4 0 GCC_except_table14
PUBLIC 48a364 0 GCC_except_table15
PUBLIC 48a3e4 0 GCC_except_table16
PUBLIC 48a464 0 GCC_except_table17
PUBLIC 48a4e4 0 GCC_except_table18
PUBLIC 48a564 0 GCC_except_table19
PUBLIC 48a5e4 0 GCC_except_table20
PUBLIC 48a664 0 GCC_except_table21
PUBLIC 48a6e4 0 GCC_except_table22
PUBLIC 48a764 0 GCC_except_table23
PUBLIC 48a7e4 0 GCC_except_table24
PUBLIC 48a864 0 GCC_except_table25
PUBLIC 48a8e4 0 GCC_except_table26
PUBLIC 48a964 0 GCC_except_table27
PUBLIC 48a9e4 0 GCC_except_table28
PUBLIC 48aa64 0 GCC_except_table29
PUBLIC 48aae4 0 GCC_except_table30
PUBLIC 48ab64 0 GCC_except_table31
PUBLIC 48abe4 0 GCC_except_table32
PUBLIC 48ac64 0 GCC_except_table33
PUBLIC 48ace4 0 GCC_except_table34
PUBLIC 48ad64 0 GCC_except_table35
PUBLIC 48ade4 0 GCC_except_table36
PUBLIC 48ae64 0 GCC_except_table37
PUBLIC 48aee4 0 GCC_except_table74
PUBLIC 48af04 0 GCC_except_table82
PUBLIC 48af30 0 GCC_except_table60
PUBLIC 48af50 0 GCC_except_table107
PUBLIC 48af70 0 GCC_except_table113
PUBLIC 48aff0 0 GCC_except_table121
PUBLIC 48b060 0 GCC_except_table125
PUBLIC 48b0e0 0 GCC_except_table129
PUBLIC 48b10c 0 GCC_except_table5
PUBLIC 48b160 0 GCC_except_table11
PUBLIC 48b18c 0 GCC_except_table16
PUBLIC 48b1ac 0 GCC_except_table8
PUBLIC 48b200 0 GCC_except_table4
PUBLIC 48b27c 0 GCC_except_table9
PUBLIC 48b2d0 0 GCC_except_table17
PUBLIC 48b324 0 GCC_except_table5
PUBLIC 48b350 0 GCC_except_table18
PUBLIC 48b370 0 GCC_except_table19
PUBLIC 48b3ac 0 GCC_except_table104
PUBLIC 48b3d8 0 GCC_except_table106
PUBLIC 48b404 0 GCC_except_table119
PUBLIC 48b424 0 GCC_except_table137
PUBLIC 48b450 0 GCC_except_table6
PUBLIC 48b498 0 GCC_except_table8
PUBLIC 48b4e0 0 GCC_except_table14
PUBLIC 48b528 0 GCC_except_table27
PUBLIC 48b6d0 0 GCC_except_table116
PUBLIC 48b6fc 0 GCC_except_table37
PUBLIC 48b728 0 GCC_except_table43
PUBLIC 48b748 0 GCC_except_table50
PUBLIC 48b768 0 GCC_except_table54
PUBLIC 48b788 0 GCC_except_table58
PUBLIC 48b7a8 0 GCC_except_table62
PUBLIC 48b7c8 0 GCC_except_table67
PUBLIC 48b7e8 0 GCC_except_table74
PUBLIC 48b824 0 GCC_except_table80
PUBLIC 48b878 0 GCC_except_table86
PUBLIC 48b8a4 0 GCC_except_table128
PUBLIC 48b8c4 0 GCC_except_table132
PUBLIC 48b900 0 GCC_except_table138
PUBLIC 48b920 0 GCC_except_table142
PUBLIC 48b940 0 GCC_except_table153
PUBLIC 48b960 0 GCC_except_table157
PUBLIC 48b980 0 GCC_except_table161
PUBLIC 48b9a0 0 GCC_except_table165
PUBLIC 48b9c0 0 GCC_except_table197
PUBLIC 48b9e0 0 GCC_except_table238
PUBLIC 48ba00 0 GCC_except_table253
PUBLIC 48ba2c 0 GCC_except_table0
PUBLIC 48ba80 0 GCC_except_table2
PUBLIC 48bb58 0 GCC_except_table5
PUBLIC 48bba0 0 GCC_except_table11
PUBLIC 48bc38 0 GCC_except_table33
PUBLIC 48bc74 0 GCC_except_table44
PUBLIC 48bc94 0 GCC_except_table48
PUBLIC 48bcdc 0 GCC_except_table64
PUBLIC 48bd18 0 GCC_except_table74
PUBLIC 48bd44 0 GCC_except_table86
PUBLIC 48bdd4 0 GCC_except_table0
PUBLIC 49c8d0 0 __block_descriptor_tmp
PUBLIC 49c8f0 0 __block_literal_global
PUBLIC 49c910 0 kCFTypeArrayCallBacks
PUBLIC 49c938 0 __CFArrayClass
PUBLIC 49c998 0 __block_descriptor_tmp.28
PUBLIC 49c9b8 0 __block_literal_global.29
PUBLIC 49c9d8 0 __CFAttributedStringClass
PUBLIC 49ca38 0 __block_descriptor_tmp
PUBLIC 49ca58 0 __block_literal_global
PUBLIC 49ca78 0 kCFTypeBagCallBacks
PUBLIC 49caa8 0 kCFCopyStringBagCallBacks
PUBLIC 49cad8 0 __CFBagClass
PUBLIC 49cb38 0 __block_descriptor_tmp
PUBLIC 49cb58 0 __block_literal_global
PUBLIC 49cb78 0 __block_descriptor_tmp.4
PUBLIC 49cb98 0 kCFAllocatorSystemDefault
PUBLIC 49cba0 0 kCFAllocatorMalloc
PUBLIC 49cba8 0 kCFAllocatorMallocZone
PUBLIC 49cbb0 0 kCFAllocatorNull
PUBLIC 49cbb8 0 __CFAllocatorClass
PUBLIC 49cc18 0 __block_descriptor_tmp
PUBLIC 49cc38 0 __block_literal_global
PUBLIC 49cc58 0 kCFNull
PUBLIC 49cc60 0 __CFNullClass
PUBLIC 49ccc0 0 __block_descriptor_tmp.2
PUBLIC 49cce0 0 __block_literal_global.3
PUBLIC 49cd00 0 __CFAllocatorZoneIntrospect
PUBLIC 49cd70 0 __CFAllocatorNullZoneIntrospect
PUBLIC 49cde0 0 __block_descriptor_tmp
PUBLIC 49ce10 0 __block_descriptor_tmp
PUBLIC 49ce40 0 __block_descriptor_tmp
PUBLIC 49ce60 0 __block_literal_global
PUBLIC 49ce80 0 __block_descriptor_tmp.43
PUBLIC 49cea0 0 __block_literal_global.44
PUBLIC 49cec0 0 __block_descriptor_tmp.96
PUBLIC 49cef0 0 kCFStringBinaryHeapCallBacks
PUBLIC 49cf18 0 __CFBinaryHeapClass
PUBLIC 49cf78 0 __block_descriptor_tmp
PUBLIC 49cf98 0 __block_literal_global
PUBLIC 49cfb8 0 __block_descriptor_tmp
PUBLIC 49cfd8 0 __block_literal_global
PUBLIC 49cff8 0 __block_descriptor_tmp.17
PUBLIC 49d018 0 __block_literal_global.18
PUBLIC 49d038 0 __CFKeyedArchiverUIDClass
PUBLIC 49d098 0 __block_descriptor_tmp
PUBLIC 49d0b8 0 __block_literal_global
PUBLIC 49d0d8 0 __CFBinaryPlistWriteOrPresize.arrayCallbacks
PUBLIC 49d100 0 __CFBinaryPlistWriteOrPresize.setCallbacks
PUBLIC 49d130 0 __block_descriptor_tmp.17
PUBLIC 49d150 0 __block_literal_global.18
PUBLIC 49d170 0 __CFBitVectorClass
PUBLIC 49d1d0 0 __block_descriptor_tmp
PUBLIC 49d1f0 0 __block_literal_global
PUBLIC 49d210 0 __CFConverterASCII
PUBLIC 49d258 0 __CFConverterISOLatin1
PUBLIC 49d2a0 0 __CFConverterMacRoman
PUBLIC 49d2e8 0 __CFConverterWinLatin1
PUBLIC 49d330 0 __CFConverterNextStepLatin
PUBLIC 49d378 0 __CFConverterUTF8
PUBLIC 49d3c0 0 kCFBundleInfoDictionaryVersionKey
PUBLIC 49d3c8 0 kCFBundleExecutableKey
PUBLIC 49d3d0 0 kCFBundleIdentifierKey
PUBLIC 49d3d8 0 kCFBundleVersionKey
PUBLIC 49d3e0 0 kCFBundleDevelopmentRegionKey
PUBLIC 49d3e8 0 kCFBundleLocalizationsKey
PUBLIC 49d3f0 0 _kCFBundleAllowMixedLocalizationsKey
PUBLIC 49d3f8 0 _kCFBundleSupportedPlatformsKey
PUBLIC 49d400 0 _kCFBundleResourceSpecificationKey
PUBLIC 49d408 0 _kCFBundlePackageTypeKey
PUBLIC 49d410 0 _kCFBundleSignatureKey
PUBLIC 49d418 0 _kCFBundleIconFileKey
PUBLIC 49d420 0 _kCFBundleDocumentTypesKey
PUBLIC 49d428 0 _kCFBundleURLTypesKey
PUBLIC 49d430 0 kCFBundleNameKey
PUBLIC 49d438 0 _kCFBundleDisplayNameKey
PUBLIC 49d440 0 _kCFBundleShortVersionStringKey
PUBLIC 49d448 0 _kCFBundleGetInfoStringKey
PUBLIC 49d450 0 _kCFBundleGetInfoHTMLKey
PUBLIC 49d458 0 _kCFBundleTypeNameKey
PUBLIC 49d460 0 _kCFBundleTypeRoleKey
PUBLIC 49d468 0 _kCFBundleTypeIconFileKey
PUBLIC 49d470 0 _kCFBundleTypeOSTypesKey
PUBLIC 49d478 0 _kCFBundleTypeExtensionsKey
PUBLIC 49d480 0 _kCFBundleTypeMIMETypesKey
PUBLIC 49d488 0 _kCFBundleURLNameKey
PUBLIC 49d490 0 _kCFBundleURLIconFileKey
PUBLIC 49d498 0 _kCFBundleURLSchemesKey
PUBLIC 49d4a0 0 _kCFBundleOldExecutableKey
PUBLIC 49d4a8 0 _kCFBundleOldInfoDictionaryVersionKey
PUBLIC 49d4b0 0 _kCFBundleOldNameKey
PUBLIC 49d4b8 0 _kCFBundleOldIconFileKey
PUBLIC 49d4c0 0 _kCFBundleOldDocumentTypesKey
PUBLIC 49d4c8 0 _kCFBundleOldShortVersionStringKey
PUBLIC 49d4d0 0 _kCFBundleOldTypeNameKey
PUBLIC 49d4d8 0 _kCFBundleOldTypeRoleKey
PUBLIC 49d4e0 0 _kCFBundleOldTypeIconFileKey
PUBLIC 49d4e8 0 _kCFBundleOldTypeExtensions1Key
PUBLIC 49d4f0 0 _kCFBundleOldTypeExtensions2Key
PUBLIC 49d4f8 0 _kCFBundleOldTypeOSTypesKey
PUBLIC 49d500 0 _kCFBundleInfoPlistURLKey
PUBLIC 49d508 0 _kCFBundleRawInfoPlistURLKey
PUBLIC 49d510 0 _kCFBundleNumericVersionKey
PUBLIC 49d518 0 _kCFBundleExecutablePathKey
PUBLIC 49d520 0 _kCFBundleResourcesFileMappedKey
PUBLIC 49d528 0 _kCFBundleCFMLoadAsBundleKey
PUBLIC 49d530 0 _kCFBundlePrincipalClassKey
PUBLIC 49d538 0 __block_descriptor_tmp
PUBLIC 49d558 0 __block_literal_global
PUBLIC 49d578 0 __block_descriptor_tmp.95
PUBLIC 49d598 0 __block_literal_global.96
PUBLIC 49d5b8 0 __CFBundleClass
PUBLIC 49d618 0 __block_descriptor_tmp.99
PUBLIC 49d638 0 __block_literal_global.100
PUBLIC 49d658 0 __block_descriptor_tmp.101
PUBLIC 49d678 0 __block_descriptor_tmp.238
PUBLIC 49d698 0 __block_literal_global.239
PUBLIC 49d6b8 0 __block_descriptor_tmp
PUBLIC 49d6e8 0 __block_descriptor_tmp.46
PUBLIC 49d708 0 __CFCharacterSetClass
PUBLIC 49d768 0 __block_descriptor_tmp
PUBLIC 49d788 0 __block_literal_global
PUBLIC 49d7a8 0 NSStreamFileCurrentOffsetKey
PUBLIC 49d7b0 0 _kCFStreamPropertyFileNativeHandle
PUBLIC 49d7b8 0 _kCFStreamPropertyHTTPTrailer
PUBLIC 49d7c0 0 fileCallBacks
PUBLIC 49d848 0 readDataCallBacks
PUBLIC 49d8d0 0 writeDataCallBacks
PUBLIC 49d958 0 __block_descriptor_tmp
PUBLIC 49d988 0 __CFDataClass
PUBLIC 49d9e8 0 __block_descriptor_tmp
PUBLIC 49da08 0 __block_literal_global
PUBLIC 49da28 0 __block_descriptor_tmp
PUBLIC 49da58 0 __block_descriptor_tmp.17
PUBLIC 49da88 0 __block_descriptor_tmp.27
PUBLIC 49dab8 0 __block_descriptor_tmp.39
PUBLIC 49dae8 0 __block_descriptor_tmp.95
PUBLIC 49db08 0 __block_literal_global.96
PUBLIC 49db28 0 __block_descriptor_tmp
PUBLIC 49db58 0 __block_descriptor_tmp
PUBLIC 49db88 0 __CFDateFormatterClass
PUBLIC 49dbe8 0 __block_descriptor_tmp.5
PUBLIC 49dc08 0 __block_literal_global
PUBLIC 49dc28 0 __block_descriptor_tmp.14
PUBLIC 49dc48 0 __block_literal_global.15
PUBLIC 49dc68 0 __block_descriptor_tmp.42
PUBLIC 49dc88 0 __block_literal_global.43
PUBLIC 49dca8 0 __block_descriptor_tmp.46
PUBLIC 49dcd8 0 __block_descriptor_tmp
PUBLIC 49dcf8 0 __block_literal_global
PUBLIC 49dd18 0 kCFTypeDictionaryKeyCallBacks
PUBLIC 49dd48 0 kCFCopyStringDictionaryKeyCallBacks
PUBLIC 49dd78 0 kCFTypeDictionaryValueCallBacks
PUBLIC 49dda0 0 __CFDictionaryClass
PUBLIC 49de00 0 __block_descriptor_tmp.28
PUBLIC 49de20 0 __block_literal_global.29
PUBLIC 49de40 0 __block_descriptor_tmp.51
PUBLIC 49de60 0 __block_descriptor_tmp
PUBLIC 49de90 0 __block_descriptor_tmp.12
PUBLIC 49dec0 0 __block_descriptor_tmp
PUBLIC 49dee0 0 __block_literal_global
PUBLIC 49df00 0 keyCallbacks.defaultCallbacks
PUBLIC 49df30 0 __block_descriptor_tmp
PUBLIC 49df50 0 __block_literal_global
PUBLIC 49df70 0 __block_descriptor_tmp
PUBLIC 49df90 0 __block_literal_global
PUBLIC 49dfb0 0 __block_descriptor_tmp.28
PUBLIC 49dfd0 0 __block_literal_global.29
PUBLIC 49dff0 0 kCFErrorLocalizedDescriptionKey
PUBLIC 49dff8 0 kCFErrorLocalizedFailureKey
PUBLIC 49e000 0 kCFErrorLocalizedFailureReasonKey
PUBLIC 49e008 0 kCFErrorLocalizedRecoverySuggestionKey
PUBLIC 49e010 0 kCFErrorDescriptionKey
PUBLIC 49e018 0 kCFErrorDebugDescriptionKey
PUBLIC 49e020 0 kCFErrorUnderlyingErrorKey
PUBLIC 49e028 0 kCFErrorURLKey
PUBLIC 49e030 0 kCFErrorFilePathKey
PUBLIC 49e038 0 kCFErrorDomainCoreFoundation
PUBLIC 49e040 0 kCFErrorDomainPOSIX
PUBLIC 49e048 0 kCFErrorDomainOSStatus
PUBLIC 49e050 0 kCFErrorDomainMach
PUBLIC 49e058 0 kCFErrorDomainCocoa
PUBLIC 49e060 0 __CFErrorClass
PUBLIC 49e0c0 0 __block_descriptor_tmp
PUBLIC 49e0e0 0 __block_literal_global
PUBLIC 49e100 0 __block_descriptor_tmp.49
PUBLIC 49e120 0 __block_descriptor_tmp.72
PUBLIC 49e140 0 __block_descriptor_tmp.76
PUBLIC 49e160 0 __block_descriptor_tmp.88
PUBLIC 49e180 0 __block_literal_global.89
PUBLIC 49e1a0 0 __block_descriptor_tmp.91
PUBLIC 49e1c0 0 __block_literal_global.92
PUBLIC 49e1e0 0 __CFFileDescriptorClass
PUBLIC 49e240 0 __block_descriptor_tmp
PUBLIC 49e260 0 __block_literal_global
PUBLIC 49e280 0 __block_descriptor_tmp.1
PUBLIC 49e2a0 0 __block_descriptor_tmp.2
PUBLIC 49e2c0 0 __block_descriptor_tmp.3
PUBLIC 49e2e0 0 __block_descriptor_tmp.4
PUBLIC 49e300 0 __block_descriptor_tmp.5
PUBLIC 49e330 0 __block_descriptor_tmp.6
PUBLIC 49e350 0 __block_descriptor_tmp.7
PUBLIC 49e370 0 __block_descriptor_tmp.8
PUBLIC 49e390 0 __block_descriptor_tmp.12
PUBLIC 49e3c0 0 __block_descriptor_tmp.15
PUBLIC 49e3f0 0 __block_descriptor_tmp.19
PUBLIC 49e420 0 __block_descriptor_tmp.29
PUBLIC 49e450 0 __block_descriptor_tmp
PUBLIC 49e470 0 __block_literal_global
PUBLIC 49e490 0 __block_descriptor_tmp.3
PUBLIC 49e4b0 0 __block_literal_global.4
PUBLIC 49e4d0 0 NSCurrentLocaleDidChangeNotification
PUBLIC 49e4d8 0 kCFLocaleMeasurementSystemPreferencesChangedNotification
PUBLIC 49e4e0 0 kCFLocaleTemperatureUnitPreferencesChangedNotification
PUBLIC 49e4e8 0 __kCFLocaleCollatorID
PUBLIC 49e4f0 0 __CFLocaleClass
PUBLIC 49e550 0 __block_descriptor_tmp
PUBLIC 49e570 0 __block_literal_global
PUBLIC 49e590 0 __block_descriptor_tmp.12
PUBLIC 49e5d0 0 __block_descriptor_tmp.84
PUBLIC 49e5f0 0 __block_literal_global.85
PUBLIC 49e630 0 oldAppleLocaleToCanonical
PUBLIC 49f1b0 0 localeStringPrefixToDefaults
PUBLIC 49fd00 0 appleLocaleToLanguageString
PUBLIC 49fd60 0 localeStringRegionToDefaults
PUBLIC 49fdb0 0 regionCodeToLocaleString
PUBLIC 4a0120 0 langCodeToLocaleString
PUBLIC 4a05e0 0 localeToLegacyCodes
PUBLIC 4a1010 0 localeStringPrefixToCanonical
PUBLIC 4a2320 0 specialCases
PUBLIC 4a2460 0 __CFMachPortClass
PUBLIC 4a24c0 0 __block_descriptor_tmp
PUBLIC 4a24e0 0 __block_literal_global
PUBLIC 4a2500 0 __block_descriptor_tmp.6
PUBLIC 4a2530 0 __block_descriptor_tmp.8
PUBLIC 4a2550 0 __block_literal_global.9
PUBLIC 4a2570 0 __block_descriptor_tmp.21
PUBLIC 4a2590 0 __block_literal_global.22
PUBLIC 4a25b0 0 __block_descriptor_tmp.26
PUBLIC 4a25d0 0 __block_literal_global.27
PUBLIC 4a25f0 0 __block_descriptor_tmp.29
PUBLIC 4a2610 0 __block_literal_global.30
PUBLIC 4a2630 0 __block_descriptor_tmp.33
PUBLIC 4a2650 0 __block_descriptor_tmp
PUBLIC 4a2670 0 __block_literal_global
PUBLIC 4a2690 0 __block_descriptor_tmp.89
PUBLIC 4a26b0 0 __CFMessagePortClass
PUBLIC 4a2710 0 __block_descriptor_tmp
PUBLIC 4a2730 0 __block_literal_global
PUBLIC 4a2750 0 __block_descriptor_tmp.11
PUBLIC 4a2770 0 __block_literal_global.12
PUBLIC 4a2790 0 __block_descriptor_tmp.13
PUBLIC 4a27b0 0 __block_descriptor_tmp.14
PUBLIC 4a27d0 0 __block_descriptor_tmp.15
PUBLIC 4a27f0 0 kCFNotificationAnyName
PUBLIC 4a27f8 0 kCFNotificationAnyObject
PUBLIC 4a2800 0 kCFNotificationAnyObserver
PUBLIC 4a2808 0 __CFNotificationCenterClass
PUBLIC 4a2868 0 __block_descriptor_tmp
PUBLIC 4a2888 0 __block_literal_global
PUBLIC 4a28a8 0 __block_descriptor_tmp.8
PUBLIC 4a28c8 0 __block_literal_global.9
PUBLIC 4a28e8 0 __block_descriptor_tmp.17
PUBLIC 4a2908 0 __block_literal_global.18
PUBLIC 4a2928 0 __block_descriptor_tmp.21
PUBLIC 4a2948 0 __block_literal_global.22
PUBLIC 4a2968 0 __block_descriptor_tmp.23
PUBLIC 4a2988 0 __block_literal_global.24
PUBLIC 4a29a8 0 __block_descriptor_tmp.25
PUBLIC 4a29c8 0 __block_literal_global.26
PUBLIC 4a29e8 0 __block_descriptor_tmp.70
PUBLIC 4a2a08 0 __block_descriptor_tmp.86
PUBLIC 4a2a38 0 __block_descriptor_tmp.109
PUBLIC 4a2a68 0 __block_descriptor_tmp.118
PUBLIC 4a2a88 0 __block_descriptor_tmp.135
PUBLIC 4a2aa8 0 __block_descriptor_tmp.171
PUBLIC 4a2ac8 0 __block_literal_global.172
PUBLIC 4a2ae8 0 __block_descriptor_tmp.186
PUBLIC 4a2b18 0 __block_descriptor_tmp.208
PUBLIC 4a2b38 0 kCFBooleanTrue
PUBLIC 4a2b40 0 kCFBooleanFalse
PUBLIC 4a2b48 0 __CFBooleanClass
PUBLIC 4a2ba8 0 __block_descriptor_tmp
PUBLIC 4a2bc8 0 __block_literal_global
PUBLIC 4a2be8 0 kCFNumberNaN
PUBLIC 4a2bf0 0 kCFNumberNegativeInfinity
PUBLIC 4a2bf8 0 kCFNumberPositiveInfinity
PUBLIC 4a2c00 0 __CFNumberClass
PUBLIC 4a2c60 0 __block_descriptor_tmp.9
PUBLIC 4a2c80 0 __block_literal_global.10
PUBLIC 4a2ca0 0 __CFNumberFormatterClass
PUBLIC 4a2d00 0 __block_descriptor_tmp
PUBLIC 4a2d20 0 __block_literal_global
PUBLIC 4a2dd0 0 kCFPasteboardGeneral
PUBLIC 4a2dd8 0 kCFPasteboardFind
PUBLIC 4a2de0 0 _kCFPasteboardRemote
PUBLIC 4a2de8 0 _kCFPasteboardDrag
PUBLIC 4a2df0 0 kCFPasteboardSecurityScopeFlavor
PUBLIC 4a2df8 0 __kCFPasteboardPasteLocationURLFlavor
PUBLIC 4a2e00 0 __kCFPasteboardSecurityScopeForPasteLocationFlavor
PUBLIC 4a2e08 0 __CFPasteboardClass
PUBLIC 4a2e68 0 __block_descriptor_tmp
PUBLIC 4a2e88 0 __block_literal_global
PUBLIC 4a2ea8 0 __block_descriptor_tmp.19
PUBLIC 4a2ed8 0 __block_descriptor_tmp.26
PUBLIC 4a2f08 0 __block_descriptor_tmp.31
PUBLIC 4a2f38 0 __block_descriptor_tmp.36
PUBLIC 4a2f68 0 __block_descriptor_tmp.42
PUBLIC 4a2f98 0 __block_descriptor_tmp.48
PUBLIC 4a2fc8 0 __block_descriptor_tmp.54
PUBLIC 4a2ff8 0 __block_descriptor_tmp.60
PUBLIC 4a3028 0 __block_descriptor_tmp.82
PUBLIC 4a3058 0 __block_descriptor_tmp.90
PUBLIC 4a3088 0 __block_descriptor_tmp.94
PUBLIC 4a30b8 0 __block_descriptor_tmp.104
PUBLIC 4a30e8 0 __block_descriptor_tmp.108
PUBLIC 4a3118 0 __block_descriptor_tmp.115
PUBLIC 4a3150 0 __CFPasteboardSetupLock_block_invoke.keys
PUBLIC 4a3178 0 __block_descriptor_tmp.138
PUBLIC 4a31a8 0 __block_descriptor_tmp.141
PUBLIC 4a31d8 0 __block_descriptor_tmp.145
PUBLIC 4a3208 0 __block_descriptor_tmp.151
PUBLIC 4a3240 0 __CFPasteboardSetupLock_block_invoke_2.keys
PUBLIC 4a3270 0 __block_descriptor_tmp.161
PUBLIC 4a32a0 0 __block_descriptor_tmp.164
PUBLIC 4a32d0 0 __CFPasteboardSetupLock_block_invoke_3.keys
PUBLIC 4a32f0 0 __block_descriptor_tmp.170
PUBLIC 4a3320 0 __block_descriptor_tmp.173
PUBLIC 4a3340 0 __block_descriptor_tmp.184
PUBLIC 4a3370 0 __block_descriptor_tmp.193
PUBLIC 4a33a0 0 __block_descriptor_tmp.197
PUBLIC 4a33d0 0 __block_descriptor_tmp.200
PUBLIC 4a3400 0 __block_descriptor_tmp.204
PUBLIC 4a3430 0 __block_descriptor_tmp.209
PUBLIC 4a3450 0 __block_literal_global.210
PUBLIC 4a3470 0 __block_descriptor_tmp.211
PUBLIC 4a3490 0 __block_literal_global.212
PUBLIC 4a34b0 0 __block_descriptor_tmp.214
PUBLIC 4a34d0 0 __block_descriptor_tmp.216
PUBLIC 4a34f0 0 __block_descriptor_tmp.218
PUBLIC 4a3510 0 __CFPasteboardSetupLock_block_invoke_4.keys
PUBLIC 4a3520 0 __block_descriptor_tmp.253
PUBLIC 4a3550 0 __block_descriptor_tmp.257
PUBLIC 4a3580 0 __block_descriptor_tmp.265
PUBLIC 4a35b0 0 __block_descriptor_tmp.382
PUBLIC 4a35d0 0 __block_descriptor_tmp.384
PUBLIC 4a35f0 0 __block_literal_global.385
PUBLIC 4a3610 0 _CFPBXPCSendMessage.keys
PUBLIC 4a3618 0 __block_descriptor_tmp.397
PUBLIC 4a3638 0 __block_literal_global.398
PUBLIC 4a3658 0 __block_descriptor_tmp.411
PUBLIC 4a3678 0 __block_descriptor_tmp.413
PUBLIC 4a36a0 0 _onqueue_CFPasteboardRebuildCache.keys
PUBLIC 4a36c0 0 __block_descriptor_tmp.420
PUBLIC 4a36f0 0 __block_descriptor_tmp.424
PUBLIC 4a3720 0 _onqueue_CFPasteboardRequestDataFromDaemon.keys
PUBLIC 4a3748 0 __block_descriptor_tmp.431
PUBLIC 4a3778 0 __block_descriptor_tmp.435
PUBLIC 4a37a8 0 __block_descriptor_tmp.442
PUBLIC 4a37c8 0 __block_literal_global.443
PUBLIC 4a37e8 0 _CFPBXPCSendMessageWithReplySync.keys
PUBLIC 4a37f0 0 __block_descriptor_tmp.447
PUBLIC 4a3810 0 __block_descriptor_tmp.450
PUBLIC 4a3830 0 __block_literal_global.451
PUBLIC 4a3850 0 __block_descriptor_tmp.455
PUBLIC 4a3870 0 __block_literal_global.456
PUBLIC 4a3890 0 __block_descriptor_tmp.458
PUBLIC 4a38b0 0 __block_descriptor_tmp.462
PUBLIC 4a38d0 0 __block_literal_global.463
PUBLIC 4a38f0 0 __block_descriptor_tmp.465
PUBLIC 4a3910 0 _onqueue_CFPasteboardMarkLocalChange.keys
PUBLIC 4a3930 0 __block_descriptor_tmp.468
PUBLIC 4a3950 0 __block_descriptor_tmp.472
PUBLIC 4a3980 0 __block_descriptor_tmp.477
PUBLIC 4a39b0 0 __block_descriptor_tmp.480
PUBLIC 4a39d0 0 __block_descriptor_tmp.483
PUBLIC 4a3a00 0 _CFPBXPCSendMessageWithReply.keys
PUBLIC 4a3a08 0 __block_descriptor_tmp.493
PUBLIC 4a3a28 0 __block_literal_global.494
PUBLIC 4a3a48 0 __block_descriptor_tmp.500
PUBLIC 4a3a78 0 __block_descriptor_tmp.504
PUBLIC 4a3a98 0 __block_literal_global.505
PUBLIC 4a3ab8 0 __block_descriptor_tmp.511
PUBLIC 4a3ad8 0 __block_descriptor_tmp.514
PUBLIC 4a3b08 0 __block_descriptor_tmp.518
PUBLIC 4a3b38 0 __block_descriptor_tmp.522
PUBLIC 4a3b68 0 __block_descriptor_tmp.525
PUBLIC 4a3b98 0 __block_descriptor_tmp.528
PUBLIC 4a3bc8 0 __block_descriptor_tmp.531
PUBLIC 4a3bf8 0 __block_descriptor_tmp.534
PUBLIC 4a3c28 0 __block_descriptor_tmp.540
PUBLIC 4a3c48 0 __block_descriptor_tmp.543
PUBLIC 4a3c78 0 __block_descriptor_tmp.546
PUBLIC 4a3c98 0 __block_descriptor_tmp.550
PUBLIC 4a3cc8 0 __block_descriptor_tmp.556
PUBLIC 4a3cf8 0 __block_descriptor_tmp.560
PUBLIC 4a3d28 0 __block_descriptor_tmp
PUBLIC 4a3d48 0 __block_literal_global
PUBLIC 4a3d68 0 __block_descriptor_tmp.38
PUBLIC 4a3d98 0 __block_descriptor_tmp.52
PUBLIC 4a3dc8 0 __block_descriptor_tmp.81
PUBLIC 4a3df8 0 __block_descriptor_tmp
PUBLIC 4a3e28 0 __block_descriptor_tmp.17
PUBLIC 4a3e58 0 __block_descriptor_tmp
PUBLIC 4a3e78 0 __block_literal_global
PUBLIC 4a3ea0 0 __CFDYLDNameList
PUBLIC 4a4078 0 __block_descriptor_tmp
PUBLIC 4a4098 0 __block_literal_global
PUBLIC 4a40b8 0 __block_descriptor_tmp.22
PUBLIC 4a40d8 0 __block_literal_global.23
PUBLIC 4a40f8 0 __block_descriptor_tmp.25
PUBLIC 4a4118 0 __block_literal_global.26
PUBLIC 4a4138 0 __block_descriptor_tmp.28
PUBLIC 4a4158 0 __block_literal_global.29
PUBLIC 4a4178 0 __block_descriptor_tmp.31
PUBLIC 4a4198 0 __block_literal_global.32
PUBLIC 4a41b8 0 __block_descriptor_tmp.34
PUBLIC 4a41d8 0 __block_literal_global.35
PUBLIC 4a41f8 0 __block_descriptor_tmp.37
PUBLIC 4a4218 0 __block_literal_global.38
PUBLIC 4a4238 0 __block_descriptor_tmp.40
PUBLIC 4a4258 0 __block_literal_global.41
PUBLIC 4a4278 0 __block_descriptor_tmp.43
PUBLIC 4a4298 0 __block_literal_global.44
PUBLIC 4a42b8 0 __block_descriptor_tmp
PUBLIC 4a42d8 0 __block_literal_global
PUBLIC 4a42f8 0 kCFPlugInDynamicRegistrationKey
PUBLIC 4a4300 0 kCFPlugInDynamicRegisterFunctionKey
PUBLIC 4a4308 0 kCFPlugInUnloadFunctionKey
PUBLIC 4a4310 0 kCFPlugInFactoriesKey
PUBLIC 4a4318 0 kCFPlugInTypesKey
PUBLIC 4a4320 0 __CFPFactoryClass
PUBLIC 4a4380 0 __block_descriptor_tmp
PUBLIC 4a43a0 0 __block_literal_global
PUBLIC 4a43c0 0 __CFPlugInInstanceClass
PUBLIC 4a4420 0 __block_descriptor_tmp
PUBLIC 4a4440 0 __block_literal_global
PUBLIC 4a4460 0 __block_descriptor_tmp
PUBLIC 4a4480 0 __block_literal_global
PUBLIC 4a44a0 0 __CFRunArrayClass
PUBLIC 4a4500 0 __block_descriptor_tmp
PUBLIC 4a4520 0 __block_literal_global
PUBLIC 4a4540 0 NSDefaultRunLoopMode
PUBLIC 4a4548 0 NSRunLoopCommonModes
PUBLIC 4a4550 0 __CFRunLoopClass
PUBLIC 4a45b0 0 __CFRunLoopModeClass
PUBLIC 4a4610 0 __block_descriptor_tmp
PUBLIC 4a4630 0 __block_literal_global
PUBLIC 4a4650 0 __block_descriptor_tmp.10
PUBLIC 4a4670 0 __block_descriptor_tmp.11
PUBLIC 4a4690 0 __block_literal_global.12
PUBLIC 4a46b0 0 __block_descriptor_tmp.14
PUBLIC 4a46d0 0 __block_literal_global.15
PUBLIC 4a46f0 0 __block_descriptor_tmp.18
PUBLIC 4a4710 0 __block_literal_global.19
PUBLIC 4a4730 0 __block_descriptor_tmp.22
PUBLIC 4a4750 0 __block_literal_global.23
PUBLIC 4a4770 0 __block_descriptor_tmp.26
PUBLIC 4a4790 0 __block_literal_global.27
PUBLIC 4a47b0 0 __CFRunLoopSourceClass
PUBLIC 4a4810 0 __block_descriptor_tmp.28
PUBLIC 4a4830 0 __block_literal_global.29
PUBLIC 4a4850 0 __CFRunLoopObserverClass
PUBLIC 4a48b0 0 __block_descriptor_tmp.31
PUBLIC 4a48d0 0 __block_literal_global.32
PUBLIC 4a48f0 0 __CFRunLoopTimerClass
PUBLIC 4a4950 0 __block_descriptor_tmp.33
PUBLIC 4a4970 0 __block_literal_global.34
PUBLIC 4a4990 0 __block_descriptor_tmp.80
PUBLIC 4a49c0 0 __block_descriptor_tmp.95
PUBLIC 4a49e0 0 __block_literal_global.96
PUBLIC 4a4a00 0 __block_descriptor_tmp.127
PUBLIC 4a4a20 0 __block_literal_global.128
PUBLIC 4a4a40 0 __CFNotATypeClass
PUBLIC 4a4aa0 0 __CFTypeClass
PUBLIC 4a4b00 0 keyCallbacks.defaultCallbacks
PUBLIC 4a4b30 0 _CFXNoteLockInit._os_lock_handoff_init
PUBLIC 4a4b40 0 __block_descriptor_tmp
PUBLIC 4a4b70 0 __block_descriptor_tmp.25
PUBLIC 4a4ba0 0 __block_descriptor_tmp.38
PUBLIC 4a4bd0 0 __block_descriptor_tmp.19
PUBLIC 4a4c00 0 __block_descriptor_tmp.23
PUBLIC 4a4c30 0 __block_descriptor_tmp.60
PUBLIC 4a4c50 0 __block_literal_global.61
PUBLIC 4a4c70 0 kCFServiceControllerProviderKey
PUBLIC 4a4c78 0 kCFServiceControllerMessageKey
PUBLIC 4a4c80 0 kCFServiceControllerPasteboardKey
PUBLIC 4a4c88 0 kCFServiceControllerUserDataKey
PUBLIC 4a4c90 0 kCFServiceControllerActivateKey
PUBLIC 4a4c98 0 kCFServiceControllerResultKey
PUBLIC 4a4ca0 0 kCFServiceControllerErrorKey
PUBLIC 4a4ca8 0 kCFServiceControllerServicesChangedNotification
PUBLIC 4a4cb0 0 kCFServiceControllerCFPreferencesAppIdentifier
PUBLIC 4a4cb8 0 __block_descriptor_tmp
PUBLIC 4a4cd8 0 __block_literal_global
PUBLIC 4a4cf8 0 __block_descriptor_tmp.46
PUBLIC 4a4d18 0 __block_literal_global.47
PUBLIC 4a4d40 0 __block_descriptor_tmp
PUBLIC 4a4d60 0 __block_literal_global
PUBLIC 4a4d80 0 __block_descriptor_tmp.3
PUBLIC 4a4da0 0 __block_descriptor_tmp.17
PUBLIC 4a4dc0 0 __block_literal_global.18
PUBLIC 4a4de0 0 __block_descriptor_tmp.31
PUBLIC 4a4e00 0 __block_descriptor_tmp.32
PUBLIC 4a4e20 0 __block_literal_global.33
PUBLIC 4a4e40 0 _block_invoke.keys
PUBLIC 4a4e58 0 __block_descriptor_tmp.52
PUBLIC 4a4e90 0 _block_invoke_2.keys
PUBLIC 4a4eb0 0 __block_descriptor_tmp.60
PUBLIC 4a4ee0 0 __block_descriptor_tmp.78
PUBLIC 4a4f10 0 __block_descriptor_tmp.83
PUBLIC 4a4f40 0 __block_descriptor_tmp.88
PUBLIC 4a4f70 0 __block_descriptor_tmp.106
PUBLIC 4a4fa0 0 __block_descriptor_tmp.112
PUBLIC 4a4fd0 0 __block_descriptor_tmp.126
PUBLIC 4a5000 0 __block_descriptor_tmp.131
PUBLIC 4a5030 0 __block_descriptor_tmp.135
PUBLIC 4a5060 0 __block_descriptor_tmp.140
PUBLIC 4a5090 0 __block_descriptor_tmp.144
PUBLIC 4a50c0 0 __block_descriptor_tmp.149
PUBLIC 4a50f0 0 __block_descriptor_tmp.155
PUBLIC 4a5120 0 __block_descriptor_tmp.159
PUBLIC 4a5150 0 __block_descriptor_tmp.162
PUBLIC 4a5180 0 __block_descriptor_tmp.165
PUBLIC 4a51b0 0 __block_descriptor_tmp.168
PUBLIC 4a51e0 0 __block_descriptor_tmp.174
PUBLIC 4a5210 0 __block_descriptor_tmp.181
PUBLIC 4a5240 0 __block_descriptor_tmp.184
PUBLIC 4a5270 0 _block_invoke_3.keys
PUBLIC 4a5288 0 __block_descriptor_tmp.191
PUBLIC 4a52b8 0 __block_descriptor_tmp.194
PUBLIC 4a52e8 0 __block_descriptor_tmp.253
PUBLIC 4a5318 0 __block_descriptor_tmp.262
PUBLIC 4a5348 0 __block_descriptor_tmp.266
PUBLIC 4a5378 0 __block_descriptor_tmp.269
PUBLIC 4a53a8 0 __block_descriptor_tmp.349
PUBLIC 4a53d8 0 __block_descriptor_tmp.362
PUBLIC 4a5408 0 __block_descriptor_tmp.365
PUBLIC 4a5438 0 __block_descriptor_tmp.370
PUBLIC 4a5468 0 __block_descriptor_tmp.402
PUBLIC 4a5498 0 __block_descriptor_tmp.422
PUBLIC 4a54c8 0 __block_descriptor_tmp.434
PUBLIC 4a54f8 0 __block_descriptor_tmp.446
PUBLIC 4a5528 0 __block_descriptor_tmp.458
PUBLIC 4a5558 0 __block_descriptor_tmp.462
PUBLIC 4a5588 0 __block_descriptor_tmp.503
PUBLIC 4a55b8 0 __block_descriptor_tmp.568
PUBLIC 4a55e8 0 __block_descriptor_tmp.610
PUBLIC 4a5618 0 __block_descriptor_tmp.614
PUBLIC 4a5648 0 __block_descriptor_tmp.625
PUBLIC 4a5678 0 __block_descriptor_tmp.630
PUBLIC 4a56a8 0 __block_descriptor_tmp.635
PUBLIC 4a56c8 0 __block_literal_global.636
PUBLIC 4a56e8 0 __block_descriptor_tmp.638
PUBLIC 4a5708 0 __block_literal_global.639
PUBLIC 4a5728 0 __block_descriptor_tmp
PUBLIC 4a5758 0 kCFTypeSetCallBacks
PUBLIC 4a5788 0 kCFCopyStringSetCallBacks
PUBLIC 4a57b8 0 __CFSetClass
PUBLIC 4a5818 0 __block_descriptor_tmp
PUBLIC 4a5838 0 __block_literal_global
PUBLIC 4a5858 0 __block_descriptor_tmp.18
PUBLIC 4a5878 0 __CFSocketClass
PUBLIC 4a58d8 0 __block_descriptor_tmp
PUBLIC 4a58f8 0 __block_literal_global
PUBLIC 4a5918 0 kCFSocketCommandKey
PUBLIC 4a5920 0 kCFSocketNameKey
PUBLIC 4a5928 0 kCFSocketValueKey
PUBLIC 4a5930 0 kCFSocketResultKey
PUBLIC 4a5938 0 kCFSocketErrorKey
PUBLIC 4a5940 0 kCFSocketRegisterCommand
PUBLIC 4a5948 0 kCFSocketRetrieveCommand
PUBLIC 4a5950 0 __kCFSocketRegistryRequestRunLoopMode
PUBLIC 4a5960 0 __block_descriptor_tmp
PUBLIC 4a5980 0 __block_literal_global
PUBLIC 4a59a0 0 __block_descriptor_tmp.12
PUBLIC 4a59c0 0 __block_literal_global.13
PUBLIC 4a59e0 0 __CFBundleLanguageNamesArray
PUBLIC 4a5ea0 0 __block_descriptor_tmp.141
PUBLIC 4a5ed0 0 _CFBundleGetAlternateNameForLanguage.__CFBundleCommonLanguageNamesArray
PUBLIC 4a5f10 0 _CFBundleGetAlternateNameForLanguage.__CFBundleCommonLanguageAbbreviationsArray
PUBLIC 4a5f48 0 __block_descriptor_tmp.172
PUBLIC 4a5f68 0 __block_literal_global.173
PUBLIC 4a5f88 0 __block_descriptor_tmp.175
PUBLIC 4a5fa8 0 __block_literal_global.176
PUBLIC 4a5fc8 0 __block_descriptor_tmp.177
PUBLIC 4a5fe8 0 __block_literal_global.178
PUBLIC 4a6008 0 __block_descriptor_tmp.180
PUBLIC 4a6028 0 __block_literal_global.181
PUBLIC 4a6048 0 __block_descriptor_tmp
PUBLIC 4a6078 0 __block_descriptor_tmp.25
PUBLIC 4a60a8 0 __block_descriptor_tmp.38
PUBLIC 4a60d8 0 kCFStreamPropertyShouldCloseNativeSocket
PUBLIC 4a60e0 0 kCFStreamPropertyAutoErrorOnSystemChange
PUBLIC 4a60e8 0 NSStreamSOCKSProxyConfigurationKey
PUBLIC 4a60f0 0 NSStreamSOCKSProxyHostKey
PUBLIC 4a60f8 0 NSStreamSOCKSProxyPortKey
PUBLIC 4a6100 0 NSStreamSOCKSProxyVersionKey
PUBLIC 4a6108 0 NSStreamSOCKSProxyVersion4
PUBLIC 4a6110 0 NSStreamSOCKSProxyVersion5
PUBLIC 4a6118 0 NSStreamSOCKSProxyUserKey
PUBLIC 4a6120 0 NSStreamSOCKSProxyPasswordKey
PUBLIC 4a6128 0 NSStreamSocketSecurityLevelKey
PUBLIC 4a6130 0 NSStreamSocketSecurityLevelNone
PUBLIC 4a6138 0 NSStreamSocketSecurityLevelSSLv2
PUBLIC 4a6140 0 NSStreamSocketSecurityLevelSSLv3
PUBLIC 4a6148 0 NSStreamSocketSecurityLevelTLSv1
PUBLIC 4a6150 0 NSStreamSocketSecurityLevelNegotiatedSSL
PUBLIC 4a6158 0 kCFStreamPropertySocketSSLContext
PUBLIC 4a6160 0 _kCFStreamPropertySocketSecurityAuthenticatesServerCertificate
PUBLIC 4a6168 0 __block_descriptor_tmp
PUBLIC 4a6188 0 __block_descriptor_tmp.11
PUBLIC 4a61a8 0 __block_descriptor_tmp.24
PUBLIC 4a61c8 0 __block_descriptor_tmp.28
PUBLIC 4a61f8 0 __block_descriptor_tmp.32
PUBLIC 4a6228 0 __block_descriptor_tmp.36
PUBLIC 4a6258 0 __CFStorageClass
PUBLIC 4a62b8 0 __block_descriptor_tmp
PUBLIC 4a62d8 0 __block_literal_global
PUBLIC 4a62f8 0 __block_descriptor_tmp.3
PUBLIC 4a6318 0 __block_descriptor_tmp.15
PUBLIC 4a6348 0 kCFStreamPropertySocketNativeHandle
PUBLIC 4a6350 0 kCFStreamPropertySocketRemoteHostName
PUBLIC 4a6358 0 kCFStreamPropertySocketRemotePortNumber
PUBLIC 4a6360 0 NSStreamDataWrittenToMemoryStreamKey
PUBLIC 4a6368 0 kCFStreamPropertyAppendToFile
PUBLIC 4a6370 0 __CFReadStreamClass
PUBLIC 4a63d0 0 __CFWriteStreamClass
PUBLIC 4a6430 0 __block_descriptor_tmp
PUBLIC 4a6450 0 __block_literal_global
PUBLIC 4a64c0 0 __block_descriptor_tmp.118
PUBLIC 4a64e0 0 __block_descriptor_tmp.121
PUBLIC 4a6500 0 __block_literal_global.122
PUBLIC 4a6520 0 __block_descriptor_tmp
PUBLIC 4a6540 0 __block_literal_global
PUBLIC 4a6560 0 __block_descriptor_tmp.4
PUBLIC 4a6580 0 _emptySourceCtxt
PUBLIC 4a65d0 0 boundPairReadCallBacks
PUBLIC 4a6648 0 boundPairWriteCallBacks
PUBLIC 4a66b8 0 kCFEmptyString
PUBLIC 4a66c0 0 __CFStringClass
PUBLIC 4a6720 0 __block_descriptor_tmp
PUBLIC 4a6740 0 __block_literal_global
PUBLIC 4a6790 0 CFStringCreateArrayWithFindResults.callbacks
PUBLIC 4a67b8 0 __block_descriptor_tmp.108
PUBLIC 4a67d8 0 __block_literal_global.109
PUBLIC 4a67f8 0 __block_descriptor_tmp.110
PUBLIC 4a6818 0 __block_literal_global.111
PUBLIC 4a6838 0 __block_descriptor_tmp.112
PUBLIC 4a6858 0 __block_literal_global.113
PUBLIC 4a6880 0 CFStringROMTable
PUBLIC 4d8588 0 __CFStringTokenizerRuntimeClass
PUBLIC 4d85e8 0 __block_descriptor_tmp
PUBLIC 4d8608 0 __block_literal_global
PUBLIC 4d8628 0 __block_descriptor_tmp.27
PUBLIC 4d8648 0 __block_literal_global.28
PUBLIC 4d8670 0 NSStringTransformStripCombiningMarks
PUBLIC 4d8678 0 NSStringTransformToLatin
PUBLIC 4d8680 0 NSStringTransformFullwidthToHalfwidth
PUBLIC 4d8688 0 NSStringTransformLatinToKatakana
PUBLIC 4d8690 0 NSStringTransformLatinToHiragana
PUBLIC 4d8698 0 NSStringTransformHiraganaToKatakana
PUBLIC 4d86a0 0 NSStringTransformMandarinToLatin
PUBLIC 4d86a8 0 NSStringTransformLatinToHangul
PUBLIC 4d86b0 0 NSStringTransformLatinToArabic
PUBLIC 4d86b8 0 NSStringTransformLatinToHebrew
PUBLIC 4d86c0 0 NSStringTransformLatinToThai
PUBLIC 4d86c8 0 NSStringTransformLatinToCyrillic
PUBLIC 4d86d0 0 NSStringTransformLatinToGreek
PUBLIC 4d86d8 0 NSStringTransformToXMLHex
PUBLIC 4d86e0 0 NSStringTransformToUnicodeName
PUBLIC 4d86e8 0 NSStringTransformStripDiacritics
PUBLIC 4d86f0 0 __CFStringTransformNameMap
PUBLIC 4d8800 0 __block_descriptor_tmp
PUBLIC 4d8820 0 __block_literal_global
PUBLIC 4d8840 0 __block_descriptor_tmp.5
PUBLIC 4d8860 0 __block_literal_global.6
PUBLIC 4d8880 0 __block_descriptor_tmp.8
PUBLIC 4d88a0 0 __block_literal_global.9
PUBLIC 4d88c0 0 __block_descriptor_tmp.11
PUBLIC 4d88e0 0 __block_literal_global.12
PUBLIC 4d8900 0 __block_descriptor_tmp.14
PUBLIC 4d8920 0 __block_literal_global.15
PUBLIC 4d8940 0 __block_descriptor_tmp.17
PUBLIC 4d8960 0 __block_literal_global.18
PUBLIC 4d8980 0 __block_descriptor_tmp.20
PUBLIC 4d89a0 0 __block_literal_global.21
PUBLIC 4d89c0 0 __CFTreeClass
PUBLIC 4d8a20 0 __block_descriptor_tmp
PUBLIC 4d8a40 0 __block_literal_global
PUBLIC 4d8a60 0 __kCFTypeTreeCallBacks
PUBLIC 4d8a78 0 __block_descriptor_tmp
PUBLIC 4d8aa8 0 __block_descriptor_tmp.103
PUBLIC 4d8ad8 0 __block_descriptor_tmp.117
PUBLIC 4d8b08 0 __block_descriptor_tmp.204
PUBLIC 4d8b28 0 __block_descriptor_tmp.209
PUBLIC 4d8b48 0 __block_literal_global
PUBLIC 4d8b68 0 __block_descriptor_tmp.211
PUBLIC 4d8b88 0 __block_literal_global.212
PUBLIC 4d8ba8 0 __block_descriptor_tmp.213
PUBLIC 4d8bc8 0 __block_literal_global.214
PUBLIC 4d8be8 0 __block_descriptor_tmp.231
PUBLIC 4d8c18 0 __block_descriptor_tmp.238
PUBLIC 4d8c48 0 __block_descriptor_tmp.259
PUBLIC 4d8c78 0 __block_descriptor_tmp.264
PUBLIC 4d8ca8 0 __block_descriptor_tmp.269
PUBLIC 4d8cd8 0 __block_descriptor_tmp.285
PUBLIC 4d8cf8 0 __block_literal_global.286
PUBLIC 4d8d20 0 __CFURLClass
PUBLIC 4d8d80 0 __block_descriptor_tmp
PUBLIC 4d8da0 0 __block_literal_global
PUBLIC 4d8dc0 0 _block_invoke.protectedPaths
PUBLIC 4d9030 0 __block_descriptor_tmp.135
PUBLIC 4d9050 0 __block_descriptor_tmp.148
PUBLIC 4d9070 0 __block_literal_global.149
PUBLIC 4d9090 0 __block_descriptor_tmp.183
PUBLIC 4d90b0 0 __block_literal_global.184
PUBLIC 4d90d0 0 __block_descriptor_tmp.186
PUBLIC 4d90f0 0 __block_literal_global.187
PUBLIC 4d9110 0 __block_descriptor_tmp.189
PUBLIC 4d9130 0 __block_literal_global.190
PUBLIC 4d9150 0 __block_descriptor_tmp.196
PUBLIC 4d9170 0 __block_literal_global.197
PUBLIC 4d9190 0 __block_descriptor_tmp.202
PUBLIC 4d91b0 0 __block_literal_global.203
PUBLIC 4d91d0 0 __block_descriptor_tmp.213
PUBLIC 4d91f0 0 __block_literal_global.214
PUBLIC 4d9210 0 __block_descriptor_tmp.217
PUBLIC 4d9230 0 __block_literal_global.218
PUBLIC 4d9250 0 __block_descriptor_tmp.220
PUBLIC 4d9270 0 __block_literal_global.221
PUBLIC 4d9290 0 __block_descriptor_tmp.225
PUBLIC 4d92b0 0 __block_literal_global.226
PUBLIC 4d92d0 0 __block_descriptor_tmp.228
PUBLIC 4d92f0 0 __block_literal_global.229
PUBLIC 4d9310 0 __block_descriptor_tmp.231
PUBLIC 4d9330 0 __block_literal_global.232
PUBLIC 4d9350 0 __block_descriptor_tmp.234
PUBLIC 4d9370 0 __block_literal_global.235
PUBLIC 4d9390 0 __block_descriptor_tmp.237
PUBLIC 4d93b0 0 __block_literal_global.238
PUBLIC 4d93d0 0 __block_descriptor_tmp.240
PUBLIC 4d93f0 0 __block_descriptor_tmp.250
PUBLIC 4d9410 0 __block_literal_global.251
PUBLIC 4d9430 0 __block_descriptor_tmp.253
PUBLIC 4d9450 0 __block_literal_global.254
PUBLIC 4d9470 0 __block_descriptor_tmp.256
PUBLIC 4d9490 0 __block_literal_global.257
PUBLIC 4d94b0 0 __block_descriptor_tmp.259
PUBLIC 4d94d0 0 __block_literal_global.260
PUBLIC 4d94f0 0 __block_descriptor_tmp.262
PUBLIC 4d9510 0 __block_literal_global.263
PUBLIC 4d9530 0 __block_descriptor_tmp.265
PUBLIC 4d9550 0 __block_literal_global.266
PUBLIC 4d9570 0 __block_descriptor_tmp.268
PUBLIC 4d9590 0 __block_literal_global.269
PUBLIC 4d95b0 0 __block_descriptor_tmp.271
PUBLIC 4d95d0 0 __block_literal_global.272
PUBLIC 4d95f0 0 __block_descriptor_tmp.274
PUBLIC 4d9610 0 __block_literal_global.275
PUBLIC 4d9630 0 __block_descriptor_tmp.277
PUBLIC 4d9650 0 __block_literal_global.278
PUBLIC 4d9670 0 __block_descriptor_tmp.280
PUBLIC 4d9690 0 __block_literal_global.281
PUBLIC 4d96b0 0 __block_descriptor_tmp.283
PUBLIC 4d96d0 0 __block_literal_global.284
PUBLIC 4d96f0 0 __block_descriptor_tmp.286
PUBLIC 4d9710 0 __block_literal_global.287
PUBLIC 4d9730 0 __block_descriptor_tmp.289
PUBLIC 4d9750 0 __block_literal_global.290
PUBLIC 4d9770 0 __block_descriptor_tmp.292
PUBLIC 4d9790 0 __block_literal_global.293
PUBLIC 4d97b0 0 __block_descriptor_tmp.295
PUBLIC 4d97d0 0 __block_literal_global.296
PUBLIC 4d97f0 0 __block_descriptor_tmp.298
PUBLIC 4d9810 0 __block_literal_global.299
PUBLIC 4d9830 0 __block_descriptor_tmp.301
PUBLIC 4d9850 0 __block_literal_global.302
PUBLIC 4d9870 0 __block_descriptor_tmp.304
PUBLIC 4d9890 0 __block_literal_global.305
PUBLIC 4d98b0 0 __block_descriptor_tmp.307
PUBLIC 4d98d0 0 __block_literal_global.308
PUBLIC 4d98f0 0 __block_descriptor_tmp.310
PUBLIC 4d9910 0 __block_literal_global.311
PUBLIC 4d9930 0 __block_descriptor_tmp.313
PUBLIC 4d9950 0 __block_literal_global.314
PUBLIC 4d9970 0 __block_descriptor_tmp.316
PUBLIC 4d9990 0 __block_literal_global.317
PUBLIC 4d99b0 0 __block_descriptor_tmp.319
PUBLIC 4d99d0 0 __block_literal_global.320
PUBLIC 4d99f0 0 __block_descriptor_tmp.322
PUBLIC 4d9a10 0 __block_literal_global.323
PUBLIC 4d9a30 0 __block_descriptor_tmp.325
PUBLIC 4d9a50 0 __block_literal_global.326
PUBLIC 4d9a70 0 __block_descriptor_tmp.328
PUBLIC 4d9a90 0 __block_literal_global.329
PUBLIC 4d9ab0 0 __block_descriptor_tmp.331
PUBLIC 4d9ad0 0 __block_literal_global.332
PUBLIC 4d9af0 0 __block_descriptor_tmp.334
PUBLIC 4d9b10 0 __block_literal_global.335
PUBLIC 4d9b30 0 __block_descriptor_tmp.337
PUBLIC 4d9b50 0 __block_literal_global.338
PUBLIC 4d9b70 0 __block_descriptor_tmp.340
PUBLIC 4d9b90 0 __block_literal_global.341
PUBLIC 4d9bb0 0 __block_descriptor_tmp.343
PUBLIC 4d9bd0 0 __block_literal_global.344
PUBLIC 4d9bf0 0 __block_descriptor_tmp.346
PUBLIC 4d9c10 0 __block_literal_global.347
PUBLIC 4d9c30 0 __block_descriptor_tmp.349
PUBLIC 4d9c50 0 __block_literal_global.350
PUBLIC 4d9c70 0 __block_descriptor_tmp.352
PUBLIC 4d9c90 0 __block_literal_global.353
PUBLIC 4d9cb0 0 __block_descriptor_tmp.355
PUBLIC 4d9cd0 0 __block_literal_global.356
PUBLIC 4d9cf0 0 __block_descriptor_tmp.358
PUBLIC 4d9d10 0 __block_literal_global.359
PUBLIC 4d9d30 0 kCFURLFileExists
PUBLIC 4d9d38 0 kCFURLFilePOSIXMode
PUBLIC 4d9d40 0 kCFURLFileDirectoryContents
PUBLIC 4d9d48 0 kCFURLFileLength
PUBLIC 4d9d50 0 kCFURLFileLastModificationTime
PUBLIC 4d9d58 0 kCFURLFileOwnerID
PUBLIC 4d9d60 0 kCFURLHTTPStatusCode
PUBLIC 4d9d68 0 kCFURLHTTPStatusLine
PUBLIC 4d9d70 0 kCFDataURLDataLength
PUBLIC 4d9d78 0 kCFDataURLMimeType
PUBLIC 4d9d80 0 kCFDataURLTextEncodingName
PUBLIC 4d9d88 0 kCFFileURLExists
PUBLIC 4d9d90 0 kCFFileURLPOSIXMode
PUBLIC 4d9d98 0 kCFFileURLDirectoryContents
PUBLIC 4d9da0 0 kCFFileURLSize
PUBLIC 4d9da8 0 kCFFileURLLastModificationTime
PUBLIC 4d9db0 0 kCFHTTPURLStatusCode
PUBLIC 4d9db8 0 kCFHTTPURLStatusLine
PUBLIC 4d9dd8 0 __block_descriptor_tmp
PUBLIC 4d9df8 0 __block_literal_global
PUBLIC 4d9e18 0 __block_descriptor_tmp.39
PUBLIC 4d9e38 0 __block_literal_global.40
PUBLIC 4d9e58 0 __block_descriptor_tmp.42
PUBLIC 4d9e78 0 __block_literal_global.43
PUBLIC 4d9e98 0 __CFUUIDClass
PUBLIC 4d9ef8 0 __block_descriptor_tmp
PUBLIC 4d9f18 0 __block_literal_global
PUBLIC 4d9f38 0 __block_descriptor_tmp.2
PUBLIC 4d9f68 0 __block_descriptor_tmp.4
PUBLIC 4d9f88 0 __block_descriptor_tmp.7
PUBLIC 4d9fa8 0 __block_literal_global.8
PUBLIC 4d9fc8 0 __block_descriptor_tmp.11
PUBLIC 4da050 0 __block_descriptor_tmp
PUBLIC 4da070 0 __block_literal_global
PUBLIC 4da090 0 kCFUserNotificationTokenKey
PUBLIC 4da098 0 kCFUserNotificationTimeoutKey
PUBLIC 4da0a0 0 kCFUserNotificationFlagsKey
PUBLIC 4da0a8 0 kCFUserNotificationIconPathKey
PUBLIC 4da0b0 0 kCFUserNotificationSoundPathKey
PUBLIC 4da0b8 0 kCFUserNotificationLocalizationPathKey
PUBLIC 4da0c0 0 kCFUserNotificationAlertSourceKey
PUBLIC 4da0c8 0 kCFUserNotificationTextFieldLabelsKey
PUBLIC 4da0d0 0 kCFUserNotificationCheckBoxLabelsKey
PUBLIC 4da0d8 0 kCFUserNotificationIconURLKey
PUBLIC 4da0e0 0 kCFUserNotificationSoundURLKey
PUBLIC 4da0e8 0 kCFUserNotificationLocalizationURLKey
PUBLIC 4da0f0 0 kCFUserNotificationAlertHeaderKey
PUBLIC 4da0f8 0 kCFUserNotificationAlertMessageKey
PUBLIC 4da100 0 kCFUserNotificationDefaultButtonTitleKey
PUBLIC 4da108 0 kCFUserNotificationAlternateButtonTitleKey
PUBLIC 4da110 0 kCFUserNotificationOtherButtonTitleKey
PUBLIC 4da118 0 kCFUserNotificationProgressIndicatorValueKey
PUBLIC 4da120 0 kCFUserNotificationSessionIDKey
PUBLIC 4da128 0 kCFUserNotificationPopUpTitlesKey
PUBLIC 4da130 0 kCFUserNotificationTextFieldTitlesKey
PUBLIC 4da138 0 kCFUserNotificationCheckBoxTitlesKey
PUBLIC 4da140 0 kCFUserNotificationTextFieldValuesKey
PUBLIC 4da148 0 kCFUserNotificationPopUpSelectionKey
PUBLIC 4da150 0 kCFUserNotificationKeyboardTypesKey
PUBLIC 4da158 0 kCFUserNotificationAlertTopMostKey
PUBLIC 4da160 0 kCFUserNotificationHelpAnchorKey
PUBLIC 4da168 0 kCFUserNotificationHelpBookKey
PUBLIC 4da170 0 kCFUserNotificationHelpBundleURLKey
PUBLIC 4da178 0 kCFUserNotificationHelpBundlePathKey
PUBLIC 4da180 0 kCFUserNotificationEnsureVisibilityForProcessIDKey
PUBLIC 4da188 0 __CFUserNotificationClass
PUBLIC 4da1e8 0 __block_descriptor_tmp
PUBLIC 4da208 0 __block_literal_global
PUBLIC 4da230 0 __block_descriptor_tmp
PUBLIC 4da250 0 __block_literal_global
PUBLIC 4da270 0 __block_descriptor_tmp.7
PUBLIC 4da290 0 __block_literal_global.8
PUBLIC 4da2b0 0 __block_descriptor_tmp.11
PUBLIC 4da2d0 0 __block_literal_global.12
PUBLIC 4da2f0 0 _kCFSystemVersionProductNameKey
PUBLIC 4da2f8 0 _kCFSystemVersionProductCopyrightKey
PUBLIC 4da300 0 _kCFSystemVersionProductVersionKey
PUBLIC 4da308 0 _kCFSystemVersionProductVersionExtraKey
PUBLIC 4da310 0 _kCFSystemVersionProductUserVisibleVersionKey
PUBLIC 4da318 0 _kCFSystemVersionBuildVersionKey
PUBLIC 4da320 0 _kCFSystemVersionProductVersionStringKey
PUBLIC 4da328 0 _kCFSystemVersionBuildStringKey
PUBLIC 4da330 0 __block_descriptor_tmp.51
PUBLIC 4da350 0 __block_literal_global.52
PUBLIC 4da370 0 __block_descriptor_tmp.54
PUBLIC 4da390 0 __block_literal_global.55
PUBLIC 4da3b0 0 __block_descriptor_tmp.58
PUBLIC 4da3d0 0 __block_literal_global.59
PUBLIC 4da3f0 0 __block_descriptor_tmp.61
PUBLIC 4da410 0 __block_literal_global.62
PUBLIC 4da430 0 __block_descriptor_tmp.63
PUBLIC 4da460 0 __block_descriptor_tmp.87
PUBLIC 4da480 0 __block_literal_global.88
PUBLIC 4da4a0 0 __CFLogCStringLegacy.levstr
PUBLIC 4da4e0 0 __block_descriptor_tmp
PUBLIC 4da500 0 __block_literal_global
PUBLIC 4da520 0 __block_descriptor_tmp.3
PUBLIC 4da540 0 __block_literal_global.4
PUBLIC 4da560 0 _block_invoke._CFVolumeObserverClass
PUBLIC 4da5c0 0 __block_descriptor_tmp
PUBLIC 4da5e0 0 __block_literal_global
PUBLIC 4da600 0 __block_descriptor_tmp.4
PUBLIC 4da630 0 __block_descriptor_tmp.7
PUBLIC 4da650 0 __block_descriptor_tmp.15
PUBLIC 4da670 0 __block_literal_global.16
PUBLIC 4da690 0 __block_descriptor_tmp.18
PUBLIC 4da6b0 0 __block_literal_global.19
PUBLIC 4da6d0 0 __block_descriptor_tmp.20
PUBLIC 4da6f0 0 __block_literal_global.21
PUBLIC 4da710 0 __block_descriptor_tmp.23
PUBLIC 4da730 0 __block_literal_global.24
PUBLIC 4da750 0 __block_descriptor_tmp.26
PUBLIC 4da770 0 __block_literal_global.27
PUBLIC 4da790 0 __block_descriptor_tmp.29
PUBLIC 4da7b0 0 __block_literal_global.30
PUBLIC 4da7d0 0 __block_descriptor_tmp.32
PUBLIC 4da7f0 0 __block_literal_global.33
PUBLIC 4da810 0 __block_descriptor_tmp.35
PUBLIC 4da830 0 __block_literal_global.36
PUBLIC 4da850 0 __block_descriptor_tmp.38
PUBLIC 4da870 0 __block_literal_global.39
PUBLIC 4da890 0 __block_descriptor_tmp.41
PUBLIC 4da8b0 0 __block_literal_global.42
PUBLIC 4da8d0 0 __block_descriptor_tmp.43
PUBLIC 4da8f0 0 __block_descriptor_tmp.44
PUBLIC 4da910 0 __CFXMLNodeClass
PUBLIC 4da970 0 __block_descriptor_tmp
PUBLIC 4da990 0 __block_literal_global
PUBLIC 4da9b0 0 __CFXMLParserClass
PUBLIC 4daa10 0 __block_descriptor_tmp
PUBLIC 4daa30 0 __block_literal_global
PUBLIC 4daa50 0 kCFXMLTreeErrorDescription
PUBLIC 4daa58 0 kCFXMLTreeErrorLineNumber
PUBLIC 4daa60 0 kCFXMLTreeErrorLocation
PUBLIC 4daa68 0 kCFXMLTreeErrorStatusCode
PUBLIC 4daa70 0 __block_descriptor_tmp
PUBLIC 4daa90 0 __block_literal_global
PUBLIC 4daab0 0 __block_descriptor_tmp
PUBLIC 4daae0 0 __block_descriptor_tmp.79
PUBLIC 4dab10 0 __block_descriptor_tmp.84
PUBLIC 4dab40 0 __block_descriptor_tmp.87
PUBLIC 4dab70 0 __block_descriptor_tmp.119
PUBLIC 4daba0 0 __block_descriptor_tmp.148
PUBLIC 4dabd0 0 __block_descriptor_tmp.154
PUBLIC 4dabf0 0 __block_descriptor_tmp.158
PUBLIC 4dac10 0 __block_descriptor_tmp
PUBLIC 4dac30 0 __block_literal_global
PUBLIC 4dac50 0 NSSystemClockDidChangeNotification
PUBLIC 4dac58 0 __block_descriptor_tmp.39
PUBLIC 4dac78 0 __block_literal_global.40
PUBLIC 4dac98 0 __block_descriptor_tmp.41
PUBLIC 4dacb8 0 __block_literal_global.42
PUBLIC 4dacd8 0 __block_descriptor_tmp.48
PUBLIC 4dacf8 0 __block_literal_global.49
PUBLIC 4dad18 0 __CFDateClass
PUBLIC 4dad78 0 __block_descriptor_tmp.168
PUBLIC 4dad98 0 __block_literal_global.169
PUBLIC 4dadc0 0 __block_descriptor_tmp
PUBLIC 4dade0 0 __block_literal_global
PUBLIC 4dae00 0 __block_descriptor_tmp.67
PUBLIC 4dae20 0 __block_literal_global.68
PUBLIC 4dae40 0 __block_descriptor_tmp.88
PUBLIC 4dae70 0 __block_descriptor_tmp.89
PUBLIC 4dae90 0 __block_literal_global.90
PUBLIC 4daeb0 0 __block_descriptor_tmp.95
PUBLIC 4daee0 0 __block_descriptor_tmp.116
PUBLIC 4daf10 0 __block_descriptor_tmp.122
PUBLIC 4daf40 0 __block_descriptor_tmp.215
PUBLIC 4db390 0 __block_descriptor_tmp
PUBLIC 4db3b0 0 __block_literal_global
PUBLIC 4db3d0 0 __CFURLComponentsClass
PUBLIC 4db430 0 __block_descriptor_tmp
PUBLIC 4db450 0 __block_literal_global
PUBLIC 4db470 0 _kCFURLComponentsNameKey
PUBLIC 4db478 0 _kCFURLComponentsValueKey
PUBLIC 4db490 0 __block_descriptor_tmp.18
PUBLIC 4db4b0 0 __block_literal_global.19
PUBLIC 4db4d0 0 __block_descriptor_tmp
PUBLIC 4db4f0 0 __block_descriptor_tmp.73
PUBLIC 4db520 0 __block_descriptor_tmp.83
PUBLIC 4db550 0 __block_descriptor_tmp.95
PUBLIC 4db580 0 __block_descriptor_tmp.102
PUBLIC 4db5a0 0 __block_descriptor_tmp.116
PUBLIC 4db5c0 0 __block_descriptor_tmp
PUBLIC 4db5e0 0 __block_literal_global
PUBLIC 4db600 0 __block_descriptor_tmp.10
PUBLIC 4db620 0 __block_literal_global.11
PUBLIC 4db640 0 __block_descriptor_tmp.15
PUBLIC 4db660 0 __block_literal_global.16
PUBLIC 4db680 0 __block_descriptor_tmp.18
PUBLIC 4db6a0 0 __block_literal_global.19
PUBLIC 4db6c0 0 __block_descriptor_tmp.20
PUBLIC 4db6e0 0 __block_literal_global.21
PUBLIC 4db700 0 __block_descriptor_tmp.23
PUBLIC 4db720 0 __block_literal_global.24
PUBLIC 4db740 0 __block_descriptor_tmp.26
PUBLIC 4db760 0 __block_literal_global.27
PUBLIC 4db780 0 __block_descriptor_tmp.29
PUBLIC 4db7a0 0 __block_literal_global.30
PUBLIC 4db7c0 0 __block_descriptor_tmp.32
PUBLIC 4db7e0 0 __block_literal_global.33
PUBLIC 4db800 0 __block_descriptor_tmp
PUBLIC 4db820 0 __block_literal_global
PUBLIC 4db840 0 __block_descriptor_tmp.31
PUBLIC 4db860 0 __block_literal_global.32
PUBLIC 4db880 0 __block_descriptor_tmp.97
PUBLIC 4db8b0 0 __block_descriptor_tmp.111
PUBLIC 4db8d0 0 __block_literal_global.112
PUBLIC 4db8f0 0 NSGenericException
PUBLIC 4db8f8 0 NSRangeException
PUBLIC 4db900 0 NSInvalidArgumentException
PUBLIC 4db908 0 NSInternalInconsistencyException
PUBLIC 4db910 0 NSMallocException
PUBLIC 4db948 0 __block_descriptor_tmp
PUBLIC 4db968 0 __block_literal_global
PUBLIC 4db988 0 __block_descriptor_tmp.212
PUBLIC 4db9b8 0 __CFMachPortBoostClass
PUBLIC 4dba18 0 __block_descriptor_tmp
PUBLIC 4dba38 0 __block_literal_global
PUBLIC 4dba58 0 __block_descriptor_tmp
PUBLIC 4dba88 0 __block_descriptor_tmp.12
PUBLIC 4dbab8 0 __block_descriptor_tmp
PUBLIC 4dbad8 0 __block_literal_global
PUBLIC 4dbaf8 0 __block_descriptor_tmp.12
PUBLIC 4dbb18 0 __block_literal_global.13
PUBLIC 4dbb38 0 __block_descriptor_tmp
PUBLIC 4dbb68 0 __block_descriptor_tmp.138
PUBLIC 4dbb88 0 __block_descriptor_tmp.142
PUBLIC 4dbba8 0 __block_descriptor_tmp.146
PUBLIC 4dbbc8 0 __block_descriptor_tmp
PUBLIC 4dbbe8 0 __block_literal_global
PUBLIC 4dbc08 0 __block_descriptor_tmp.87
PUBLIC 4dbc38 0 __block_descriptor_tmp
PUBLIC 4dbc68 0 __block_descriptor_tmp.86
PUBLIC 4dbc98 0 __block_descriptor_tmp.99
PUBLIC 4dbcc8 0 __block_descriptor_tmp
PUBLIC 4dbce8 0 __block_literal_global
PUBLIC 4dbd08 0 __block_descriptor_tmp.34
PUBLIC 4dbd28 0 __block_literal_global.35
PUBLIC 4dbd48 0 __block_descriptor_tmp.40
PUBLIC 4dbd68 0 __block_literal_global.41
PUBLIC 4dbd88 0 __block_descriptor_tmp.82
PUBLIC 4dbda8 0 __block_literal_global.83
PUBLIC 4dbdc8 0 __block_descriptor_tmp.88
PUBLIC 4dbde8 0 __block_literal_global.89
PUBLIC 4dbe08 0 __block_descriptor_tmp.91
PUBLIC 4dbe38 0 NSCalendarDayChangedNotification
PUBLIC 4dbe40 0 __block_descriptor_tmp
PUBLIC 4dbe60 0 __block_literal_global
PUBLIC 4dbe80 0 __block_descriptor_tmp.4
PUBLIC 4dbea0 0 __block_literal_global.5
PUBLIC 4dbec0 0 __block_descriptor_tmp.7
PUBLIC 4dbee0 0 __block_literal_global.8
PUBLIC 4dbf00 0 __block_descriptor_tmp.9
PUBLIC 4dbf20 0 __block_literal_global.10
PUBLIC 4dbf40 0 __block_descriptor_tmp.119
PUBLIC 4dbf60 0 __block_literal_global.120
PUBLIC 4dbf80 0 __block_descriptor_tmp.225
PUBLIC 4dbfb0 0 __block_descriptor_tmp.232
PUBLIC 4dbfe0 0 __CFCalendarClass
PUBLIC 4dc040 0 __block_descriptor_tmp.530
PUBLIC 4dc060 0 __block_literal_global.531
PUBLIC 4dc080 0 __block_descriptor_tmp
PUBLIC 4dc0a0 0 __block_literal_global
PUBLIC 4dc0c0 0 __block_descriptor_tmp.57
PUBLIC 4dc0e0 0 __block_literal_global.58
PUBLIC 4dc100 0 __block_descriptor_tmp.90
PUBLIC 4dc120 0 __block_literal_global.91
PUBLIC 4dc140 0 NSSystemTimeZoneDidChangeNotification
PUBLIC 4dc148 0 __CFTimeZoneClass
PUBLIC 4dc1a8 0 __block_descriptor_tmp.180
PUBLIC 4dc1c8 0 __block_literal_global.181
PUBLIC 4dc1f0 0 __abbrMap
PUBLIC 4dc530 0 __block_descriptor_tmp
PUBLIC 4dc560 0 __block_descriptor_tmp.47
PUBLIC 4dc590 0 NSLocaleIdentifier
PUBLIC 4dc598 0 NSLocaleLanguageCode
PUBLIC 4dc5a0 0 NSLocaleCountryCode
PUBLIC 4dc5a8 0 NSLocaleScriptCode
PUBLIC 4dc5b0 0 NSLocaleVariantCode
PUBLIC 4dc5b8 0 NSLocaleCalendarIdentifier
PUBLIC 4dc5c0 0 NSLocaleCollationIdentifier
PUBLIC 4dc5c8 0 NSLocaleDecimalSeparator
PUBLIC 4dc5d0 0 NSLocaleGroupingSeparator
PUBLIC 4dc5d8 0 NSLocaleCurrencySymbol
PUBLIC 4dc5e0 0 NSLocaleCurrencyCode
PUBLIC 4dc5e8 0 NSLocaleCollatorIdentifier
PUBLIC 4dc5f0 0 NSLocaleQuotationBeginDelimiterKey
PUBLIC 4dc5f8 0 NSLocaleQuotationEndDelimiterKey
PUBLIC 4dc600 0 NSLocaleAlternateQuotationBeginDelimiterKey
PUBLIC 4dc608 0 NSLocaleAlternateQuotationEndDelimiterKey
PUBLIC 4dc610 0 NSLocaleExemplarCharacterSet
PUBLIC 4dc618 0 NSLocaleUsesMetricSystem
PUBLIC 4dc620 0 NSLocaleCalendar
PUBLIC 4dc628 0 NSLocaleMeasurementSystem
PUBLIC 4dc630 0 NSLocaleMeasurementSystemMetric
PUBLIC 4dc638 0 NSLocaleMeasurementSystemUS
PUBLIC 4dc640 0 NSLocaleMeasurementSystemUK
PUBLIC 4dc648 0 NSLocaleTemperatureUnit
PUBLIC 4dc650 0 NSLocaleTemperatureUnitCelsius
PUBLIC 4dc658 0 NSLocaleTemperatureUnitFahrenheit
PUBLIC 4dc660 0 kCFDateFormatterAMSymbol
PUBLIC 4dc668 0 kCFDateFormatterCalendar
PUBLIC 4dc670 0 kCFDateFormatterCalendarIdentifier
PUBLIC 4dc678 0 kCFDateFormatterDefaultDate
PUBLIC 4dc680 0 kCFDateFormatterDefaultFormat
PUBLIC 4dc688 0 kCFDateFormatterDoesRelativeDateFormattingKey
PUBLIC 4dc690 0 kCFDateFormatterEraSymbols
PUBLIC 4dc698 0 kCFDateFormatterGregorianStartDate
PUBLIC 4dc6a0 0 kCFDateFormatterIsLenient
PUBLIC 4dc6a8 0 kCFDateFormatterLongEraSymbols
PUBLIC 4dc6b0 0 kCFDateFormatterMonthSymbols
PUBLIC 4dc6b8 0 kCFDateFormatterPMSymbol
PUBLIC 4dc6c0 0 kCFDateFormatterAmbiguousYearStrategyKey
PUBLIC 4dc6c8 0 kCFDateFormatterQuarterSymbols
PUBLIC 4dc6d0 0 kCFDateFormatterShortMonthSymbols
PUBLIC 4dc6d8 0 kCFDateFormatterShortQuarterSymbols
PUBLIC 4dc6e0 0 kCFDateFormatterShortStandaloneMonthSymbols
PUBLIC 4dc6e8 0 kCFDateFormatterShortStandaloneQuarterSymbols
PUBLIC 4dc6f0 0 kCFDateFormatterShortStandaloneWeekdaySymbols
PUBLIC 4dc6f8 0 kCFDateFormatterShortWeekdaySymbols
PUBLIC 4dc700 0 kCFDateFormatterStandaloneMonthSymbols
PUBLIC 4dc708 0 kCFDateFormatterStandaloneQuarterSymbols
PUBLIC 4dc710 0 kCFDateFormatterStandaloneWeekdaySymbols
PUBLIC 4dc718 0 kCFDateFormatterTimeZone
PUBLIC 4dc720 0 kCFDateFormatterTwoDigitStartDate
PUBLIC 4dc728 0 kCFDateFormatterVeryShortMonthSymbols
PUBLIC 4dc730 0 kCFDateFormatterVeryShortStandaloneMonthSymbols
PUBLIC 4dc738 0 kCFDateFormatterVeryShortStandaloneWeekdaySymbols
PUBLIC 4dc740 0 kCFDateFormatterVeryShortWeekdaySymbols
PUBLIC 4dc748 0 kCFDateFormatterWeekdaySymbols
PUBLIC 4dc750 0 kCFDateFormatterUsesCharacterDirection
PUBLIC 4dc758 0 NSDateFormatterPatternCharacterKey
PUBLIC 4dc760 0 NSDateFormatterPatternLiteralKey
PUBLIC 4dc768 0 NSDateFormatterPatternStringKey
PUBLIC 4dc770 0 NSDateFormatterPatternRangeKey
PUBLIC 4dc778 0 kCFNumberFormatterAlwaysShowDecimalSeparator
PUBLIC 4dc780 0 kCFNumberFormatterCurrencyCode
PUBLIC 4dc788 0 kCFNumberFormatterCurrencyDecimalSeparator
PUBLIC 4dc790 0 kCFNumberFormatterCurrencyGroupingSeparator
PUBLIC 4dc798 0 kCFNumberFormatterCurrencySymbol
PUBLIC 4dc7a0 0 kCFNumberFormatterDecimalSeparator
PUBLIC 4dc7a8 0 kCFNumberFormatterDefaultFormat
PUBLIC 4dc7b0 0 kCFNumberFormatterExponentSymbol
PUBLIC 4dc7b8 0 kCFNumberFormatterFormatWidth
PUBLIC 4dc7c0 0 kCFNumberFormatterGroupingSeparator
PUBLIC 4dc7c8 0 kCFNumberFormatterGroupingSize
PUBLIC 4dc7d0 0 kCFNumberFormatterInfinitySymbol
PUBLIC 4dc7d8 0 kCFNumberFormatterInternationalCurrencySymbol
PUBLIC 4dc7e0 0 kCFNumberFormatterIsLenient
PUBLIC 4dc7e8 0 kCFNumberFormatterMaxFractionDigits
PUBLIC 4dc7f0 0 kCFNumberFormatterMaxIntegerDigits
PUBLIC 4dc7f8 0 kCFNumberFormatterMaxSignificantDigits
PUBLIC 4dc800 0 kCFNumberFormatterMinFractionDigits
PUBLIC 4dc808 0 kCFNumberFormatterMinIntegerDigits
PUBLIC 4dc810 0 kCFNumberFormatterMinSignificantDigits
PUBLIC 4dc818 0 kCFNumberFormatterMinusSign
PUBLIC 4dc820 0 kCFNumberFormatterMultiplier
PUBLIC 4dc828 0 kCFNumberFormatterNaNSymbol
PUBLIC 4dc830 0 kCFNumberFormatterNegativePrefix
PUBLIC 4dc838 0 kCFNumberFormatterNegativeSuffix
PUBLIC 4dc840 0 kCFNumberFormatterPaddingCharacter
PUBLIC 4dc848 0 kCFNumberFormatterPaddingPosition
PUBLIC 4dc850 0 kCFNumberFormatterPerMillSymbol
PUBLIC 4dc858 0 kCFNumberFormatterPercentSymbol
PUBLIC 4dc860 0 kCFNumberFormatterPlusSign
PUBLIC 4dc868 0 kCFNumberFormatterPositivePrefix
PUBLIC 4dc870 0 kCFNumberFormatterPositiveSuffix
PUBLIC 4dc878 0 kCFNumberFormatterRoundingIncrement
PUBLIC 4dc880 0 kCFNumberFormatterRoundingMode
PUBLIC 4dc888 0 kCFNumberFormatterSecondaryGroupingSize
PUBLIC 4dc890 0 kCFNumberFormatterUseGroupingSeparator
PUBLIC 4dc898 0 kCFNumberFormatterUseSignificantDigits
PUBLIC 4dc8a0 0 kCFNumberFormatterUsesCharacterDirection
PUBLIC 4dc8a8 0 kCFNumberFormatterZeroSymbol
PUBLIC 4dc8b0 0 NSCalendarIdentifierGregorian
PUBLIC 4dc8b8 0 NSBuddhistCalendar
PUBLIC 4dc8c0 0 NSCalendarIdentifierJapanese
PUBLIC 4dc8c8 0 NSCalendarIdentifierIslamic
PUBLIC 4dc8d0 0 NSCalendarIdentifierIslamicCivil
PUBLIC 4dc8d8 0 NSCalendarIdentifierIslamicUmmAlQura
PUBLIC 4dc8e0 0 NSCalendarIdentifierIslamicTabular
PUBLIC 4dc8e8 0 NSCalendarIdentifierHebrew
PUBLIC 4dc8f0 0 NSCalendarIdentifierChinese
PUBLIC 4dc8f8 0 NSCalendarIdentifierRepublicOfChina
PUBLIC 4dc900 0 NSCalendarIdentifierPersian
PUBLIC 4dc908 0 NSCalendarIdentifierIndian
PUBLIC 4dc910 0 NSCalendarIdentifierISO8601
PUBLIC 4dc918 0 NSCalendarIdentifierCoptic
PUBLIC 4dc920 0 NSCalendarIdentifierEthiopicAmeteMihret
PUBLIC 4dc928 0 NSCalendarIdentifierEthiopicAmeteAlem
PUBLIC 4dc930 0 __CFCanonicalNameList
PUBLIC 4dcc70 0 __CFISONameList
PUBLIC 4dccf0 0 __CFOtherNameList
PUBLIC 4dd040 0 __block_descriptor_tmp
PUBLIC 4dd070 0 __block_descriptor_tmp.52
PUBLIC 4dd0a0 0 __block_descriptor_tmp.61
PUBLIC 4dd0d0 0 __block_descriptor_tmp.65
PUBLIC 4dd100 0 __block_descriptor_tmp.70
PUBLIC 4dd130 0 __block_descriptor_tmp.110
PUBLIC 4dd160 0 __block_descriptor_tmp.118
PUBLIC 4dd180 0 __block_literal_global
PUBLIC 4dd1a0 0 __block_descriptor_tmp.121
PUBLIC 4dd1c0 0 __block_literal_global.122
PUBLIC 4dd1e0 0 __block_descriptor_tmp.126
PUBLIC 4dd210 0 __block_descriptor_tmp.129
PUBLIC 4dd240 0 __block_descriptor_tmp.135
PUBLIC 4dd270 0 __block_descriptor_tmp.142
PUBLIC 4dd2a0 0 __block_descriptor_tmp.145
PUBLIC 4dd2d0 0 __block_descriptor_tmp.149
PUBLIC 4dd300 0 __block_descriptor_tmp.153
PUBLIC 4dd330 0 __block_descriptor_tmp.167
PUBLIC 4dd360 0 __block_descriptor_tmp.172
PUBLIC 4dd390 0 __block_descriptor_tmp.277
PUBLIC 4dd3c0 0 __block_descriptor_tmp.297
PUBLIC 4dd3f0 0 __block_descriptor_tmp.301
PUBLIC 4dd420 0 __block_descriptor_tmp.307
PUBLIC 4dd450 0 __block_descriptor_tmp.314
PUBLIC 4dd480 0 __block_descriptor_tmp.318
PUBLIC 4dd4b0 0 __block_descriptor_tmp.326
PUBLIC 4dd4e0 0 __block_descriptor_tmp.331
PUBLIC 4dd500 0 __block_descriptor_tmp.343
PUBLIC 4dd520 0 __block_literal_global.344
PUBLIC 4dd540 0 __block_descriptor_tmp.350
PUBLIC 4dd560 0 __block_literal_global.351
PUBLIC 4dd580 0 __block_descriptor_tmp
PUBLIC 4dd5a0 0 __block_literal_global
PUBLIC 4dd5c0 0 NSURLNameKey
PUBLIC 4dd5c8 0 NSURLLocalizedNameKey
PUBLIC 4dd5d0 0 NSURLIsRegularFileKey
PUBLIC 4dd5d8 0 NSURLIsDirectoryKey
PUBLIC 4dd5e0 0 NSURLIsSymbolicLinkKey
PUBLIC 4dd5e8 0 NSURLIsVolumeKey
PUBLIC 4dd5f0 0 NSURLIsPackageKey
PUBLIC 4dd5f8 0 NSURLIsSystemImmutableKey
PUBLIC 4dd600 0 NSURLIsUserImmutableKey
PUBLIC 4dd608 0 NSURLIsHiddenKey
PUBLIC 4dd610 0 NSURLHasHiddenExtensionKey
PUBLIC 4dd618 0 NSURLCreationDateKey
PUBLIC 4dd620 0 NSURLContentAccessDateKey
PUBLIC 4dd628 0 NSURLContentModificationDateKey
PUBLIC 4dd630 0 NSURLAttributeModificationDateKey
PUBLIC 4dd638 0 NSURLLinkCountKey
PUBLIC 4dd640 0 NSURLParentDirectoryURLKey
PUBLIC 4dd648 0 NSURLVolumeURLKey
PUBLIC 4dd650 0 NSURLTypeIdentifierKey
PUBLIC 4dd658 0 NSURLLocalizedTypeDescriptionKey
PUBLIC 4dd660 0 NSURLLabelNumberKey
PUBLIC 4dd668 0 kCFURLLabelColorKey
PUBLIC 4dd670 0 NSURLLabelColorKey
PUBLIC 4dd678 0 NSURLLocalizedLabelKey
PUBLIC 4dd680 0 kCFURLEffectiveIconKey
PUBLIC 4dd688 0 NSURLEffectiveIconKey
PUBLIC 4dd690 0 kCFURLCustomIconKey
PUBLIC 4dd698 0 NSURLCustomIconKey
PUBLIC 4dd6a0 0 NSURLFileResourceIdentifierKey
PUBLIC 4dd6a8 0 NSURLVolumeIdentifierKey
PUBLIC 4dd6b0 0 NSURLPreferredIOBlockSizeKey
PUBLIC 4dd6b8 0 NSURLIsReadableKey
PUBLIC 4dd6c0 0 NSURLIsWritableKey
PUBLIC 4dd6c8 0 NSURLIsExecutableKey
PUBLIC 4dd6d0 0 NSURLFileResourceTypeKey
PUBLIC 4dd6d8 0 NSURLFileSizeKey
PUBLIC 4dd6e0 0 NSURLFileAllocatedSizeKey
PUBLIC 4dd6e8 0 NSURLIsAliasFileKey
PUBLIC 4dd6f0 0 NSURLFileProtectionKey
PUBLIC 4dd6f8 0 NSURLIsMountTriggerKey
PUBLIC 4dd700 0 NSURLTotalFileSizeKey
PUBLIC 4dd708 0 NSURLTotalFileAllocatedSizeKey
PUBLIC 4dd710 0 NSURLFileSecurityKey
PUBLIC 4dd718 0 NSURLIsExcludedFromBackupKey
PUBLIC 4dd720 0 NSURLTagNamesKey
PUBLIC 4dd728 0 NSURLCanonicalPathKey
PUBLIC 4dd730 0 NSURLGenerationIdentifierKey
PUBLIC 4dd738 0 NSURLDocumentIdentifierKey
PUBLIC 4dd740 0 NSURLAddedToDirectoryDateKey
PUBLIC 4dd748 0 NSURLQuarantinePropertiesKey
PUBLIC 4dd750 0 NSURLApplicationIsScriptableKey
PUBLIC 4dd758 0 NSURLVolumeLocalizedFormatDescriptionKey
PUBLIC 4dd760 0 NSURLVolumeTotalCapacityKey
PUBLIC 4dd768 0 NSURLVolumeAvailableCapacityKey
PUBLIC 4dd770 0 NSURLVolumeAvailableCapacityForImportantUsageKey
PUBLIC 4dd778 0 NSURLVolumeAvailableCapacityForOpportunisticUsageKey
PUBLIC 4dd780 0 NSURLVolumeResourceCountKey
PUBLIC 4dd788 0 NSURLVolumeSupportsPersistentIDsKey
PUBLIC 4dd790 0 NSURLVolumeSupportsSymbolicLinksKey
PUBLIC 4dd798 0 NSURLVolumeSupportsHardLinksKey
PUBLIC 4dd7a0 0 NSURLVolumeSupportsJournalingKey
PUBLIC 4dd7a8 0 NSURLVolumeIsJournalingKey
PUBLIC 4dd7b0 0 NSURLVolumeSupportsSparseFilesKey
PUBLIC 4dd7b8 0 NSURLVolumeSupportsZeroRunsKey
PUBLIC 4dd7c0 0 NSURLVolumeSupportsCaseSensitiveNamesKey
PUBLIC 4dd7c8 0 NSURLVolumeSupportsCasePreservedNamesKey
PUBLIC 4dd7d0 0 NSURLVolumeSupportsRootDirectoryDatesKey
PUBLIC 4dd7d8 0 NSURLVolumeSupportsVolumeSizesKey
PUBLIC 4dd7e0 0 NSURLVolumeSupportsRenamingKey
PUBLIC 4dd7e8 0 NSURLVolumeSupportsAdvisoryFileLockingKey
PUBLIC 4dd7f0 0 NSURLVolumeSupportsExtendedSecurityKey
PUBLIC 4dd7f8 0 NSURLVolumeIsBrowsableKey
PUBLIC 4dd800 0 NSURLVolumeMaximumFileSizeKey
PUBLIC 4dd808 0 NSURLVolumeIsInternalKey
PUBLIC 4dd810 0 NSURLVolumeIsEjectableKey
PUBLIC 4dd818 0 NSURLVolumeIsRemovableKey
PUBLIC 4dd820 0 NSURLVolumeIsAutomountedKey
PUBLIC 4dd828 0 NSURLVolumeIsLocalKey
PUBLIC 4dd830 0 NSURLVolumeIsReadOnlyKey
PUBLIC 4dd838 0 NSURLVolumeCreationDateKey
PUBLIC 4dd840 0 NSURLVolumeURLForRemountingKey
PUBLIC 4dd848 0 NSURLVolumeUUIDStringKey
PUBLIC 4dd850 0 NSURLVolumeNameKey
PUBLIC 4dd858 0 NSURLVolumeLocalizedNameKey
PUBLIC 4dd860 0 NSURLVolumeIsEncryptedKey
PUBLIC 4dd868 0 NSURLVolumeIsRootFileSystemKey
PUBLIC 4dd870 0 NSURLVolumeSupportsCompressionKey
PUBLIC 4dd878 0 NSURLVolumeSupportsFileCloningKey
PUBLIC 4dd880 0 NSURLVolumeSupportsSwapRenamingKey
PUBLIC 4dd888 0 NSURLVolumeSupportsExclusiveRenamingKey
PUBLIC 4dd890 0 NSURLVolumeSupportsImmutableFilesKey
PUBLIC 4dd898 0 NSURLVolumeSupportsAccessPermissionsKey
PUBLIC 4dd8a0 0 NSURLIsUbiquitousItemKey
PUBLIC 4dd8a8 0 NSURLUbiquitousItemHasUnresolvedConflictsKey
PUBLIC 4dd8b0 0 NSURLUbiquitousItemIsDownloadedKey
PUBLIC 4dd8b8 0 NSURLUbiquitousItemIsDownloadingKey
PUBLIC 4dd8c0 0 NSURLUbiquitousItemIsUploadedKey
PUBLIC 4dd8c8 0 NSURLUbiquitousItemPercentDownloadedKey
PUBLIC 4dd8d0 0 NSURLUbiquitousItemIsUploadingKey
PUBLIC 4dd8d8 0 NSURLUbiquitousItemPercentUploadedKey
PUBLIC 4dd8e0 0 NSURLUbiquitousItemDownloadingStatusKey
PUBLIC 4dd8e8 0 NSURLUbiquitousItemDownloadingErrorKey
PUBLIC 4dd8f0 0 NSURLUbiquitousItemUploadingErrorKey
PUBLIC 4dd8f8 0 NSURLUbiquitousItemContainerDisplayNameKey
PUBLIC 4dd900 0 NSURLUbiquitousItemDownloadRequestedKey
PUBLIC 4dd908 0 NSURLUbiquitousItemIsSharedKey
PUBLIC 4dd910 0 NSURLUbiquitousSharedItemCurrentUserRoleKey
PUBLIC 4dd918 0 NSURLUbiquitousSharedItemCurrentUserPermissionsKey
PUBLIC 4dd920 0 NSURLUbiquitousSharedItemOwnerNameComponentsKey
PUBLIC 4dd928 0 NSURLUbiquitousSharedItemMostRecentEditorNameComponentsKey
PUBLIC 4dd930 0 NSURLUbiquitousSharedItemRoleKey
PUBLIC 4dd938 0 NSURLUbiquitousSharedItemPermissionsKey
PUBLIC 4dd940 0 NSURLUbiquitousSharedItemOwnerNameKey
PUBLIC 4dd948 0 NSURLUbiquitousItemDownloadingStatusNotDownloaded
PUBLIC 4dd950 0 NSURLUbiquitousItemDownloadingStatusDownloaded
PUBLIC 4dd958 0 NSURLUbiquitousItemDownloadingStatusCurrent
PUBLIC 4dd960 0 NSURLUbiquitousSharedItemRoleOwner
PUBLIC 4dd968 0 NSURLUbiquitousSharedItemRoleParticipant
PUBLIC 4dd970 0 NSURLUbiquitousSharedItemPermissionsReadOnly
PUBLIC 4dd978 0 NSURLUbiquitousSharedItemPermissionsReadWrite
PUBLIC 4dd980 0 NSURLUbiquitousSharedItemReadOnlyPermissions
PUBLIC 4dd988 0 NSURLUbiquitousSharedItemReadWritePermissions
PUBLIC 4dd990 0 NSURLThumbnailDictionaryKey
PUBLIC 4dd998 0 NSURLThumbnailKey
PUBLIC 4dd9a0 0 NSThumbnail1024x1024SizeKey
PUBLIC 4dd9a8 0 NSURLKeysOfUnsetValuesKey
PUBLIC 4dd9b0 0 NSURLFileResourceTypeNamedPipe
PUBLIC 4dd9b8 0 NSURLFileResourceTypeCharacterSpecial
PUBLIC 4dd9c0 0 NSURLFileResourceTypeDirectory
PUBLIC 4dd9c8 0 NSURLFileResourceTypeBlockSpecial
PUBLIC 4dd9d0 0 NSURLFileResourceTypeRegular
PUBLIC 4dd9d8 0 NSURLFileResourceTypeSymbolicLink
PUBLIC 4dd9e0 0 NSURLFileResourceTypeSocket
PUBLIC 4dd9e8 0 NSURLFileResourceTypeUnknown
PUBLIC 4dd9f0 0 NSURLFileProtectionNone
PUBLIC 4dd9f8 0 NSURLFileProtectionComplete
PUBLIC 4dda00 0 NSURLFileProtectionCompleteUnlessOpen
PUBLIC 4dda08 0 NSURLFileProtectionCompleteUntilFirstUserAuthentication
PUBLIC 4dda10 0 NSURLPathKey
PUBLIC 4dda18 0 NSURLIsApplicationKey
PUBLIC 4dda20 0 _kCFURLVolumeIDKey
PUBLIC 4dda28 0 _kCFURLInodeNumberKey
PUBLIC 4dda30 0 _kCFURLFileIDKey
PUBLIC 4dda38 0 _kCFURLParentDirectoryIDKey
PUBLIC 4dda40 0 _kCFURLFilePathKey
PUBLIC 4dda48 0 _kCFURLNameExtensionKey
PUBLIC 4dda50 0 _kCFURLDistinctLocalizedNameKey
PUBLIC 4dda58 0 _kCFURLFinderInfoKey
PUBLIC 4dda60 0 _kCFURLIsUserNoDumpKey
PUBLIC 4dda68 0 _kCFURLIsUserAppendKey
PUBLIC 4dda70 0 _kCFURLIsUserOpaqueKey
PUBLIC 4dda78 0 _kCFURLIsCompressedKey
PUBLIC 4dda80 0 _kCFURLIsUserTrackedKey
PUBLIC 4dda88 0 _kCFURLIsUserDataVaultKey
PUBLIC 4dda90 0 _kCFURLIsSystemArchivedKey
PUBLIC 4dda98 0 _kCFURLIsSystemAppendKey
PUBLIC 4ddaa0 0 _kCFURLIsSystemNoUnlinkKey
PUBLIC 4ddaa8 0 _kCFURLIsRestrictedKey
PUBLIC 4ddab0 0 _kCFURLApplicationIsAppletKey
PUBLIC 4ddab8 0 _kCFURLApplicationHasSupportedFormatKey
PUBLIC 4ddac0 0 _kCFURLCanSetHiddenExtensionKey
PUBLIC 4ddac8 0 _kCFURLUserCanReadKey
PUBLIC 4ddad0 0 _kCFURLUserCanWriteKey
PUBLIC 4ddad8 0 _kCFURLUserCanExecuteKey
PUBLIC 4ddae0 0 _kCFURLParentDirectoryIsVolumeRootKey
PUBLIC 4ddae8 0 _kCFURLAccessControlListKey
PUBLIC 4ddaf0 0 _kCFURLFileSizeOfResourceForkKey
PUBLIC 4ddaf8 0 _kCFURLFileAllocatedSizeOfResourceForkKey
PUBLIC 4ddb00 0 _kCFURLEffectiveIconImageDataKey
PUBLIC 4ddb08 0 _kCFURLTypeBindingKey
PUBLIC 4ddb10 0 _kCFURLCustomIconImageDataKey
PUBLIC 4ddb18 0 _kCFURLEffectiveIconFlattenedReferenceDataKey
PUBLIC 4ddb20 0 _kCFURLBundleIdentifierKey
PUBLIC 4ddb28 0 _kCFURLVersionKey
PUBLIC 4ddb30 0 _kCFURLShortVersionStringKey
PUBLIC 4ddb38 0 _kCFURLVolumeRefNumKey
PUBLIC 4ddb40 0 _kCFURLVolumeDontBrowseKey
PUBLIC 4ddb48 0 _kCFURLVolumeIsQuarantinedKey
PUBLIC 4ddb50 0 _kCFURLVolumeIsInternalKey
PUBLIC 4ddb58 0 _kCFURLVolumeIsExternalKey
PUBLIC 4ddb60 0 _kCFURLVolumeIsDiskImageKey
PUBLIC 4ddb68 0 _kCFURLDiskImageBackingURLKey
PUBLIC 4ddb70 0 _kCFURLVolumeIsFileVaultKey
PUBLIC 4ddb78 0 _kCFURLVolumeIsiDiskKey
PUBLIC 4ddb80 0 _kCFURLVolumeiDiskUserNameKey
PUBLIC 4ddb88 0 _kCFURLVolumeIsLocaliDiskMirrorKey
PUBLIC 4ddb90 0 _kCFURLVolumeIsiPodKey
PUBLIC 4ddb98 0 _kCFURLVolumeIsCDKey
PUBLIC 4ddba0 0 _kCFURLVolumeIsDVDKey
PUBLIC 4ddba8 0 _kCFURLVolumeIsDeviceFileSystemKey
PUBLIC 4ddbb0 0 _kCFURLVolumeIsHFSStandardKey
PUBLIC 4ddbb8 0 _kCFURLVolumeIOMediaIconFamilyNameKey
PUBLIC 4ddbc0 0 _kCFURLVolumeIOMediaIconBundleIdentifierKey
PUBLIC 4ddbc8 0 _kCFURLVolumeMountPointStringKey
PUBLIC 4ddbd0 0 _kCFURLVolumeDeviceIDKey
PUBLIC 4ddbd8 0 _kCFURLVolumeIsTimeMachineKey
PUBLIC 4ddbe0 0 _kCFURLVolumeIsAirportKey
PUBLIC 4ddbe8 0 _kCFURLVolumeIsVideoDiskKey
PUBLIC 4ddbf0 0 _kCFURLVolumeIsDVDVideoKey
PUBLIC 4ddbf8 0 _kCFURLVolumeIsBDVideoKey
PUBLIC 4ddc00 0 _kCFURLVolumeIsMobileTimeMachineKey
PUBLIC 4ddc08 0 _kCFURLVolumeIsNetworkOpticalKey
PUBLIC 4ddc10 0 _kCFURLResolvedFromBookmarkDataKey
PUBLIC 4ddc18 0 _kCFURLOwnerIDKey
PUBLIC 4ddc20 0 _kCFURLGroupIDKey
PUBLIC 4ddc28 0 _kCFURLStatModeKey
PUBLIC 4ddc30 0 _kCFURLLocalizedNameDictionaryKey
PUBLIC 4ddc38 0 _kCFURLLocalizedNameWithExtensionsHiddenDictionaryKey
PUBLIC 4ddc40 0 _kCFURLLocalizedTypeDescriptionDictionaryKey
PUBLIC 4ddc48 0 _kCFURLApplicationCategoriesKey
PUBLIC 4ddc50 0 _kCFURLApplicationHighResolutionModeIsMagnifiedKey
PUBLIC 4ddc58 0 _kCFURLCanSetApplicationHighResolutionModeIsMagnifiedKey
PUBLIC 4ddc60 0 _kCFURLWriterBundleIdentifierKey
PUBLIC 4ddc68 0 _kCFURLApplicationNapIsDisabledKey
PUBLIC 4ddc70 0 _kCFURLCanSetApplicationNapIsDisabledKey
PUBLIC 4ddc78 0 _kCFURLVolumeQuarantinePropertiesKey
PUBLIC 4ddc80 0 _NSURLUbiquitousItemDownloadRequestedKey
PUBLIC 4ddc88 0 _NSURLCloudDocsPlaceholderDictionaryKey
PUBLIC 4ddc90 0 _NSURLCloudDocsPlaceholderLogicalNameKey
PUBLIC 4ddc98 0 _kCFURLVolumeOpenFolderURLKey
PUBLIC 4ddca0 0 _kCFURLCanSetStrongBindingKey
PUBLIC 4ddca8 0 _kCFURLStrongBindingKey
PUBLIC 4ddcb0 0 _kCFURLArchitecturesValidOnCurrentSystemKey
PUBLIC 4ddcb8 0 _kCFURLApplicationArchitecturesKey
PUBLIC 4ddcc0 0 _kCFURLFaultLogicalFileIsHiddenKey
PUBLIC 4ddcc8 0 _kCFURLPromisePhysicalURLKey
PUBLIC 4ddcd0 0 _kCFURLLocalizedNameComponentsKey
PUBLIC 4ddcd8 0 _kCFURLBookmarkURLStringKey
PUBLIC 4ddce0 0 kCFURLBookmarkOriginalPathKey
PUBLIC 4ddce8 0 kCFURLBookmarkOriginalRelativePathKey
PUBLIC 4ddcf0 0 kCFURLBookmarkOriginalRelativePathComponentsArrayKey
PUBLIC 4ddcf8 0 kCFURLBookmarkOriginalVolumeNameKey
PUBLIC 4ddd00 0 kCFURLBookmarkOriginalVolumeCreationDateKey
PUBLIC 4ddd08 0 kCFURLBookmarkFileProviderStringKey
PUBLIC 4ddd30 0 __block_descriptor_tmp
PUBLIC 4ddd50 0 __block_literal_global
PUBLIC 4ddd70 0 __block_descriptor_tmp.100
PUBLIC 4ddda0 0 __block_descriptor_tmp.128
PUBLIC 4dddc0 0 __block_literal_global.129
PUBLIC 4ddde0 0 __block_descriptor_tmp
PUBLIC 4dde00 0 __block_literal_global
PUBLIC 4dde20 0 __block_descriptor_tmp.3
PUBLIC 4dde40 0 __block_literal_global.4
PUBLIC 4dde60 0 __block_descriptor_tmp.6
PUBLIC 4dde80 0 __block_literal_global.7
PUBLIC 4ddea0 0 __block_descriptor_tmp.9
PUBLIC 4ddec0 0 __block_literal_global.10
PUBLIC 4ddee0 0 __block_descriptor_tmp.12
PUBLIC 4ddf00 0 __block_literal_global.13
PUBLIC 4ddf20 0 __block_descriptor_tmp.15
PUBLIC 4ddf40 0 __block_literal_global.16
PUBLIC 4ddf60 0 __block_descriptor_tmp.18
PUBLIC 4ddf80 0 __block_literal_global.19
PUBLIC 4ddfa0 0 __block_descriptor_tmp.21
PUBLIC 4ddfc0 0 __block_literal_global.22
PUBLIC 4ddfe0 0 __block_descriptor_tmp.24
PUBLIC 4de000 0 __block_literal_global.25
PUBLIC 4de020 0 __block_descriptor_tmp.27
PUBLIC 4de040 0 __block_literal_global.28
PUBLIC 4de060 0 __block_descriptor_tmp.30
PUBLIC 4de080 0 __block_literal_global.31
PUBLIC 4de0a0 0 __block_descriptor_tmp
PUBLIC 4de0c0 0 __block_literal_global
PUBLIC 4de0e0 0 __block_descriptor_tmp.3
PUBLIC 4de100 0 __block_literal_global.4
PUBLIC 4de120 0 __block_descriptor_tmp.6
PUBLIC 4de140 0 __block_literal_global.7
PUBLIC 4de160 0 __block_descriptor_tmp.9
PUBLIC 4de180 0 __block_literal_global.10
PUBLIC 4de1a0 0 __block_descriptor_tmp.12
PUBLIC 4de1c0 0 __block_literal_global.13
PUBLIC 4de1e0 0 __block_descriptor_tmp.15
PUBLIC 4de200 0 __block_literal_global.16
PUBLIC 4de220 0 __block_descriptor_tmp.18
PUBLIC 4de240 0 __block_literal_global.19
PUBLIC 4de260 0 __block_descriptor_tmp.21
PUBLIC 4de280 0 __block_literal_global.22
PUBLIC 4de2a0 0 __block_descriptor_tmp
PUBLIC 4de2d0 0 __block_descriptor_tmp.3
PUBLIC 4de300 0 __block_descriptor_tmp.36
PUBLIC 4de320 0 __CFBasicHashClass
PUBLIC 4de380 0 __block_descriptor_tmp.46
PUBLIC 4de3a0 0 __block_literal_global
PUBLIC 4de3c0 0 __block_descriptor_tmp.53
PUBLIC 4de3e0 0 __block_literal_global.54
PUBLIC 4de400 0 __block_descriptor_tmp
PUBLIC 4de420 0 __block_literal_global
PUBLIC 4de440 0 __block_descriptor_tmp
PUBLIC 4de460 0 __block_literal_global
PUBLIC 4de480 0 __block_descriptor_tmp
PUBLIC 4de4a0 0 __block_literal_global
PUBLIC 4de4c0 0 __block_descriptor_tmp.15
PUBLIC 4de4e0 0 __block_literal_global.16
PUBLIC 4de500 0 __block_descriptor_tmp
PUBLIC 4de530 0 __block_descriptor_tmp
PUBLIC 4de560 0 __block_descriptor_tmp.13
PUBLIC 4de590 0 __block_descriptor_tmp
PUBLIC 4de5b0 0 __block_literal_global
PUBLIC 4de5d0 0 CFFileSecurityGetTypeID.__CFFileSecurityClass
PUBLIC 4de630 0 __block_descriptor_tmp.128
PUBLIC 4de650 0 __block_literal_global.129
PUBLIC 4de670 0 __block_descriptor_tmp
PUBLIC 4de690 0 __block_literal_global
PUBLIC 4de6b0 0 __block_descriptor_tmp.5
PUBLIC 4de6e0 0 __block_descriptor_tmp.10
PUBLIC 4de700 0 __block_literal_global.11
PUBLIC 4de720 0 __block_descriptor_tmp.14
PUBLIC 4de750 0 __block_descriptor_tmp.17
PUBLIC 4de770 0 __block_literal_global.18
PUBLIC 4de790 0 __block_descriptor_tmp.22
PUBLIC 4de7c0 0 __block_descriptor_tmp.25
PUBLIC 4de7e0 0 __block_literal_global.26
PUBLIC 4de800 0 __block_descriptor_tmp.29
PUBLIC 4de830 0 __block_descriptor_tmp
PUBLIC 4de860 0 __block_descriptor_tmp.109
PUBLIC 4de880 0 __block_literal_global
PUBLIC 4de8a0 0 __block_descriptor_tmp
PUBLIC 4de8c0 0 __block_literal_global
PUBLIC 4de8e0 0 __block_descriptor_tmp
PUBLIC 4de900 0 __block_literal_global
PUBLIC 4de920 0 __block_descriptor_tmp.9
PUBLIC 4de940 0 __block_literal_global.10
PUBLIC 4de960 0 __block_descriptor_tmp.63
PUBLIC 4de990 0 __block_descriptor_tmp.67
PUBLIC 4de9c0 0 __block_descriptor_tmp.98
PUBLIC 4de9e0 0 __block_literal_global.99
PUBLIC 4dea00 0 __block_descriptor_tmp.100
PUBLIC 4dea20 0 __block_literal_global.101
PUBLIC 4dea40 0 __block_descriptor_tmp.111
PUBLIC 4dea70 0 __block_descriptor_tmp.117
PUBLIC 4deaa0 0 __block_descriptor_tmp.135
PUBLIC 4dead0 0 __block_descriptor_tmp.148
PUBLIC 4deb00 0 __block_descriptor_tmp.176
PUBLIC 4deb30 0 __block_descriptor_tmp.189
PUBLIC 4deb50 0 __block_literal_global.190
PUBLIC 4deb70 0 __block_descriptor_tmp.196
PUBLIC 4deba0 0 __block_descriptor_tmp.201
PUBLIC 4debc0 0 __block_literal_global.202
PUBLIC 4debe0 0 __block_descriptor_tmp.224
PUBLIC 4dec10 0 __block_descriptor_tmp.226
PUBLIC 4dec30 0 __block_descriptor_tmp.227
PUBLIC 4dec50 0 __block_literal_global.228
PUBLIC 4dec70 0 __block_descriptor_tmp.233
PUBLIC 4deca0 0 __block_descriptor_tmp.237
PUBLIC 4decd0 0 __block_descriptor_tmp.240
PUBLIC 4ded00 0 __block_descriptor_tmp.292
PUBLIC 4ded30 0 __block_descriptor_tmp.403
PUBLIC 4ded60 0 __block_descriptor_tmp.406
PUBLIC 4ded90 0 __block_descriptor_tmp.411
PUBLIC 4dedb0 0 __block_literal_global.412
PUBLIC 4dedd0 0 __block_descriptor_tmp.414
PUBLIC 4dedf0 0 __block_literal_global.415
PUBLIC 4dee10 0 __block_descriptor_tmp.436
PUBLIC 4dee30 0 __block_literal_global.437
PUBLIC 4dee50 0 __block_descriptor_tmp.441
PUBLIC 4dee80 0 __block_descriptor_tmp.443
PUBLIC 4deea0 0 __block_literal_global.444
PUBLIC 4deec0 0 __block_descriptor_tmp.447
PUBLIC 4deee0 0 __block_descriptor_tmp.457
PUBLIC 4def00 0 __block_literal_global.458
PUBLIC 4def20 0 __block_descriptor_tmp.459
PUBLIC 4def40 0 __block_literal_global.460
PUBLIC 4def60 0 __block_descriptor_tmp.465
PUBLIC 4def90 0 __block_descriptor_tmp.468
PUBLIC 4defb0 0 __block_literal_global.469
PUBLIC 4defd0 0 __block_descriptor_tmp.472
PUBLIC 4df000 0 __block_descriptor_tmp.474
PUBLIC 4df020 0 __block_literal_global.475
PUBLIC 4df040 0 __block_descriptor_tmp.476
PUBLIC 4df060 0 __block_literal_global.477
PUBLIC 4df080 0 __block_descriptor_tmp.480
PUBLIC 4df0b0 0 __block_descriptor_tmp.483
PUBLIC 4df0e0 0 __block_descriptor_tmp.484
PUBLIC 4df100 0 __block_literal_global.485
PUBLIC 4df120 0 __block_descriptor_tmp.487
PUBLIC 4df140 0 __block_descriptor_tmp.489
PUBLIC 4df160 0 __block_descriptor_tmp.491
PUBLIC 4df180 0 __block_descriptor_tmp.493
PUBLIC 4df1a0 0 __block_descriptor_tmp
PUBLIC 4df1c0 0 __block_literal_global
PUBLIC 4df1e0 0 __block_descriptor_tmp.54
PUBLIC 4df210 0 __block_descriptor_tmp.60
PUBLIC 4df240 0 __block_descriptor_tmp.66
PUBLIC 4df270 0 __block_descriptor_tmp.71
PUBLIC 4df2a0 0 __block_descriptor_tmp.102
PUBLIC 4df2d0 0 __block_descriptor_tmp.107
PUBLIC 4df300 0 __block_descriptor_tmp.132
PUBLIC 4df330 0 __block_descriptor_tmp.138
PUBLIC 4df360 0 __block_descriptor_tmp.148
PUBLIC 4df390 0 __block_descriptor_tmp.154
PUBLIC 4df3b0 0 __block_literal_global.155
PUBLIC 4df3d0 0 __block_descriptor_tmp.158
PUBLIC 4df400 0 __block_descriptor_tmp.165
PUBLIC 4df420 0 __block_descriptor_tmp.168
PUBLIC 4df440 0 __block_literal_global.169
PUBLIC 4df460 0 __block_descriptor_tmp.176
PUBLIC 4df480 0 __block_descriptor_tmp.182
PUBLIC 4df4b0 0 __block_descriptor_tmp.187
PUBLIC 4df4d0 0 __block_literal_global.188
PUBLIC 4df4f0 0 __block_descriptor_tmp.195
PUBLIC 4df510 0 __block_descriptor_tmp.205
PUBLIC 4df540 0 __block_descriptor_tmp.213
PUBLIC 4df570 0 __block_descriptor_tmp.222
PUBLIC 4df5a0 0 __block_descriptor_tmp.230
PUBLIC 4df5c0 0 __block_literal_global.231
PUBLIC 4df5e0 0 __block_descriptor_tmp.239
PUBLIC 4df610 0 __block_descriptor_tmp.241
PUBLIC 4df630 0 __block_literal_global.242
PUBLIC 4df650 0 __block_descriptor_tmp.245
PUBLIC 4df680 0 __block_descriptor_tmp.247
PUBLIC 4df6a0 0 __block_descriptor_tmp.250
PUBLIC 4df6d0 0 __block_descriptor_tmp.253
PUBLIC 4df700 0 __block_descriptor_tmp.257
PUBLIC 4df730 0 __block_descriptor_tmp.260
PUBLIC 4df760 0 __block_descriptor_tmp.297
PUBLIC 4df780 0 __block_literal_global.298
PUBLIC 4df7a0 0 __block_descriptor_tmp.303
PUBLIC 4df7c0 0 __block_literal_global.304
PUBLIC 4df7e0 0 __block_descriptor_tmp.305
PUBLIC 4df800 0 __block_literal_global.306
PUBLIC 4df820 0 _block_invoke.blackListedProcesses
PUBLIC 4df868 0 __block_descriptor_tmp.316
PUBLIC 4df888 0 __block_literal_global.317
PUBLIC 4df8a8 0 __block_descriptor_tmp.321
PUBLIC 4df8d8 0 __block_descriptor_tmp.323
PUBLIC 4df8f8 0 __block_literal_global.324
PUBLIC 4df918 0 __block_descriptor_tmp.329
PUBLIC 4df948 0 __block_descriptor_tmp.332
PUBLIC 4df978 0 __block_descriptor_tmp.337
PUBLIC 4df9a8 0 __block_descriptor_tmp.341
PUBLIC 4df9c8 0 __block_literal_global.342
PUBLIC 4df9e8 0 __block_descriptor_tmp.346
PUBLIC 4dfa18 0 __block_descriptor_tmp.350
PUBLIC 4dfa48 0 __block_descriptor_tmp.351
PUBLIC 4dfa68 0 __block_literal_global.352
PUBLIC 4dfa88 0 __block_descriptor_tmp.365
PUBLIC 4dfab8 0 kCFPreferencesCurrentApplication
PUBLIC 4dfac0 0 __block_descriptor_tmp
PUBLIC 4dfae0 0 __block_literal_global
PUBLIC 4dfb00 0 __block_descriptor_tmp.51
PUBLIC 4dfb20 0 __block_descriptor_tmp.53
PUBLIC 4dfb50 0 __block_descriptor_tmp.56
PUBLIC 4dfb80 0 __block_descriptor_tmp.65
PUBLIC 4dfbb0 0 __block_descriptor_tmp.73
PUBLIC 4dfbe0 0 __block_descriptor_tmp.78
PUBLIC 4dfc10 0 __block_descriptor_tmp.79
PUBLIC 4dfc30 0 __block_literal_global.80
PUBLIC 4dfc50 0 kCFPreferencesCurrentUser
PUBLIC 4dfc58 0 __block_descriptor_tmp.88
PUBLIC 4dfc88 0 kCFPreferencesAnyUser
PUBLIC 4dfc90 0 __block_descriptor_tmp.94
PUBLIC 4dfcc0 0 __block_descriptor_tmp.99
PUBLIC 4dfcf0 0 __block_descriptor_tmp.104
PUBLIC 4dfd20 0 kCFPreferencesCurrentHost
PUBLIC 4dfd28 0 __block_descriptor_tmp.110
PUBLIC 4dfd58 0 __block_descriptor_tmp.116
PUBLIC 4dfd88 0 __block_descriptor_tmp.123
PUBLIC 4dfdb8 0 __block_descriptor_tmp.127
PUBLIC 4dfdd8 0 __block_descriptor_tmp.130
PUBLIC 4dfe08 0 __block_descriptor_tmp.132
PUBLIC 4dfe28 0 __block_descriptor_tmp.135
PUBLIC 4dfe58 0 __block_descriptor_tmp.137
PUBLIC 4dfe78 0 kCFPreferencesAnyApplication
PUBLIC 4dfe80 0 __block_descriptor_tmp.142
PUBLIC 4dfea0 0 __block_descriptor_tmp.151
PUBLIC 4dfed0 0 __block_descriptor_tmp.155
PUBLIC 4dff00 0 __block_descriptor_tmp.159
PUBLIC 4dff30 0 __block_descriptor_tmp.166
PUBLIC 4dff60 0 __block_descriptor_tmp.173
PUBLIC 4dff90 0 __block_descriptor_tmp.177
PUBLIC 4dffc0 0 __block_descriptor_tmp.181
PUBLIC 4dfff0 0 __block_descriptor_tmp.184
PUBLIC 4e0020 0 __block_descriptor_tmp.187
PUBLIC 4e0050 0 __block_descriptor_tmp.194
PUBLIC 4e0080 0 __block_descriptor_tmp.198
PUBLIC 4e00a0 0 __block_descriptor_tmp.207
PUBLIC 4e00d0 0 __block_descriptor_tmp.209
PUBLIC 4e00f0 0 __block_descriptor_tmp.215
PUBLIC 4e0110 0 __block_descriptor_tmp.222
PUBLIC 4e0140 0 __block_descriptor_tmp.231
PUBLIC 4e0170 0 __block_descriptor_tmp.233
PUBLIC 4e0190 0 __block_descriptor_tmp.236
PUBLIC 4e01c0 0 __block_descriptor_tmp.239
PUBLIC 4e01f0 0 __block_descriptor_tmp.243
PUBLIC 4e0210 0 __block_descriptor_tmp.246
PUBLIC 4e0240 0 __block_descriptor_tmp.252
PUBLIC 4e0260 0 __block_descriptor_tmp.259
PUBLIC 4e0290 0 __block_descriptor_tmp.262
PUBLIC 4e02c0 0 __block_descriptor_tmp.265
PUBLIC 4e02f0 0 __block_descriptor_tmp.268
PUBLIC 4e0320 0 __block_descriptor_tmp.272
PUBLIC 4e0340 0 __block_descriptor_tmp.277
PUBLIC 4e0370 0 __block_descriptor_tmp.281
PUBLIC 4e0390 0 __block_descriptor_tmp.283
PUBLIC 4e03b0 0 __block_descriptor_tmp.286
PUBLIC 4e03e0 0 __block_descriptor_tmp.291
PUBLIC 4e0410 0 __block_descriptor_tmp.294
PUBLIC 4e0440 0 __block_descriptor_tmp.297
PUBLIC 4e0470 0 __block_descriptor_tmp.303
PUBLIC 4e0490 0 __block_descriptor_tmp.310
PUBLIC 4e04b0 0 __block_literal_global.311
PUBLIC 4e04d0 0 __block_descriptor_tmp.316
PUBLIC 4e0500 0 __block_descriptor_tmp.322
PUBLIC 4e0530 0 __block_descriptor_tmp.326
PUBLIC 4e0560 0 __block_descriptor_tmp.330
PUBLIC 4e0590 0 __block_descriptor_tmp.333
PUBLIC 4e05c0 0 __block_descriptor_tmp.338
PUBLIC 4e05f0 0 __block_descriptor_tmp.342
PUBLIC 4e0620 0 __block_descriptor_tmp.346
PUBLIC 4e0650 0 __block_descriptor_tmp.349
PUBLIC 4e0680 0 __block_descriptor_tmp.352
PUBLIC 4e06b0 0 __block_descriptor_tmp.354
PUBLIC 4e06d0 0 __block_descriptor_tmp.357
PUBLIC 4e0700 0 kCFPreferencesAnyHost
PUBLIC 4e0708 0 kCFManagedPreferencesMCXObjectName
PUBLIC 4e0710 0 kCFManagedPreferencesMCXNotificationName
PUBLIC 4e0718 0 kCFPreferencesDidChangeObject
PUBLIC 4e0720 0 kCFPreferencesDidChangeNotificationName
PUBLIC 4e0728 0 kCFPreferencesByteCountLimitReachedNotificationName
PUBLIC 4e0730 0 __block_descriptor_tmp.468
PUBLIC 4e0750 0 __block_descriptor_tmp.469
PUBLIC 4e0770 0 __block_literal_global.470
PUBLIC 4e0790 0 __block_descriptor_tmp.472
PUBLIC 4e07b0 0 __block_literal_global.473
PUBLIC 4e07d0 0 __block_descriptor_tmp.487
PUBLIC 4e07f0 0 __block_literal_global.488
PUBLIC 4e0810 0 __block_descriptor_tmp.495
PUBLIC 4e0840 0 __block_descriptor_tmp.558
PUBLIC 4e0860 0 __block_literal_global.559
PUBLIC 4e0880 0 __block_descriptor_tmp.564
PUBLIC 4e08a0 0 __block_literal_global.565
PUBLIC 4e08c0 0 __block_descriptor_tmp.566
PUBLIC 4e08e0 0 __block_literal_global.567
PUBLIC 4e0900 0 kCFPreferencesWebServicesProviderChangedNotificationName
PUBLIC 4e0908 0 kCFPreferencesWebServicesProviderTypeImageSearch
PUBLIC 4e0910 0 kCFPreferencesWebServicesProviderTypeMap
PUBLIC 4e0918 0 kCFPreferencesWebServicesProviderTypeWebSearch
PUBLIC 4e0920 0 kCFWebServicesProviderChangedNotificationName
PUBLIC 4e0928 0 kCFWebServicesTypeImageSearch
PUBLIC 4e0930 0 kCFWebServicesTypeMap
PUBLIC 4e0938 0 kCFWebServicesTypeWebSearch
PUBLIC 4e0940 0 kCFWebServicesProviderDefaultDisplayNameKey
PUBLIC 4e0948 0 kCFWebServicesProviderIdentifierKey
PUBLIC 4e0950 0 __block_descriptor_tmp
PUBLIC 4e0970 0 __block_literal_global
PUBLIC 4e0990 0 __block_descriptor_tmp.28
PUBLIC 4e09b0 0 __block_literal_global.29
PUBLIC 4e09d0 0 __block_descriptor_tmp
PUBLIC 4e0a00 0 __block_descriptor_tmp.42
PUBLIC 4e0a30 0 __block_descriptor_tmp.71
PUBLIC 4e0a50 0 __block_literal_global
PUBLIC 4e0a70 0 __block_descriptor_tmp.75
PUBLIC 4e0a90 0 __block_literal_global.76
PUBLIC 4e0ab0 0 __block_descriptor_tmp.78
PUBLIC 4e0ad0 0 __block_literal_global.79
PUBLIC 4e0af0 0 __block_descriptor_tmp.132
PUBLIC 4e0b10 0 __block_literal_global.133
PUBLIC 4e0b30 0 __block_descriptor_tmp.143
PUBLIC 4e0b60 0 __block_descriptor_tmp.146
PUBLIC 4e0b90 0 __block_descriptor_tmp.150
PUBLIC 4e0bb0 0 __block_literal_global.151
PUBLIC 4e0bd0 0 __block_descriptor_tmp
PUBLIC 4e0c00 0 __block_descriptor_tmp
PUBLIC 4e0c20 0 __block_literal_global
PUBLIC 4e0ca0 0 __block_descriptor_tmp
PUBLIC 4e0cc0 0 __block_literal_global
PUBLIC 4e0ce0 0 __block_descriptor_tmp.40
PUBLIC 4e0d00 0 __block_literal_global.41
PUBLIC 4e0d20 0 __block_descriptor_tmp.47
PUBLIC 4e0d40 0 __block_literal_global.48
PUBLIC 4e0d60 0 __block_descriptor_tmp.58
PUBLIC 4e0d90 0 __block_descriptor_tmp.62
PUBLIC 4e0db0 0 __block_descriptor_tmp.69
PUBLIC 4e0de0 0 __block_descriptor_tmp.74
PUBLIC 4e0e10 0 __block_descriptor_tmp.79
PUBLIC 4e0e30 0 __block_literal_global.80
PUBLIC 4e0e50 0 __block_descriptor_tmp.86
PUBLIC 4e0e70 0 __block_literal_global.87
PUBLIC 4e0e90 0 __block_descriptor_tmp.108
PUBLIC 4e0eb0 0 __block_descriptor_tmp.109
PUBLIC 4e0ed0 0 __block_literal_global.110
PUBLIC 4e0ef0 0 __block_descriptor_tmp.114
PUBLIC 4e0f20 0 __block_descriptor_tmp.116
PUBLIC 4e0f40 0 __block_literal_global.117
PUBLIC 4e0f60 0 __block_descriptor_tmp.120
PUBLIC 4e0f80 0 __block_descriptor_tmp
PUBLIC 4e0fb0 0 __block_descriptor_tmp
PUBLIC 4e0fd0 0 __block_literal_global
PUBLIC 4e0ff0 0 __block_descriptor_tmp.59
PUBLIC 4e1010 0 __block_literal_global.60
PUBLIC 4e1030 0 __block_descriptor_tmp.65
PUBLIC 4e1050 0 __block_literal_global.66
PUBLIC 4e1070 0 __block_descriptor_tmp.77
PUBLIC 4e10a0 0 __block_descriptor_tmp.81
PUBLIC 4e10d0 0 __block_descriptor_tmp.84
PUBLIC 4e1100 0 __block_descriptor_tmp.99
PUBLIC 4e1130 0 __block_descriptor_tmp.105
PUBLIC 4e1160 0 __block_descriptor_tmp.107
PUBLIC 4e1180 0 __block_literal_global.108
PUBLIC 4e11a0 0 __block_descriptor_tmp.111
PUBLIC 4e11d0 0 __block_descriptor_tmp.114
PUBLIC 4e1200 0 __block_descriptor_tmp.135
PUBLIC 4e1230 0 __block_descriptor_tmp.148
PUBLIC 4e1260 0 __block_descriptor_tmp.151
PUBLIC 4e1290 0 __block_descriptor_tmp.218
PUBLIC 4e12c0 0 __block_descriptor_tmp.227
PUBLIC 4e12f0 0 __block_descriptor_tmp.230
PUBLIC 4e1310 0 __block_literal_global.231
PUBLIC 4e1330 0 __block_descriptor_tmp.241
PUBLIC 4e1350 0 __block_literal_global.242
PUBLIC 4e1370 0 __block_descriptor_tmp
PUBLIC 4e13a0 0 compat_keys
PUBLIC 4e1498 0 __block_descriptor_tmp.13
PUBLIC 4e14b8 0 __block_literal_global
PUBLIC 4e14f8 0 __block_descriptor_tmp
PUBLIC 4e1518 0 __block_literal_global
PUBLIC 4e1538 0 __block_descriptor_tmp.29
PUBLIC 4e1558 0 __block_literal_global.30
PUBLIC 4e1578 0 __block_descriptor_tmp.58
PUBLIC 4e1598 0 __block_descriptor_tmp.59
PUBLIC 4e15b8 0 __block_descriptor_tmp.60
PUBLIC 4e15d8 0 __block_descriptor_tmp.62
PUBLIC 4e15f8 0 __block_literal_global.63
PUBLIC 4e1618 0 __block_descriptor_tmp.66
PUBLIC 4e1638 0 __block_literal_global.67
PUBLIC 5c6360 0 OBJC_EHTYPE_$_NSException
PUBLIC 5d72b8 0 OBJC_IVAR_$___NSOrderedSetI._used
PUBLIC 5d72c0 0 OBJC_IVAR_$___NSOrderedSetI._szidx
PUBLIC 5d72c8 0 OBJC_IVAR_$___NSOrderedSetI._list
PUBLIC 5d72d0 0 OBJC_IVAR_$__NSRefcountedPthreadMutex.lock
PUBLIC 5d72d8 0 OBJC_IVAR_$_NSTaggedPointerStringCStringContainer.cString
PUBLIC 5d72e0 0 OBJC_IVAR_$___NSArrayM.storage
PUBLIC 5d72e8 0 OBJC_IVAR_$___NSArrayM.cow
PUBLIC 5d72f0 0 OBJC_IVAR_$___NSFrozenArrayM.storage
PUBLIC 5d72f8 0 OBJC_IVAR_$___NSFrozenArrayM.cow
PUBLIC 5d7300 0 OBJC_IVAR_$___NSDictionaryI._used
PUBLIC 5d7308 0 OBJC_IVAR_$___NSDictionaryI._szidx
PUBLIC 5d7310 0 OBJC_IVAR_$___NSDictionaryI._list
PUBLIC 5d7318 0 OBJC_IVAR_$___NSSingleObjectSetI.element
PUBLIC 5d7320 0 OBJC_IVAR_$__CFXNotificationTokenRegistration._token
PUBLIC 5d7328 0 OBJC_IVAR_$__CFXNotificationTokenRegistration._options
PUBLIC 5d7330 0 OBJC_IVAR_$__CFXNotificationTokenRegistration._handler
PUBLIC 5d7338 0 OBJC_IVAR_$__CFXNotificationTokenRegistration._registered
PUBLIC 5d7340 0 OBJC_IVAR_$__CFXNotificationTokenQueueRegistration._queue
PUBLIC 5d7348 0 OBJC_IVAR_$__CFXNotificationDarwinTokenRegistration._notifyToken
PUBLIC 5d7350 0 OBJC_IVAR_$__CFXNotificationDarwinTokenQueueRegistration._queue
PUBLIC 5d7358 0 OBJC_IVAR_$__CFXNotificationDistributedTokenRegistration._connectionLock
PUBLIC 5d7360 0 OBJC_IVAR_$__CFXNotificationDistributedTokenRegistration._connection
PUBLIC 5d7368 0 OBJC_IVAR_$__CFXNotificationDistributedTokenQueueRegistration._queue
PUBLIC 5d7370 0 OBJC_IVAR_$_CFPDCFDataBuffer.data
PUBLIC 5d7378 0 OBJC_IVAR_$_CFPDPurgeableBuffer.allocSize
PUBLIC 5d7380 0 OBJC_IVAR_$_CFPDPurgeableBuffer.usedMalloc
PUBLIC 5d7388 0 OBJC_IVAR_$_CFPDPurgeableBuffer.handle
PUBLIC 5d7390 0 OBJC_IVAR_$_CFPDPurgeableBuffer.safe
PUBLIC 5d7398 0 OBJC_IVAR_$___NSSingleEntryDictionaryI._key
PUBLIC 5d73a0 0 OBJC_IVAR_$___NSSingleEntryDictionaryI._obj
PUBLIC 5d73a8 0 OBJC_IVAR_$___NSCFDictionary._cfinfo
PUBLIC 5d73b0 0 OBJC_IVAR_$___NSCFDictionary._rc
PUBLIC 5d73b8 0 OBJC_IVAR_$___NSCFDictionary._bits
PUBLIC 5d73c0 0 OBJC_IVAR_$___NSCFDictionary._callbacks
PUBLIC 5d73c8 0 OBJC_IVAR_$___NSCFDictionary._values
PUBLIC 5d73d0 0 OBJC_IVAR_$___NSCFDictionary._keys
PUBLIC 5d73d8 0 OBJC_IVAR_$__CFXNotificationRegistrar._wildcardNames
PUBLIC 5d73e0 0 OBJC_IVAR_$__CFXNotificationRegistrar._wildcardObjects
PUBLIC 5d73e8 0 OBJC_IVAR_$__CFXNotificationRegistrar._doubleWildcards
PUBLIC 5d73f0 0 OBJC_IVAR_$__CFXNotificationRegistrar._options
PUBLIC 5d73f8 0 OBJC_IVAR_$__CFXNotificationRegistrar._tokenRegistrations
PUBLIC 5d7400 0 OBJC_IVAR_$___CFNotification._name
PUBLIC 5d7408 0 OBJC_IVAR_$___CFNotification._object
PUBLIC 5d7410 0 OBJC_IVAR_$___CFNotification._userInfo
PUBLIC 5d7418 0 OBJC_IVAR_$___CFNotification._fouSemantics
PUBLIC 5d7420 0 OBJC_IVAR_$___CFNotification._dyingObject
PUBLIC 5d7428 0 OBJC_IVAR_$_NSRunLoop._rl
PUBLIC 5d7430 0 OBJC_IVAR_$_NSRunLoop._dperf
PUBLIC 5d7438 0 OBJC_IVAR_$_NSRunLoop._perft
PUBLIC 5d7440 0 OBJC_IVAR_$_NSRunLoop._info
PUBLIC 5d7448 0 OBJC_IVAR_$_NSRunLoop._ports
PUBLIC 5d7450 0 OBJC_IVAR_$_NSRunLoop._reserved
PUBLIC 5d7458 0 OBJC_IVAR_$___NSCFData._cfinfoa
PUBLIC 5d7460 0 OBJC_IVAR_$___NSCFData._length
PUBLIC 5d7468 0 OBJC_IVAR_$___NSCFData._capacity
PUBLIC 5d7470 0 OBJC_IVAR_$___NSCFData._bytesDeallocator
PUBLIC 5d7478 0 OBJC_IVAR_$___NSCFData._bytes
PUBLIC 5d7480 0 OBJC_IVAR_$__CFPasteboardEntry._flavorName
PUBLIC 5d7488 0 OBJC_IVAR_$__CFPasteboardEntry._itemIdentifier
PUBLIC 5d7490 0 OBJC_IVAR_$__CFPasteboardEntry._data
PUBLIC 5d7498 0 OBJC_IVAR_$__CFPasteboardEntry._uuid
PUBLIC 5d74a0 0 OBJC_IVAR_$__CFPasteboardEntry._shmem
PUBLIC 5d74a8 0 OBJC_IVAR_$__CFPasteboardEntry._promisor
PUBLIC 5d74b0 0 OBJC_IVAR_$__CFPasteboardEntry._asyncPromisor
PUBLIC 5d74b8 0 OBJC_IVAR_$__CFPasteboardEntry._promisorConnection
PUBLIC 5d74c0 0 OBJC_IVAR_$__CFPasteboardEntry._shmemLength
PUBLIC 5d74c8 0 OBJC_IVAR_$__CFPasteboardEntry._dataFlags
PUBLIC 5d74d0 0 OBJC_IVAR_$__CFPasteboardEntry._isPendingFlush
PUBLIC 5d74d8 0 OBJC_IVAR_$__CFPasteboardEntry._promiseState
PUBLIC 5d74e0 0 OBJC_IVAR_$__CFPasteboardEntry._isHidden
PUBLIC 5d74e8 0 OBJC_IVAR_$__CFPasteboardEntry._extensionConsumed
PUBLIC 5d74f0 0 OBJC_IVAR_$__CFPasteboardCache.generation
PUBLIC 5d74f8 0 OBJC_IVAR_$__CFPasteboardCache.changeCount
PUBLIC 5d7500 0 OBJC_IVAR_$__CFPasteboardCache.orderedEntries
PUBLIC 5d7508 0 OBJC_IVAR_$__CFPasteboardCache.entriesByItemIdentifier
PUBLIC 5d7510 0 OBJC_IVAR_$__CFPasteboardCache.indexesByItemIdentifier
PUBLIC 5d7518 0 OBJC_IVAR_$__CFPasteboardCache.itemArray
PUBLIC 5d7520 0 OBJC_IVAR_$__CFPasteboardPendingPromise._entry
PUBLIC 5d7528 0 OBJC_IVAR_$__CFPasteboardPendingPromise._pboard
PUBLIC 5d7530 0 OBJC_IVAR_$__CFPasteboardWeakRef.pboardWeakRef
PUBLIC 5d7538 0 OBJC_IVAR_$_CFPDCloudSource._configurationPath
PUBLIC 5d7540 0 OBJC_IVAR_$_CFPDCloudSource.cloudSource
PUBLIC 5d7548 0 OBJC_IVAR_$___NSOrderedSetReverseEnumerator._obj
PUBLIC 5d7550 0 OBJC_IVAR_$___NSOrderedSetReverseEnumerator._idx
PUBLIC 5d7558 0 OBJC_IVAR_$___NSOrderedSetReversed._orderedSet
PUBLIC 5d7560 0 OBJC_IVAR_$___NSOrderedSetReversed._cnt
PUBLIC 5d7568 0 OBJC_IVAR_$__CFXNotificationRegistrationBase._parent
PUBLIC 5d7570 0 OBJC_IVAR_$__CFXNotificationRegistrationBase._lock
PUBLIC 5d7578 0 OBJC_IVAR_$___NSSetI._used
PUBLIC 5d7580 0 OBJC_IVAR_$___NSSetI._szidx
PUBLIC 5d7588 0 OBJC_IVAR_$___NSSetI._list
PUBLIC 5d7590 0 OBJC_IVAR_$__CFPasteboardStore._name
PUBLIC 5d7598 0 OBJC_IVAR_$__CFPasteboardStore._cache
PUBLIC 5d75a0 0 OBJC_IVAR_$__CFPasteboardStore._queue
PUBLIC 5d75a8 0 OBJC_IVAR_$__CFPasteboardStore._clientInstancesWithCacheInfoForCurrentGeneration
PUBLIC 5d75b0 0 OBJC_IVAR_$__CFPasteboardStore._clientInstancesByUUID
PUBLIC 5d75b8 0 OBJC_IVAR_$__CFPasteboardStore._owner
PUBLIC 5d75c0 0 OBJC_IVAR_$__CFPasteboardStore._ownerHasPendingChanges
PUBLIC 5d75c8 0 OBJC_IVAR_$__CFGeneralPasteboardStore._localOnlyGeneration
PUBLIC 5d75d0 0 OBJC_IVAR_$__CFGeneralPasteboardStore._remotePasteboardCache
PUBLIC 5d75d8 0 OBJC_IVAR_$__CFGeneralPasteboardStore._remotePasteboardNotificationQueue
PUBLIC 5d75e0 0 OBJC_IVAR_$__CFDragPasteboardStore._nextUniquingNumbers
PUBLIC 5d75e8 0 OBJC_IVAR_$__CFDragPasteboardStore._sourceProcessID
PUBLIC 5d75f0 0 OBJC_IVAR_$__CFRemotePasteboardCache._state
PUBLIC 5d75f8 0 OBJC_IVAR_$__CFPasteboardClientInstanceID._conn
PUBLIC 5d7600 0 OBJC_IVAR_$__CFPasteboardClientInstanceID._uuid
PUBLIC 5d7608 0 OBJC_IVAR_$__NSRemotePasteboardFetchOperation._provider
PUBLIC 5d7610 0 OBJC_IVAR_$__NSRemotePasteboardFetchOperation._dataLock
PUBLIC 5d7618 0 OBJC_IVAR_$__NSRemotePasteboardFetchOperation._data
PUBLIC 5d7620 0 OBJC_IVAR_$__NSRemotePasteboardFetchOperation._error
PUBLIC 5d7628 0 OBJC_IVAR_$__NSRemotePasteboardFetchOperation._isExecuting
PUBLIC 5d7630 0 OBJC_IVAR_$__NSRemotePasteboardFetchOperation._isFinished
PUBLIC 5d7638 0 OBJC_IVAR_$__NSRemotePasteboardFetchOperation._nsOperationIvars
PUBLIC 5d7640 0 OBJC_IVAR_$__NSRemotePasteboardDataProvider._generation
PUBLIC 5d7648 0 OBJC_IVAR_$__NSRemotePasteboardDataProvider._itemIdentifier
PUBLIC 5d7650 0 OBJC_IVAR_$__NSRemotePasteboardDataProvider._flavorName
PUBLIC 5d7658 0 OBJC_IVAR_$__NSRemotePasteboardDataProvider._uuid
PUBLIC 5d7660 0 OBJC_IVAR_$__CFStreamDelegate._flags
PUBLIC 5d7668 0 OBJC_IVAR_$__CFStreamDelegate._cb
PUBLIC 5d7670 0 OBJC_IVAR_$__CFStreamDelegate._client
PUBLIC 5d7678 0 OBJC_IVAR_$__CFXNotificationRegistrationContainer._children
PUBLIC 5d7680 0 OBJC_IVAR_$___NSOrderedSetM._used
PUBLIC 5d7688 0 OBJC_IVAR_$___NSOrderedSetM._set
PUBLIC 5d7690 0 OBJC_IVAR_$___NSOrderedSetM._array
PUBLIC 5d7698 0 OBJC_IVAR_$_CFPrefsSource._lock
PUBLIC 5d76a0 0 OBJC_IVAR_$_CFPrefsSource.shmemEntry
PUBLIC 5d76a8 0 OBJC_IVAR_$_CFPrefsSource._containingPreferences
PUBLIC 5d76b0 0 OBJC_IVAR_$_CFPrefsSource._isSearchList
PUBLIC 5d76b8 0 OBJC_IVAR_$_CFPrefsSource._observers
PUBLIC 5d76c0 0 OBJC_IVAR_$_CFPrefsSource._dict
PUBLIC 5d76c8 0 OBJC_IVAR_$_CFPrefsSource._generationCount
PUBLIC 5d76d0 0 OBJC_IVAR_$_CFPrefsSource.lastKnownShmemState
PUBLIC 5d76d8 0 OBJC_IVAR_$___NSDate._time
PUBLIC 5d76e0 0 OBJC_IVAR_$__NSSharedKeySetS._numKey
PUBLIC 5d76e8 0 OBJC_IVAR_$__NSSharedKeySetS._keyLen
PUBLIC 5d76f0 0 OBJC_IVAR_$__NSSharedKeySetS._type
PUBLIC 5d76f8 0 OBJC_IVAR_$__NSSharedKeySetS._keys1
PUBLIC 5d7700 0 OBJC_IVAR_$__NSSharedKeySetS._keys2
PUBLIC 5d7708 0 OBJC_IVAR_$__NSSharedKeySetS._keys3
PUBLIC 5d7710 0 OBJC_IVAR_$__NSSharedKeySetS._seeds
PUBLIC 5d7718 0 OBJC_IVAR_$__NSSharedKeySetS._factor
PUBLIC 5d7720 0 OBJC_IVAR_$__NSSharedKeySetS._rankTable
PUBLIC 5d7728 0 OBJC_IVAR_$__NSSharedKeySetS._g
PUBLIC 5d7730 0 OBJC_IVAR_$__NSSharedKeySetS._select
PUBLIC 5d7738 0 OBJC_IVAR_$__NSSharedKeySetS._ckeys
PUBLIC 5d7740 0 OBJC_IVAR_$__NSSharedKeySetS._subSharedKeySet
PUBLIC 5d7748 0 OBJC_IVAR_$__NSSharedKeySetS._M
PUBLIC 5d7750 0 OBJC_IVAR_$__NSSharedKeySetS._c
PUBLIC 5d7758 0 OBJC_IVAR_$___NSSKGraphE._vertices
PUBLIC 5d7760 0 OBJC_IVAR_$___NSSKGraphE._edges
PUBLIC 5d7768 0 OBJC_IVAR_$___NSSKGraphE._numE
PUBLIC 5d7770 0 OBJC_IVAR_$___NSSKGraphE._numV
PUBLIC 5d7778 0 OBJC_IVAR_$___NSSKGraphE._currE
PUBLIC 5d7780 0 OBJC_IVAR_$___NSSKGraphE._l_end
PUBLIC 5d7788 0 OBJC_IVAR_$___NSSKGraphE._dump
PUBLIC 5d7790 0 OBJC_IVAR_$___NSFastEnumerationEnumerator._obj
PUBLIC 5d7798 0 OBJC_IVAR_$___NSFastEnumerationEnumerator._origObj
PUBLIC 5d77a0 0 OBJC_IVAR_$___NSFastEnumerationEnumerator._index
PUBLIC 5d77a8 0 OBJC_IVAR_$___NSFastEnumerationEnumerator._count
PUBLIC 5d77b0 0 OBJC_IVAR_$___NSFastEnumerationEnumerator._state
PUBLIC 5d77b8 0 OBJC_IVAR_$___NSFastEnumerationEnumerator._objects
PUBLIC 5d77c0 0 OBJC_IVAR_$___NSFastEnumerationEnumerator._mut
PUBLIC 5d77c8 0 OBJC_IVAR_$___NSSingleObjectEnumerator._theObjectToReturn
PUBLIC 5d77d0 0 OBJC_IVAR_$_NSException.name
PUBLIC 5d77d8 0 OBJC_IVAR_$_NSException.reason
PUBLIC 5d77e0 0 OBJC_IVAR_$_NSException.userInfo
PUBLIC 5d77e8 0 OBJC_IVAR_$_NSException.reserved
PUBLIC 5d77f0 0 OBJC_IVAR_$_NSMethodSignature._private
PUBLIC 5d77f8 0 OBJC_IVAR_$_NSMethodSignature._reserved
PUBLIC 5d7800 0 OBJC_IVAR_$_NSMethodSignature._flags
PUBLIC 5d7808 0 OBJC_IVAR_$___NSMessageBuilder._target
PUBLIC 5d7810 0 OBJC_IVAR_$___NSMessageBuilder._addr
PUBLIC 5d7818 0 OBJC_IVAR_$___NSMessageBuilder.isa
PUBLIC 5d7820 0 OBJC_IVAR_$_NSInvocation._signature
PUBLIC 5d7828 0 OBJC_IVAR_$_NSInvocation._container
PUBLIC 5d7830 0 OBJC_IVAR_$_NSInvocation._retdata
PUBLIC 5d7838 0 OBJC_IVAR_$_NSInvocation._frame
PUBLIC 5d7840 0 OBJC_IVAR_$_NSInvocation._retainedArgs
PUBLIC 5d7848 0 OBJC_IVAR_$_NSInvocation._reserved
PUBLIC 5d7850 0 OBJC_IVAR_$___NSArrayReversed._cnt
PUBLIC 5d7858 0 OBJC_IVAR_$___NSArrayReversed._array
PUBLIC 5d7860 0 OBJC_IVAR_$___NSArrayReverseEnumerator._obj
PUBLIC 5d7868 0 OBJC_IVAR_$___NSArrayReverseEnumerator._idx
PUBLIC 5d7870 0 OBJC_IVAR_$_CFPrefsCloudSource._configPath
PUBLIC 5d7878 0 OBJC_IVAR_$_CFPrefsCloudSource._storeName
PUBLIC 5d7880 0 OBJC_IVAR_$_CFPrefsCloudSource._enabled
PUBLIC 5d7888 0 OBJC_IVAR_$__NSZombie_.isa
PUBLIC 5d7890 0 OBJC_IVAR_$___NSAtom.isa
PUBLIC 5d7898 0 OBJC_IVAR_$___NSGenericDeallocHandler._block
PUBLIC 5d78a0 0 OBJC_IVAR_$___NSGenericDeallocHandler.isa
PUBLIC 5d78a8 0 OBJC_IVAR_$___NSSetM.storage
PUBLIC 5d78b0 0 OBJC_IVAR_$___NSSetM.cow
PUBLIC 5d78b8 0 OBJC_IVAR_$___NSFrozenSetM.storage
PUBLIC 5d78c0 0 OBJC_IVAR_$___NSFrozenSetM.cow
PUBLIC 5d78c8 0 OBJC_IVAR_$__NSCopyOnWriteCalendarWrapper.cal
PUBLIC 5d78d0 0 OBJC_IVAR_$__NSCopyOnWriteCalendarWrapper.needsToCopy
PUBLIC 5d78d8 0 OBJC_IVAR_$__NSCopyOnWriteCalendarWrapper._lock
PUBLIC 5d78e0 0 OBJC_IVAR_$__NSAutoCalendar._lock
PUBLIC 5d78e8 0 OBJC_IVAR_$__NSAutoCalendar.cal
PUBLIC 5d78f0 0 OBJC_IVAR_$__NSAutoCalendar.changedLocale
PUBLIC 5d78f8 0 OBJC_IVAR_$__NSAutoCalendar.changedTimeZone
PUBLIC 5d7900 0 OBJC_IVAR_$__NSAutoCalendar.changedFirstWeekday
PUBLIC 5d7908 0 OBJC_IVAR_$__NSAutoCalendar.changedMinimumDaysinFirstWeek
PUBLIC 5d7910 0 OBJC_IVAR_$__NSAutoCalendar.changedGregorianStartDate
PUBLIC 5d7918 0 OBJC_IVAR_$___NSTimeZone._name
PUBLIC 5d7920 0 OBJC_IVAR_$___NSTimeZone._data
PUBLIC 5d7928 0 OBJC_IVAR_$___NSTimeZone._lock
PUBLIC 5d7930 0 OBJC_IVAR_$___NSTimeZone._ucal
PUBLIC 5d7938 0 OBJC_IVAR_$___NSArrayI._used
PUBLIC 5d7940 0 OBJC_IVAR_$___NSArrayI._list
PUBLIC 5d7948 0 OBJC_IVAR_$___NSArrayI_Transfer._used
PUBLIC 5d7950 0 OBJC_IVAR_$___NSArrayI_Transfer._list
PUBLIC 5d7958 0 OBJC_IVAR_$_CFPrefsSearchListSource._identifier
PUBLIC 5d7960 0 OBJC_IVAR_$_CFPrefsSearchListSource._searchListLock
PUBLIC 5d7968 0 OBJC_IVAR_$_CFPrefsSearchListSource._sourceList
PUBLIC 5d7970 0 OBJC_IVAR_$_CFPrefsSearchListSource._cloudKeys
PUBLIC 5d7978 0 OBJC_IVAR_$_CFPrefsSearchListSource._standardSetTarget
PUBLIC 5d7980 0 OBJC_IVAR_$_CFPrefsSearchListSource._cloudSetTarget
PUBLIC 5d7988 0 OBJC_IVAR_$_CFPrefsSearchListSource._keysToSources
PUBLIC 5d7990 0 OBJC_IVAR_$_CFPrefsSearchListSource._cloudPrefixKeys
PUBLIC 5d7998 0 OBJC_IVAR_$_CFPrefsSearchListSource._isRebuildingCache
PUBLIC 5d79a0 0 OBJC_IVAR_$_CFPrefsSearchListSource.initialized
PUBLIC 5d79a8 0 OBJC_IVAR_$_NSURL._urlString
PUBLIC 5d79b0 0 OBJC_IVAR_$_NSURL._baseURL
PUBLIC 5d79b8 0 OBJC_IVAR_$_NSURL._clients
PUBLIC 5d79c0 0 OBJC_IVAR_$_NSURL._reserved
PUBLIC 5d79c8 0 OBJC_IVAR_$___NSBlockVariable.forwarding
PUBLIC 5d79d0 0 OBJC_IVAR_$___NSBlockVariable.flags
PUBLIC 5d79d8 0 OBJC_IVAR_$___NSBlockVariable.size
PUBLIC 5d79e0 0 OBJC_IVAR_$___NSBlockVariable.byref_keep
PUBLIC 5d79e8 0 OBJC_IVAR_$___NSBlockVariable.byref_destroy
PUBLIC 5d79f0 0 OBJC_IVAR_$___NSBlockVariable.containedObject
PUBLIC 5d79f8 0 OBJC_IVAR_$__CFXNotificationObserverRegistration._observer
PUBLIC 5d7a00 0 OBJC_IVAR_$__CFXNotificationObjcObserverRegistration._object
PUBLIC 5d7a08 0 OBJC_IVAR_$__CFXNotificationObjcObserverRegistration._useFallback
PUBLIC 5d7a10 0 OBJC_IVAR_$_NSCache._private
PUBLIC 5d7a18 0 OBJC_IVAR_$_NSCache._delegate
PUBLIC 5d7a20 0 OBJC_IVAR_$_NSCache._reserved
PUBLIC 5d7a28 0 OBJC_IVAR_$__CFXNotificationObjectRegistration._object
PUBLIC 5d7a30 0 OBJC_IVAR_$___NSFileSecurity._filesec
PUBLIC 5d7a38 0 OBJC_IVAR_$___NSSingleObjectArrayI._object
PUBLIC 5d7a40 0 OBJC_IVAR_$__CFXNotificationNameRegistration._name
PUBLIC 5d7a48 0 OBJC_IVAR_$_NSSharedKeyDictionary._count
PUBLIC 5d7a50 0 OBJC_IVAR_$_NSSharedKeyDictionary._sideDic
PUBLIC 5d7a58 0 OBJC_IVAR_$_NSSharedKeyDictionary._keyMap
PUBLIC 5d7a60 0 OBJC_IVAR_$_NSSharedKeyDictionary._ifkIMP
PUBLIC 5d7a68 0 OBJC_IVAR_$_NSSharedKeyDictionary._values
PUBLIC 5d7a70 0 OBJC_IVAR_$_NSSharedKeyDictionary._mutations
PUBLIC 5d7a78 0 OBJC_IVAR_$_NSSharedKeySet._numKey
PUBLIC 5d7a80 0 OBJC_IVAR_$_NSSharedKeySet._algorithmType
PUBLIC 5d7a88 0 OBJC_IVAR_$_NSSharedKeySet._keys
PUBLIC 5d7a90 0 OBJC_IVAR_$_NSSharedKeySet._seeds
PUBLIC 5d7a98 0 OBJC_IVAR_$_NSSharedKeySet._factor
PUBLIC 5d7aa0 0 OBJC_IVAR_$_NSSharedKeySet._rankTable
PUBLIC 5d7aa8 0 OBJC_IVAR_$_NSSharedKeySet._g
PUBLIC 5d7ab0 0 OBJC_IVAR_$_NSSharedKeySet._select
PUBLIC 5d7ab8 0 OBJC_IVAR_$_NSSharedKeySet._subSharedKeySet
PUBLIC 5d7ac0 0 OBJC_IVAR_$_NSSharedKeySet._M
PUBLIC 5d7ac8 0 OBJC_IVAR_$___NSSKGraph._vertices
PUBLIC 5d7ad0 0 OBJC_IVAR_$___NSSKGraph._edges
PUBLIC 5d7ad8 0 OBJC_IVAR_$___NSSKGraph._numE
PUBLIC 5d7ae0 0 OBJC_IVAR_$___NSSKGraph._numV
PUBLIC 5d7ae8 0 OBJC_IVAR_$___NSSKGraph._currE
PUBLIC 5d7af0 0 OBJC_IVAR_$___NSSKGraph._l_end
PUBLIC 5d7af8 0 OBJC_IVAR_$___NSSKGraph._dump
PUBLIC 5d7b00 0 OBJC_IVAR_$__CFPrefsObservationConnectionContext._observedSources
PUBLIC 5d7b08 0 OBJC_IVAR_$__CFPrefsSynchronizer._CFPrefsDirtySourcesLock
PUBLIC 5d7b10 0 OBJC_IVAR_$__CFPrefsSynchronizer._dirtySources
PUBLIC 5d7b18 0 OBJC_IVAR_$__CFPrefsSynchronizer._synchQueue
PUBLIC 5d7b20 0 OBJC_IVAR_$__CFPrefsSynchronizer._synchTimer
PUBLIC 5d7b28 0 OBJC_IVAR_$__CFPrefsSynchronizer._active
PUBLIC 5d7b30 0 OBJC_IVAR_$_CFPDSource._lock
PUBLIC 5d7b38 0 OBJC_IVAR_$_CFPDSource._dirty
PUBLIC 5d7b40 0 OBJC_IVAR_$_CFPDSource._handlingRequest
PUBLIC 5d7b48 0 OBJC_IVAR_$_CFPDSource._inProgressWriteGroup
PUBLIC 5d7b50 0 OBJC_IVAR_$_CFPDSource._plist
PUBLIC 5d7b58 0 OBJC_IVAR_$_CFPDSource._domain
PUBLIC 5d7b60 0 OBJC_IVAR_$_CFPDSource._userName
PUBLIC 5d7b68 0 OBJC_IVAR_$_CFPDSource._actualPath
PUBLIC 5d7b70 0 OBJC_IVAR_$_CFPDSource._watchingParentDirectory
PUBLIC 5d7b78 0 OBJC_IVAR_$_CFPDSource._pathToTemporaryFileToWriteTo
PUBLIC 5d7b80 0 OBJC_IVAR_$_CFPDSource._managed
PUBLIC 5d7b88 0 OBJC_IVAR_$_CFPDSource._managedUsesContainer
PUBLIC 5d7b90 0 OBJC_IVAR_$_CFPDSource._byHost
PUBLIC 5d7b98 0 OBJC_IVAR_$_CFPDSource._cfprefsd
PUBLIC 5d7ba0 0 OBJC_IVAR_$_CFPDSource._observingConnectionsLock
PUBLIC 5d7ba8 0 OBJC_IVAR_$_CFPDSource._generationShmemIndex
PUBLIC 5d7bb0 0 OBJC_IVAR_$_CFPDSource._lastEuid
PUBLIC 5d7bb8 0 OBJC_IVAR_$_CFPDSource._lastEgid
PUBLIC 5d7bc0 0 OBJC_IVAR_$_CFPDSource._disableBackup
PUBLIC 5d7bc8 0 OBJC_IVAR_$_CFPDSource._checkedForNonPrefsPlist
PUBLIC 5d7bd0 0 OBJC_IVAR_$_CFPDSource._neverCache
PUBLIC 5d7bd8 0 OBJC_IVAR_$_CFPDSource._observingConnections
PUBLIC 5d7be0 0 OBJC_IVAR_$_CFPDSource._pendingChangesQueue
PUBLIC 5d7be8 0 OBJC_IVAR_$_CFPDSource._pendingChangesSize
PUBLIC 5d7bf0 0 OBJC_IVAR_$_CFPDSource._hasDrainedPendingChangesSinceLastReplyToOwner
PUBLIC 5d7bf8 0 OBJC_IVAR_$_CFPDSource._hasPreviouslyBeenUnableToDetermineSandboxAccess
PUBLIC 5d7c00 0 OBJC_IVAR_$_CFPDSource._restrictedReadability
PUBLIC 5d7c08 0 OBJC_IVAR_$_CFPDSource._waitingForDeviceUnlock
PUBLIC 5d7c10 0 OBJC_IVAR_$_CFPDContainerSource._containerPath
PUBLIC 5d7c18 0 OBJC_IVAR_$_CFPDSourceLookUpKey.containerPath
PUBLIC 5d7c20 0 OBJC_IVAR_$_CFPDSourceLookUpKey.cloudPath
PUBLIC 5d7c28 0 OBJC_IVAR_$_CFPDSourceLookUpKey.domain
PUBLIC 5d7c30 0 OBJC_IVAR_$_CFPDSourceLookUpKey.userName
PUBLIC 5d7c38 0 OBJC_IVAR_$_CFPDSourceLookUpKey.byHost
PUBLIC 5d7c40 0 OBJC_IVAR_$_CFPDSourceLookUpKey.managed
PUBLIC 5d7c48 0 OBJC_IVAR_$_CFPDSourceLookUpKey.managedUsesContainer
PUBLIC 5d7c50 0 OBJC_IVAR_$_CFPDSourceLookUpKey.cloud
PUBLIC 5d7c58 0 OBJC_IVAR_$___NSOrderedSetArrayProxy._orderedSet
PUBLIC 5d7c60 0 OBJC_IVAR_$___NSOrderedSetSetProxy._orderedSet
PUBLIC 5d7c68 0 OBJC_IVAR_$__CFPrefsClientContext._cfprefsd
PUBLIC 5d7c70 0 OBJC_IVAR_$__CFPrefsClientContext._readPermissionsCache
PUBLIC 5d7c78 0 OBJC_IVAR_$__CFPrefsClientContext._writePermissionsCache
PUBLIC 5d7c80 0 OBJC_IVAR_$__CFPrefsClientContext._suiteCache
PUBLIC 5d7c88 0 OBJC_IVAR_$__CFPrefsClientContext._ownedSources
PUBLIC 5d7c90 0 OBJC_IVAR_$__CFPrefsClientContext._entitlements
PUBLIC 5d7c98 0 OBJC_IVAR_$__CFPrefsClientContext._sandboxed
PUBLIC 5d7ca0 0 OBJC_IVAR_$__CFPrefsClientContext._lock
PUBLIC 5d7ca8 0 OBJC_IVAR_$__CFPrefsClientContext._token
PUBLIC 5d7cb0 0 OBJC_IVAR_$__CFPrefsClientContext._isPlatformBinary
PUBLIC 5d7cb8 0 OBJC_IVAR_$_CFPrefsDaemon._testMode
PUBLIC 5d7cc0 0 OBJC_IVAR_$_CFPrefsDaemon._role
PUBLIC 5d7cc8 0 OBJC_IVAR_$_CFPrefsDaemon._name
PUBLIC 5d7cd0 0 OBJC_IVAR_$_CFPrefsDaemon._sourceCacheLock
PUBLIC 5d7cd8 0 OBJC_IVAR_$_CFPrefsDaemon._sourceCache
PUBLIC 5d7ce0 0 OBJC_IVAR_$_CFPrefsDaemon._listener
PUBLIC 5d7ce8 0 OBJC_IVAR_$_CFPrefsDaemon._agentQueue
PUBLIC 5d7cf0 0 OBJC_IVAR_$_CFPrefsDaemon._agentConnections
PUBLIC 5d7cf8 0 OBJC_IVAR_$_CFPrefsDaemon._shmem
PUBLIC 5d7d00 0 OBJC_IVAR_$_NSUserDefaults._identifier_
PUBLIC 5d7d08 0 OBJC_IVAR_$_NSUserDefaults._container_
PUBLIC 5d7d10 0 OBJC_IVAR_$_NSUserDefaults._kvo_
PUBLIC 5d7d18 0 OBJC_IVAR_$_NSUserDefaults._reserved
PUBLIC 5d7d20 0 OBJC_IVAR_$__CFXPreferencesHandle.prefs
PUBLIC 5d7d28 0 OBJC_IVAR_$__CFXPreferencesHandle.lock
PUBLIC 5d7d30 0 OBJC_IVAR_$__CFXPreferencesHandle.overrideEUID
PUBLIC 5d7d38 0 OBJC_IVAR_$__CFXPreferences._euid
