MODULE mac x86_64 7D3DACCC3804393CABC11A580FD00CB60 libc++.dylib
PUBLIC f40 0 void std::__1::__sort<std::__1::__less<char, char>&, char*>(char*, char*, std::__1::__less<char, char>&)
PUBLIC 1238 0 unsigned int std::__1::__sort3<std::__1::__less<signed char, signed char>&, signed char*>(signed char*, signed char*, signed char*, std::__1::__less<signed char, signed char>&)
PUBLIC 1240 0 unsigned int std::__1::__sort3<std::__1::__less<char, char>&, char*>(char*, char*, char*, std::__1::__less<char, char>&)
PUBLIC 12a7 0 unsigned int std::__1::__sort4<std::__1::__less<signed char, signed char>&, signed char*>(signed char*, signed char*, signed char*, signed char*, std::__1::__less<signed char, signed char>&)
PUBLIC 12af 0 unsigned int std::__1::__sort4<std::__1::__less<char, char>&, char*>(char*, char*, char*, char*, std::__1::__less<char, char>&)
PUBLIC 1319 0 unsigned int std::__1::__sort5<std::__1::__less<signed char, signed char>&, signed char*>(signed char*, signed char*, signed char*, signed char*, signed char*, std::__1::__less<signed char, signed char>&)
PUBLIC 1321 0 unsigned int std::__1::__sort5<std::__1::__less<char, char>&, char*>(char*, char*, char*, char*, char*, std::__1::__less<char, char>&)
PUBLIC 13b0 0 void std::__1::__insertion_sort_3<std::__1::__less<signed char, signed char>&, signed char*>(signed char*, signed char*, std::__1::__less<signed char, signed char>&)
PUBLIC 13b8 0 void std::__1::__insertion_sort_3<std::__1::__less<char, char>&, char*>(char*, char*, std::__1::__less<char, char>&)
PUBLIC 1431 0 bool std::__1::__insertion_sort_incomplete<std::__1::__less<char, char>&, char*>(char*, char*, std::__1::__less<char, char>&)
PUBLIC 1578 0 void std::__1::__sort<std::__1::__less<wchar_t, wchar_t>&, wchar_t*>(wchar_t*, wchar_t*, std::__1::__less<wchar_t, wchar_t>&)
PUBLIC 18a4 0 unsigned int std::__1::__sort3<std::__1::__less<int, int>&, int*>(int*, int*, int*, std::__1::__less<int, int>&)
PUBLIC 1903 0 unsigned int std::__1::__sort4<std::__1::__less<int, int>&, int*>(int*, int*, int*, int*, std::__1::__less<int, int>&)
PUBLIC 1965 0 unsigned int std::__1::__sort5<std::__1::__less<int, int>&, int*>(int*, int*, int*, int*, int*, std::__1::__less<int, int>&)
PUBLIC 19ec 0 void std::__1::__insertion_sort_3<std::__1::__less<int, int>&, int*>(int*, int*, std::__1::__less<int, int>&)
PUBLIC 1a67 0 bool std::__1::__insertion_sort_incomplete<std::__1::__less<wchar_t, wchar_t>&, wchar_t*>(wchar_t*, wchar_t*, std::__1::__less<wchar_t, wchar_t>&)
PUBLIC 1bb8 0 void std::__1::__sort<std::__1::__less<signed char, signed char>&, signed char*>(signed char*, signed char*, std::__1::__less<signed char, signed char>&)
PUBLIC 1ea9 0 bool std::__1::__insertion_sort_incomplete<std::__1::__less<signed char, signed char>&, signed char*>(signed char*, signed char*, std::__1::__less<signed char, signed char>&)
PUBLIC 1ff0 0 void std::__1::__sort<std::__1::__less<unsigned char, unsigned char>&, unsigned char*>(unsigned char*, unsigned char*, std::__1::__less<unsigned char, unsigned char>&)
PUBLIC 22e0 0 unsigned int std::__1::__sort3<std::__1::__less<unsigned char, unsigned char>&, unsigned char*>(unsigned char*, unsigned char*, unsigned char*, std::__1::__less<unsigned char, unsigned char>&)
PUBLIC 233f 0 unsigned int std::__1::__sort4<std::__1::__less<unsigned char, unsigned char>&, unsigned char*>(unsigned char*, unsigned char*, unsigned char*, unsigned char*, std::__1::__less<unsigned char, unsigned char>&)
PUBLIC 23a1 0 unsigned int std::__1::__sort5<std::__1::__less<unsigned char, unsigned char>&, unsigned char*>(unsigned char*, unsigned char*, unsigned char*, unsigned char*, unsigned char*, std::__1::__less<unsigned char, unsigned char>&)
PUBLIC 2428 0 void std::__1::__insertion_sort_3<std::__1::__less<unsigned char, unsigned char>&, unsigned char*>(unsigned char*, unsigned char*, std::__1::__less<unsigned char, unsigned char>&)
PUBLIC 24a1 0 bool std::__1::__insertion_sort_incomplete<std::__1::__less<unsigned char, unsigned char>&, unsigned char*>(unsigned char*, unsigned char*, std::__1::__less<unsigned char, unsigned char>&)
PUBLIC 25e8 0 void std::__1::__sort<std::__1::__less<short, short>&, short*>(short*, short*, std::__1::__less<short, short>&)
PUBLIC 292c 0 unsigned int std::__1::__sort3<std::__1::__less<short, short>&, short*>(short*, short*, short*, std::__1::__less<short, short>&)
PUBLIC 29a0 0 unsigned int std::__1::__sort4<std::__1::__less<short, short>&, short*>(short*, short*, short*, short*, std::__1::__less<short, short>&)
PUBLIC 2a11 0 unsigned int std::__1::__sort5<std::__1::__less<short, short>&, short*>(short*, short*, short*, short*, short*, std::__1::__less<short, short>&)
PUBLIC 2aac 0 void std::__1::__insertion_sort_3<std::__1::__less<short, short>&, short*>(short*, short*, std::__1::__less<short, short>&)
PUBLIC 2b2e 0 bool std::__1::__insertion_sort_incomplete<std::__1::__less<short, short>&, short*>(short*, short*, std::__1::__less<short, short>&)
PUBLIC 2c88 0 void std::__1::__sort<std::__1::__less<unsigned short, unsigned short>&, unsigned short*>(unsigned short*, unsigned short*, std::__1::__less<unsigned short, unsigned short>&)
PUBLIC 2fcc 0 unsigned int std::__1::__sort3<std::__1::__less<unsigned short, unsigned short>&, unsigned short*>(unsigned short*, unsigned short*, unsigned short*, std::__1::__less<unsigned short, unsigned short>&)
PUBLIC 3040 0 unsigned int std::__1::__sort4<std::__1::__less<unsigned short, unsigned short>&, unsigned short*>(unsigned short*, unsigned short*, unsigned short*, unsigned short*, std::__1::__less<unsigned short, unsigned short>&)
PUBLIC 30b1 0 unsigned int std::__1::__sort5<std::__1::__less<unsigned short, unsigned short>&, unsigned short*>(unsigned short*, unsigned short*, unsigned short*, unsigned short*, unsigned short*, std::__1::__less<unsigned short, unsigned short>&)
PUBLIC 314c 0 void std::__1::__insertion_sort_3<std::__1::__less<unsigned short, unsigned short>&, unsigned short*>(unsigned short*, unsigned short*, std::__1::__less<unsigned short, unsigned short>&)
PUBLIC 31ce 0 bool std::__1::__insertion_sort_incomplete<std::__1::__less<unsigned short, unsigned short>&, unsigned short*>(unsigned short*, unsigned short*, std::__1::__less<unsigned short, unsigned short>&)
PUBLIC 3328 0 void std::__1::__sort<std::__1::__less<int, int>&, int*>(int*, int*, std::__1::__less<int, int>&)
PUBLIC 3657 0 bool std::__1::__insertion_sort_incomplete<std::__1::__less<int, int>&, int*>(int*, int*, std::__1::__less<int, int>&)
PUBLIC 37a8 0 void std::__1::__sort<std::__1::__less<unsigned int, unsigned int>&, unsigned int*>(unsigned int*, unsigned int*, std::__1::__less<unsigned int, unsigned int>&)
PUBLIC 3ad4 0 unsigned int std::__1::__sort3<std::__1::__less<unsigned int, unsigned int>&, unsigned int*>(unsigned int*, unsigned int*, unsigned int*, std::__1::__less<unsigned int, unsigned int>&)
PUBLIC 3b33 0 unsigned int std::__1::__sort4<std::__1::__less<unsigned int, unsigned int>&, unsigned int*>(unsigned int*, unsigned int*, unsigned int*, unsigned int*, std::__1::__less<unsigned int, unsigned int>&)
PUBLIC 3b95 0 unsigned int std::__1::__sort5<std::__1::__less<unsigned int, unsigned int>&, unsigned int*>(unsigned int*, unsigned int*, unsigned int*, unsigned int*, unsigned int*, std::__1::__less<unsigned int, unsigned int>&)
PUBLIC 3c1c 0 void std::__1::__insertion_sort_3<std::__1::__less<unsigned int, unsigned int>&, unsigned int*>(unsigned int*, unsigned int*, std::__1::__less<unsigned int, unsigned int>&)
PUBLIC 3c97 0 bool std::__1::__insertion_sort_incomplete<std::__1::__less<unsigned int, unsigned int>&, unsigned int*>(unsigned int*, unsigned int*, std::__1::__less<unsigned int, unsigned int>&)
PUBLIC 3de8 0 void std::__1::__sort<std::__1::__less<long, long>&, long*>(long*, long*, std::__1::__less<long, long>&)
PUBLIC 4130 0 unsigned int std::__1::__sort3<std::__1::__less<long long, long long>&, long long*>(long long*, long long*, long long*, std::__1::__less<long long, long long>&)
PUBLIC 4199 0 unsigned int std::__1::__sort4<std::__1::__less<long long, long long>&, long long*>(long long*, long long*, long long*, long long*, std::__1::__less<long long, long long>&)
PUBLIC 4202 0 unsigned int std::__1::__sort5<std::__1::__less<long long, long long>&, long long*>(long long*, long long*, long long*, long long*, long long*, std::__1::__less<long long, long long>&)
PUBLIC 4291 0 void std::__1::__insertion_sort_3<std::__1::__less<long long, long long>&, long long*>(long long*, long long*, std::__1::__less<long long, long long>&)
PUBLIC 4311 0 bool std::__1::__insertion_sort_incomplete<std::__1::__less<long, long>&, long*>(long*, long*, std::__1::__less<long, long>&)
PUBLIC 4468 0 void std::__1::__sort<std::__1::__less<unsigned long, unsigned long>&, unsigned long*>(unsigned long*, unsigned long*, std::__1::__less<unsigned long, unsigned long>&)
PUBLIC 47b0 0 unsigned int std::__1::__sort3<std::__1::__less<unsigned long long, unsigned long long>&, unsigned long long*>(unsigned long long*, unsigned long long*, unsigned long long*, std::__1::__less<unsigned long long, unsigned long long>&)
PUBLIC 4819 0 unsigned int std::__1::__sort4<std::__1::__less<unsigned long long, unsigned long long>&, unsigned long long*>(unsigned long long*, unsigned long long*, unsigned long long*, unsigned long long*, std::__1::__less<unsigned long long, unsigned long long>&)
PUBLIC 4882 0 unsigned int std::__1::__sort5<std::__1::__less<unsigned long long, unsigned long long>&, unsigned long long*>(unsigned long long*, unsigned long long*, unsigned long long*, unsigned long long*, unsigned long long*, std::__1::__less<unsigned long long, unsigned long long>&)
PUBLIC 4911 0 void std::__1::__insertion_sort_3<std::__1::__less<unsigned long long, unsigned long long>&, unsigned long long*>(unsigned long long*, unsigned long long*, std::__1::__less<unsigned long long, unsigned long long>&)
PUBLIC 4991 0 bool std::__1::__insertion_sort_incomplete<std::__1::__less<unsigned long, unsigned long>&, unsigned long*>(unsigned long*, unsigned long*, std::__1::__less<unsigned long, unsigned long>&)
PUBLIC 4ae8 0 void std::__1::__sort<std::__1::__less<long long, long long>&, long long*>(long long*, long long*, std::__1::__less<long long, long long>&)
PUBLIC 4e31 0 bool std::__1::__insertion_sort_incomplete<std::__1::__less<long long, long long>&, long long*>(long long*, long long*, std::__1::__less<long long, long long>&)
PUBLIC 4f88 0 void std::__1::__sort<std::__1::__less<unsigned long long, unsigned long long>&, unsigned long long*>(unsigned long long*, unsigned long long*, std::__1::__less<unsigned long long, unsigned long long>&)
PUBLIC 52d1 0 bool std::__1::__insertion_sort_incomplete<std::__1::__less<unsigned long long, unsigned long long>&, unsigned long long*>(unsigned long long*, unsigned long long*, std::__1::__less<unsigned long long, unsigned long long>&)
PUBLIC 5428 0 void std::__1::__sort<std::__1::__less<float, float>&, float*>(float*, float*, std::__1::__less<float, float>&)
PUBLIC 578c 0 unsigned int std::__1::__sort3<std::__1::__less<float, float>&, float*>(float*, float*, float*, std::__1::__less<float, float>&)
PUBLIC 5805 0 unsigned int std::__1::__sort4<std::__1::__less<float, float>&, float*>(float*, float*, float*, float*, std::__1::__less<float, float>&)
PUBLIC 5882 0 unsigned int std::__1::__sort5<std::__1::__less<float, float>&, float*>(float*, float*, float*, float*, float*, std::__1::__less<float, float>&)
PUBLIC 592d 0 void std::__1::__insertion_sort_3<std::__1::__less<float, float>&, float*>(float*, float*, std::__1::__less<float, float>&)
PUBLIC 59b1 0 bool std::__1::__insertion_sort_incomplete<std::__1::__less<float, float>&, float*>(float*, float*, std::__1::__less<float, float>&)
PUBLIC 5b10 0 void std::__1::__sort<std::__1::__less<double, double>&, double*>(double*, double*, std::__1::__less<double, double>&)
PUBLIC 5e84 0 unsigned int std::__1::__sort3<std::__1::__less<double, double>&, double*>(double*, double*, double*, std::__1::__less<double, double>&)
PUBLIC 5f02 0 unsigned int std::__1::__sort4<std::__1::__less<double, double>&, double*>(double*, double*, double*, double*, std::__1::__less<double, double>&)
PUBLIC 5f82 0 unsigned int std::__1::__sort5<std::__1::__less<double, double>&, double*>(double*, double*, double*, double*, double*, std::__1::__less<double, double>&)
PUBLIC 6031 0 void std::__1::__insertion_sort_3<std::__1::__less<double, double>&, double*>(double*, double*, std::__1::__less<double, double>&)
PUBLIC 60b9 0 bool std::__1::__insertion_sort_incomplete<std::__1::__less<double, double>&, double*>(double*, double*, std::__1::__less<double, double>&)
PUBLIC 6220 0 void std::__1::__sort<std::__1::__less<long double, long double>&, long double*>(long double*, long double*, std::__1::__less<long double, long double>&)
PUBLIC 65c8 0 unsigned int std::__1::__sort3<std::__1::__less<long double, long double>&, long double*>(long double*, long double*, long double*, std::__1::__less<long double, long double>&)
PUBLIC 6652 0 unsigned int std::__1::__sort4<std::__1::__less<long double, long double>&, long double*>(long double*, long double*, long double*, long double*, std::__1::__less<long double, long double>&)
PUBLIC 66ca 0 unsigned int std::__1::__sort5<std::__1::__less<long double, long double>&, long double*>(long double*, long double*, long double*, long double*, long double*, std::__1::__less<long double, long double>&)
PUBLIC 676d 0 void std::__1::__insertion_sort_3<std::__1::__less<long double, long double>&, long double*>(long double*, long double*, std::__1::__less<long double, long double>&)
PUBLIC 67f4 0 bool std::__1::__insertion_sort_incomplete<std::__1::__less<long double, long double>&, long double*>(long double*, long double*, std::__1::__less<long double, long double>&)
PUBLIC 6954 0 std::__1::__rs_default::__rs_default()
PUBLIC 6970 0 std::__1::__rs_default::__rs_default()
PUBLIC 698c 0 std::__1::__rs_default::__rs_default(std::__1::__rs_default const&)
PUBLIC 6998 0 std::__1::__rs_default::__rs_default(std::__1::__rs_default const&)
PUBLIC 69a4 0 std::__1::__rs_default::~__rs_default()
PUBLIC 69d0 0 __clang_call_terminate
PUBLIC 69dc 0 std::__1::__rs_default::~__rs_default()
PUBLIC 69e6 0 std::__1::__rs_default::operator()()
PUBLIC 6a62 0 std::__1::mersenne_twister_engine<unsigned int, 32ul, 624ul, 397ul, 31ul, 2567483615u, 11ul, 4294967295u, 7ul, 2636928640u, 15ul, 4022730752u, 18ul, 1812433253u>::operator()()
PUBLIC 6b1e 0 std::__1::__rs_get()
PUBLIC 6b50 0 std::__1::chrono::system_clock::now()
PUBLIC 6bbc 0 std::__1::chrono::system_clock::to_time_t(std::__1::chrono::time_point<std::__1::chrono::system_clock, std::__1::chrono::duration<long long, std::__1::ratio<1l, 1000000l> > > const&)
PUBLIC 6bde 0 std::__1::chrono::system_clock::from_time_t(long)
PUBLIC 6bec 0 std::__1::chrono::steady_clock::now()
PUBLIC 6c40 0 std::__1::condition_variable::~condition_variable()
PUBLIC 6c6c 0 std::__1::condition_variable::~condition_variable()
PUBLIC 6c76 0 std::__1::condition_variable::notify_one()
PUBLIC 6c8a 0 std::__1::condition_variable::notify_all()
PUBLIC 6c9e 0 std::__1::condition_variable::wait(std::__1::unique_lock<std::__1::mutex>&)
PUBLIC 6ce6 0 std::__1::condition_variable::__do_timed_wait(std::__1::unique_lock<std::__1::mutex>&, std::__1::chrono::time_point<std::__1::chrono::system_clock, std::__1::chrono::duration<long long, std::__1::ratio<1l, 1000000000l> > >)
PUBLIC 6d81 0 std::__1::notify_all_at_thread_exit(std::__1::condition_variable&, std::__1::unique_lock<std::__1::mutex>)
PUBLIC 6e08 0 std::uncaught_exception()
PUBLIC 6e12 0 std::uncaught_exceptions()
PUBLIC 6e20 0 std::exception_ptr::~exception_ptr()
PUBLIC 6e2e 0 std::exception_ptr::~exception_ptr()
PUBLIC 6e3c 0 std::exception_ptr::exception_ptr(std::exception_ptr const&)
PUBLIC 6e50 0 std::exception_ptr::exception_ptr(std::exception_ptr const&)
PUBLIC 6e64 0 std::exception_ptr::operator=(std::exception_ptr const&)
PUBLIC 6e94 0 std::nested_exception::nested_exception()
PUBLIC 6eb7 0 std::current_exception()
PUBLIC 6ed2 0 std::nested_exception::nested_exception()
PUBLIC 6ef6 0 std::nested_exception::~nested_exception()
PUBLIC 6f0e 0 std::nested_exception::~nested_exception()
PUBLIC 6f26 0 std::nested_exception::~nested_exception()
PUBLIC 6f50 0 std::nested_exception::rethrow_nested() const
PUBLIC 6fa2 0 std::rethrow_exception(std::exception_ptr)
PUBLIC 6fc0 0 std::__1::__future_error_category::name() const
PUBLIC 6fce 0 std::__1::__future_error_category::message(int) const
PUBLIC 71bc 0 std::__1::future_category()
PUBLIC 720a 0 std::__1::__future_error_category::~__future_error_category()
PUBLIC 7214 0 std::__1::future_error::future_error(std::__1::error_code)
PUBLIC 7292 0 std::__1::future_error::future_error(std::__1::error_code)
PUBLIC 729c 0 std::__1::future_error::~future_error()
PUBLIC 72a6 0 std::__1::future_error::~future_error()
PUBLIC 72b0 0 std::__1::future_error::~future_error()
PUBLIC 72cc 0 std::__1::__assoc_sub_state::__on_zero_shared()
PUBLIC 72de 0 std::__1::__assoc_sub_state::set_value()
PUBLIC 73a2 0 std::__1::__assoc_sub_state::set_value_at_thread_exit()
PUBLIC 7472 0 std::__1::__assoc_sub_state::set_exception(std::exception_ptr)
PUBLIC 7546 0 std::__1::__assoc_sub_state::set_exception_at_thread_exit(std::exception_ptr)
PUBLIC 761e 0 std::__1::__assoc_sub_state::__make_ready()
PUBLIC 7654 0 std::__1::__assoc_sub_state::copy()
PUBLIC 76fa 0 std::__1::__assoc_sub_state::__sub_wait(std::__1::unique_lock<std::__1::mutex>&)
PUBLIC 7762 0 std::__1::__assoc_sub_state::wait()
PUBLIC 77c6 0 std::__1::__assoc_sub_state::__execute()
PUBLIC 781c 0 std::__1::future<void>::future(std::__1::__assoc_sub_state*)
PUBLIC 78ac 0 std::__1::future<void>::future(std::__1::__assoc_sub_state*)
PUBLIC 78b6 0 std::__1::future<void>::~future()
PUBLIC 78ca 0 std::__1::future<void>::~future()
PUBLIC 78de 0 std::__1::future<void>::get()
PUBLIC 7922 0 std::__1::promise<void>::promise()
PUBLIC 79a0 0 std::__1::promise<void>::promise()
PUBLIC 7a1e 0 std::__1::promise<void>::~promise()
PUBLIC 7afb 0 std::exception_ptr std::make_exception_ptr<std::__1::future_error>(std::__1::future_error)
PUBLIC 7b7e 0 std::__1::promise<void>::~promise()
PUBLIC 7b88 0 std::__1::promise<void>::get_future()
PUBLIC 7bfa 0 std::__1::promise<void>::set_value()
PUBLIC 7c62 0 std::__1::promise<void>::set_exception(std::exception_ptr)
PUBLIC 7cfc 0 std::__1::promise<void>::set_value_at_thread_exit()
PUBLIC 7d64 0 std::__1::promise<void>::set_exception_at_thread_exit(std::exception_ptr)
PUBLIC 7dfe 0 std::__1::shared_future<void>::~shared_future()
PUBLIC 7e12 0 std::__1::shared_future<void>::~shared_future()
PUBLIC 7e26 0 std::__1::shared_future<void>::operator=(std::__1::shared_future<void> const&)
PUBLIC 7e5c 0 std::__1::__assoc_sub_state::~__assoc_sub_state()
PUBLIC 7e98 0 std::__1::__assoc_sub_state::~__assoc_sub_state()
PUBLIC 7edc 0 std::__1::__future_error_category::~__future_error_category()
PUBLIC 7ef8 0 std::__1::__next_prime(unsigned long)
PUBLIC 8770 0 std::__1::basic_ios<char, std::__1::char_traits<char> >::operator bool() const
PUBLIC 877e 0 std::__1::basic_ios<char, std::__1::char_traits<char> >::fail() const
PUBLIC 878c 0 std::__1::basic_ios<char, std::__1::char_traits<char> >::operator!() const
PUBLIC 879a 0 std::__1::basic_ios<char, std::__1::char_traits<char> >::rdstate() const
PUBLIC 87a4 0 std::__1::basic_ios<char, std::__1::char_traits<char> >::clear(unsigned int)
PUBLIC 87ae 0 std::__1::ios_base::clear(unsigned int)
PUBLIC 882e 0 std::__1::basic_ios<char, std::__1::char_traits<char> >::setstate(unsigned int)
PUBLIC 883c 0 std::__1::basic_ios<char, std::__1::char_traits<char> >::good() const
PUBLIC 884a 0 std::__1::basic_ios<char, std::__1::char_traits<char> >::eof() const
PUBLIC 8858 0 std::__1::basic_ios<char, std::__1::char_traits<char> >::bad() const
PUBLIC 8864 0 std::__1::basic_ios<char, std::__1::char_traits<char> >::exceptions() const
PUBLIC 886e 0 std::__1::basic_ios<char, std::__1::char_traits<char> >::exceptions(unsigned int)
PUBLIC 887e 0 std::__1::basic_ios<char, std::__1::char_traits<char> >::basic_ios(std::__1::basic_streambuf<char, std::__1::char_traits<char> >*)
PUBLIC 8910 0 std::__1::basic_ios<char, std::__1::char_traits<char> >::init(std::__1::basic_streambuf<char, std::__1::char_traits<char> >*)
PUBLIC 8994 0 std::__1::ios_base::~ios_base()
PUBLIC 8a04 0 std::__1::basic_ios<char, std::__1::char_traits<char> >::basic_ios(std::__1::basic_streambuf<char, std::__1::char_traits<char> >*)
PUBLIC 8a96 0 std::__1::basic_ios<char, std::__1::char_traits<char> >::~basic_ios()
PUBLIC 8aa0 0 std::__1::basic_ios<char, std::__1::char_traits<char> >::~basic_ios()
PUBLIC 8aaa 0 std::__1::basic_ios<char, std::__1::char_traits<char> >::~basic_ios()
PUBLIC 8ac6 0 std::__1::basic_ios<char, std::__1::char_traits<char> >::tie() const
PUBLIC 8ad4 0 std::__1::basic_ios<char, std::__1::char_traits<char> >::tie(std::__1::basic_ostream<char, std::__1::char_traits<char> >*)
PUBLIC 8ae8 0 std::__1::basic_ios<char, std::__1::char_traits<char> >::rdbuf() const
PUBLIC 8af2 0 std::__1::basic_ios<char, std::__1::char_traits<char> >::rdbuf(std::__1::basic_streambuf<char, std::__1::char_traits<char> >*)
PUBLIC 8b12 0 std::__1::basic_ios<char, std::__1::char_traits<char> >::copyfmt(std::__1::basic_ios<char, std::__1::char_traits<char> > const&)
PUBLIC 8bbe 0 std::__1::ios_base::__call_callbacks(std::__1::ios_base::event)
PUBLIC 8bfe 0 std::__1::ios_base::copyfmt(std::__1::ios_base const&)
PUBLIC 8f1a 0 std::__1::basic_ios<char, std::__1::char_traits<char> >::fill() const
PUBLIC 8f96 0 std::__1::basic_ios<char, std::__1::char_traits<char> >::widen(char) const
PUBLIC 8ffc 0 std::__1::basic_ios<char, std::__1::char_traits<char> >::fill(char)
PUBLIC 9010 0 std::__1::basic_ios<char, std::__1::char_traits<char> >::imbue(std::__1::locale const&)
PUBLIC 90a8 0 std::__1::ios_base::getloc() const
PUBLIC 90c4 0 std::__1::ios_base::imbue(std::__1::locale const&)
PUBLIC 913e 0 std::__1::basic_streambuf<char, std::__1::char_traits<char> >::pubimbue(std::__1::locale const&)
PUBLIC 9186 0 std::__1::basic_ios<char, std::__1::char_traits<char> >::narrow(char, char) const
PUBLIC 91f4 0 std::__1::basic_ios<char, std::__1::char_traits<char> >::basic_ios()
PUBLIC 9208 0 std::__1::basic_ios<char, std::__1::char_traits<char> >::basic_ios()
PUBLIC 921c 0 std::__1::ios_base::init(void*)
PUBLIC 9284 0 std::__1::basic_ios<char, std::__1::char_traits<char> >::move(std::__1::basic_ios<char, std::__1::char_traits<char> >&)
PUBLIC 92c2 0 std::__1::ios_base::move(std::__1::ios_base&)
PUBLIC 9360 0 std::__1::basic_ios<char, std::__1::char_traits<char> >::move(std::__1::basic_ios<char, std::__1::char_traits<char> >&&)
PUBLIC 939e 0 std::__1::basic_ios<char, std::__1::char_traits<char> >::swap(std::__1::basic_ios<char, std::__1::char_traits<char> >&)
PUBLIC 93ec 0 std::__1::ios_base::swap(std::__1::ios_base&)
PUBLIC 9510 0 std::__1::basic_ios<char, std::__1::char_traits<char> >::set_rdbuf(std::__1::basic_streambuf<char, std::__1::char_traits<char> >*)
PUBLIC 951a 0 std::__1::basic_ios<wchar_t, std::__1::char_traits<wchar_t> >::operator bool() const
PUBLIC 9528 0 std::__1::basic_ios<wchar_t, std::__1::char_traits<wchar_t> >::fail() const
PUBLIC 9536 0 std::__1::basic_ios<wchar_t, std::__1::char_traits<wchar_t> >::operator!() const
PUBLIC 9544 0 std::__1::basic_ios<wchar_t, std::__1::char_traits<wchar_t> >::rdstate() const
PUBLIC 954e 0 std::__1::basic_ios<wchar_t, std::__1::char_traits<wchar_t> >::clear(unsigned int)
PUBLIC 9558 0 std::__1::basic_ios<wchar_t, std::__1::char_traits<wchar_t> >::setstate(unsigned int)
PUBLIC 9566 0 std::__1::basic_ios<wchar_t, std::__1::char_traits<wchar_t> >::good() const
PUBLIC 9574 0 std::__1::basic_ios<wchar_t, std::__1::char_traits<wchar_t> >::eof() const
PUBLIC 9582 0 std::__1::basic_ios<wchar_t, std::__1::char_traits<wchar_t> >::bad() const
PUBLIC 958e 0 std::__1::basic_ios<wchar_t, std::__1::char_traits<wchar_t> >::exceptions() const
PUBLIC 9598 0 std::__1::basic_ios<wchar_t, std::__1::char_traits<wchar_t> >::exceptions(unsigned int)
PUBLIC 95a8 0 std::__1::basic_ios<wchar_t, std::__1::char_traits<wchar_t> >::basic_ios(std::__1::basic_streambuf<wchar_t, std::__1::char_traits<wchar_t> >*)
PUBLIC 963a 0 std::__1::basic_ios<wchar_t, std::__1::char_traits<wchar_t> >::init(std::__1::basic_streambuf<wchar_t, std::__1::char_traits<wchar_t> >*)
PUBLIC 96be 0 std::__1::basic_ios<wchar_t, std::__1::char_traits<wchar_t> >::basic_ios(std::__1::basic_streambuf<wchar_t, std::__1::char_traits<wchar_t> >*)
PUBLIC 9750 0 std::__1::basic_ios<wchar_t, std::__1::char_traits<wchar_t> >::~basic_ios()
PUBLIC 975a 0 std::__1::basic_ios<wchar_t, std::__1::char_traits<wchar_t> >::~basic_ios()
PUBLIC 9764 0 std::__1::basic_ios<wchar_t, std::__1::char_traits<wchar_t> >::~basic_ios()
PUBLIC 9780 0 std::__1::basic_ios<wchar_t, std::__1::char_traits<wchar_t> >::tie() const
PUBLIC 978e 0 std::__1::basic_ios<wchar_t, std::__1::char_traits<wchar_t> >::tie(std::__1::basic_ostream<wchar_t, std::__1::char_traits<wchar_t> >*)
PUBLIC 97a2 0 std::__1::basic_ios<wchar_t, std::__1::char_traits<wchar_t> >::rdbuf() const
PUBLIC 97ac 0 std::__1::basic_ios<wchar_t, std::__1::char_traits<wchar_t> >::rdbuf(std::__1::basic_streambuf<wchar_t, std::__1::char_traits<wchar_t> >*)
PUBLIC 97cc 0 std::__1::basic_ios<wchar_t, std::__1::char_traits<wchar_t> >::copyfmt(std::__1::basic_ios<wchar_t, std::__1::char_traits<wchar_t> > const&)
PUBLIC 9878 0 std::__1::basic_ios<wchar_t, std::__1::char_traits<wchar_t> >::fill() const
PUBLIC 98f0 0 std::__1::basic_ios<wchar_t, std::__1::char_traits<wchar_t> >::widen(char) const
PUBLIC 9954 0 std::__1::basic_ios<wchar_t, std::__1::char_traits<wchar_t> >::fill(wchar_t)
PUBLIC 9966 0 std::__1::basic_ios<wchar_t, std::__1::char_traits<wchar_t> >::imbue(std::__1::locale const&)
PUBLIC 99fe 0 std::__1::basic_streambuf<wchar_t, std::__1::char_traits<wchar_t> >::pubimbue(std::__1::locale const&)
PUBLIC 9a46 0 std::__1::basic_ios<wchar_t, std::__1::char_traits<wchar_t> >::narrow(wchar_t, char) const
PUBLIC 9ab2 0 std::__1::basic_ios<wchar_t, std::__1::char_traits<wchar_t> >::basic_ios()
PUBLIC 9ac6 0 std::__1::basic_ios<wchar_t, std::__1::char_traits<wchar_t> >::basic_ios()
PUBLIC 9ada 0 std::__1::basic_ios<wchar_t, std::__1::char_traits<wchar_t> >::move(std::__1::basic_ios<wchar_t, std::__1::char_traits<wchar_t> >&)
PUBLIC 9b18 0 std::__1::basic_ios<wchar_t, std::__1::char_traits<wchar_t> >::move(std::__1::basic_ios<wchar_t, std::__1::char_traits<wchar_t> >&&)
PUBLIC 9b56 0 std::__1::basic_ios<wchar_t, std::__1::char_traits<wchar_t> >::swap(std::__1::basic_ios<wchar_t, std::__1::char_traits<wchar_t> >&)
PUBLIC 9ba4 0 std::__1::basic_ios<wchar_t, std::__1::char_traits<wchar_t> >::set_rdbuf(std::__1::basic_streambuf<wchar_t, std::__1::char_traits<wchar_t> >*)
PUBLIC 9bae 0 std::__1::basic_streambuf<char, std::__1::char_traits<char> >::~basic_streambuf()
PUBLIC 9bca 0 std::__1::basic_streambuf<char, std::__1::char_traits<char> >::~basic_streambuf()
PUBLIC 9be6 0 std::__1::basic_streambuf<char, std::__1::char_traits<char> >::~basic_streambuf()
PUBLIC 9c14 0 std::__1::basic_streambuf<char, std::__1::char_traits<char> >::getloc() const
PUBLIC 9c30 0 std::__1::basic_streambuf<char, std::__1::char_traits<char> >::pubsetbuf(char*, long)
PUBLIC 9c3e 0 std::__1::basic_streambuf<char, std::__1::char_traits<char> >::pubseekoff(long long, std::__1::ios_base::seekdir, unsigned int)
PUBLIC 9c58 0 std::__1::basic_streambuf<char, std::__1::char_traits<char> >::pubseekpos(std::__1::fpos<__mbstate_t>, unsigned int)
PUBLIC 9c94 0 std::__1::basic_streambuf<char, std::__1::char_traits<char> >::pubsync()
PUBLIC 9ca0 0 std::__1::basic_streambuf<char, std::__1::char_traits<char> >::in_avail()
PUBLIC 9cbe 0 std::__1::basic_streambuf<char, std::__1::char_traits<char> >::snextc()
PUBLIC 9d18 0 std::__1::basic_streambuf<char, std::__1::char_traits<char> >::sbumpc()
PUBLIC 9d3a 0 std::__1::basic_streambuf<char, std::__1::char_traits<char> >::sgetc()
PUBLIC 9d54 0 std::__1::basic_streambuf<char, std::__1::char_traits<char> >::sgetn(char*, long)
PUBLIC 9d62 0 std::__1::basic_streambuf<char, std::__1::char_traits<char> >::sputbackc(char)
PUBLIC 9d90 0 std::__1::basic_streambuf<char, std::__1::char_traits<char> >::sungetc()
PUBLIC 9dbc 0 std::__1::basic_streambuf<char, std::__1::char_traits<char> >::sputc(char)
PUBLIC 9dea 0 std::__1::basic_streambuf<char, std::__1::char_traits<char> >::sputn(char const*, long)
PUBLIC 9df8 0 std::__1::basic_streambuf<char, std::__1::char_traits<char> >::basic_streambuf()
PUBLIC 9e3a 0 std::__1::basic_streambuf<char, std::__1::char_traits<char> >::basic_streambuf()
PUBLIC 9e7c 0 std::__1::basic_streambuf<char, std::__1::char_traits<char> >::basic_streambuf(std::__1::basic_streambuf<char, std::__1::char_traits<char> > const&)
PUBLIC 9ec4 0 std::__1::basic_streambuf<char, std::__1::char_traits<char> >::basic_streambuf(std::__1::basic_streambuf<char, std::__1::char_traits<char> > const&)
PUBLIC 9f0c 0 std::__1::basic_streambuf<char, std::__1::char_traits<char> >::operator=(std::__1::basic_streambuf<char, std::__1::char_traits<char> > const&)
PUBLIC 9f4a 0 std::__1::basic_streambuf<char, std::__1::char_traits<char> >::swap(std::__1::basic_streambuf<char, std::__1::char_traits<char> >&)
PUBLIC a002 0 std::__1::basic_streambuf<char, std::__1::char_traits<char> >::eback() const
PUBLIC a00c 0 std::__1::basic_streambuf<char, std::__1::char_traits<char> >::gptr() const
PUBLIC a016 0 std::__1::basic_streambuf<char, std::__1::char_traits<char> >::egptr() const
PUBLIC a020 0 std::__1::basic_streambuf<char, std::__1::char_traits<char> >::gbump(int)
PUBLIC a02e 0 std::__1::basic_streambuf<char, std::__1::char_traits<char> >::setg(char*, char*, char*)
PUBLIC a040 0 std::__1::basic_streambuf<char, std::__1::char_traits<char> >::pbase() const
PUBLIC a04a 0 std::__1::basic_streambuf<char, std::__1::char_traits<char> >::pptr() const
PUBLIC a054 0 std::__1::basic_streambuf<char, std::__1::char_traits<char> >::epptr() const
PUBLIC a05e 0 std::__1::basic_streambuf<char, std::__1::char_traits<char> >::pbump(int)
PUBLIC a06c 0 std::__1::basic_streambuf<char, std::__1::char_traits<char> >::setp(char*, char*)
PUBLIC a07e 0 std::__1::basic_streambuf<char, std::__1::char_traits<char> >::imbue(std::__1::locale const&)
PUBLIC a084 0 std::__1::basic_streambuf<char, std::__1::char_traits<char> >::setbuf(char*, long)
PUBLIC a08e 0 std::__1::basic_streambuf<char, std::__1::char_traits<char> >::seekoff(long long, std::__1::ios_base::seekdir, unsigned int)
PUBLIC a0e4 0 std::__1::basic_streambuf<char, std::__1::char_traits<char> >::seekpos(std::__1::fpos<__mbstate_t>, unsigned int)
PUBLIC a13a 0 std::__1::basic_streambuf<char, std::__1::char_traits<char> >::sync()
PUBLIC a142 0 std::__1::basic_streambuf<char, std::__1::char_traits<char> >::showmanyc()
PUBLIC a14a 0 std::__1::basic_streambuf<char, std::__1::char_traits<char> >::xsgetn(char*, long)
PUBLIC a1dc 0 std::__1::basic_streambuf<char, std::__1::char_traits<char> >::underflow()
PUBLIC a1e8 0 std::__1::basic_streambuf<char, std::__1::char_traits<char> >::uflow()
PUBLIC a21a 0 std::__1::basic_streambuf<char, std::__1::char_traits<char> >::pbackfail(int)
PUBLIC a226 0 std::__1::basic_streambuf<char, std::__1::char_traits<char> >::xsputn(char const*, long)
PUBLIC a2b6 0 std::__1::basic_streambuf<char, std::__1::char_traits<char> >::overflow(int)
PUBLIC a2c2 0 std::__1::basic_streambuf<wchar_t, std::__1::char_traits<wchar_t> >::~basic_streambuf()
PUBLIC a2de 0 std::__1::basic_streambuf<wchar_t, std::__1::char_traits<wchar_t> >::~basic_streambuf()
PUBLIC a2fa 0 std::__1::basic_streambuf<wchar_t, std::__1::char_traits<wchar_t> >::~basic_streambuf()
PUBLIC a328 0 std::__1::basic_streambuf<wchar_t, std::__1::char_traits<wchar_t> >::getloc() const
PUBLIC a344 0 std::__1::basic_streambuf<wchar_t, std::__1::char_traits<wchar_t> >::pubsetbuf(wchar_t*, long)
PUBLIC a352 0 std::__1::basic_streambuf<wchar_t, std::__1::char_traits<wchar_t> >::pubseekoff(long long, std::__1::ios_base::seekdir, unsigned int)
PUBLIC a36c 0 std::__1::basic_streambuf<wchar_t, std::__1::char_traits<wchar_t> >::pubseekpos(std::__1::fpos<__mbstate_t>, unsigned int)
PUBLIC a3a8 0 std::__1::basic_streambuf<wchar_t, std::__1::char_traits<wchar_t> >::pubsync()
PUBLIC a3b4 0 std::__1::basic_streambuf<wchar_t, std::__1::char_traits<wchar_t> >::in_avail()
PUBLIC a3d6 0 std::__1::basic_streambuf<wchar_t, std::__1::char_traits<wchar_t> >::snextc()
PUBLIC a42c 0 std::__1::basic_streambuf<wchar_t, std::__1::char_traits<wchar_t> >::sbumpc()
PUBLIC a44e 0 std::__1::basic_streambuf<wchar_t, std::__1::char_traits<wchar_t> >::sgetc()
PUBLIC a468 0 std::__1::basic_streambuf<wchar_t, std::__1::char_traits<wchar_t> >::sgetn(wchar_t*, long)
PUBLIC a476 0 std::__1::basic_streambuf<wchar_t, std::__1::char_traits<wchar_t> >::sputbackc(wchar_t)
PUBLIC a4a0 0 std::__1::basic_streambuf<wchar_t, std::__1::char_traits<wchar_t> >::sungetc()
PUBLIC a4ca 0 std::__1::basic_streambuf<wchar_t, std::__1::char_traits<wchar_t> >::sputc(wchar_t)
PUBLIC a4f0 0 std::__1::basic_streambuf<wchar_t, std::__1::char_traits<wchar_t> >::sputn(wchar_t const*, long)
PUBLIC a4fe 0 std::__1::basic_streambuf<wchar_t, std::__1::char_traits<wchar_t> >::basic_streambuf()
PUBLIC a540 0 std::__1::basic_streambuf<wchar_t, std::__1::char_traits<wchar_t> >::basic_streambuf()
PUBLIC a582 0 std::__1::basic_streambuf<wchar_t, std::__1::char_traits<wchar_t> >::basic_streambuf(std::__1::basic_streambuf<wchar_t, std::__1::char_traits<wchar_t> > const&)
PUBLIC a5ca 0 std::__1::basic_streambuf<wchar_t, std::__1::char_traits<wchar_t> >::basic_streambuf(std::__1::basic_streambuf<wchar_t, std::__1::char_traits<wchar_t> > const&)
PUBLIC a612 0 std::__1::basic_streambuf<wchar_t, std::__1::char_traits<wchar_t> >::operator=(std::__1::basic_streambuf<wchar_t, std::__1::char_traits<wchar_t> > const&)
PUBLIC a650 0 std::__1::basic_streambuf<wchar_t, std::__1::char_traits<wchar_t> >::swap(std::__1::basic_streambuf<wchar_t, std::__1::char_traits<wchar_t> >&)
PUBLIC a708 0 std::__1::basic_streambuf<wchar_t, std::__1::char_traits<wchar_t> >::eback() const
PUBLIC a712 0 std::__1::basic_streambuf<wchar_t, std::__1::char_traits<wchar_t> >::gptr() const
PUBLIC a71c 0 std::__1::basic_streambuf<wchar_t, std::__1::char_traits<wchar_t> >::egptr() const
PUBLIC a726 0 std::__1::basic_streambuf<wchar_t, std::__1::char_traits<wchar_t> >::gbump(int)
PUBLIC a738 0 std::__1::basic_streambuf<wchar_t, std::__1::char_traits<wchar_t> >::setg(wchar_t*, wchar_t*, wchar_t*)
PUBLIC a74a 0 std::__1::basic_streambuf<wchar_t, std::__1::char_traits<wchar_t> >::pbase() const
PUBLIC a754 0 std::__1::basic_streambuf<wchar_t, std::__1::char_traits<wchar_t> >::pptr() const
PUBLIC a75e 0 std::__1::basic_streambuf<wchar_t, std::__1::char_traits<wchar_t> >::epptr() const
PUBLIC a768 0 std::__1::basic_streambuf<wchar_t, std::__1::char_traits<wchar_t> >::pbump(int)
PUBLIC a77a 0 std::__1::basic_streambuf<wchar_t, std::__1::char_traits<wchar_t> >::setp(wchar_t*, wchar_t*)
PUBLIC a78c 0 std::__1::basic_streambuf<wchar_t, std::__1::char_traits<wchar_t> >::imbue(std::__1::locale const&)
PUBLIC a792 0 std::__1::basic_streambuf<wchar_t, std::__1::char_traits<wchar_t> >::setbuf(wchar_t*, long)
PUBLIC a79c 0 std::__1::basic_streambuf<wchar_t, std::__1::char_traits<wchar_t> >::seekoff(long long, std::__1::ios_base::seekdir, unsigned int)
PUBLIC a7f2 0 std::__1::basic_streambuf<wchar_t, std::__1::char_traits<wchar_t> >::seekpos(std::__1::fpos<__mbstate_t>, unsigned int)
PUBLIC a848 0 std::__1::basic_streambuf<wchar_t, std::__1::char_traits<wchar_t> >::sync()
PUBLIC a850 0 std::__1::basic_streambuf<wchar_t, std::__1::char_traits<wchar_t> >::showmanyc()
PUBLIC a858 0 std::__1::basic_streambuf<wchar_t, std::__1::char_traits<wchar_t> >::xsgetn(wchar_t*, long)
PUBLIC a8f8 0 std::__1::basic_streambuf<wchar_t, std::__1::char_traits<wchar_t> >::underflow()
PUBLIC a904 0 std::__1::basic_streambuf<wchar_t, std::__1::char_traits<wchar_t> >::uflow()
PUBLIC a934 0 std::__1::basic_streambuf<wchar_t, std::__1::char_traits<wchar_t> >::pbackfail(int)
PUBLIC a940 0 std::__1::basic_streambuf<wchar_t, std::__1::char_traits<wchar_t> >::xsputn(wchar_t const*, long)
PUBLIC a9de 0 std::__1::basic_streambuf<wchar_t, std::__1::char_traits<wchar_t> >::overflow(int)
PUBLIC a9ea 0 std::__1::basic_istream<char, std::__1::char_traits<char> >::basic_istream(std::__1::basic_streambuf<char, std::__1::char_traits<char> >*)
PUBLIC aa82 0 std::__1::basic_istream<char, std::__1::char_traits<char> >::basic_istream(std::__1::basic_streambuf<char, std::__1::char_traits<char> >*)
PUBLIC ab26 0 std::__1::basic_istream<char, std::__1::char_traits<char> >::~basic_istream()
PUBLIC ab2c 0 std::__1::basic_istream<char, std::__1::char_traits<char> >::~basic_istream()
PUBLIC ab3a 0 virtual thunk to std::__1::basic_istream<char, std::__1::char_traits<char> >::~basic_istream()
PUBLIC ab50 0 std::__1::basic_istream<char, std::__1::char_traits<char> >::~basic_istream()
PUBLIC ab70 0 virtual thunk to std::__1::basic_istream<char, std::__1::char_traits<char> >::~basic_istream()
PUBLIC ab9a 0 std::__1::basic_istream<char, std::__1::char_traits<char> >::basic_istream(std::__1::basic_istream<char, std::__1::char_traits<char> >&&)
PUBLIC ac22 0 std::__1::basic_istream<char, std::__1::char_traits<char> >::basic_istream(std::__1::basic_istream<char, std::__1::char_traits<char> >&&)
PUBLIC ac9c 0 std::__1::basic_istream<char, std::__1::char_traits<char> >::operator=(std::__1::basic_istream<char, std::__1::char_traits<char> >&&)
PUBLIC ad24 0 std::__1::basic_istream<char, std::__1::char_traits<char> >::swap(std::__1::basic_istream<char, std::__1::char_traits<char> >&)
PUBLIC adaa 0 std::__1::basic_istream<char, std::__1::char_traits<char> >::sentry::sentry(std::__1::basic_istream<char, std::__1::char_traits<char> >&, bool)
PUBLIC af24 0 std::__1::basic_ostream<char, std::__1::char_traits<char> >::flush()
PUBLIC afe6 0 std::__1::basic_istream<char, std::__1::char_traits<char> >::sentry::sentry(std::__1::basic_istream<char, std::__1::char_traits<char> >&, bool)
PUBLIC aff4 0 std::__1::basic_istream<char, std::__1::char_traits<char> >::sentry::operator bool() const
PUBLIC affc 0 std::__1::basic_istream<char, std::__1::char_traits<char> >::operator>>(std::__1::basic_istream<char, std::__1::char_traits<char> >& (*)(std::__1::basic_istream<char, std::__1::char_traits<char> >&))
PUBLIC b004 0 std::__1::basic_istream<char, std::__1::char_traits<char> >::operator>>(std::__1::basic_ios<char, std::__1::char_traits<char> >& (*)(std::__1::basic_ios<char, std::__1::char_traits<char> >&))
PUBLIC b024 0 std::__1::basic_istream<char, std::__1::char_traits<char> >::operator>>(std::__1::ios_base& (*)(std::__1::ios_base&))
PUBLIC b044 0 std::__1::basic_istream<char, std::__1::char_traits<char> >::operator>>(std::__1::basic_streambuf<char, std::__1::char_traits<char> >*)
PUBLIC b1c6 0 std::__1::ios_base::__set_failbit_and_consider_rethrow()
PUBLIC b1ec 0 std::__1::ios_base::__set_badbit_and_consider_rethrow()
PUBLIC b200 0 std::__1::basic_istream<char, std::__1::char_traits<char> >::operator>>(bool&)
PUBLIC b2f8 0 std::__1::basic_istream<char, std::__1::char_traits<char> >::operator>>(short&)
PUBLIC b430 0 std::__1::basic_istream<char, std::__1::char_traits<char> >::operator>>(unsigned short&)
PUBLIC b528 0 std::__1::basic_istream<char, std::__1::char_traits<char> >::operator>>(int&)
PUBLIC b66a 0 std::__1::basic_istream<char, std::__1::char_traits<char> >::operator>>(unsigned int&)
PUBLIC b762 0 std::__1::basic_istream<char, std::__1::char_traits<char> >::operator>>(long&)
PUBLIC b85a 0 std::__1::basic_istream<char, std::__1::char_traits<char> >::operator>>(unsigned long&)
PUBLIC b952 0 std::__1::basic_istream<char, std::__1::char_traits<char> >::operator>>(long long&)
PUBLIC ba4a 0 std::__1::basic_istream<char, std::__1::char_traits<char> >::operator>>(unsigned long long&)
PUBLIC bb42 0 std::__1::basic_istream<char, std::__1::char_traits<char> >::operator>>(float&)
PUBLIC bc3a 0 std::__1::basic_istream<char, std::__1::char_traits<char> >::operator>>(double&)
PUBLIC bd32 0 std::__1::basic_istream<char, std::__1::char_traits<char> >::operator>>(long double&)
PUBLIC be2a 0 std::__1::basic_istream<char, std::__1::char_traits<char> >::operator>>(void*&)
PUBLIC bf22 0 std::__1::basic_istream<char, std::__1::char_traits<char> >::gcount() const
PUBLIC bf2c 0 std::__1::basic_istream<char, std::__1::char_traits<char> >::get()
PUBLIC c002 0 std::__1::basic_istream<char, std::__1::char_traits<char> >::get(char&)
PUBLIC c024 0 std::__1::basic_istream<char, std::__1::char_traits<char> >::get(char*, long)
PUBLIC c0b0 0 std::__1::basic_istream<char, std::__1::char_traits<char> >::get(char*, long, char)
PUBLIC c20e 0 std::__1::basic_istream<char, std::__1::char_traits<char> >::get(std::__1::basic_streambuf<char, std::__1::char_traits<char> >&)
PUBLIC c28e 0 std::__1::basic_istream<char, std::__1::char_traits<char> >::get(std::__1::basic_streambuf<char, std::__1::char_traits<char> >&, char)
PUBLIC c3e0 0 std::__1::basic_istream<char, std::__1::char_traits<char> >::getline(char*, long)
PUBLIC c46c 0 std::__1::basic_istream<char, std::__1::char_traits<char> >::getline(char*, long, char)
PUBLIC c5cc 0 std::__1::basic_istream<char, std::__1::char_traits<char> >::ignore(long, int)
PUBLIC c714 0 std::__1::basic_istream<char, std::__1::char_traits<char> >::peek()
PUBLIC c7d2 0 std::__1::basic_istream<char, std::__1::char_traits<char> >::read(char*, long)
PUBLIC c898 0 std::__1::basic_istream<char, std::__1::char_traits<char> >::readsome(char*, long)
PUBLIC c98a 0 std::__1::basic_istream<char, std::__1::char_traits<char> >::putback(char)
PUBLIC ca7e 0 std::__1::basic_istream<char, std::__1::char_traits<char> >::unget()
PUBLIC cb64 0 std::__1::basic_istream<char, std::__1::char_traits<char> >::sync()
PUBLIC cc06 0 std::__1::basic_istream<char, std::__1::char_traits<char> >::tellg()
PUBLIC cd30 0 std::__1::basic_istream<char, std::__1::char_traits<char> >::seekg(std::__1::fpos<__mbstate_t>)
PUBLIC ce38 0 std::__1::basic_istream<char, std::__1::char_traits<char> >::seekg(long long, std::__1::ios_base::seekdir)
PUBLIC cf40 0 std::__1::basic_istream<wchar_t, std::__1::char_traits<wchar_t> >::basic_istream(std::__1::basic_streambuf<wchar_t, std::__1::char_traits<wchar_t> >*)
PUBLIC cfd8 0 std::__1::basic_istream<wchar_t, std::__1::char_traits<wchar_t> >::basic_istream(std::__1::basic_streambuf<wchar_t, std::__1::char_traits<wchar_t> >*)
PUBLIC d07c 0 std::__1::basic_istream<wchar_t, std::__1::char_traits<wchar_t> >::~basic_istream()
PUBLIC d082 0 std::__1::basic_istream<wchar_t, std::__1::char_traits<wchar_t> >::~basic_istream()
PUBLIC d090 0 virtual thunk to std::__1::basic_istream<wchar_t, std::__1::char_traits<wchar_t> >::~basic_istream()
PUBLIC d0a6 0 std::__1::basic_istream<wchar_t, std::__1::char_traits<wchar_t> >::~basic_istream()
PUBLIC d0c6 0 virtual thunk to std::__1::basic_istream<wchar_t, std::__1::char_traits<wchar_t> >::~basic_istream()
PUBLIC d0f0 0 std::__1::basic_istream<wchar_t, std::__1::char_traits<wchar_t> >::basic_istream(std::__1::basic_istream<wchar_t, std::__1::char_traits<wchar_t> >&&)
PUBLIC d178 0 std::__1::basic_istream<wchar_t, std::__1::char_traits<wchar_t> >::basic_istream(std::__1::basic_istream<wchar_t, std::__1::char_traits<wchar_t> >&&)
PUBLIC d1f2 0 std::__1::basic_istream<wchar_t, std::__1::char_traits<wchar_t> >::operator=(std::__1::basic_istream<wchar_t, std::__1::char_traits<wchar_t> >&&)
PUBLIC d27a 0 std::__1::basic_istream<wchar_t, std::__1::char_traits<wchar_t> >::swap(std::__1::basic_istream<wchar_t, std::__1::char_traits<wchar_t> >&)
PUBLIC d300 0 std::__1::basic_istream<wchar_t, std::__1::char_traits<wchar_t> >::sentry::sentry(std::__1::basic_istream<wchar_t, std::__1::char_traits<wchar_t> >&, bool)
PUBLIC d49c 0 std::__1::basic_ostream<wchar_t, std::__1::char_traits<wchar_t> >::flush()
PUBLIC d55e 0 std::__1::basic_istream<wchar_t, std::__1::char_traits<wchar_t> >::sentry::sentry(std::__1::basic_istream<wchar_t, std::__1::char_traits<wchar_t> >&, bool)
PUBLIC d56c 0 std::__1::basic_istream<wchar_t, std::__1::char_traits<wchar_t> >::sentry::operator bool() const
PUBLIC d574 0 std::__1::basic_istream<wchar_t, std::__1::char_traits<wchar_t> >::operator>>(std::__1::basic_istream<wchar_t, std::__1::char_traits<wchar_t> >& (*)(std::__1::basic_istream<wchar_t, std::__1::char_traits<wchar_t> >&))
PUBLIC d57c 0 std::__1::basic_istream<wchar_t, std::__1::char_traits<wchar_t> >::operator>>(std::__1::basic_ios<wchar_t, std::__1::char_traits<wchar_t> >& (*)(std::__1::basic_ios<wchar_t, std::__1::char_traits<wchar_t> >&))
PUBLIC d59c 0 std::__1::basic_istream<wchar_t, std::__1::char_traits<wchar_t> >::operator>>(std::__1::ios_base& (*)(std::__1::ios_base&))
PUBLIC d5bc 0 std::__1::basic_istream<wchar_t, std::__1::char_traits<wchar_t> >::operator>>(std::__1::basic_streambuf<wchar_t, std::__1::char_traits<wchar_t> >*)
PUBLIC d73e 0 std::__1::basic_istream<wchar_t, std::__1::char_traits<wchar_t> >::operator>>(bool&)
PUBLIC d836 0 std::__1::basic_istream<wchar_t, std::__1::char_traits<wchar_t> >::operator>>(short&)
PUBLIC d96e 0 std::__1::basic_istream<wchar_t, std::__1::char_traits<wchar_t> >::operator>>(unsigned short&)
PUBLIC da66 0 std::__1::basic_istream<wchar_t, std::__1::char_traits<wchar_t> >::operator>>(int&)
PUBLIC dba8 0 std::__1::basic_istream<wchar_t, std::__1::char_traits<wchar_t> >::operator>>(unsigned int&)
PUBLIC dca0 0 std::__1::basic_istream<wchar_t, std::__1::char_traits<wchar_t> >::operator>>(long&)
PUBLIC dd98 0 std::__1::basic_istream<wchar_t, std::__1::char_traits<wchar_t> >::operator>>(unsigned long&)
PUBLIC de90 0 std::__1::basic_istream<wchar_t, std::__1::char_traits<wchar_t> >::operator>>(long long&)
PUBLIC df88 0 std::__1::basic_istream<wchar_t, std::__1::char_traits<wchar_t> >::operator>>(unsigned long long&)
PUBLIC e080 0 std::__1::basic_istream<wchar_t, std::__1::char_traits<wchar_t> >::operator>>(float&)
PUBLIC e178 0 std::__1::basic_istream<wchar_t, std::__1::char_traits<wchar_t> >::operator>>(double&)
PUBLIC e270 0 std::__1::basic_istream<wchar_t, std::__1::char_traits<wchar_t> >::operator>>(long double&)
PUBLIC e368 0 std::__1::basic_istream<wchar_t, std::__1::char_traits<wchar_t> >::operator>>(void*&)
PUBLIC e460 0 std::__1::basic_istream<wchar_t, std::__1::char_traits<wchar_t> >::gcount() const
PUBLIC e46a 0 std::__1::basic_istream<wchar_t, std::__1::char_traits<wchar_t> >::get()
PUBLIC e540 0 std::__1::basic_istream<wchar_t, std::__1::char_traits<wchar_t> >::get(wchar_t&)
PUBLIC e562 0 std::__1::basic_istream<wchar_t, std::__1::char_traits<wchar_t> >::get(wchar_t*, long)
PUBLIC e5ee 0 std::__1::basic_istream<wchar_t, std::__1::char_traits<wchar_t> >::get(wchar_t*, long, wchar_t)
PUBLIC e75c 0 std::__1::basic_istream<wchar_t, std::__1::char_traits<wchar_t> >::get(std::__1::basic_streambuf<wchar_t, std::__1::char_traits<wchar_t> >&)
PUBLIC e7da 0 std::__1::basic_istream<wchar_t, std::__1::char_traits<wchar_t> >::get(std::__1::basic_streambuf<wchar_t, std::__1::char_traits<wchar_t> >&, wchar_t)
PUBLIC e92a 0 std::__1::basic_istream<wchar_t, std::__1::char_traits<wchar_t> >::getline(wchar_t*, long)
PUBLIC e9b6 0 std::__1::basic_istream<wchar_t, std::__1::char_traits<wchar_t> >::getline(wchar_t*, long, wchar_t)
PUBLIC eb28 0 std::__1::basic_istream<wchar_t, std::__1::char_traits<wchar_t> >::ignore(long, int)
PUBLIC ec6c 0 std::__1::basic_istream<wchar_t, std::__1::char_traits<wchar_t> >::peek()
PUBLIC ed2a 0 std::__1::basic_istream<wchar_t, std::__1::char_traits<wchar_t> >::read(wchar_t*, long)
PUBLIC edf0 0 std::__1::basic_istream<wchar_t, std::__1::char_traits<wchar_t> >::readsome(wchar_t*, long)
PUBLIC eee6 0 std::__1::basic_istream<wchar_t, std::__1::char_traits<wchar_t> >::putback(wchar_t)
PUBLIC efde 0 std::__1::basic_istream<wchar_t, std::__1::char_traits<wchar_t> >::unget()
PUBLIC f0c8 0 std::__1::basic_istream<wchar_t, std::__1::char_traits<wchar_t> >::sync()
PUBLIC f16a 0 std::__1::basic_istream<wchar_t, std::__1::char_traits<wchar_t> >::tellg()
PUBLIC f294 0 std::__1::basic_istream<wchar_t, std::__1::char_traits<wchar_t> >::seekg(std::__1::fpos<__mbstate_t>)
PUBLIC f39c 0 std::__1::basic_istream<wchar_t, std::__1::char_traits<wchar_t> >::seekg(long long, std::__1::ios_base::seekdir)
PUBLIC f4a4 0 std::__1::basic_ostream<char, std::__1::char_traits<char> >::basic_ostream(std::__1::basic_streambuf<char, std::__1::char_traits<char> >*)
PUBLIC f538 0 std::__1::basic_ostream<char, std::__1::char_traits<char> >::basic_ostream(std::__1::basic_streambuf<char, std::__1::char_traits<char> >*)
PUBLIC f5e0 0 std::__1::basic_ostream<char, std::__1::char_traits<char> >::~basic_ostream()
PUBLIC f5e6 0 std::__1::basic_ostream<char, std::__1::char_traits<char> >::~basic_ostream()
PUBLIC f5f4 0 virtual thunk to std::__1::basic_ostream<char, std::__1::char_traits<char> >::~basic_ostream()
PUBLIC f60a 0 std::__1::basic_ostream<char, std::__1::char_traits<char> >::~basic_ostream()
PUBLIC f62a 0 virtual thunk to std::__1::basic_ostream<char, std::__1::char_traits<char> >::~basic_ostream()
PUBLIC f654 0 std::__1::basic_ostream<char, std::__1::char_traits<char> >::basic_ostream(std::__1::basic_ostream<char, std::__1::char_traits<char> >&&)
PUBLIC f6c8 0 std::__1::basic_ostream<char, std::__1::char_traits<char> >::basic_ostream(std::__1::basic_ostream<char, std::__1::char_traits<char> >&&)
PUBLIC f744 0 std::__1::basic_ostream<char, std::__1::char_traits<char> >::operator=(std::__1::basic_ostream<char, std::__1::char_traits<char> >&&)
PUBLIC f7bc 0 std::__1::basic_ostream<char, std::__1::char_traits<char> >::swap(std::__1::basic_ostream<char, std::__1::char_traits<char> >&)
PUBLIC f832 0 std::__1::basic_ostream<char, std::__1::char_traits<char> >::sentry::sentry(std::__1::basic_ostream<char, std::__1::char_traits<char> >&)
PUBLIC f86c 0 std::__1::basic_ostream<char, std::__1::char_traits<char> >::sentry::sentry(std::__1::basic_ostream<char, std::__1::char_traits<char> >&)
PUBLIC f876 0 std::__1::basic_ostream<char, std::__1::char_traits<char> >::sentry::~sentry()
PUBLIC f8fe 0 std::__1::basic_ostream<char, std::__1::char_traits<char> >::sentry::~sentry()
PUBLIC f908 0 std::__1::basic_ostream<char, std::__1::char_traits<char> >::sentry::operator bool() const
PUBLIC f910 0 std::__1::basic_ostream<char, std::__1::char_traits<char> >::operator<<(std::__1::basic_ostream<char, std::__1::char_traits<char> >& (*)(std::__1::basic_ostream<char, std::__1::char_traits<char> >&))
PUBLIC f918 0 std::__1::basic_ostream<char, std::__1::char_traits<char> >::operator<<(std::__1::basic_ios<char, std::__1::char_traits<char> >& (*)(std::__1::basic_ios<char, std::__1::char_traits<char> >&))
PUBLIC f938 0 std::__1::basic_ostream<char, std::__1::char_traits<char> >::operator<<(std::__1::ios_base& (*)(std::__1::ios_base&))
PUBLIC f958 0 std::__1::basic_ostream<char, std::__1::char_traits<char> >::operator<<(bool)
PUBLIC fae2 0 std::__1::basic_ostream<char, std::__1::char_traits<char> >::operator<<(short)
PUBLIC fc8e 0 std::__1::basic_ostream<char, std::__1::char_traits<char> >::operator<<(unsigned short)
PUBLIC fe18 0 std::__1::basic_ostream<char, std::__1::char_traits<char> >::operator<<(int)
PUBLIC ffc2 0 std::__1::basic_ostream<char, std::__1::char_traits<char> >::operator<<(unsigned int)
PUBLIC 1014c 0 std::__1::basic_ostream<char, std::__1::char_traits<char> >::operator<<(long)
PUBLIC 102d6 0 std::__1::basic_ostream<char, std::__1::char_traits<char> >::operator<<(unsigned long)
PUBLIC 10460 0 std::__1::basic_ostream<char, std::__1::char_traits<char> >::operator<<(long long)
PUBLIC 105ea 0 std::__1::basic_ostream<char, std::__1::char_traits<char> >::operator<<(unsigned long long)
PUBLIC 10774 0 std::__1::basic_ostream<char, std::__1::char_traits<char> >::operator<<(float)
PUBLIC 10904 0 std::__1::basic_ostream<char, std::__1::char_traits<char> >::operator<<(double)
PUBLIC 10a92 0 std::__1::basic_ostream<char, std::__1::char_traits<char> >::operator<<(long double)
PUBLIC 10c2e 0 std::__1::basic_ostream<char, std::__1::char_traits<char> >::operator<<(void const*)
PUBLIC 10db8 0 std::__1::basic_ostream<char, std::__1::char_traits<char> >::operator<<(std::__1::basic_streambuf<char, std::__1::char_traits<char> >*)
PUBLIC 10f80 0 std::__1::basic_ostream<char, std::__1::char_traits<char> >::put(char)
PUBLIC 11070 0 std::__1::basic_ostream<char, std::__1::char_traits<char> >::write(char const*, long)
PUBLIC 11158 0 std::__1::basic_ostream<char, std::__1::char_traits<char> >::tellp()
PUBLIC 111e2 0 std::__1::basic_ostream<char, std::__1::char_traits<char> >::seekp(std::__1::fpos<__mbstate_t>)
PUBLIC 112d8 0 std::__1::basic_ostream<char, std::__1::char_traits<char> >::seekp(long long, std::__1::ios_base::seekdir)
PUBLIC 113cc 0 std::__1::basic_ostream<char, std::__1::char_traits<char> >::basic_ostream()
PUBLIC 113e4 0 std::__1::basic_ostream<char, std::__1::char_traits<char> >::basic_ostream()
PUBLIC 1140c 0 std::__1::basic_ostream<wchar_t, std::__1::char_traits<wchar_t> >::basic_ostream(std::__1::basic_streambuf<wchar_t, std::__1::char_traits<wchar_t> >*)
PUBLIC 114a0 0 std::__1::basic_ostream<wchar_t, std::__1::char_traits<wchar_t> >::basic_ostream(std::__1::basic_streambuf<wchar_t, std::__1::char_traits<wchar_t> >*)
PUBLIC 11548 0 std::__1::basic_ostream<wchar_t, std::__1::char_traits<wchar_t> >::~basic_ostream()
PUBLIC 1154e 0 std::__1::basic_ostream<wchar_t, std::__1::char_traits<wchar_t> >::~basic_ostream()
PUBLIC 1155c 0 virtual thunk to std::__1::basic_ostream<wchar_t, std::__1::char_traits<wchar_t> >::~basic_ostream()
PUBLIC 11572 0 std::__1::basic_ostream<wchar_t, std::__1::char_traits<wchar_t> >::~basic_ostream()
PUBLIC 11592 0 virtual thunk to std::__1::basic_ostream<wchar_t, std::__1::char_traits<wchar_t> >::~basic_ostream()
PUBLIC 115bc 0 std::__1::basic_ostream<wchar_t, std::__1::char_traits<wchar_t> >::basic_ostream(std::__1::basic_ostream<wchar_t, std::__1::char_traits<wchar_t> >&&)
PUBLIC 11630 0 std::__1::basic_ostream<wchar_t, std::__1::char_traits<wchar_t> >::basic_ostream(std::__1::basic_ostream<wchar_t, std::__1::char_traits<wchar_t> >&&)
PUBLIC 116ac 0 std::__1::basic_ostream<wchar_t, std::__1::char_traits<wchar_t> >::operator=(std::__1::basic_ostream<wchar_t, std::__1::char_traits<wchar_t> >&&)
PUBLIC 11724 0 std::__1::basic_ostream<wchar_t, std::__1::char_traits<wchar_t> >::swap(std::__1::basic_ostream<wchar_t, std::__1::char_traits<wchar_t> >&)
PUBLIC 1179a 0 std::__1::basic_ostream<wchar_t, std::__1::char_traits<wchar_t> >::sentry::sentry(std::__1::basic_ostream<wchar_t, std::__1::char_traits<wchar_t> >&)
PUBLIC 117d4 0 std::__1::basic_ostream<wchar_t, std::__1::char_traits<wchar_t> >::sentry::sentry(std::__1::basic_ostream<wchar_t, std::__1::char_traits<wchar_t> >&)
PUBLIC 117de 0 std::__1::basic_ostream<wchar_t, std::__1::char_traits<wchar_t> >::sentry::~sentry()
PUBLIC 11866 0 std::__1::basic_ostream<wchar_t, std::__1::char_traits<wchar_t> >::sentry::~sentry()
PUBLIC 11870 0 std::__1::basic_ostream<wchar_t, std::__1::char_traits<wchar_t> >::sentry::operator bool() const
PUBLIC 11878 0 std::__1::basic_ostream<wchar_t, std::__1::char_traits<wchar_t> >::operator<<(std::__1::basic_ostream<wchar_t, std::__1::char_traits<wchar_t> >& (*)(std::__1::basic_ostream<wchar_t, std::__1::char_traits<wchar_t> >&))
PUBLIC 11880 0 std::__1::basic_ostream<wchar_t, std::__1::char_traits<wchar_t> >::operator<<(std::__1::basic_ios<wchar_t, std::__1::char_traits<wchar_t> >& (*)(std::__1::basic_ios<wchar_t, std::__1::char_traits<wchar_t> >&))
PUBLIC 118a0 0 std::__1::basic_ostream<wchar_t, std::__1::char_traits<wchar_t> >::operator<<(std::__1::ios_base& (*)(std::__1::ios_base&))
PUBLIC 118c0 0 std::__1::basic_ostream<wchar_t, std::__1::char_traits<wchar_t> >::operator<<(bool)
PUBLIC 11a4e 0 std::__1::basic_ostream<wchar_t, std::__1::char_traits<wchar_t> >::operator<<(short)
PUBLIC 11bfc 0 std::__1::basic_ostream<wchar_t, std::__1::char_traits<wchar_t> >::operator<<(unsigned short)
PUBLIC 11d8a 0 std::__1::basic_ostream<wchar_t, std::__1::char_traits<wchar_t> >::operator<<(int)
PUBLIC 11f32 0 std::__1::basic_ostream<wchar_t, std::__1::char_traits<wchar_t> >::operator<<(unsigned int)
PUBLIC 120c0 0 std::__1::basic_ostream<wchar_t, std::__1::char_traits<wchar_t> >::operator<<(long)
PUBLIC 1224e 0 std::__1::basic_ostream<wchar_t, std::__1::char_traits<wchar_t> >::operator<<(unsigned long)
PUBLIC 123dc 0 std::__1::basic_ostream<wchar_t, std::__1::char_traits<wchar_t> >::operator<<(long long)
PUBLIC 1256a 0 std::__1::basic_ostream<wchar_t, std::__1::char_traits<wchar_t> >::operator<<(unsigned long long)
PUBLIC 126f8 0 std::__1::basic_ostream<wchar_t, std::__1::char_traits<wchar_t> >::operator<<(float)
PUBLIC 12886 0 std::__1::basic_ostream<wchar_t, std::__1::char_traits<wchar_t> >::operator<<(double)
PUBLIC 12a10 0 std::__1::basic_ostream<wchar_t, std::__1::char_traits<wchar_t> >::operator<<(long double)
PUBLIC 12baa 0 std::__1::basic_ostream<wchar_t, std::__1::char_traits<wchar_t> >::operator<<(void const*)
PUBLIC 12d38 0 std::__1::basic_ostream<wchar_t, std::__1::char_traits<wchar_t> >::operator<<(std::__1::basic_streambuf<wchar_t, std::__1::char_traits<wchar_t> >*)
PUBLIC 12f08 0 std::__1::basic_ostream<wchar_t, std::__1::char_traits<wchar_t> >::put(wchar_t)
PUBLIC 12ffc 0 std::__1::basic_ostream<wchar_t, std::__1::char_traits<wchar_t> >::write(wchar_t const*, long)
PUBLIC 130e4 0 std::__1::basic_ostream<wchar_t, std::__1::char_traits<wchar_t> >::tellp()
PUBLIC 1316e 0 std::__1::basic_ostream<wchar_t, std::__1::char_traits<wchar_t> >::seekp(std::__1::fpos<__mbstate_t>)
PUBLIC 13264 0 std::__1::basic_ostream<wchar_t, std::__1::char_traits<wchar_t> >::seekp(long long, std::__1::ios_base::seekdir)
PUBLIC 13358 0 std::__1::basic_ostream<wchar_t, std::__1::char_traits<wchar_t> >::basic_ostream()
PUBLIC 13370 0 std::__1::basic_ostream<wchar_t, std::__1::char_traits<wchar_t> >::basic_ostream()
PUBLIC 13398 0 std::__1::basic_iostream<char, std::__1::char_traits<char> >::basic_iostream(std::__1::basic_streambuf<char, std::__1::char_traits<char> >*)
PUBLIC 1346e 0 std::__1::basic_iostream<char, std::__1::char_traits<char> >::basic_iostream(std::__1::basic_streambuf<char, std::__1::char_traits<char> >*)
PUBLIC 13540 0 std::__1::basic_iostream<char, std::__1::char_traits<char> >::~basic_iostream()
PUBLIC 13546 0 std::__1::basic_iostream<char, std::__1::char_traits<char> >::~basic_iostream()
PUBLIC 13554 0 non-virtual thunk to std::__1::basic_iostream<char, std::__1::char_traits<char> >::~basic_iostream()
PUBLIC 13562 0 virtual thunk to std::__1::basic_iostream<char, std::__1::char_traits<char> >::~basic_iostream()
PUBLIC 13578 0 std::__1::basic_iostream<char, std::__1::char_traits<char> >::~basic_iostream()
PUBLIC 13598 0 non-virtual thunk to std::__1::basic_iostream<char, std::__1::char_traits<char> >::~basic_iostream()
PUBLIC 135ba 0 virtual thunk to std::__1::basic_iostream<char, std::__1::char_traits<char> >::~basic_iostream()
PUBLIC 135e4 0 std::__1::basic_iostream<char, std::__1::char_traits<char> >::basic_iostream(std::__1::basic_iostream<char, std::__1::char_traits<char> >&&)
PUBLIC 136a0 0 std::__1::basic_iostream<char, std::__1::char_traits<char> >::basic_iostream(std::__1::basic_iostream<char, std::__1::char_traits<char> >&&)
PUBLIC 13744 0 std::__1::basic_iostream<char, std::__1::char_traits<char> >::operator=(std::__1::basic_iostream<char, std::__1::char_traits<char> >&&)
PUBLIC 137cc 0 std::__1::basic_iostream<char, std::__1::char_traits<char> >::swap(std::__1::basic_iostream<char, std::__1::char_traits<char> >&)
PUBLIC 13852 0 std::__1::__iostream_category::name() const
PUBLIC 13860 0 std::__1::__iostream_category::message(int) const
PUBLIC 138f1 0 std::__1::iostream_category()
PUBLIC 1393e 0 std::__1::__iostream_category::~__iostream_category()
PUBLIC 13948 0 std::__1::ios_base::failure::failure(std::__1::basic_string<char, std::__1::char_traits<char>, std::__1::allocator<char> > const&, std::__1::error_code const&)
PUBLIC 13974 0 std::__1::ios_base::failure::failure(std::__1::basic_string<char, std::__1::char_traits<char>, std::__1::allocator<char> > const&, std::__1::error_code const&)
PUBLIC 139a0 0 std::__1::ios_base::failure::failure(char const*, std::__1::error_code const&)
PUBLIC 139cc 0 std::__1::ios_base::failure::failure(char const*, std::__1::error_code const&)
PUBLIC 139f8 0 std::__1::ios_base::failure::~failure()
PUBLIC 13a02 0 std::__1::ios_base::failure::~failure()
PUBLIC 13a0c 0 std::__1::ios_base::failure::~failure()
PUBLIC 13a28 0 std::__1::ios_base::xalloc()
PUBLIC 13a3c 0 std::__1::ios_base::iword(int)
PUBLIC 13b38 0 std::__1::ios_base::pword(int)
PUBLIC 13c10 0 std::__1::ios_base::register_callback(void (*)(std::__1::ios_base::event, std::__1::ios_base&, int), int)
PUBLIC 13ce6 0 std::__1::ios_base::~ios_base()
PUBLIC 13cf0 0 std::__1::ios_base::~ios_base()
PUBLIC 13d0c 0 std::__1::ios_base::sync_with_stdio(bool)
PUBLIC 13d20 0 std::__1::__iostream_category::~__iostream_category()
PUBLIC 13d40 0 std::__1::ios_base::Init::Init()
PUBLIC 13d4a 0 std::__1::ios_base::Init::~Init()
PUBLIC 13d54 0 std::__1::ios_base::Init::Init()
PUBLIC 1413e 0 std::__1::ios_base::Init::~Init()
PUBLIC 1418c 0 std::__1::__stdinbuf<char>::__stdinbuf(__sFILE*, __mbstate_t*)
PUBLIC 1420c 0 std::__1::__stdinbuf<char>::~__stdinbuf()
PUBLIC 14216 0 std::__1::__stdinbuf<char>::~__stdinbuf()
PUBLIC 14232 0 std::__1::__stdinbuf<char>::imbue(std::__1::locale const&)
PUBLIC 14284 0 std::__1::__stdinbuf<char>::underflow()
PUBLIC 14290 0 std::__1::__stdinbuf<char>::uflow()
PUBLIC 142a0 0 std::__1::__stdinbuf<char>::pbackfail(int)
PUBLIC 14396 0 std::__1::__stdinbuf<char>::__getchar(bool)
PUBLIC 1454c 0 std::__1::__stdinbuf<wchar_t>::__stdinbuf(__sFILE*, __mbstate_t*)
PUBLIC 145cc 0 std::__1::__stdinbuf<wchar_t>::~__stdinbuf()
PUBLIC 145d6 0 std::__1::__stdinbuf<wchar_t>::~__stdinbuf()
PUBLIC 145f2 0 std::__1::__stdinbuf<wchar_t>::imbue(std::__1::locale const&)
PUBLIC 14644 0 std::__1::__stdinbuf<wchar_t>::underflow()
PUBLIC 14650 0 std::__1::__stdinbuf<wchar_t>::uflow()
PUBLIC 14660 0 std::__1::__stdinbuf<wchar_t>::pbackfail(int)
PUBLIC 14756 0 std::__1::__stdinbuf<wchar_t>::__getchar(bool)
PUBLIC 1490a 0 std::__1::__stdoutbuf<char>::__stdoutbuf(__sFILE*, __mbstate_t*)
PUBLIC 14996 0 std::__1::__stdoutbuf<char>::~__stdoutbuf()
PUBLIC 149a0 0 std::__1::__stdoutbuf<char>::~__stdoutbuf()
PUBLIC 149bc 0 std::__1::__stdoutbuf<char>::imbue(std::__1::locale const&)
PUBLIC 149f4 0 std::__1::__stdoutbuf<char>::sync()
PUBLIC 14a98 0 std::__1::__stdoutbuf<char>::xsputn(char const*, long)
PUBLIC 14b00 0 std::__1::__stdoutbuf<char>::overflow(int)
PUBLIC 14c3e 0 std::__1::__stdoutbuf<wchar_t>::__stdoutbuf(__sFILE*, __mbstate_t*)
PUBLIC 14cca 0 std::__1::__stdoutbuf<wchar_t>::~__stdoutbuf()
PUBLIC 14cd4 0 std::__1::__stdoutbuf<wchar_t>::~__stdoutbuf()
PUBLIC 14cf0 0 std::__1::__stdoutbuf<wchar_t>::imbue(std::__1::locale const&)
PUBLIC 14d28 0 std::__1::__stdoutbuf<wchar_t>::sync()
PUBLIC 14dcc 0 std::__1::__stdoutbuf<wchar_t>::xsputn(wchar_t const*, long)
PUBLIC 14e34 0 std::__1::__stdoutbuf<wchar_t>::overflow(int)
PUBLIC 14f71 0 _GLOBAL__sub_I_iostream.cpp
PUBLIC 14f96 0 std::bad_optional_access::~bad_optional_access()
PUBLIC 14fa0 0 std::bad_optional_access::~bad_optional_access()
PUBLIC 14faa 0 std::bad_optional_access::~bad_optional_access()
PUBLIC 14fc6 0 std::bad_optional_access::what() const
PUBLIC 14fd4 0 std::experimental::bad_optional_access::~bad_optional_access()
PUBLIC 14fde 0 std::experimental::bad_optional_access::~bad_optional_access()
PUBLIC 14fe8 0 std::experimental::bad_optional_access::~bad_optional_access()
PUBLIC 15010 0 std::__1::collate<char>::collate(unsigned long)
PUBLIC 1502c 0 std::__1::collate<char>::collate(unsigned long)
PUBLIC 15048 0 std::__1::collate<char>::compare(char const*, char const*, char const*, char const*) const
PUBLIC 15056 0 std::__1::collate<char>::transform(char const*, char const*) const
PUBLIC 15070 0 std::__1::collate<char>::hash(char const*, char const*) const
PUBLIC 1507e 0 std::__1::collate<char>::~collate()
PUBLIC 15088 0 std::__1::locale::facet::~facet()
PUBLIC 15092 0 std::__1::collate<char>::~collate()
PUBLIC 1509c 0 std::__1::collate<char>::~collate()
PUBLIC 150b8 0 std::__1::collate<char>::do_compare(char const*, char const*, char const*, char const*) const
PUBLIC 150f8 0 std::__1::collate<char>::do_transform(char const*, char const*) const
PUBLIC 15192 0 std::__1::collate<char>::do_hash(char const*, char const*) const
PUBLIC 151d0 0 std::__1::collate<wchar_t>::collate(unsigned long)
PUBLIC 151ec 0 std::__1::collate<wchar_t>::collate(unsigned long)
PUBLIC 15208 0 std::__1::collate<wchar_t>::compare(wchar_t const*, wchar_t const*, wchar_t const*, wchar_t const*) const
PUBLIC 15216 0 std::__1::collate<wchar_t>::transform(wchar_t const*, wchar_t const*) const
PUBLIC 15230 0 std::__1::collate<wchar_t>::hash(wchar_t const*, wchar_t const*) const
PUBLIC 1523e 0 std::__1::collate<wchar_t>::~collate()
PUBLIC 15248 0 std::__1::collate<wchar_t>::~collate()
PUBLIC 15252 0 std::__1::collate<wchar_t>::~collate()
PUBLIC 1526e 0 std::__1::collate<wchar_t>::do_compare(wchar_t const*, wchar_t const*, wchar_t const*, wchar_t const*) const
PUBLIC 152ae 0 std::__1::collate<wchar_t>::do_transform(wchar_t const*, wchar_t const*) const
PUBLIC 152da 0 std::__1::collate<wchar_t>::do_hash(wchar_t const*, wchar_t const*) const
PUBLIC 15318 0 std::__1::num_get<char, std::__1::istreambuf_iterator<char, std::__1::char_traits<char> > >::num_get(unsigned long)
PUBLIC 15334 0 std::__1::num_get<char, std::__1::istreambuf_iterator<char, std::__1::char_traits<char> > >::num_get(unsigned long)
PUBLIC 15350 0 std::__1::num_get<char, std::__1::istreambuf_iterator<char, std::__1::char_traits<char> > >::get(std::__1::istreambuf_iterator<char, std::__1::char_traits<char> >, std::__1::istreambuf_iterator<char, std::__1::char_traits<char> >, std::__1::ios_base&, unsigned int&, bool&) const
PUBLIC 1535e 0 std::__1::num_get<char, std::__1::istreambuf_iterator<char, std::__1::char_traits<char> > >::get(std::__1::istreambuf_iterator<char, std::__1::char_traits<char> >, std::__1::istreambuf_iterator<char, std::__1::char_traits<char> >, std::__1::ios_base&, unsigned int&, long&) const
PUBLIC 1536c 0 std::__1::num_get<char, std::__1::istreambuf_iterator<char, std::__1::char_traits<char> > >::get(std::__1::istreambuf_iterator<char, std::__1::char_traits<char> >, std::__1::istreambuf_iterator<char, std::__1::char_traits<char> >, std::__1::ios_base&, unsigned int&, long long&) const
PUBLIC 1537a 0 std::__1::num_get<char, std::__1::istreambuf_iterator<char, std::__1::char_traits<char> > >::get(std::__1::istreambuf_iterator<char, std::__1::char_traits<char> >, std::__1::istreambuf_iterator<char, std::__1::char_traits<char> >, std::__1::ios_base&, unsigned int&, unsigned short&) const
PUBLIC 15388 0 std::__1::num_get<char, std::__1::istreambuf_iterator<char, std::__1::char_traits<char> > >::get(std::__1::istreambuf_iterator<char, std::__1::char_traits<char> >, std::__1::istreambuf_iterator<char, std::__1::char_traits<char> >, std::__1::ios_base&, unsigned int&, unsigned int&) const
PUBLIC 15396 0 std::__1::num_get<char, std::__1::istreambuf_iterator<char, std::__1::char_traits<char> > >::get(std::__1::istreambuf_iterator<char, std::__1::char_traits<char> >, std::__1::istreambuf_iterator<char, std::__1::char_traits<char> >, std::__1::ios_base&, unsigned int&, unsigned long&) const
PUBLIC 153a4 0 std::__1::num_get<char, std::__1::istreambuf_iterator<char, std::__1::char_traits<char> > >::get(std::__1::istreambuf_iterator<char, std::__1::char_traits<char> >, std::__1::istreambuf_iterator<char, std::__1::char_traits<char> >, std::__1::ios_base&, unsigned int&, unsigned long long&) const
PUBLIC 153b2 0 std::__1::num_get<char, std::__1::istreambuf_iterator<char, std::__1::char_traits<char> > >::get(std::__1::istreambuf_iterator<char, std::__1::char_traits<char> >, std::__1::istreambuf_iterator<char, std::__1::char_traits<char> >, std::__1::ios_base&, unsigned int&, float&) const
PUBLIC 153c0 0 std::__1::num_get<char, std::__1::istreambuf_iterator<char, std::__1::char_traits<char> > >::get(std::__1::istreambuf_iterator<char, std::__1::char_traits<char> >, std::__1::istreambuf_iterator<char, std::__1::char_traits<char> >, std::__1::ios_base&, unsigned int&, double&) const
PUBLIC 153ce 0 std::__1::num_get<char, std::__1::istreambuf_iterator<char, std::__1::char_traits<char> > >::get(std::__1::istreambuf_iterator<char, std::__1::char_traits<char> >, std::__1::istreambuf_iterator<char, std::__1::char_traits<char> >, std::__1::ios_base&, unsigned int&, long double&) const
PUBLIC 153dc 0 std::__1::num_get<char, std::__1::istreambuf_iterator<char, std::__1::char_traits<char> > >::get(std::__1::istreambuf_iterator<char, std::__1::char_traits<char> >, std::__1::istreambuf_iterator<char, std::__1::char_traits<char> >, std::__1::ios_base&, unsigned int&, void*&) const
PUBLIC 153ea 0 std::__1::num_get<char, std::__1::istreambuf_iterator<char, std::__1::char_traits<char> > >::~num_get()
PUBLIC 153f4 0 std::__1::num_get<char, std::__1::istreambuf_iterator<char, std::__1::char_traits<char> > >::~num_get()
PUBLIC 153fe 0 std::__1::num_get<char, std::__1::istreambuf_iterator<char, std::__1::char_traits<char> > >::~num_get()
PUBLIC 1541a 0 std::__1::num_get<char, std::__1::istreambuf_iterator<char, std::__1::char_traits<char> > >::do_get(std::__1::istreambuf_iterator<char, std::__1::char_traits<char> >, std::__1::istreambuf_iterator<char, std::__1::char_traits<char> >, std::__1::ios_base&, unsigned int&, bool&) const
PUBLIC 155f4 0 std::__1::locale::~locale()
PUBLIC 15601 0 std::__1::basic_string<char, std::__1::char_traits<char>, std::__1::allocator<char> > const* std::__1::__scan_keyword<std::__1::istreambuf_iterator<char, std::__1::char_traits<char> >, std::__1::basic_string<char, std::__1::char_traits<char>, std::__1::allocator<char> > const*, std::__1::ctype<char> >(std::__1::istreambuf_iterator<char, std::__1::char_traits<char> >&, std::__1::istreambuf_iterator<char, std::__1::char_traits<char> >, std::__1::basic_string<char, std::__1::char_traits<char>, std::__1::allocator<char> > const*, std::__1::basic_string<char, std::__1::char_traits<char>, std::__1::allocator<char> > const*, std::__1::ctype<char> const&, unsigned int&, bool)
PUBLIC 15a84 0 std::__1::num_get<char, std::__1::istreambuf_iterator<char, std::__1::char_traits<char> > >::do_get(std::__1::istreambuf_iterator<char, std::__1::char_traits<char> >, std::__1::istreambuf_iterator<char, std::__1::char_traits<char> >, std::__1::ios_base&, unsigned int&, long&) const
PUBLIC 15a8e 0 std::__1::istreambuf_iterator<char, std::__1::char_traits<char> > std::__1::num_get<char, std::__1::istreambuf_iterator<char, std::__1::char_traits<char> > >::__do_get_signed<long>(std::__1::istreambuf_iterator<char, std::__1::char_traits<char> >, std::__1::istreambuf_iterator<char, std::__1::char_traits<char> >, std::__1::ios_base&, unsigned int&, long&) const
PUBLIC 15e68 0 std::__1::num_get<char, std::__1::istreambuf_iterator<char, std::__1::char_traits<char> > >::do_get(std::__1::istreambuf_iterator<char, std::__1::char_traits<char> >, std::__1::istreambuf_iterator<char, std::__1::char_traits<char> >, std::__1::ios_base&, unsigned int&, long long&) const
PUBLIC 15e72 0 std::__1::istreambuf_iterator<char, std::__1::char_traits<char> > std::__1::num_get<char, std::__1::istreambuf_iterator<char, std::__1::char_traits<char> > >::__do_get_signed<long long>(std::__1::istreambuf_iterator<char, std::__1::char_traits<char> >, std::__1::istreambuf_iterator<char, std::__1::char_traits<char> >, std::__1::ios_base&, unsigned int&, long long&) const
PUBLIC 1624c 0 std::__1::num_get<char, std::__1::istreambuf_iterator<char, std::__1::char_traits<char> > >::do_get(std::__1::istreambuf_iterator<char, std::__1::char_traits<char> >, std::__1::istreambuf_iterator<char, std::__1::char_traits<char> >, std::__1::ios_base&, unsigned int&, unsigned short&) const
PUBLIC 16256 0 std::__1::istreambuf_iterator<char, std::__1::char_traits<char> > std::__1::num_get<char, std::__1::istreambuf_iterator<char, std::__1::char_traits<char> > >::__do_get_unsigned<unsigned short>(std::__1::istreambuf_iterator<char, std::__1::char_traits<char> >, std::__1::istreambuf_iterator<char, std::__1::char_traits<char> >, std::__1::ios_base&, unsigned int&, unsigned short&) const
PUBLIC 16630 0 std::__1::num_get<char, std::__1::istreambuf_iterator<char, std::__1::char_traits<char> > >::do_get(std::__1::istreambuf_iterator<char, std::__1::char_traits<char> >, std::__1::istreambuf_iterator<char, std::__1::char_traits<char> >, std::__1::ios_base&, unsigned int&, unsigned int&) const
PUBLIC 1663a 0 std::__1::istreambuf_iterator<char, std::__1::char_traits<char> > std::__1::num_get<char, std::__1::istreambuf_iterator<char, std::__1::char_traits<char> > >::__do_get_unsigned<unsigned int>(std::__1::istreambuf_iterator<char, std::__1::char_traits<char> >, std::__1::istreambuf_iterator<char, std::__1::char_traits<char> >, std::__1::ios_base&, unsigned int&, unsigned int&) const
PUBLIC 16a14 0 std::__1::num_get<char, std::__1::istreambuf_iterator<char, std::__1::char_traits<char> > >::do_get(std::__1::istreambuf_iterator<char, std::__1::char_traits<char> >, std::__1::istreambuf_iterator<char, std::__1::char_traits<char> >, std::__1::ios_base&, unsigned int&, unsigned long&) const
PUBLIC 16a1e 0 std::__1::istreambuf_iterator<char, std::__1::char_traits<char> > std::__1::num_get<char, std::__1::istreambuf_iterator<char, std::__1::char_traits<char> > >::__do_get_unsigned<unsigned long>(std::__1::istreambuf_iterator<char, std::__1::char_traits<char> >, std::__1::istreambuf_iterator<char, std::__1::char_traits<char> >, std::__1::ios_base&, unsigned int&, unsigned long&) const
PUBLIC 16df8 0 std::__1::num_get<char, std::__1::istreambuf_iterator<char, std::__1::char_traits<char> > >::do_get(std::__1::istreambuf_iterator<char, std::__1::char_traits<char> >, std::__1::istreambuf_iterator<char, std::__1::char_traits<char> >, std::__1::ios_base&, unsigned int&, unsigned long long&) const
PUBLIC 16e02 0 std::__1::istreambuf_iterator<char, std::__1::char_traits<char> > std::__1::num_get<char, std::__1::istreambuf_iterator<char, std::__1::char_traits<char> > >::__do_get_unsigned<unsigned long long>(std::__1::istreambuf_iterator<char, std::__1::char_traits<char> >, std::__1::istreambuf_iterator<char, std::__1::char_traits<char> >, std::__1::ios_base&, unsigned int&, unsigned long long&) const
PUBLIC 171dc 0 std::__1::num_get<char, std::__1::istreambuf_iterator<char, std::__1::char_traits<char> > >::do_get(std::__1::istreambuf_iterator<char, std::__1::char_traits<char> >, std::__1::istreambuf_iterator<char, std::__1::char_traits<char> >, std::__1::ios_base&, unsigned int&, float&) const
PUBLIC 171e6 0 std::__1::istreambuf_iterator<char, std::__1::char_traits<char> > std::__1::num_get<char, std::__1::istreambuf_iterator<char, std::__1::char_traits<char> > >::__do_get_floating_point<float>(std::__1::istreambuf_iterator<char, std::__1::char_traits<char> >, std::__1::istreambuf_iterator<char, std::__1::char_traits<char> >, std::__1::ios_base&, unsigned int&, float&) const
PUBLIC 175ce 0 std::__1::num_get<char, std::__1::istreambuf_iterator<char, std::__1::char_traits<char> > >::do_get(std::__1::istreambuf_iterator<char, std::__1::char_traits<char> >, std::__1::istreambuf_iterator<char, std::__1::char_traits<char> >, std::__1::ios_base&, unsigned int&, double&) const
PUBLIC 175d8 0 std::__1::istreambuf_iterator<char, std::__1::char_traits<char> > std::__1::num_get<char, std::__1::istreambuf_iterator<char, std::__1::char_traits<char> > >::__do_get_floating_point<double>(std::__1::istreambuf_iterator<char, std::__1::char_traits<char> >, std::__1::istreambuf_iterator<char, std::__1::char_traits<char> >, std::__1::ios_base&, unsigned int&, double&) const
PUBLIC 179c2 0 std::__1::num_get<char, std::__1::istreambuf_iterator<char, std::__1::char_traits<char> > >::do_get(std::__1::istreambuf_iterator<char, std::__1::char_traits<char> >, std::__1::istreambuf_iterator<char, std::__1::char_traits<char> >, std::__1::ios_base&, unsigned int&, long double&) const
PUBLIC 179cc 0 std::__1::istreambuf_iterator<char, std::__1::char_traits<char> > std::__1::num_get<char, std::__1::istreambuf_iterator<char, std::__1::char_traits<char> > >::__do_get_floating_point<long double>(std::__1::istreambuf_iterator<char, std::__1::char_traits<char> >, std::__1::istreambuf_iterator<char, std::__1::char_traits<char> >, std::__1::ios_base&, unsigned int&, long double&) const
PUBLIC 17dc0 0 std::__1::num_get<char, std::__1::istreambuf_iterator<char, std::__1::char_traits<char> > >::do_get(std::__1::istreambuf_iterator<char, std::__1::char_traits<char> >, std::__1::istreambuf_iterator<char, std::__1::char_traits<char> >, std::__1::ios_base&, unsigned int&, void*&) const
PUBLIC 18194 0 std::__1::__num_get<char>::__stage2_int_loop(char, int, char*, char*&, unsigned int&, char, std::__1::basic_string<char, std::__1::char_traits<char>, std::__1::allocator<char> > const&, unsigned int*, unsigned int*&, char*)
PUBLIC 182c8 0 std::__1::num_get<wchar_t, std::__1::istreambuf_iterator<wchar_t, std::__1::char_traits<wchar_t> > >::num_get(unsigned long)
PUBLIC 182e4 0 std::__1::num_get<wchar_t, std::__1::istreambuf_iterator<wchar_t, std::__1::char_traits<wchar_t> > >::num_get(unsigned long)
PUBLIC 18300 0 std::__1::num_get<wchar_t, std::__1::istreambuf_iterator<wchar_t, std::__1::char_traits<wchar_t> > >::get(std::__1::istreambuf_iterator<wchar_t, std::__1::char_traits<wchar_t> >, std::__1::istreambuf_iterator<wchar_t, std::__1::char_traits<wchar_t> >, std::__1::ios_base&, unsigned int&, bool&) const
PUBLIC 1830e 0 std::__1::num_get<wchar_t, std::__1::istreambuf_iterator<wchar_t, std::__1::char_traits<wchar_t> > >::get(std::__1::istreambuf_iterator<wchar_t, std::__1::char_traits<wchar_t> >, std::__1::istreambuf_iterator<wchar_t, std::__1::char_traits<wchar_t> >, std::__1::ios_base&, unsigned int&, long&) const
PUBLIC 1831c 0 std::__1::num_get<wchar_t, std::__1::istreambuf_iterator<wchar_t, std::__1::char_traits<wchar_t> > >::get(std::__1::istreambuf_iterator<wchar_t, std::__1::char_traits<wchar_t> >, std::__1::istreambuf_iterator<wchar_t, std::__1::char_traits<wchar_t> >, std::__1::ios_base&, unsigned int&, long long&) const
PUBLIC 1832a 0 std::__1::num_get<wchar_t, std::__1::istreambuf_iterator<wchar_t, std::__1::char_traits<wchar_t> > >::get(std::__1::istreambuf_iterator<wchar_t, std::__1::char_traits<wchar_t> >, std::__1::istreambuf_iterator<wchar_t, std::__1::char_traits<wchar_t> >, std::__1::ios_base&, unsigned int&, unsigned short&) const
PUBLIC 18338 0 std::__1::num_get<wchar_t, std::__1::istreambuf_iterator<wchar_t, std::__1::char_traits<wchar_t> > >::get(std::__1::istreambuf_iterator<wchar_t, std::__1::char_traits<wchar_t> >, std::__1::istreambuf_iterator<wchar_t, std::__1::char_traits<wchar_t> >, std::__1::ios_base&, unsigned int&, unsigned int&) const
PUBLIC 18346 0 std::__1::num_get<wchar_t, std::__1::istreambuf_iterator<wchar_t, std::__1::char_traits<wchar_t> > >::get(std::__1::istreambuf_iterator<wchar_t, std::__1::char_traits<wchar_t> >, std::__1::istreambuf_iterator<wchar_t, std::__1::char_traits<wchar_t> >, std::__1::ios_base&, unsigned int&, unsigned long&) const
PUBLIC 18354 0 std::__1::num_get<wchar_t, std::__1::istreambuf_iterator<wchar_t, std::__1::char_traits<wchar_t> > >::get(std::__1::istreambuf_iterator<wchar_t, std::__1::char_traits<wchar_t> >, std::__1::istreambuf_iterator<wchar_t, std::__1::char_traits<wchar_t> >, std::__1::ios_base&, unsigned int&, unsigned long long&) const
PUBLIC 18362 0 std::__1::num_get<wchar_t, std::__1::istreambuf_iterator<wchar_t, std::__1::char_traits<wchar_t> > >::get(std::__1::istreambuf_iterator<wchar_t, std::__1::char_traits<wchar_t> >, std::__1::istreambuf_iterator<wchar_t, std::__1::char_traits<wchar_t> >, std::__1::ios_base&, unsigned int&, float&) const
PUBLIC 18370 0 std::__1::num_get<wchar_t, std::__1::istreambuf_iterator<wchar_t, std::__1::char_traits<wchar_t> > >::get(std::__1::istreambuf_iterator<wchar_t, std::__1::char_traits<wchar_t> >, std::__1::istreambuf_iterator<wchar_t, std::__1::char_traits<wchar_t> >, std::__1::ios_base&, unsigned int&, double&) const
PUBLIC 1837e 0 std::__1::num_get<wchar_t, std::__1::istreambuf_iterator<wchar_t, std::__1::char_traits<wchar_t> > >::get(std::__1::istreambuf_iterator<wchar_t, std::__1::char_traits<wchar_t> >, std::__1::istreambuf_iterator<wchar_t, std::__1::char_traits<wchar_t> >, std::__1::ios_base&, unsigned int&, long double&) const
PUBLIC 1838c 0 std::__1::num_get<wchar_t, std::__1::istreambuf_iterator<wchar_t, std::__1::char_traits<wchar_t> > >::get(std::__1::istreambuf_iterator<wchar_t, std::__1::char_traits<wchar_t> >, std::__1::istreambuf_iterator<wchar_t, std::__1::char_traits<wchar_t> >, std::__1::ios_base&, unsigned int&, void*&) const
PUBLIC 1839a 0 std::__1::num_get<wchar_t, std::__1::istreambuf_iterator<wchar_t, std::__1::char_traits<wchar_t> > >::~num_get()
PUBLIC 183a4 0 std::__1::num_get<wchar_t, std::__1::istreambuf_iterator<wchar_t, std::__1::char_traits<wchar_t> > >::~num_get()
PUBLIC 183ae 0 std::__1::num_get<wchar_t, std::__1::istreambuf_iterator<wchar_t, std::__1::char_traits<wchar_t> > >::~num_get()
PUBLIC 183ca 0 std::__1::num_get<wchar_t, std::__1::istreambuf_iterator<wchar_t, std::__1::char_traits<wchar_t> > >::do_get(std::__1::istreambuf_iterator<wchar_t, std::__1::char_traits<wchar_t> >, std::__1::istreambuf_iterator<wchar_t, std::__1::char_traits<wchar_t> >, std::__1::ios_base&, unsigned int&, bool&) const
PUBLIC 185a4 0 std::__1::basic_string<wchar_t, std::__1::char_traits<wchar_t>, std::__1::allocator<wchar_t> > const* std::__1::__scan_keyword<std::__1::istreambuf_iterator<wchar_t, std::__1::char_traits<wchar_t> >, std::__1::basic_string<wchar_t, std::__1::char_traits<wchar_t>, std::__1::allocator<wchar_t> > const*, std::__1::ctype<wchar_t> >(std::__1::istreambuf_iterator<wchar_t, std::__1::char_traits<wchar_t> >&, std::__1::istreambuf_iterator<wchar_t, std::__1::char_traits<wchar_t> >, std::__1::basic_string<wchar_t, std::__1::char_traits<wchar_t>, std::__1::allocator<wchar_t> > const*, std::__1::basic_string<wchar_t, std::__1::char_traits<wchar_t>, std::__1::allocator<wchar_t> > const*, std::__1::ctype<wchar_t> const&, unsigned int&, bool)
PUBLIC 18a3e 0 std::__1::num_get<wchar_t, std::__1::istreambuf_iterator<wchar_t, std::__1::char_traits<wchar_t> > >::do_get(std::__1::istreambuf_iterator<wchar_t, std::__1::char_traits<wchar_t> >, std::__1::istreambuf_iterator<wchar_t, std::__1::char_traits<wchar_t> >, std::__1::ios_base&, unsigned int&, long&) const
PUBLIC 18a48 0 std::__1::istreambuf_iterator<wchar_t, std::__1::char_traits<wchar_t> > std::__1::num_get<wchar_t, std::__1::istreambuf_iterator<wchar_t, std::__1::char_traits<wchar_t> > >::__do_get_signed<long>(std::__1::istreambuf_iterator<wchar_t, std::__1::char_traits<wchar_t> >, std::__1::istreambuf_iterator<wchar_t, std::__1::char_traits<wchar_t> >, std::__1::ios_base&, unsigned int&, long&) const
PUBLIC 18e4a 0 std::__1::num_get<wchar_t, std::__1::istreambuf_iterator<wchar_t, std::__1::char_traits<wchar_t> > >::do_get(std::__1::istreambuf_iterator<wchar_t, std::__1::char_traits<wchar_t> >, std::__1::istreambuf_iterator<wchar_t, std::__1::char_traits<wchar_t> >, std::__1::ios_base&, unsigned int&, long long&) const
PUBLIC 18e54 0 std::__1::istreambuf_iterator<wchar_t, std::__1::char_traits<wchar_t> > std::__1::num_get<wchar_t, std::__1::istreambuf_iterator<wchar_t, std::__1::char_traits<wchar_t> > >::__do_get_signed<long long>(std::__1::istreambuf_iterator<wchar_t, std::__1::char_traits<wchar_t> >, std::__1::istreambuf_iterator<wchar_t, std::__1::char_traits<wchar_t> >, std::__1::ios_base&, unsigned int&, long long&) const
PUBLIC 19256 0 std::__1::num_get<wchar_t, std::__1::istreambuf_iterator<wchar_t, std::__1::char_traits<wchar_t> > >::do_get(std::__1::istreambuf_iterator<wchar_t, std::__1::char_traits<wchar_t> >, std::__1::istreambuf_iterator<wchar_t, std::__1::char_traits<wchar_t> >, std::__1::ios_base&, unsigned int&, unsigned short&) const
PUBLIC 19260 0 std::__1::istreambuf_iterator<wchar_t, std::__1::char_traits<wchar_t> > std::__1::num_get<wchar_t, std::__1::istreambuf_iterator<wchar_t, std::__1::char_traits<wchar_t> > >::__do_get_unsigned<unsigned short>(std::__1::istreambuf_iterator<wchar_t, std::__1::char_traits<wchar_t> >, std::__1::istreambuf_iterator<wchar_t, std::__1::char_traits<wchar_t> >, std::__1::ios_base&, unsigned int&, unsigned short&) const
PUBLIC 19662 0 std::__1::num_get<wchar_t, std::__1::istreambuf_iterator<wchar_t, std::__1::char_traits<wchar_t> > >::do_get(std::__1::istreambuf_iterator<wchar_t, std::__1::char_traits<wchar_t> >, std::__1::istreambuf_iterator<wchar_t, std::__1::char_traits<wchar_t> >, std::__1::ios_base&, unsigned int&, unsigned int&) const
PUBLIC 1966c 0 std::__1::istreambuf_iterator<wchar_t, std::__1::char_traits<wchar_t> > std::__1::num_get<wchar_t, std::__1::istreambuf_iterator<wchar_t, std::__1::char_traits<wchar_t> > >::__do_get_unsigned<unsigned int>(std::__1::istreambuf_iterator<wchar_t, std::__1::char_traits<wchar_t> >, std::__1::istreambuf_iterator<wchar_t, std::__1::char_traits<wchar_t> >, std::__1::ios_base&, unsigned int&, unsigned int&) const
PUBLIC 19a6e 0 std::__1::num_get<wchar_t, std::__1::istreambuf_iterator<wchar_t, std::__1::char_traits<wchar_t> > >::do_get(std::__1::istreambuf_iterator<wchar_t, std::__1::char_traits<wchar_t> >, std::__1::istreambuf_iterator<wchar_t, std::__1::char_traits<wchar_t> >, std::__1::ios_base&, unsigned int&, unsigned long&) const
PUBLIC 19a78 0 std::__1::istreambuf_iterator<wchar_t, std::__1::char_traits<wchar_t> > std::__1::num_get<wchar_t, std::__1::istreambuf_iterator<wchar_t, std::__1::char_traits<wchar_t> > >::__do_get_unsigned<unsigned long>(std::__1::istreambuf_iterator<wchar_t, std::__1::char_traits<wchar_t> >, std::__1::istreambuf_iterator<wchar_t, std::__1::char_traits<wchar_t> >, std::__1::ios_base&, unsigned int&, unsigned long&) const
PUBLIC 19e7a 0 std::__1::num_get<wchar_t, std::__1::istreambuf_iterator<wchar_t, std::__1::char_traits<wchar_t> > >::do_get(std::__1::istreambuf_iterator<wchar_t, std::__1::char_traits<wchar_t> >, std::__1::istreambuf_iterator<wchar_t, std::__1::char_traits<wchar_t> >, std::__1::ios_base&, unsigned int&, unsigned long long&) const
PUBLIC 19e84 0 std::__1::istreambuf_iterator<wchar_t, std::__1::char_traits<wchar_t> > std::__1::num_get<wchar_t, std::__1::istreambuf_iterator<wchar_t, std::__1::char_traits<wchar_t> > >::__do_get_unsigned<unsigned long long>(std::__1::istreambuf_iterator<wchar_t, std::__1::char_traits<wchar_t> >, std::__1::istreambuf_iterator<wchar_t, std::__1::char_traits<wchar_t> >, std::__1::ios_base&, unsigned int&, unsigned long long&) const
PUBLIC 1a286 0 std::__1::num_get<wchar_t, std::__1::istreambuf_iterator<wchar_t, std::__1::char_traits<wchar_t> > >::do_get(std::__1::istreambuf_iterator<wchar_t, std::__1::char_traits<wchar_t> >, std::__1::istreambuf_iterator<wchar_t, std::__1::char_traits<wchar_t> >, std::__1::ios_base&, unsigned int&, float&) const
PUBLIC 1a290 0 std::__1::istreambuf_iterator<wchar_t, std::__1::char_traits<wchar_t> > std::__1::num_get<wchar_t, std::__1::istreambuf_iterator<wchar_t, std::__1::char_traits<wchar_t> > >::__do_get_floating_point<float>(std::__1::istreambuf_iterator<wchar_t, std::__1::char_traits<wchar_t> >, std::__1::istreambuf_iterator<wchar_t, std::__1::char_traits<wchar_t> >, std::__1::ios_base&, unsigned int&, float&) const
PUBLIC 1a688 0 std::__1::num_get<wchar_t, std::__1::istreambuf_iterator<wchar_t, std::__1::char_traits<wchar_t> > >::do_get(std::__1::istreambuf_iterator<wchar_t, std::__1::char_traits<wchar_t> >, std::__1::istreambuf_iterator<wchar_t, std::__1::char_traits<wchar_t> >, std::__1::ios_base&, unsigned int&, double&) const
PUBLIC 1a692 0 std::__1::istreambuf_iterator<wchar_t, std::__1::char_traits<wchar_t> > std::__1::num_get<wchar_t, std::__1::istreambuf_iterator<wchar_t, std::__1::char_traits<wchar_t> > >::__do_get_floating_point<double>(std::__1::istreambuf_iterator<wchar_t, std::__1::char_traits<wchar_t> >, std::__1::istreambuf_iterator<wchar_t, std::__1::char_traits<wchar_t> >, std::__1::ios_base&, unsigned int&, double&) const
PUBLIC 1aa8c 0 std::__1::num_get<wchar_t, std::__1::istreambuf_iterator<wchar_t, std::__1::char_traits<wchar_t> > >::do_get(std::__1::istreambuf_iterator<wchar_t, std::__1::char_traits<wchar_t> >, std::__1::istreambuf_iterator<wchar_t, std::__1::char_traits<wchar_t> >, std::__1::ios_base&, unsigned int&, long double&) const
PUBLIC 1aa96 0 std::__1::istreambuf_iterator<wchar_t, std::__1::char_traits<wchar_t> > std::__1::num_get<wchar_t, std::__1::istreambuf_iterator<wchar_t, std::__1::char_traits<wchar_t> > >::__do_get_floating_point<long double>(std::__1::istreambuf_iterator<wchar_t, std::__1::char_traits<wchar_t> >, std::__1::istreambuf_iterator<wchar_t, std::__1::char_traits<wchar_t> >, std::__1::ios_base&, unsigned int&, long double&) const
PUBLIC 1ae9a 0 std::__1::num_get<wchar_t, std::__1::istreambuf_iterator<wchar_t, std::__1::char_traits<wchar_t> > >::do_get(std::__1::istreambuf_iterator<wchar_t, std::__1::char_traits<wchar_t> >, std::__1::istreambuf_iterator<wchar_t, std::__1::char_traits<wchar_t> >, std::__1::ios_base&, unsigned int&, void*&) const
PUBLIC 1b280 0 std::__1::__num_get<wchar_t>::__stage2_int_loop(wchar_t, int, char*, char*&, unsigned int&, wchar_t, std::__1::basic_string<char, std::__1::char_traits<char>, std::__1::allocator<char> > const&, unsigned int*, unsigned int*&, wchar_t*)
PUBLIC 1b3b8 0 std::__1::__num_get<char>::__stage2_int_prep(std::__1::ios_base&, char*, char&)
PUBLIC 1b476 0 std::__1::__num_get<char>::__stage2_float_prep(std::__1::ios_base&, char*, char&, char&)
PUBLIC 1b544 0 std::__1::__num_get<char>::__stage2_float_loop(char, bool&, char&, char*, char*&, char, char, std::__1::basic_string<char, std::__1::char_traits<char>, std::__1::allocator<char> > const&, unsigned int*, unsigned int*&, unsigned int&, char*)
PUBLIC 1b710 0 std::__1::__num_get<wchar_t>::__stage2_int_prep(std::__1::ios_base&, wchar_t*, wchar_t&)
PUBLIC 1b7ce 0 std::__1::__num_get<wchar_t>::__stage2_float_prep(std::__1::ios_base&, wchar_t*, wchar_t&, wchar_t&)
PUBLIC 1b89c 0 std::__1::__num_get<wchar_t>::__stage2_float_loop(wchar_t, bool&, char&, char*, char*&, wchar_t, wchar_t, std::__1::basic_string<char, std::__1::char_traits<char>, std::__1::allocator<char> > const&, unsigned int*, unsigned int*&, unsigned int&, wchar_t*)
PUBLIC 1ba6c 0 std::__1::num_put<char, std::__1::ostreambuf_iterator<char, std::__1::char_traits<char> > >::num_put(unsigned long)
PUBLIC 1ba88 0 std::__1::num_put<char, std::__1::ostreambuf_iterator<char, std::__1::char_traits<char> > >::num_put(unsigned long)
PUBLIC 1baa4 0 std::__1::num_put<char, std::__1::ostreambuf_iterator<char, std::__1::char_traits<char> > >::put(std::__1::ostreambuf_iterator<char, std::__1::char_traits<char> >, std::__1::ios_base&, char, bool) const
PUBLIC 1bab6 0 std::__1::num_put<char, std::__1::ostreambuf_iterator<char, std::__1::char_traits<char> > >::put(std::__1::ostreambuf_iterator<char, std::__1::char_traits<char> >, std::__1::ios_base&, char, long) const
PUBLIC 1bac4 0 std::__1::num_put<char, std::__1::ostreambuf_iterator<char, std::__1::char_traits<char> > >::put(std::__1::ostreambuf_iterator<char, std::__1::char_traits<char> >, std::__1::ios_base&, char, long long) const
PUBLIC 1bad2 0 std::__1::num_put<char, std::__1::ostreambuf_iterator<char, std::__1::char_traits<char> > >::put(std::__1::ostreambuf_iterator<char, std::__1::char_traits<char> >, std::__1::ios_base&, char, unsigned long) const
PUBLIC 1bae0 0 std::__1::num_put<char, std::__1::ostreambuf_iterator<char, std::__1::char_traits<char> > >::put(std::__1::ostreambuf_iterator<char, std::__1::char_traits<char> >, std::__1::ios_base&, char, unsigned long long) const
PUBLIC 1baee 0 std::__1::num_put<char, std::__1::ostreambuf_iterator<char, std::__1::char_traits<char> > >::put(std::__1::ostreambuf_iterator<char, std::__1::char_traits<char> >, std::__1::ios_base&, char, double) const
PUBLIC 1bafc 0 std::__1::num_put<char, std::__1::ostreambuf_iterator<char, std::__1::char_traits<char> > >::put(std::__1::ostreambuf_iterator<char, std::__1::char_traits<char> >, std::__1::ios_base&, char, long double) const
PUBLIC 1bb0a 0 std::__1::num_put<char, std::__1::ostreambuf_iterator<char, std::__1::char_traits<char> > >::put(std::__1::ostreambuf_iterator<char, std::__1::char_traits<char> >, std::__1::ios_base&, char, void const*) const
PUBLIC 1bb18 0 std::__1::num_put<char, std::__1::ostreambuf_iterator<char, std::__1::char_traits<char> > >::~num_put()
PUBLIC 1bb22 0 std::__1::num_put<char, std::__1::ostreambuf_iterator<char, std::__1::char_traits<char> > >::~num_put()
PUBLIC 1bb2c 0 std::__1::num_put<char, std::__1::ostreambuf_iterator<char, std::__1::char_traits<char> > >::~num_put()
PUBLIC 1bb48 0 std::__1::num_put<char, std::__1::ostreambuf_iterator<char, std::__1::char_traits<char> > >::do_put(std::__1::ostreambuf_iterator<char, std::__1::char_traits<char> >, std::__1::ios_base&, char, bool) const
PUBLIC 1bca6 0 std::__1::num_put<char, std::__1::ostreambuf_iterator<char, std::__1::char_traits<char> > >::do_put(std::__1::ostreambuf_iterator<char, std::__1::char_traits<char> >, std::__1::ios_base&, char, long) const
PUBLIC 1be18 0 std::__1::__num_put_base::__format_int(char*, char const*, bool, unsigned int)
PUBLIC 1be78 0 std::__1::__num_put_base::__identify_padding(char*, char*, std::__1::ios_base const&)
PUBLIC 1bebc 0 std::__1::__num_put<char>::__widen_and_group_int(char*, char*, char*, char*, char*&, char*&, std::__1::locale const&)
PUBLIC 1c1c6 0 std::__1::ostreambuf_iterator<char, std::__1::char_traits<char> > std::__1::__pad_and_output<char, std::__1::char_traits<char> >(std::__1::ostreambuf_iterator<char, std::__1::char_traits<char> >, char const*, char const*, char const*, std::__1::ios_base&, char)
PUBLIC 1c32a 0 std::__1::num_put<char, std::__1::ostreambuf_iterator<char, std::__1::char_traits<char> > >::do_put(std::__1::ostreambuf_iterator<char, std::__1::char_traits<char> >, std::__1::ios_base&, char, long long) const
PUBLIC 1c498 0 std::__1::num_put<char, std::__1::ostreambuf_iterator<char, std::__1::char_traits<char> > >::do_put(std::__1::ostreambuf_iterator<char, std::__1::char_traits<char> >, std::__1::ios_base&, char, unsigned long) const
PUBLIC 1c608 0 std::__1::num_put<char, std::__1::ostreambuf_iterator<char, std::__1::char_traits<char> > >::do_put(std::__1::ostreambuf_iterator<char, std::__1::char_traits<char> >, std::__1::ios_base&, char, unsigned long long) const
PUBLIC 1c772 0 std::__1::num_put<char, std::__1::ostreambuf_iterator<char, std::__1::char_traits<char> > >::do_put(std::__1::ostreambuf_iterator<char, std::__1::char_traits<char> >, std::__1::ios_base&, char, double) const
PUBLIC 1ca4a 0 std::__1::__num_put_base::__format_float(char*, char const*, unsigned int)
PUBLIC 1cafc 0 std::__1::__num_put<char>::__widen_and_group_float(char*, char*, char*, char*, char*&, char*&, std::__1::locale const&)
PUBLIC 1ceca 0 std::__1::num_put<char, std::__1::ostreambuf_iterator<char, std::__1::char_traits<char> > >::do_put(std::__1::ostreambuf_iterator<char, std::__1::char_traits<char> >, std::__1::ios_base&, char, long double) const
PUBLIC 1d1a0 0 std::__1::num_put<char, std::__1::ostreambuf_iterator<char, std::__1::char_traits<char> > >::do_put(std::__1::ostreambuf_iterator<char, std::__1::char_traits<char> >, std::__1::ios_base&, char, void const*) const
PUBLIC 1d322 0 std::__1::num_put<wchar_t, std::__1::ostreambuf_iterator<wchar_t, std::__1::char_traits<wchar_t> > >::num_put(unsigned long)
PUBLIC 1d33e 0 std::__1::num_put<wchar_t, std::__1::ostreambuf_iterator<wchar_t, std::__1::char_traits<wchar_t> > >::num_put(unsigned long)
PUBLIC 1d35a 0 std::__1::num_put<wchar_t, std::__1::ostreambuf_iterator<wchar_t, std::__1::char_traits<wchar_t> > >::put(std::__1::ostreambuf_iterator<wchar_t, std::__1::char_traits<wchar_t> >, std::__1::ios_base&, wchar_t, bool) const
PUBLIC 1d36c 0 std::__1::num_put<wchar_t, std::__1::ostreambuf_iterator<wchar_t, std::__1::char_traits<wchar_t> > >::put(std::__1::ostreambuf_iterator<wchar_t, std::__1::char_traits<wchar_t> >, std::__1::ios_base&, wchar_t, long) const
PUBLIC 1d37a 0 std::__1::num_put<wchar_t, std::__1::ostreambuf_iterator<wchar_t, std::__1::char_traits<wchar_t> > >::put(std::__1::ostreambuf_iterator<wchar_t, std::__1::char_traits<wchar_t> >, std::__1::ios_base&, wchar_t, long long) const
PUBLIC 1d388 0 std::__1::num_put<wchar_t, std::__1::ostreambuf_iterator<wchar_t, std::__1::char_traits<wchar_t> > >::put(std::__1::ostreambuf_iterator<wchar_t, std::__1::char_traits<wchar_t> >, std::__1::ios_base&, wchar_t, unsigned long) const
PUBLIC 1d396 0 std::__1::num_put<wchar_t, std::__1::ostreambuf_iterator<wchar_t, std::__1::char_traits<wchar_t> > >::put(std::__1::ostreambuf_iterator<wchar_t, std::__1::char_traits<wchar_t> >, std::__1::ios_base&, wchar_t, unsigned long long) const
PUBLIC 1d3a4 0 std::__1::num_put<wchar_t, std::__1::ostreambuf_iterator<wchar_t, std::__1::char_traits<wchar_t> > >::put(std::__1::ostreambuf_iterator<wchar_t, std::__1::char_traits<wchar_t> >, std::__1::ios_base&, wchar_t, double) const
PUBLIC 1d3b2 0 std::__1::num_put<wchar_t, std::__1::ostreambuf_iterator<wchar_t, std::__1::char_traits<wchar_t> > >::put(std::__1::ostreambuf_iterator<wchar_t, std::__1::char_traits<wchar_t> >, std::__1::ios_base&, wchar_t, long double) const
PUBLIC 1d3c0 0 std::__1::num_put<wchar_t, std::__1::ostreambuf_iterator<wchar_t, std::__1::char_traits<wchar_t> > >::put(std::__1::ostreambuf_iterator<wchar_t, std::__1::char_traits<wchar_t> >, std::__1::ios_base&, wchar_t, void const*) const
PUBLIC 1d3ce 0 std::__1::num_put<wchar_t, std::__1::ostreambuf_iterator<wchar_t, std::__1::char_traits<wchar_t> > >::~num_put()
PUBLIC 1d3d8 0 std::__1::num_put<wchar_t, std::__1::ostreambuf_iterator<wchar_t, std::__1::char_traits<wchar_t> > >::~num_put()
PUBLIC 1d3e2 0 std::__1::num_put<wchar_t, std::__1::ostreambuf_iterator<wchar_t, std::__1::char_traits<wchar_t> > >::~num_put()
PUBLIC 1d3fe 0 std::__1::num_put<wchar_t, std::__1::ostreambuf_iterator<wchar_t, std::__1::char_traits<wchar_t> > >::do_put(std::__1::ostreambuf_iterator<wchar_t, std::__1::char_traits<wchar_t> >, std::__1::ios_base&, wchar_t, bool) const
PUBLIC 1d562 0 std::__1::num_put<wchar_t, std::__1::ostreambuf_iterator<wchar_t, std::__1::char_traits<wchar_t> > >::do_put(std::__1::ostreambuf_iterator<wchar_t, std::__1::char_traits<wchar_t> >, std::__1::ios_base&, wchar_t, long) const
PUBLIC 1d6da 0 std::__1::__num_put<wchar_t>::__widen_and_group_int(char*, char*, char*, wchar_t*, wchar_t*&, wchar_t*&, std::__1::locale const&)
PUBLIC 1d9cb 0 std::__1::ostreambuf_iterator<wchar_t, std::__1::char_traits<wchar_t> > std::__1::__pad_and_output<wchar_t, std::__1::char_traits<wchar_t> >(std::__1::ostreambuf_iterator<wchar_t, std::__1::char_traits<wchar_t> >, wchar_t const*, wchar_t const*, wchar_t const*, std::__1::ios_base&, wchar_t)
PUBLIC 1daf4 0 std::__1::num_put<wchar_t, std::__1::ostreambuf_iterator<wchar_t, std::__1::char_traits<wchar_t> > >::do_put(std::__1::ostreambuf_iterator<wchar_t, std::__1::char_traits<wchar_t> >, std::__1::ios_base&, wchar_t, long long) const
PUBLIC 1dc66 0 std::__1::num_put<wchar_t, std::__1::ostreambuf_iterator<wchar_t, std::__1::char_traits<wchar_t> > >::do_put(std::__1::ostreambuf_iterator<wchar_t, std::__1::char_traits<wchar_t> >, std::__1::ios_base&, wchar_t, unsigned long) const
PUBLIC 1ddda 0 std::__1::num_put<wchar_t, std::__1::ostreambuf_iterator<wchar_t, std::__1::char_traits<wchar_t> > >::do_put(std::__1::ostreambuf_iterator<wchar_t, std::__1::char_traits<wchar_t> >, std::__1::ios_base&, wchar_t, unsigned long long) const
PUBLIC 1df4a 0 std::__1::num_put<wchar_t, std::__1::ostreambuf_iterator<wchar_t, std::__1::char_traits<wchar_t> > >::do_put(std::__1::ostreambuf_iterator<wchar_t, std::__1::char_traits<wchar_t> >, std::__1::ios_base&, wchar_t, double) const
PUBLIC 1e218 0 std::__1::__num_put<wchar_t>::__widen_and_group_float(char*, char*, char*, wchar_t*, wchar_t*&, wchar_t*&, std::__1::locale const&)
PUBLIC 1e61e 0 std::__1::num_put<wchar_t, std::__1::ostreambuf_iterator<wchar_t, std::__1::char_traits<wchar_t> > >::do_put(std::__1::ostreambuf_iterator<wchar_t, std::__1::char_traits<wchar_t> >, std::__1::ios_base&, wchar_t, long double) const
PUBLIC 1e8ea 0 std::__1::num_put<wchar_t, std::__1::ostreambuf_iterator<wchar_t, std::__1::char_traits<wchar_t> > >::do_put(std::__1::ostreambuf_iterator<wchar_t, std::__1::char_traits<wchar_t> >, std::__1::ios_base&, wchar_t, void const*) const
PUBLIC 1ea74 0 std::__1::time_get<char, std::__1::istreambuf_iterator<char, std::__1::char_traits<char> > >::time_get(unsigned long)
PUBLIC 1ea98 0 std::__1::time_get<char, std::__1::istreambuf_iterator<char, std::__1::char_traits<char> > >::time_get(unsigned long)
PUBLIC 1eabc 0 std::__1::time_get<char, std::__1::istreambuf_iterator<char, std::__1::char_traits<char> > >::date_order() const
PUBLIC 1eac8 0 std::__1::time_get<char, std::__1::istreambuf_iterator<char, std::__1::char_traits<char> > >::get_time(std::__1::istreambuf_iterator<char, std::__1::char_traits<char> >, std::__1::istreambuf_iterator<char, std::__1::char_traits<char> >, std::__1::ios_base&, unsigned int&, tm*) const
PUBLIC 1ead6 0 std::__1::time_get<char, std::__1::istreambuf_iterator<char, std::__1::char_traits<char> > >::get_date(std::__1::istreambuf_iterator<char, std::__1::char_traits<char> >, std::__1::istreambuf_iterator<char, std::__1::char_traits<char> >, std::__1::ios_base&, unsigned int&, tm*) const
PUBLIC 1eae4 0 std::__1::time_get<char, std::__1::istreambuf_iterator<char, std::__1::char_traits<char> > >::get_weekday(std::__1::istreambuf_iterator<char, std::__1::char_traits<char> >, std::__1::istreambuf_iterator<char, std::__1::char_traits<char> >, std::__1::ios_base&, unsigned int&, tm*) const
PUBLIC 1eaf2 0 std::__1::time_get<char, std::__1::istreambuf_iterator<char, std::__1::char_traits<char> > >::get_monthname(std::__1::istreambuf_iterator<char, std::__1::char_traits<char> >, std::__1::istreambuf_iterator<char, std::__1::char_traits<char> >, std::__1::ios_base&, unsigned int&, tm*) const
PUBLIC 1eb00 0 std::__1::time_get<char, std::__1::istreambuf_iterator<char, std::__1::char_traits<char> > >::get_year(std::__1::istreambuf_iterator<char, std::__1::char_traits<char> >, std::__1::istreambuf_iterator<char, std::__1::char_traits<char> >, std::__1::ios_base&, unsigned int&, tm*) const
PUBLIC 1eb0e 0 std::__1::time_get<char, std::__1::istreambuf_iterator<char, std::__1::char_traits<char> > >::get(std::__1::istreambuf_iterator<char, std::__1::char_traits<char> >, std::__1::istreambuf_iterator<char, std::__1::char_traits<char> >, std::__1::ios_base&, unsigned int&, tm*, char, char) const
PUBLIC 1eb1c 0 std::__1::time_get<char, std::__1::istreambuf_iterator<char, std::__1::char_traits<char> > >::get(std::__1::istreambuf_iterator<char, std::__1::char_traits<char> >, std::__1::istreambuf_iterator<char, std::__1::char_traits<char> >, std::__1::ios_base&, unsigned int&, tm*, char const*, char const*) const
PUBLIC 1eef4 0 std::__1::time_get<char, std::__1::istreambuf_iterator<char, std::__1::char_traits<char> > >::~time_get()
PUBLIC 1eefe 0 std::__1::time_get<char, std::__1::istreambuf_iterator<char, std::__1::char_traits<char> > >::~time_get()
PUBLIC 1ef08 0 std::__1::time_get<char, std::__1::istreambuf_iterator<char, std::__1::char_traits<char> > >::~time_get()
PUBLIC 1ef24 0 std::__1::time_get<char, std::__1::istreambuf_iterator<char, std::__1::char_traits<char> > >::do_date_order() const
PUBLIC 1ef30 0 std::__1::time_get<char, std::__1::istreambuf_iterator<char, std::__1::char_traits<char> > >::do_get_time(std::__1::istreambuf_iterator<char, std::__1::char_traits<char> >, std::__1::istreambuf_iterator<char, std::__1::char_traits<char> >, std::__1::ios_base&, unsigned int&, tm*) const
PUBLIC 1ef5a 0 std::__1::time_get<char, std::__1::istreambuf_iterator<char, std::__1::char_traits<char> > >::do_get_date(std::__1::istreambuf_iterator<char, std::__1::char_traits<char> >, std::__1::istreambuf_iterator<char, std::__1::char_traits<char> >, std::__1::ios_base&, unsigned int&, tm*) const
PUBLIC 1efd2 0 std::__1::time_get<char, std::__1::istreambuf_iterator<char, std::__1::char_traits<char> > >::do_get_weekday(std::__1::istreambuf_iterator<char, std::__1::char_traits<char> >, std::__1::istreambuf_iterator<char, std::__1::char_traits<char> >, std::__1::ios_base&, unsigned int&, tm*) const
PUBLIC 1f070 0 std::__1::time_get<char, std::__1::istreambuf_iterator<char, std::__1::char_traits<char> > >::__get_weekdayname(int&, std::__1::istreambuf_iterator<char, std::__1::char_traits<char> >&, std::__1::istreambuf_iterator<char, std::__1::char_traits<char> >, unsigned int&, std::__1::ctype<char> const&) const
PUBLIC 1f11a 0 std::__1::time_get<char, std::__1::istreambuf_iterator<char, std::__1::char_traits<char> > >::do_get_monthname(std::__1::istreambuf_iterator<char, std::__1::char_traits<char> >, std::__1::istreambuf_iterator<char, std::__1::char_traits<char> >, std::__1::ios_base&, unsigned int&, tm*) const
PUBLIC 1f1b8 0 std::__1::time_get<char, std::__1::istreambuf_iterator<char, std::__1::char_traits<char> > >::__get_monthname(int&, std::__1::istreambuf_iterator<char, std::__1::char_traits<char> >&, std::__1::istreambuf_iterator<char, std::__1::char_traits<char> >, unsigned int&, std::__1::ctype<char> const&) const
PUBLIC 1f260 0 std::__1::time_get<char, std::__1::istreambuf_iterator<char, std::__1::char_traits<char> > >::do_get_year(std::__1::istreambuf_iterator<char, std::__1::char_traits<char> >, std::__1::istreambuf_iterator<char, std::__1::char_traits<char> >, std::__1::ios_base&, unsigned int&, tm*) const
PUBLIC 1f2fe 0 std::__1::time_get<char, std::__1::istreambuf_iterator<char, std::__1::char_traits<char> > >::__get_year(int&, std::__1::istreambuf_iterator<char, std::__1::char_traits<char> >&, std::__1::istreambuf_iterator<char, std::__1::char_traits<char> >, unsigned int&, std::__1::ctype<char> const&) const
PUBLIC 1f34e 0 std::__1::time_get<char, std::__1::istreambuf_iterator<char, std::__1::char_traits<char> > >::do_get(std::__1::istreambuf_iterator<char, std::__1::char_traits<char> >, std::__1::istreambuf_iterator<char, std::__1::char_traits<char> >, std::__1::ios_base&, unsigned int&, tm*, char, char) const
PUBLIC 1f890 0 std::__1::time_get<char, std::__1::istreambuf_iterator<char, std::__1::char_traits<char> > >::__get_day(int&, std::__1::istreambuf_iterator<char, std::__1::char_traits<char> >&, std::__1::istreambuf_iterator<char, std::__1::char_traits<char> >, unsigned int&, std::__1::ctype<char> const&) const
PUBLIC 1f8d4 0 std::__1::time_get<char, std::__1::istreambuf_iterator<char, std::__1::char_traits<char> > >::__get_hour(int&, std::__1::istreambuf_iterator<char, std::__1::char_traits<char> >&, std::__1::istreambuf_iterator<char, std::__1::char_traits<char> >, unsigned int&, std::__1::ctype<char> const&) const
PUBLIC 1f916 0 std::__1::time_get<char, std::__1::istreambuf_iterator<char, std::__1::char_traits<char> > >::__get_12_hour(int&, std::__1::istreambuf_iterator<char, std::__1::char_traits<char> >&, std::__1::istreambuf_iterator<char, std::__1::char_traits<char> >, unsigned int&, std::__1::ctype<char> const&) const
PUBLIC 1f95a 0 std::__1::time_get<char, std::__1::istreambuf_iterator<char, std::__1::char_traits<char> > >::__get_day_year_num(int&, std::__1::istreambuf_iterator<char, std::__1::char_traits<char> >&, std::__1::istreambuf_iterator<char, std::__1::char_traits<char> >, unsigned int&, std::__1::ctype<char> const&) const
PUBLIC 1f99e 0 std::__1::time_get<char, std::__1::istreambuf_iterator<char, std::__1::char_traits<char> > >::__get_month(int&, std::__1::istreambuf_iterator<char, std::__1::char_traits<char> >&, std::__1::istreambuf_iterator<char, std::__1::char_traits<char> >, unsigned int&, std::__1::ctype<char> const&) const
PUBLIC 1f9e2 0 std::__1::time_get<char, std::__1::istreambuf_iterator<char, std::__1::char_traits<char> > >::__get_minute(int&, std::__1::istreambuf_iterator<char, std::__1::char_traits<char> >&, std::__1::istreambuf_iterator<char, std::__1::char_traits<char> >, unsigned int&, std::__1::ctype<char> const&) const
PUBLIC 1fa24 0 std::__1::time_get<char, std::__1::istreambuf_iterator<char, std::__1::char_traits<char> > >::__get_white_space(std::__1::istreambuf_iterator<char, std::__1::char_traits<char> >&, std::__1::istreambuf_iterator<char, std::__1::char_traits<char> >, unsigned int&, std::__1::ctype<char> const&) const
PUBLIC 1fb6c 0 std::__1::time_get<char, std::__1::istreambuf_iterator<char, std::__1::char_traits<char> > >::__get_am_pm(int&, std::__1::istreambuf_iterator<char, std::__1::char_traits<char> >&, std::__1::istreambuf_iterator<char, std::__1::char_traits<char> >, unsigned int&, std::__1::ctype<char> const&) const
PUBLIC 1fc22 0 std::__1::time_get<char, std::__1::istreambuf_iterator<char, std::__1::char_traits<char> > >::__get_second(int&, std::__1::istreambuf_iterator<char, std::__1::char_traits<char> >&, std::__1::istreambuf_iterator<char, std::__1::char_traits<char> >, unsigned int&, std::__1::ctype<char> const&) const
PUBLIC 1fc64 0 std::__1::time_get<char, std::__1::istreambuf_iterator<char, std::__1::char_traits<char> > >::__get_weekday(int&, std::__1::istreambuf_iterator<char, std::__1::char_traits<char> >&, std::__1::istreambuf_iterator<char, std::__1::char_traits<char> >, unsigned int&, std::__1::ctype<char> const&) const
PUBLIC 1fca6 0 std::__1::time_get<char, std::__1::istreambuf_iterator<char, std::__1::char_traits<char> > >::__get_year4(int&, std::__1::istreambuf_iterator<char, std::__1::char_traits<char> >&, std::__1::istreambuf_iterator<char, std::__1::char_traits<char> >, unsigned int&, std::__1::ctype<char> const&) const
PUBLIC 1fcdc 0 std::__1::time_get<char, std::__1::istreambuf_iterator<char, std::__1::char_traits<char> > >::__get_percent(std::__1::istreambuf_iterator<char, std::__1::char_traits<char> >&, std::__1::istreambuf_iterator<char, std::__1::char_traits<char> >, unsigned int&, std::__1::ctype<char> const&) const
PUBLIC 1fe38 0 int std::__1::__get_up_to_n_digits<char, std::__1::istreambuf_iterator<char, std::__1::char_traits<char> > >(std::__1::istreambuf_iterator<char, std::__1::char_traits<char> >&, std::__1::istreambuf_iterator<char, std::__1::char_traits<char> >, unsigned int&, std::__1::ctype<char> const&, int)
PUBLIC 200e2 0 std::__1::time_get<wchar_t, std::__1::istreambuf_iterator<wchar_t, std::__1::char_traits<wchar_t> > >::time_get(unsigned long)
PUBLIC 20106 0 std::__1::time_get<wchar_t, std::__1::istreambuf_iterator<wchar_t, std::__1::char_traits<wchar_t> > >::time_get(unsigned long)
PUBLIC 2012a 0 std::__1::time_get<wchar_t, std::__1::istreambuf_iterator<wchar_t, std::__1::char_traits<wchar_t> > >::date_order() const
PUBLIC 20136 0 std::__1::time_get<wchar_t, std::__1::istreambuf_iterator<wchar_t, std::__1::char_traits<wchar_t> > >::get_time(std::__1::istreambuf_iterator<wchar_t, std::__1::char_traits<wchar_t> >, std::__1::istreambuf_iterator<wchar_t, std::__1::char_traits<wchar_t> >, std::__1::ios_base&, unsigned int&, tm*) const
PUBLIC 20144 0 std::__1::time_get<wchar_t, std::__1::istreambuf_iterator<wchar_t, std::__1::char_traits<wchar_t> > >::get_date(std::__1::istreambuf_iterator<wchar_t, std::__1::char_traits<wchar_t> >, std::__1::istreambuf_iterator<wchar_t, std::__1::char_traits<wchar_t> >, std::__1::ios_base&, unsigned int&, tm*) const
PUBLIC 20152 0 std::__1::time_get<wchar_t, std::__1::istreambuf_iterator<wchar_t, std::__1::char_traits<wchar_t> > >::get_weekday(std::__1::istreambuf_iterator<wchar_t, std::__1::char_traits<wchar_t> >, std::__1::istreambuf_iterator<wchar_t, std::__1::char_traits<wchar_t> >, std::__1::ios_base&, unsigned int&, tm*) const
PUBLIC 20160 0 std::__1::time_get<wchar_t, std::__1::istreambuf_iterator<wchar_t, std::__1::char_traits<wchar_t> > >::get_monthname(std::__1::istreambuf_iterator<wchar_t, std::__1::char_traits<wchar_t> >, std::__1::istreambuf_iterator<wchar_t, std::__1::char_traits<wchar_t> >, std::__1::ios_base&, unsigned int&, tm*) const
PUBLIC 2016e 0 std::__1::time_get<wchar_t, std::__1::istreambuf_iterator<wchar_t, std::__1::char_traits<wchar_t> > >::get_year(std::__1::istreambuf_iterator<wchar_t, std::__1::char_traits<wchar_t> >, std::__1::istreambuf_iterator<wchar_t, std::__1::char_traits<wchar_t> >, std::__1::ios_base&, unsigned int&, tm*) const
PUBLIC 2017c 0 std::__1::time_get<wchar_t, std::__1::istreambuf_iterator<wchar_t, std::__1::char_traits<wchar_t> > >::get(std::__1::istreambuf_iterator<wchar_t, std::__1::char_traits<wchar_t> >, std::__1::istreambuf_iterator<wchar_t, std::__1::char_traits<wchar_t> >, std::__1::ios_base&, unsigned int&, tm*, char, char) const
PUBLIC 2018a 0 std::__1::time_get<wchar_t, std::__1::istreambuf_iterator<wchar_t, std::__1::char_traits<wchar_t> > >::get(std::__1::istreambuf_iterator<wchar_t, std::__1::char_traits<wchar_t> >, std::__1::istreambuf_iterator<wchar_t, std::__1::char_traits<wchar_t> >, std::__1::ios_base&, unsigned int&, tm*, wchar_t const*, wchar_t const*) const
PUBLIC 2055c 0 std::__1::time_get<wchar_t, std::__1::istreambuf_iterator<wchar_t, std::__1::char_traits<wchar_t> > >::~time_get()
PUBLIC 20566 0 std::__1::time_get<wchar_t, std::__1::istreambuf_iterator<wchar_t, std::__1::char_traits<wchar_t> > >::~time_get()
PUBLIC 20570 0 std::__1::time_get<wchar_t, std::__1::istreambuf_iterator<wchar_t, std::__1::char_traits<wchar_t> > >::~time_get()
PUBLIC 2058c 0 std::__1::time_get<wchar_t, std::__1::istreambuf_iterator<wchar_t, std::__1::char_traits<wchar_t> > >::do_date_order() const
PUBLIC 20598 0 std::__1::time_get<wchar_t, std::__1::istreambuf_iterator<wchar_t, std::__1::char_traits<wchar_t> > >::do_get_time(std::__1::istreambuf_iterator<wchar_t, std::__1::char_traits<wchar_t> >, std::__1::istreambuf_iterator<wchar_t, std::__1::char_traits<wchar_t> >, std::__1::ios_base&, unsigned int&, tm*) const
PUBLIC 205c2 0 std::__1::time_get<wchar_t, std::__1::istreambuf_iterator<wchar_t, std::__1::char_traits<wchar_t> > >::do_get_date(std::__1::istreambuf_iterator<wchar_t, std::__1::char_traits<wchar_t> >, std::__1::istreambuf_iterator<wchar_t, std::__1::char_traits<wchar_t> >, std::__1::ios_base&, unsigned int&, tm*) const
PUBLIC 2063a 0 std::__1::time_get<wchar_t, std::__1::istreambuf_iterator<wchar_t, std::__1::char_traits<wchar_t> > >::do_get_weekday(std::__1::istreambuf_iterator<wchar_t, std::__1::char_traits<wchar_t> >, std::__1::istreambuf_iterator<wchar_t, std::__1::char_traits<wchar_t> >, std::__1::ios_base&, unsigned int&, tm*) const
PUBLIC 206d8 0 std::__1::time_get<wchar_t, std::__1::istreambuf_iterator<wchar_t, std::__1::char_traits<wchar_t> > >::__get_weekdayname(int&, std::__1::istreambuf_iterator<wchar_t, std::__1::char_traits<wchar_t> >&, std::__1::istreambuf_iterator<wchar_t, std::__1::char_traits<wchar_t> >, unsigned int&, std::__1::ctype<wchar_t> const&) const
PUBLIC 20782 0 std::__1::time_get<wchar_t, std::__1::istreambuf_iterator<wchar_t, std::__1::char_traits<wchar_t> > >::do_get_monthname(std::__1::istreambuf_iterator<wchar_t, std::__1::char_traits<wchar_t> >, std::__1::istreambuf_iterator<wchar_t, std::__1::char_traits<wchar_t> >, std::__1::ios_base&, unsigned int&, tm*) const
PUBLIC 20820 0 std::__1::time_get<wchar_t, std::__1::istreambuf_iterator<wchar_t, std::__1::char_traits<wchar_t> > >::__get_monthname(int&, std::__1::istreambuf_iterator<wchar_t, std::__1::char_traits<wchar_t> >&, std::__1::istreambuf_iterator<wchar_t, std::__1::char_traits<wchar_t> >, unsigned int&, std::__1::ctype<wchar_t> const&) const
PUBLIC 208c8 0 std::__1::time_get<wchar_t, std::__1::istreambuf_iterator<wchar_t, std::__1::char_traits<wchar_t> > >::do_get_year(std::__1::istreambuf_iterator<wchar_t, std::__1::char_traits<wchar_t> >, std::__1::istreambuf_iterator<wchar_t, std::__1::char_traits<wchar_t> >, std::__1::ios_base&, unsigned int&, tm*) const
PUBLIC 20966 0 std::__1::time_get<wchar_t, std::__1::istreambuf_iterator<wchar_t, std::__1::char_traits<wchar_t> > >::__get_year(int&, std::__1::istreambuf_iterator<wchar_t, std::__1::char_traits<wchar_t> >&, std::__1::istreambuf_iterator<wchar_t, std::__1::char_traits<wchar_t> >, unsigned int&, std::__1::ctype<wchar_t> const&) const
PUBLIC 209b6 0 std::__1::time_get<wchar_t, std::__1::istreambuf_iterator<wchar_t, std::__1::char_traits<wchar_t> > >::do_get(std::__1::istreambuf_iterator<wchar_t, std::__1::char_traits<wchar_t> >, std::__1::istreambuf_iterator<wchar_t, std::__1::char_traits<wchar_t> >, std::__1::ios_base&, unsigned int&, tm*, char, char) const
PUBLIC 20ef8 0 std::__1::time_get<wchar_t, std::__1::istreambuf_iterator<wchar_t, std::__1::char_traits<wchar_t> > >::__get_day(int&, std::__1::istreambuf_iterator<wchar_t, std::__1::char_traits<wchar_t> >&, std::__1::istreambuf_iterator<wchar_t, std::__1::char_traits<wchar_t> >, unsigned int&, std::__1::ctype<wchar_t> const&) const
PUBLIC 20f3c 0 std::__1::time_get<wchar_t, std::__1::istreambuf_iterator<wchar_t, std::__1::char_traits<wchar_t> > >::__get_hour(int&, std::__1::istreambuf_iterator<wchar_t, std::__1::char_traits<wchar_t> >&, std::__1::istreambuf_iterator<wchar_t, std::__1::char_traits<wchar_t> >, unsigned int&, std::__1::ctype<wchar_t> const&) const
PUBLIC 20f7e 0 std::__1::time_get<wchar_t, std::__1::istreambuf_iterator<wchar_t, std::__1::char_traits<wchar_t> > >::__get_12_hour(int&, std::__1::istreambuf_iterator<wchar_t, std::__1::char_traits<wchar_t> >&, std::__1::istreambuf_iterator<wchar_t, std::__1::char_traits<wchar_t> >, unsigned int&, std::__1::ctype<wchar_t> const&) const
PUBLIC 20fc2 0 std::__1::time_get<wchar_t, std::__1::istreambuf_iterator<wchar_t, std::__1::char_traits<wchar_t> > >::__get_day_year_num(int&, std::__1::istreambuf_iterator<wchar_t, std::__1::char_traits<wchar_t> >&, std::__1::istreambuf_iterator<wchar_t, std::__1::char_traits<wchar_t> >, unsigned int&, std::__1::ctype<wchar_t> const&) const
PUBLIC 21006 0 std::__1::time_get<wchar_t, std::__1::istreambuf_iterator<wchar_t, std::__1::char_traits<wchar_t> > >::__get_month(int&, std::__1::istreambuf_iterator<wchar_t, std::__1::char_traits<wchar_t> >&, std::__1::istreambuf_iterator<wchar_t, std::__1::char_traits<wchar_t> >, unsigned int&, std::__1::ctype<wchar_t> const&) const
PUBLIC 2104a 0 std::__1::time_get<wchar_t, std::__1::istreambuf_iterator<wchar_t, std::__1::char_traits<wchar_t> > >::__get_minute(int&, std::__1::istreambuf_iterator<wchar_t, std::__1::char_traits<wchar_t> >&, std::__1::istreambuf_iterator<wchar_t, std::__1::char_traits<wchar_t> >, unsigned int&, std::__1::ctype<wchar_t> const&) const
PUBLIC 2108c 0 std::__1::time_get<wchar_t, std::__1::istreambuf_iterator<wchar_t, std::__1::char_traits<wchar_t> > >::__get_white_space(std::__1::istreambuf_iterator<wchar_t, std::__1::char_traits<wchar_t> >&, std::__1::istreambuf_iterator<wchar_t, std::__1::char_traits<wchar_t> >, unsigned int&, std::__1::ctype<wchar_t> const&) const
PUBLIC 211ce 0 std::__1::time_get<wchar_t, std::__1::istreambuf_iterator<wchar_t, std::__1::char_traits<wchar_t> > >::__get_am_pm(int&, std::__1::istreambuf_iterator<wchar_t, std::__1::char_traits<wchar_t> >&, std::__1::istreambuf_iterator<wchar_t, std::__1::char_traits<wchar_t> >, unsigned int&, std::__1::ctype<wchar_t> const&) const
PUBLIC 21284 0 std::__1::time_get<wchar_t, std::__1::istreambuf_iterator<wchar_t, std::__1::char_traits<wchar_t> > >::__get_second(int&, std::__1::istreambuf_iterator<wchar_t, std::__1::char_traits<wchar_t> >&, std::__1::istreambuf_iterator<wchar_t, std::__1::char_traits<wchar_t> >, unsigned int&, std::__1::ctype<wchar_t> const&) const
PUBLIC 212c6 0 std::__1::time_get<wchar_t, std::__1::istreambuf_iterator<wchar_t, std::__1::char_traits<wchar_t> > >::__get_weekday(int&, std::__1::istreambuf_iterator<wchar_t, std::__1::char_traits<wchar_t> >&, std::__1::istreambuf_iterator<wchar_t, std::__1::char_traits<wchar_t> >, unsigned int&, std::__1::ctype<wchar_t> const&) const
PUBLIC 21308 0 std::__1::time_get<wchar_t, std::__1::istreambuf_iterator<wchar_t, std::__1::char_traits<wchar_t> > >::__get_year4(int&, std::__1::istreambuf_iterator<wchar_t, std::__1::char_traits<wchar_t> >&, std::__1::istreambuf_iterator<wchar_t, std::__1::char_traits<wchar_t> >, unsigned int&, std::__1::ctype<wchar_t> const&) const
PUBLIC 2133e 0 std::__1::time_get<wchar_t, std::__1::istreambuf_iterator<wchar_t, std::__1::char_traits<wchar_t> > >::__get_percent(std::__1::istreambuf_iterator<wchar_t, std::__1::char_traits<wchar_t> >&, std::__1::istreambuf_iterator<wchar_t, std::__1::char_traits<wchar_t> >, unsigned int&, std::__1::ctype<wchar_t> const&) const
PUBLIC 21489 0 int std::__1::__get_up_to_n_digits<wchar_t, std::__1::istreambuf_iterator<wchar_t, std::__1::char_traits<wchar_t> > >(std::__1::istreambuf_iterator<wchar_t, std::__1::char_traits<wchar_t> >&, std::__1::istreambuf_iterator<wchar_t, std::__1::char_traits<wchar_t> >, unsigned int&, std::__1::ctype<wchar_t> const&, int)
PUBLIC 2171c 0 std::__1::time_get_byname<char, std::__1::istreambuf_iterator<char, std::__1::char_traits<char> > >::time_get_byname(char const*, unsigned long)
PUBLIC 2177c 0 std::__1::__time_get_storage<char>::__time_get_storage(char const*)
PUBLIC 218ba 0 std::__1::time_get_byname<char, std::__1::istreambuf_iterator<char, std::__1::char_traits<char> > >::time_get_byname(char const*, unsigned long)
PUBLIC 2191a 0 std::__1::time_get_byname<char, std::__1::istreambuf_iterator<char, std::__1::char_traits<char> > >::time_get_byname(std::__1::basic_string<char, std::__1::char_traits<char>, std::__1::allocator<char> > const&, unsigned long)
PUBLIC 2197a 0 std::__1::__time_get_storage<char>::__time_get_storage(std::__1::basic_string<char, std::__1::char_traits<char>, std::__1::allocator<char> > const&)
PUBLIC 21ab8 0 std::__1::time_get_byname<char, std::__1::istreambuf_iterator<char, std::__1::char_traits<char> > >::time_get_byname(std::__1::basic_string<char, std::__1::char_traits<char>, std::__1::allocator<char> > const&, unsigned long)
PUBLIC 21b18 0 std::__1::time_get_byname<char, std::__1::istreambuf_iterator<char, std::__1::char_traits<char> > >::~time_get_byname()
PUBLIC 21bf4 0 std::__1::time_get_byname<char, std::__1::istreambuf_iterator<char, std::__1::char_traits<char> > >::~time_get_byname()
PUBLIC 21cd0 0 std::__1::time_get_byname<char, std::__1::istreambuf_iterator<char, std::__1::char_traits<char> > >::~time_get_byname()
PUBLIC 21db4 0 std::__1::time_get_byname<char, std::__1::istreambuf_iterator<char, std::__1::char_traits<char> > >::do_date_order() const
PUBLIC 21dc2 0 std::__1::__time_get_storage<char>::__do_date_order() const
PUBLIC 22126 0 std::__1::time_get_byname<char, std::__1::istreambuf_iterator<char, std::__1::char_traits<char> > >::__weeks() const
PUBLIC 22130 0 non-virtual thunk to std::__1::time_get_byname<char, std::__1::istreambuf_iterator<char, std::__1::char_traits<char> > >::__weeks() const
PUBLIC 2213a 0 std::__1::time_get_byname<char, std::__1::istreambuf_iterator<char, std::__1::char_traits<char> > >::__months() const
PUBLIC 22148 0 non-virtual thunk to std::__1::time_get_byname<char, std::__1::istreambuf_iterator<char, std::__1::char_traits<char> > >::__months() const
PUBLIC 22156 0 std::__1::time_get_byname<char, std::__1::istreambuf_iterator<char, std::__1::char_traits<char> > >::__am_pm() const
PUBLIC 22164 0 non-virtual thunk to std::__1::time_get_byname<char, std::__1::istreambuf_iterator<char, std::__1::char_traits<char> > >::__am_pm() const
PUBLIC 22172 0 std::__1::time_get_byname<char, std::__1::istreambuf_iterator<char, std::__1::char_traits<char> > >::__c() const
PUBLIC 22180 0 non-virtual thunk to std::__1::time_get_byname<char, std::__1::istreambuf_iterator<char, std::__1::char_traits<char> > >::__c() const
PUBLIC 2218e 0 std::__1::time_get_byname<char, std::__1::istreambuf_iterator<char, std::__1::char_traits<char> > >::__r() const
PUBLIC 2219c 0 non-virtual thunk to std::__1::time_get_byname<char, std::__1::istreambuf_iterator<char, std::__1::char_traits<char> > >::__r() const
PUBLIC 221aa 0 std::__1::time_get_byname<char, std::__1::istreambuf_iterator<char, std::__1::char_traits<char> > >::__x() const
PUBLIC 221b8 0 non-virtual thunk to std::__1::time_get_byname<char, std::__1::istreambuf_iterator<char, std::__1::char_traits<char> > >::__x() const
PUBLIC 221c6 0 std::__1::time_get_byname<char, std::__1::istreambuf_iterator<char, std::__1::char_traits<char> > >::__X() const
PUBLIC 221d4 0 non-virtual thunk to std::__1::time_get_byname<char, std::__1::istreambuf_iterator<char, std::__1::char_traits<char> > >::__X() const
PUBLIC 221e2 0 std::__1::time_get_byname<wchar_t, std::__1::istreambuf_iterator<wchar_t, std::__1::char_traits<wchar_t> > >::time_get_byname(char const*, unsigned long)
PUBLIC 22242 0 std::__1::__time_get_storage<wchar_t>::__time_get_storage(char const*)
PUBLIC 22380 0 std::__1::time_get_byname<wchar_t, std::__1::istreambuf_iterator<wchar_t, std::__1::char_traits<wchar_t> > >::time_get_byname(char const*, unsigned long)
PUBLIC 223e0 0 std::__1::time_get_byname<wchar_t, std::__1::istreambuf_iterator<wchar_t, std::__1::char_traits<wchar_t> > >::time_get_byname(std::__1::basic_string<char, std::__1::char_traits<char>, std::__1::allocator<char> > const&, unsigned long)
PUBLIC 22440 0 std::__1::__time_get_storage<wchar_t>::__time_get_storage(std::__1::basic_string<char, std::__1::char_traits<char>, std::__1::allocator<char> > const&)
PUBLIC 2257e 0 std::__1::time_get_byname<wchar_t, std::__1::istreambuf_iterator<wchar_t, std::__1::char_traits<wchar_t> > >::time_get_byname(std::__1::basic_string<char, std::__1::char_traits<char>, std::__1::allocator<char> > const&, unsigned long)
PUBLIC 225de 0 std::__1::time_get_byname<wchar_t, std::__1::istreambuf_iterator<wchar_t, std::__1::char_traits<wchar_t> > >::~time_get_byname()
PUBLIC 226ba 0 std::__1::time_get_byname<wchar_t, std::__1::istreambuf_iterator<wchar_t, std::__1::char_traits<wchar_t> > >::~time_get_byname()
PUBLIC 22796 0 std::__1::time_get_byname<wchar_t, std::__1::istreambuf_iterator<wchar_t, std::__1::char_traits<wchar_t> > >::~time_get_byname()
PUBLIC 2287a 0 std::__1::time_get_byname<wchar_t, std::__1::istreambuf_iterator<wchar_t, std::__1::char_traits<wchar_t> > >::do_date_order() const
PUBLIC 22888 0 std::__1::__time_get_storage<wchar_t>::__do_date_order() const
PUBLIC 22bea 0 std::__1::time_get_byname<wchar_t, std::__1::istreambuf_iterator<wchar_t, std::__1::char_traits<wchar_t> > >::__weeks() const
PUBLIC 22bf4 0 non-virtual thunk to std::__1::time_get_byname<wchar_t, std::__1::istreambuf_iterator<wchar_t, std::__1::char_traits<wchar_t> > >::__weeks() const
PUBLIC 22bfe 0 std::__1::time_get_byname<wchar_t, std::__1::istreambuf_iterator<wchar_t, std::__1::char_traits<wchar_t> > >::__months() const
PUBLIC 22c0c 0 non-virtual thunk to std::__1::time_get_byname<wchar_t, std::__1::istreambuf_iterator<wchar_t, std::__1::char_traits<wchar_t> > >::__months() const
PUBLIC 22c1a 0 std::__1::time_get_byname<wchar_t, std::__1::istreambuf_iterator<wchar_t, std::__1::char_traits<wchar_t> > >::__am_pm() const
PUBLIC 22c28 0 non-virtual thunk to std::__1::time_get_byname<wchar_t, std::__1::istreambuf_iterator<wchar_t, std::__1::char_traits<wchar_t> > >::__am_pm() const
PUBLIC 22c36 0 std::__1::time_get_byname<wchar_t, std::__1::istreambuf_iterator<wchar_t, std::__1::char_traits<wchar_t> > >::__c() const
PUBLIC 22c44 0 non-virtual thunk to std::__1::time_get_byname<wchar_t, std::__1::istreambuf_iterator<wchar_t, std::__1::char_traits<wchar_t> > >::__c() const
PUBLIC 22c52 0 std::__1::time_get_byname<wchar_t, std::__1::istreambuf_iterator<wchar_t, std::__1::char_traits<wchar_t> > >::__r() const
PUBLIC 22c60 0 non-virtual thunk to std::__1::time_get_byname<wchar_t, std::__1::istreambuf_iterator<wchar_t, std::__1::char_traits<wchar_t> > >::__r() const
PUBLIC 22c6e 0 std::__1::time_get_byname<wchar_t, std::__1::istreambuf_iterator<wchar_t, std::__1::char_traits<wchar_t> > >::__x() const
PUBLIC 22c7c 0 non-virtual thunk to std::__1::time_get_byname<wchar_t, std::__1::istreambuf_iterator<wchar_t, std::__1::char_traits<wchar_t> > >::__x() const
PUBLIC 22c8a 0 std::__1::time_get_byname<wchar_t, std::__1::istreambuf_iterator<wchar_t, std::__1::char_traits<wchar_t> > >::__X() const
PUBLIC 22c98 0 non-virtual thunk to std::__1::time_get_byname<wchar_t, std::__1::istreambuf_iterator<wchar_t, std::__1::char_traits<wchar_t> > >::__X() const
PUBLIC 22ca6 0 std::__1::time_put<char, std::__1::ostreambuf_iterator<char, std::__1::char_traits<char> > >::time_put(unsigned long)
PUBLIC 22cca 0 std::__1::time_put<char, std::__1::ostreambuf_iterator<char, std::__1::char_traits<char> > >::time_put(unsigned long)
PUBLIC 22cee 0 std::__1::time_put<char, std::__1::ostreambuf_iterator<char, std::__1::char_traits<char> > >::put(std::__1::ostreambuf_iterator<char, std::__1::char_traits<char> >, std::__1::ios_base&, char, tm const*, char const*, char const*) const
PUBLIC 22f16 0 std::__1::time_put<char, std::__1::ostreambuf_iterator<char, std::__1::char_traits<char> > >::put(std::__1::ostreambuf_iterator<char, std::__1::char_traits<char> >, std::__1::ios_base&, char, tm const*, char, char) const
PUBLIC 22f24 0 std::__1::time_put<char, std::__1::ostreambuf_iterator<char, std::__1::char_traits<char> > >::~time_put()
PUBLIC 22f44 0 std::__1::__time_put::~__time_put()
PUBLIC 22f60 0 std::__1::time_put<char, std::__1::ostreambuf_iterator<char, std::__1::char_traits<char> > >::~time_put()
PUBLIC 22f80 0 std::__1::time_put<char, std::__1::ostreambuf_iterator<char, std::__1::char_traits<char> > >::~time_put()
PUBLIC 22fa8 0 std::__1::time_put<char, std::__1::ostreambuf_iterator<char, std::__1::char_traits<char> > >::do_put(std::__1::ostreambuf_iterator<char, std::__1::char_traits<char> >, std::__1::ios_base&, char, tm const*, char, char) const
PUBLIC 2306a 0 std::__1::__time_put::__do_put(char*, char*&, tm const*, char, char) const
PUBLIC 230be 0 std::__1::time_put<char, std::__1::ostreambuf_iterator<char, std::__1::char_traits<char> > >::time_put(char const*, unsigned long)
PUBLIC 23108 0 std::__1::__time_put::__time_put(char const*)
PUBLIC 23226 0 std::__1::time_put<char, std::__1::ostreambuf_iterator<char, std::__1::char_traits<char> > >::time_put(char const*, unsigned long)
PUBLIC 23270 0 std::__1::time_put<char, std::__1::ostreambuf_iterator<char, std::__1::char_traits<char> > >::time_put(std::__1::basic_string<char, std::__1::char_traits<char>, std::__1::allocator<char> > const&, unsigned long)
PUBLIC 232ba 0 std::__1::__time_put::__time_put(std::__1::basic_string<char, std::__1::char_traits<char>, std::__1::allocator<char> > const&)
PUBLIC 2332c 0 std::__1::time_put<char, std::__1::ostreambuf_iterator<char, std::__1::char_traits<char> > >::time_put(std::__1::basic_string<char, std::__1::char_traits<char>, std::__1::allocator<char> > const&, unsigned long)
PUBLIC 23376 0 std::__1::time_put<wchar_t, std::__1::ostreambuf_iterator<wchar_t, std::__1::char_traits<wchar_t> > >::time_put(unsigned long)
PUBLIC 2339a 0 std::__1::time_put<wchar_t, std::__1::ostreambuf_iterator<wchar_t, std::__1::char_traits<wchar_t> > >::time_put(unsigned long)
PUBLIC 233be 0 std::__1::time_put<wchar_t, std::__1::ostreambuf_iterator<wchar_t, std::__1::char_traits<wchar_t> > >::put(std::__1::ostreambuf_iterator<wchar_t, std::__1::char_traits<wchar_t> >, std::__1::ios_base&, wchar_t, tm const*, wchar_t const*, wchar_t const*) const
PUBLIC 235a8 0 std::__1::time_put<wchar_t, std::__1::ostreambuf_iterator<wchar_t, std::__1::char_traits<wchar_t> > >::put(std::__1::ostreambuf_iterator<wchar_t, std::__1::char_traits<wchar_t> >, std::__1::ios_base&, wchar_t, tm const*, char, char) const
PUBLIC 235b6 0 std::__1::time_put<wchar_t, std::__1::ostreambuf_iterator<wchar_t, std::__1::char_traits<wchar_t> > >::~time_put()
PUBLIC 235d6 0 std::__1::time_put<wchar_t, std::__1::ostreambuf_iterator<wchar_t, std::__1::char_traits<wchar_t> > >::~time_put()
PUBLIC 235f6 0 std::__1::time_put<wchar_t, std::__1::ostreambuf_iterator<wchar_t, std::__1::char_traits<wchar_t> > >::~time_put()
PUBLIC 2361e 0 std::__1::time_put<wchar_t, std::__1::ostreambuf_iterator<wchar_t, std::__1::char_traits<wchar_t> > >::do_put(std::__1::ostreambuf_iterator<wchar_t, std::__1::char_traits<wchar_t> >, std::__1::ios_base&, wchar_t, tm const*, char, char) const
PUBLIC 236e2 0 std::__1::__time_put::__do_put(wchar_t*, wchar_t*&, tm const*, char, char) const
PUBLIC 237ae 0 std::__1::time_put<wchar_t, std::__1::ostreambuf_iterator<wchar_t, std::__1::char_traits<wchar_t> > >::time_put(char const*, unsigned long)
PUBLIC 237f8 0 std::__1::time_put<wchar_t, std::__1::ostreambuf_iterator<wchar_t, std::__1::char_traits<wchar_t> > >::time_put(char const*, unsigned long)
PUBLIC 23842 0 std::__1::time_put<wchar_t, std::__1::ostreambuf_iterator<wchar_t, std::__1::char_traits<wchar_t> > >::time_put(std::__1::basic_string<char, std::__1::char_traits<char>, std::__1::allocator<char> > const&, unsigned long)
PUBLIC 2388c 0 std::__1::time_put<wchar_t, std::__1::ostreambuf_iterator<wchar_t, std::__1::char_traits<wchar_t> > >::time_put(std::__1::basic_string<char, std::__1::char_traits<char>, std::__1::allocator<char> > const&, unsigned long)
PUBLIC 238d6 0 std::__1::time_put_byname<char, std::__1::ostreambuf_iterator<char, std::__1::char_traits<char> > >::time_put_byname(char const*, unsigned long)
PUBLIC 23920 0 std::__1::time_put_byname<char, std::__1::ostreambuf_iterator<char, std::__1::char_traits<char> > >::time_put_byname(char const*, unsigned long)
PUBLIC 2396a 0 std::__1::time_put_byname<char, std::__1::ostreambuf_iterator<char, std::__1::char_traits<char> > >::time_put_byname(std::__1::basic_string<char, std::__1::char_traits<char>, std::__1::allocator<char> > const&, unsigned long)
PUBLIC 239b4 0 std::__1::time_put_byname<char, std::__1::ostreambuf_iterator<char, std::__1::char_traits<char> > >::time_put_byname(std::__1::basic_string<char, std::__1::char_traits<char>, std::__1::allocator<char> > const&, unsigned long)
PUBLIC 239fe 0 std::__1::time_put_byname<char, std::__1::ostreambuf_iterator<char, std::__1::char_traits<char> > >::~time_put_byname()
PUBLIC 23a1e 0 std::__1::time_put_byname<char, std::__1::ostreambuf_iterator<char, std::__1::char_traits<char> > >::~time_put_byname()
PUBLIC 23a3e 0 std::__1::time_put_byname<char, std::__1::ostreambuf_iterator<char, std::__1::char_traits<char> > >::~time_put_byname()
PUBLIC 23a66 0 std::__1::time_put_byname<wchar_t, std::__1::ostreambuf_iterator<wchar_t, std::__1::char_traits<wchar_t> > >::time_put_byname(char const*, unsigned long)
PUBLIC 23ab0 0 std::__1::time_put_byname<wchar_t, std::__1::ostreambuf_iterator<wchar_t, std::__1::char_traits<wchar_t> > >::time_put_byname(char const*, unsigned long)
PUBLIC 23afa 0 std::__1::time_put_byname<wchar_t, std::__1::ostreambuf_iterator<wchar_t, std::__1::char_traits<wchar_t> > >::time_put_byname(std::__1::basic_string<char, std::__1::char_traits<char>, std::__1::allocator<char> > const&, unsigned long)
PUBLIC 23b44 0 std::__1::time_put_byname<wchar_t, std::__1::ostreambuf_iterator<wchar_t, std::__1::char_traits<wchar_t> > >::time_put_byname(std::__1::basic_string<char, std::__1::char_traits<char>, std::__1::allocator<char> > const&, unsigned long)
PUBLIC 23b8e 0 std::__1::time_put_byname<wchar_t, std::__1::ostreambuf_iterator<wchar_t, std::__1::char_traits<wchar_t> > >::~time_put_byname()
PUBLIC 23bae 0 std::__1::time_put_byname<wchar_t, std::__1::ostreambuf_iterator<wchar_t, std::__1::char_traits<wchar_t> > >::~time_put_byname()
PUBLIC 23bce 0 std::__1::time_put_byname<wchar_t, std::__1::ostreambuf_iterator<wchar_t, std::__1::char_traits<wchar_t> > >::~time_put_byname()
PUBLIC 23bf6 0 std::__1::moneypunct<char, false>::moneypunct(unsigned long)
PUBLIC 23c12 0 std::__1::moneypunct<char, false>::moneypunct(unsigned long)
PUBLIC 23c2e 0 std::__1::moneypunct<char, false>::decimal_point() const
PUBLIC 23c3a 0 std::__1::moneypunct<char, false>::thousands_sep() const
PUBLIC 23c46 0 std::__1::moneypunct<char, false>::grouping() const
PUBLIC 23c60 0 std::__1::moneypunct<char, false>::curr_symbol() const
PUBLIC 23c7a 0 std::__1::moneypunct<char, false>::positive_sign() const
PUBLIC 23c94 0 std::__1::moneypunct<char, false>::negative_sign() const
PUBLIC 23cae 0 std::__1::moneypunct<char, false>::frac_digits() const
PUBLIC 23cba 0 std::__1::moneypunct<char, false>::pos_format() const
PUBLIC 23cc6 0 std::__1::moneypunct<char, false>::neg_format() const
PUBLIC 23cd2 0 std::__1::moneypunct<char, false>::~moneypunct()
PUBLIC 23cdc 0 std::__1::moneypunct<char, false>::~moneypunct()
PUBLIC 23ce6 0 std::__1::moneypunct<char, false>::~moneypunct()
PUBLIC 23d02 0 std::__1::moneypunct<char, false>::do_decimal_point() const
PUBLIC 23d0e 0 std::__1::moneypunct<char, false>::do_thousands_sep() const
PUBLIC 23d1a 0 std::__1::moneypunct<char, false>::do_grouping() const
PUBLIC 23d30 0 std::__1::moneypunct<char, false>::do_curr_symbol() const
PUBLIC 23d46 0 std::__1::moneypunct<char, false>::do_positive_sign() const
PUBLIC 23d5c 0 std::__1::moneypunct<char, false>::do_negative_sign() const
PUBLIC 23d7c 0 std::__1::moneypunct<char, false>::do_frac_digits() const
PUBLIC 23d84 0 std::__1::moneypunct<char, false>::do_pos_format() const
PUBLIC 23d90 0 std::__1::moneypunct<char, false>::do_neg_format() const
PUBLIC 23d9c 0 std::__1::moneypunct<char, true>::moneypunct(unsigned long)
PUBLIC 23db8 0 std::__1::moneypunct<char, true>::moneypunct(unsigned long)
PUBLIC 23dd4 0 std::__1::moneypunct<char, true>::decimal_point() const
PUBLIC 23de0 0 std::__1::moneypunct<char, true>::thousands_sep() const
PUBLIC 23dec 0 std::__1::moneypunct<char, true>::grouping() const
PUBLIC 23e06 0 std::__1::moneypunct<char, true>::curr_symbol() const
PUBLIC 23e20 0 std::__1::moneypunct<char, true>::positive_sign() const
PUBLIC 23e3a 0 std::__1::moneypunct<char, true>::negative_sign() const
PUBLIC 23e54 0 std::__1::moneypunct<char, true>::frac_digits() const
PUBLIC 23e60 0 std::__1::moneypunct<char, true>::pos_format() const
PUBLIC 23e6c 0 std::__1::moneypunct<char, true>::neg_format() const
PUBLIC 23e78 0 std::__1::moneypunct<char, true>::~moneypunct()
PUBLIC 23e82 0 std::__1::moneypunct<char, true>::~moneypunct()
PUBLIC 23e8c 0 std::__1::moneypunct<char, true>::~moneypunct()
PUBLIC 23ea8 0 std::__1::moneypunct<char, true>::do_decimal_point() const
PUBLIC 23eb4 0 std::__1::moneypunct<char, true>::do_thousands_sep() const
PUBLIC 23ec0 0 std::__1::moneypunct<char, true>::do_grouping() const
PUBLIC 23ed6 0 std::__1::moneypunct<char, true>::do_curr_symbol() const
PUBLIC 23eec 0 std::__1::moneypunct<char, true>::do_positive_sign() const
PUBLIC 23f02 0 std::__1::moneypunct<char, true>::do_negative_sign() const
PUBLIC 23f22 0 std::__1::moneypunct<char, true>::do_frac_digits() const
PUBLIC 23f2a 0 std::__1::moneypunct<char, true>::do_pos_format() const
PUBLIC 23f36 0 std::__1::moneypunct<char, true>::do_neg_format() const
PUBLIC 23f42 0 std::__1::moneypunct<wchar_t, false>::moneypunct(unsigned long)
PUBLIC 23f5e 0 std::__1::moneypunct<wchar_t, false>::moneypunct(unsigned long)
PUBLIC 23f7a 0 std::__1::moneypunct<wchar_t, false>::decimal_point() const
PUBLIC 23f86 0 std::__1::moneypunct<wchar_t, false>::thousands_sep() const
PUBLIC 23f92 0 std::__1::moneypunct<wchar_t, false>::grouping() const
PUBLIC 23fac 0 std::__1::moneypunct<wchar_t, false>::curr_symbol() const
PUBLIC 23fc6 0 std::__1::moneypunct<wchar_t, false>::positive_sign() const
PUBLIC 23fe0 0 std::__1::moneypunct<wchar_t, false>::negative_sign() const
PUBLIC 23ffa 0 std::__1::moneypunct<wchar_t, false>::frac_digits() const
PUBLIC 24006 0 std::__1::moneypunct<wchar_t, false>::pos_format() const
PUBLIC 24012 0 std::__1::moneypunct<wchar_t, false>::neg_format() const
PUBLIC 2401e 0 std::__1::moneypunct<wchar_t, false>::~moneypunct()
PUBLIC 24028 0 std::__1::moneypunct<wchar_t, false>::~moneypunct()
PUBLIC 24032 0 std::__1::moneypunct<wchar_t, false>::~moneypunct()
PUBLIC 2404e 0 std::__1::moneypunct<wchar_t, false>::do_decimal_point() const
PUBLIC 2405a 0 std::__1::moneypunct<wchar_t, false>::do_thousands_sep() const
PUBLIC 24066 0 std::__1::moneypunct<wchar_t, false>::do_grouping() const
PUBLIC 2407c 0 std::__1::moneypunct<wchar_t, false>::do_curr_symbol() const
PUBLIC 24092 0 std::__1::moneypunct<wchar_t, false>::do_positive_sign() const
PUBLIC 240a8 0 std::__1::moneypunct<wchar_t, false>::do_negative_sign() const
PUBLIC 240ee 0 std::__1::moneypunct<wchar_t, false>::do_frac_digits() const
PUBLIC 240f6 0 std::__1::moneypunct<wchar_t, false>::do_pos_format() const
PUBLIC 24102 0 std::__1::moneypunct<wchar_t, false>::do_neg_format() const
PUBLIC 2410e 0 std::__1::moneypunct<wchar_t, true>::moneypunct(unsigned long)
PUBLIC 2412a 0 std::__1::moneypunct<wchar_t, true>::moneypunct(unsigned long)
PUBLIC 24146 0 std::__1::moneypunct<wchar_t, true>::decimal_point() const
PUBLIC 24152 0 std::__1::moneypunct<wchar_t, true>::thousands_sep() const
PUBLIC 2415e 0 std::__1::moneypunct<wchar_t, true>::grouping() const
PUBLIC 24178 0 std::__1::moneypunct<wchar_t, true>::curr_symbol() const
PUBLIC 24192 0 std::__1::moneypunct<wchar_t, true>::positive_sign() const
PUBLIC 241ac 0 std::__1::moneypunct<wchar_t, true>::negative_sign() const
PUBLIC 241c6 0 std::__1::moneypunct<wchar_t, true>::frac_digits() const
PUBLIC 241d2 0 std::__1::moneypunct<wchar_t, true>::pos_format() const
PUBLIC 241de 0 std::__1::moneypunct<wchar_t, true>::neg_format() const
PUBLIC 241ea 0 std::__1::moneypunct<wchar_t, true>::~moneypunct()
PUBLIC 241f4 0 std::__1::moneypunct<wchar_t, true>::~moneypunct()
PUBLIC 241fe 0 std::__1::moneypunct<wchar_t, true>::~moneypunct()
PUBLIC 2421a 0 std::__1::moneypunct<wchar_t, true>::do_decimal_point() const
PUBLIC 24226 0 std::__1::moneypunct<wchar_t, true>::do_thousands_sep() const
PUBLIC 24232 0 std::__1::moneypunct<wchar_t, true>::do_grouping() const
PUBLIC 24248 0 std::__1::moneypunct<wchar_t, true>::do_curr_symbol() const
PUBLIC 2425e 0 std::__1::moneypunct<wchar_t, true>::do_positive_sign() const
PUBLIC 24274 0 std::__1::moneypunct<wchar_t, true>::do_negative_sign() const
PUBLIC 242ba 0 std::__1::moneypunct<wchar_t, true>::do_frac_digits() const
PUBLIC 242c2 0 std::__1::moneypunct<wchar_t, true>::do_pos_format() const
PUBLIC 242ce 0 std::__1::moneypunct<wchar_t, true>::do_neg_format() const
PUBLIC 242da 0 std::__1::moneypunct_byname<char, false>::moneypunct_byname(char const*, unsigned long)
PUBLIC 24392 0 std::__1::moneypunct_byname<char, false>::init(char const*)
PUBLIC 24606 0 std::__1::moneypunct_byname<char, false>::moneypunct_byname(char const*, unsigned long)
PUBLIC 246be 0 std::__1::moneypunct_byname<char, false>::moneypunct_byname(std::__1::basic_string<char, std::__1::char_traits<char>, std::__1::allocator<char> > const&, unsigned long)
PUBLIC 24784 0 std::__1::moneypunct_byname<char, false>::moneypunct_byname(std::__1::basic_string<char, std::__1::char_traits<char>, std::__1::allocator<char> > const&, unsigned long)
PUBLIC 2484a 0 std::__1::moneypunct_byname<char, false>::~moneypunct_byname()
PUBLIC 248ac 0 std::__1::moneypunct_byname<char, false>::~moneypunct_byname()
PUBLIC 2490e 0 std::__1::moneypunct_byname<char, false>::~moneypunct_byname()
PUBLIC 24978 0 std::__1::moneypunct_byname<char, false>::do_decimal_point() const
PUBLIC 24982 0 std::__1::moneypunct_byname<char, false>::do_thousands_sep() const
PUBLIC 2498c 0 std::__1::moneypunct_byname<char, false>::do_grouping() const
PUBLIC 249a8 0 std::__1::moneypunct_byname<char, false>::do_curr_symbol() const
PUBLIC 249c4 0 std::__1::moneypunct_byname<char, false>::do_positive_sign() const
PUBLIC 249e0 0 std::__1::moneypunct_byname<char, false>::do_negative_sign() const
PUBLIC 249fc 0 std::__1::moneypunct_byname<char, false>::do_frac_digits() const
PUBLIC 24a06 0 std::__1::moneypunct_byname<char, false>::do_pos_format() const
PUBLIC 24a10 0 std::__1::moneypunct_byname<char, false>::do_neg_format() const
PUBLIC 24a1c 0 std::__1::moneypunct_byname<char, true>::moneypunct_byname(char const*, unsigned long)
PUBLIC 24ad4 0 std::__1::moneypunct_byname<char, true>::init(char const*)
PUBLIC 24d4e 0 std::__1::moneypunct_byname<char, true>::moneypunct_byname(char const*, unsigned long)
PUBLIC 24e06 0 std::__1::moneypunct_byname<char, true>::moneypunct_byname(std::__1::basic_string<char, std::__1::char_traits<char>, std::__1::allocator<char> > const&, unsigned long)
PUBLIC 24ecc 0 std::__1::moneypunct_byname<char, true>::moneypunct_byname(std::__1::basic_string<char, std::__1::char_traits<char>, std::__1::allocator<char> > const&, unsigned long)
PUBLIC 24f92 0 std::__1::moneypunct_byname<char, true>::~moneypunct_byname()
PUBLIC 24ff4 0 std::__1::moneypunct_byname<char, true>::~moneypunct_byname()
PUBLIC 25056 0 std::__1::moneypunct_byname<char, true>::~moneypunct_byname()
PUBLIC 250c0 0 std::__1::moneypunct_byname<char, true>::do_decimal_point() const
PUBLIC 250ca 0 std::__1::moneypunct_byname<char, true>::do_thousands_sep() const
PUBLIC 250d4 0 std::__1::moneypunct_byname<char, true>::do_grouping() const
PUBLIC 250f0 0 std::__1::moneypunct_byname<char, true>::do_curr_symbol() const
PUBLIC 2510c 0 std::__1::moneypunct_byname<char, true>::do_positive_sign() const
PUBLIC 25128 0 std::__1::moneypunct_byname<char, true>::do_negative_sign() const
PUBLIC 25144 0 std::__1::moneypunct_byname<char, true>::do_frac_digits() const
PUBLIC 2514e 0 std::__1::moneypunct_byname<char, true>::do_pos_format() const
PUBLIC 25158 0 std::__1::moneypunct_byname<char, true>::do_neg_format() const
PUBLIC 25164 0 std::__1::moneypunct_byname<wchar_t, false>::moneypunct_byname(char const*, unsigned long)
PUBLIC 2521c 0 std::__1::moneypunct_byname<wchar_t, false>::init(char const*)
PUBLIC 25644 0 std::__1::moneypunct_byname<wchar_t, false>::moneypunct_byname(char const*, unsigned long)
PUBLIC 256fc 0 std::__1::moneypunct_byname<wchar_t, false>::moneypunct_byname(std::__1::basic_string<char, std::__1::char_traits<char>, std::__1::allocator<char> > const&, unsigned long)
PUBLIC 257c2 0 std::__1::moneypunct_byname<wchar_t, false>::moneypunct_byname(std::__1::basic_string<char, std::__1::char_traits<char>, std::__1::allocator<char> > const&, unsigned long)
PUBLIC 25888 0 std::__1::moneypunct_byname<wchar_t, false>::~moneypunct_byname()
PUBLIC 258ea 0 std::__1::moneypunct_byname<wchar_t, false>::~moneypunct_byname()
PUBLIC 2594c 0 std::__1::moneypunct_byname<wchar_t, false>::~moneypunct_byname()
PUBLIC 259b6 0 std::__1::moneypunct_byname<wchar_t, false>::do_decimal_point() const
PUBLIC 259c0 0 std::__1::moneypunct_byname<wchar_t, false>::do_thousands_sep() const
PUBLIC 259ca 0 std::__1::moneypunct_byname<wchar_t, false>::do_grouping() const
PUBLIC 259e6 0 std::__1::moneypunct_byname<wchar_t, false>::do_curr_symbol() const
PUBLIC 25a02 0 std::__1::moneypunct_byname<wchar_t, false>::do_positive_sign() const
PUBLIC 25a1e 0 std::__1::moneypunct_byname<wchar_t, false>::do_negative_sign() const
PUBLIC 25a3a 0 std::__1::moneypunct_byname<wchar_t, false>::do_frac_digits() const
PUBLIC 25a44 0 std::__1::moneypunct_byname<wchar_t, false>::do_pos_format() const
PUBLIC 25a4e 0 std::__1::moneypunct_byname<wchar_t, false>::do_neg_format() const
PUBLIC 25a5a 0 std::__1::moneypunct_byname<wchar_t, true>::moneypunct_byname(char const*, unsigned long)
PUBLIC 25b12 0 std::__1::moneypunct_byname<wchar_t, true>::init(char const*)
PUBLIC 25f40 0 std::__1::moneypunct_byname<wchar_t, true>::moneypunct_byname(char const*, unsigned long)
PUBLIC 25ff8 0 std::__1::moneypunct_byname<wchar_t, true>::moneypunct_byname(std::__1::basic_string<char, std::__1::char_traits<char>, std::__1::allocator<char> > const&, unsigned long)
PUBLIC 260be 0 std::__1::moneypunct_byname<wchar_t, true>::moneypunct_byname(std::__1::basic_string<char, std::__1::char_traits<char>, std::__1::allocator<char> > const&, unsigned long)
PUBLIC 26184 0 std::__1::moneypunct_byname<wchar_t, true>::~moneypunct_byname()
PUBLIC 261e6 0 std::__1::moneypunct_byname<wchar_t, true>::~moneypunct_byname()
PUBLIC 26248 0 std::__1::moneypunct_byname<wchar_t, true>::~moneypunct_byname()
PUBLIC 262b2 0 std::__1::moneypunct_byname<wchar_t, true>::do_decimal_point() const
PUBLIC 262bc 0 std::__1::moneypunct_byname<wchar_t, true>::do_thousands_sep() const
PUBLIC 262c6 0 std::__1::moneypunct_byname<wchar_t, true>::do_grouping() const
PUBLIC 262e2 0 std::__1::moneypunct_byname<wchar_t, true>::do_curr_symbol() const
PUBLIC 262fe 0 std::__1::moneypunct_byname<wchar_t, true>::do_positive_sign() const
PUBLIC 2631a 0 std::__1::moneypunct_byname<wchar_t, true>::do_negative_sign() const
PUBLIC 26336 0 std::__1::moneypunct_byname<wchar_t, true>::do_frac_digits() const
PUBLIC 26340 0 std::__1::moneypunct_byname<wchar_t, true>::do_pos_format() const
PUBLIC 2634a 0 std::__1::moneypunct_byname<wchar_t, true>::do_neg_format() const
PUBLIC 26356 0 std::__1::money_get<char, std::__1::istreambuf_iterator<char, std::__1::char_traits<char> > >::money_get(unsigned long)
PUBLIC 26372 0 std::__1::__money_get<char>::__money_get()
PUBLIC 26378 0 std::__1::money_get<char, std::__1::istreambuf_iterator<char, std::__1::char_traits<char> > >::money_get(unsigned long)
PUBLIC 26394 0 std::__1::money_get<char, std::__1::istreambuf_iterator<char, std::__1::char_traits<char> > >::get(std::__1::istreambuf_iterator<char, std::__1::char_traits<char> >, std::__1::istreambuf_iterator<char, std::__1::char_traits<char> >, bool, std::__1::ios_base&, unsigned int&, long double&) const
PUBLIC 263a6 0 std::__1::money_get<char, std::__1::istreambuf_iterator<char, std::__1::char_traits<char> > >::get(std::__1::istreambuf_iterator<char, std::__1::char_traits<char> >, std::__1::istreambuf_iterator<char, std::__1::char_traits<char> >, bool, std::__1::ios_base&, unsigned int&, std::__1::basic_string<char, std::__1::char_traits<char>, std::__1::allocator<char> >&) const
PUBLIC 263b8 0 std::__1::money_get<char, std::__1::istreambuf_iterator<char, std::__1::char_traits<char> > >::~money_get()
PUBLIC 263c2 0 std::__1::money_get<char, std::__1::istreambuf_iterator<char, std::__1::char_traits<char> > >::~money_get()
PUBLIC 263cc 0 std::__1::money_get<char, std::__1::istreambuf_iterator<char, std::__1::char_traits<char> > >::~money_get()
PUBLIC 263e8 0 std::__1::money_get<char, std::__1::istreambuf_iterator<char, std::__1::char_traits<char> > >::do_get(std::__1::istreambuf_iterator<char, std::__1::char_traits<char> >, std::__1::istreambuf_iterator<char, std::__1::char_traits<char> >, bool, std::__1::ios_base&, unsigned int&, long double&) const
PUBLIC 26713 0 std::__1::__do_nothing(void*)
PUBLIC 2671a 0 std::__1::money_get<char, std::__1::istreambuf_iterator<char, std::__1::char_traits<char> > >::__do_get(std::__1::istreambuf_iterator<char, std::__1::char_traits<char> >&, std::__1::istreambuf_iterator<char, std::__1::char_traits<char> >, bool, std::__1::locale const&, unsigned int, unsigned int&, bool&, std::__1::ctype<char> const&, std::__1::unique_ptr<char, void (*)(void*)>&, char*&, char*)
PUBLIC 27604 0 std::__1::__throw_runtime_error(char const*)
PUBLIC 27650 0 std::__1::money_get<char, std::__1::istreambuf_iterator<char, std::__1::char_traits<char> > >::do_get(std::__1::istreambuf_iterator<char, std::__1::char_traits<char> >, std::__1::istreambuf_iterator<char, std::__1::char_traits<char> >, bool, std::__1::ios_base&, unsigned int&, std::__1::basic_string<char, std::__1::char_traits<char>, std::__1::allocator<char> >&) const
PUBLIC 278e4 0 std::__1::__money_get<char>::__gather_info(bool, std::__1::locale const&, std::__1::money_base::pattern&, char&, char&, std::__1::basic_string<char, std::__1::char_traits<char>, std::__1::allocator<char> >&, std::__1::basic_string<char, std::__1::char_traits<char>, std::__1::allocator<char> >&, std::__1::basic_string<char, std::__1::char_traits<char>, std::__1::allocator<char> >&, std::__1::basic_string<char, std::__1::char_traits<char>, std::__1::allocator<char> >&, int&)
PUBLIC 27c69 0 void std::__1::__double_or_nothing<char>(std::__1::unique_ptr<char, void (*)(void*)>&, char*&, char*&)
PUBLIC 27d47 0 void std::__1::__double_or_nothing<unsigned int>(std::__1::unique_ptr<unsigned int, void (*)(void*)>&, unsigned int*&, unsigned int*&)
PUBLIC 27e2e 0 std::__1::__check_grouping(std::__1::basic_string<char, std::__1::char_traits<char>, std::__1::allocator<char> > const&, unsigned int*, unsigned int*, unsigned int&)
PUBLIC 27f14 0 std::__1::money_get<wchar_t, std::__1::istreambuf_iterator<wchar_t, std::__1::char_traits<wchar_t> > >::money_get(unsigned long)
PUBLIC 27f30 0 std::__1::__money_get<wchar_t>::__money_get()
PUBLIC 27f36 0 std::__1::money_get<wchar_t, std::__1::istreambuf_iterator<wchar_t, std::__1::char_traits<wchar_t> > >::money_get(unsigned long)
PUBLIC 27f52 0 std::__1::money_get<wchar_t, std::__1::istreambuf_iterator<wchar_t, std::__1::char_traits<wchar_t> > >::get(std::__1::istreambuf_iterator<wchar_t, std::__1::char_traits<wchar_t> >, std::__1::istreambuf_iterator<wchar_t, std::__1::char_traits<wchar_t> >, bool, std::__1::ios_base&, unsigned int&, long double&) const
PUBLIC 27f64 0 std::__1::money_get<wchar_t, std::__1::istreambuf_iterator<wchar_t, std::__1::char_traits<wchar_t> > >::get(std::__1::istreambuf_iterator<wchar_t, std::__1::char_traits<wchar_t> >, std::__1::istreambuf_iterator<wchar_t, std::__1::char_traits<wchar_t> >, bool, std::__1::ios_base&, unsigned int&, std::__1::basic_string<wchar_t, std::__1::char_traits<wchar_t>, std::__1::allocator<wchar_t> >&) const
PUBLIC 27f76 0 std::__1::money_get<wchar_t, std::__1::istreambuf_iterator<wchar_t, std::__1::char_traits<wchar_t> > >::~money_get()
PUBLIC 27f80 0 std::__1::money_get<wchar_t, std::__1::istreambuf_iterator<wchar_t, std::__1::char_traits<wchar_t> > >::~money_get()
PUBLIC 27f8a 0 std::__1::money_get<wchar_t, std::__1::istreambuf_iterator<wchar_t, std::__1::char_traits<wchar_t> > >::~money_get()
PUBLIC 27fa6 0 std::__1::money_get<wchar_t, std::__1::istreambuf_iterator<wchar_t, std::__1::char_traits<wchar_t> > >::do_get(std::__1::istreambuf_iterator<wchar_t, std::__1::char_traits<wchar_t> >, std::__1::istreambuf_iterator<wchar_t, std::__1::char_traits<wchar_t> >, bool, std::__1::ios_base&, unsigned int&, long double&) const
PUBLIC 282ea 0 std::__1::money_get<wchar_t, std::__1::istreambuf_iterator<wchar_t, std::__1::char_traits<wchar_t> > >::__do_get(std::__1::istreambuf_iterator<wchar_t, std::__1::char_traits<wchar_t> >&, std::__1::istreambuf_iterator<wchar_t, std::__1::char_traits<wchar_t> >, bool, std::__1::locale const&, unsigned int, unsigned int&, bool&, std::__1::ctype<wchar_t> const&, std::__1::unique_ptr<wchar_t, void (*)(void*)>&, wchar_t*&, wchar_t*)
PUBLIC 29210 0 std::__1::money_get<wchar_t, std::__1::istreambuf_iterator<wchar_t, std::__1::char_traits<wchar_t> > >::do_get(std::__1::istreambuf_iterator<wchar_t, std::__1::char_traits<wchar_t> >, std::__1::istreambuf_iterator<wchar_t, std::__1::char_traits<wchar_t> >, bool, std::__1::ios_base&, unsigned int&, std::__1::basic_string<wchar_t, std::__1::char_traits<wchar_t>, std::__1::allocator<wchar_t> >&) const
PUBLIC 294ae 0 std::__1::__money_get<wchar_t>::__gather_info(bool, std::__1::locale const&, std::__1::money_base::pattern&, wchar_t&, wchar_t&, std::__1::basic_string<char, std::__1::char_traits<char>, std::__1::allocator<char> >&, std::__1::basic_string<wchar_t, std::__1::char_traits<wchar_t>, std::__1::allocator<wchar_t> >&, std::__1::basic_string<wchar_t, std::__1::char_traits<wchar_t>, std::__1::allocator<wchar_t> >&, std::__1::basic_string<wchar_t, std::__1::char_traits<wchar_t>, std::__1::allocator<wchar_t> >&, int&)
PUBLIC 29870 0 void std::__1::__double_or_nothing<wchar_t>(std::__1::unique_ptr<wchar_t, void (*)(void*)>&, wchar_t*&, wchar_t*&)
PUBLIC 29958 0 std::__1::__money_get<char>::__money_get()
PUBLIC 2995e 0 std::__1::__money_get<wchar_t>::__money_get()
PUBLIC 29964 0 std::__1::money_put<char, std::__1::ostreambuf_iterator<char, std::__1::char_traits<char> > >::money_put(unsigned long)
PUBLIC 29980 0 std::__1::__money_put<char>::__money_put()
PUBLIC 29986 0 std::__1::money_put<char, std::__1::ostreambuf_iterator<char, std::__1::char_traits<char> > >::money_put(unsigned long)
PUBLIC 299a2 0 std::__1::money_put<char, std::__1::ostreambuf_iterator<char, std::__1::char_traits<char> > >::put(std::__1::ostreambuf_iterator<char, std::__1::char_traits<char> >, bool, std::__1::ios_base&, char, long double) const
PUBLIC 299b4 0 std::__1::money_put<char, std::__1::ostreambuf_iterator<char, std::__1::char_traits<char> > >::put(std::__1::ostreambuf_iterator<char, std::__1::char_traits<char> >, bool, std::__1::ios_base&, char, std::__1::basic_string<char, std::__1::char_traits<char>, std::__1::allocator<char> > const&) const
PUBLIC 299c6 0 std::__1::money_put<char, std::__1::ostreambuf_iterator<char, std::__1::char_traits<char> > >::~money_put()
PUBLIC 299d0 0 std::__1::money_put<char, std::__1::ostreambuf_iterator<char, std::__1::char_traits<char> > >::~money_put()
PUBLIC 299da 0 std::__1::money_put<char, std::__1::ostreambuf_iterator<char, std::__1::char_traits<char> > >::~money_put()
PUBLIC 299f6 0 std::__1::money_put<char, std::__1::ostreambuf_iterator<char, std::__1::char_traits<char> > >::do_put(std::__1::ostreambuf_iterator<char, std::__1::char_traits<char> >, bool, std::__1::ios_base&, char, long double) const
PUBLIC 29eb2 0 std::__1::__money_put<char>::__gather_info(bool, bool, std::__1::locale const&, std::__1::money_base::pattern&, char&, char&, std::__1::basic_string<char, std::__1::char_traits<char>, std::__1::allocator<char> >&, std::__1::basic_string<char, std::__1::char_traits<char>, std::__1::allocator<char> >&, std::__1::basic_string<char, std::__1::char_traits<char>, std::__1::allocator<char> >&, int&)
PUBLIC 2a246 0 std::__1::__money_put<char>::__format(char*, char*&, char*&, unsigned int, char const*, char const*, std::__1::ctype<char> const&, bool, std::__1::money_base::pattern const&, char, char, std::__1::basic_string<char, std::__1::char_traits<char>, std::__1::allocator<char> > const&, std::__1::basic_string<char, std::__1::char_traits<char>, std::__1::allocator<char> > const&, std::__1::basic_string<char, std::__1::char_traits<char>, std::__1::allocator<char> > const&, int)
PUBLIC 2a6a8 0 std::__1::money_put<char, std::__1::ostreambuf_iterator<char, std::__1::char_traits<char> > >::do_put(std::__1::ostreambuf_iterator<char, std::__1::char_traits<char> >, bool, std::__1::ios_base&, char, std::__1::basic_string<char, std::__1::char_traits<char>, std::__1::allocator<char> > const&) const
PUBLIC 2aa5e 0 std::__1::money_put<wchar_t, std::__1::ostreambuf_iterator<wchar_t, std::__1::char_traits<wchar_t> > >::money_put(unsigned long)
PUBLIC 2aa7a 0 std::__1::__money_put<wchar_t>::__money_put()
PUBLIC 2aa80 0 std::__1::money_put<wchar_t, std::__1::ostreambuf_iterator<wchar_t, std::__1::char_traits<wchar_t> > >::money_put(unsigned long)
PUBLIC 2aa9c 0 std::__1::money_put<wchar_t, std::__1::ostreambuf_iterator<wchar_t, std::__1::char_traits<wchar_t> > >::put(std::__1::ostreambuf_iterator<wchar_t, std::__1::char_traits<wchar_t> >, bool, std::__1::ios_base&, wchar_t, long double) const
PUBLIC 2aaae 0 std::__1::money_put<wchar_t, std::__1::ostreambuf_iterator<wchar_t, std::__1::char_traits<wchar_t> > >::put(std::__1::ostreambuf_iterator<wchar_t, std::__1::char_traits<wchar_t> >, bool, std::__1::ios_base&, wchar_t, std::__1::basic_string<wchar_t, std::__1::char_traits<wchar_t>, std::__1::allocator<wchar_t> > const&) const
PUBLIC 2aac0 0 std::__1::money_put<wchar_t, std::__1::ostreambuf_iterator<wchar_t, std::__1::char_traits<wchar_t> > >::~money_put()
PUBLIC 2aaca 0 std::__1::money_put<wchar_t, std::__1::ostreambuf_iterator<wchar_t, std::__1::char_traits<wchar_t> > >::~money_put()
PUBLIC 2aad4 0 std::__1::money_put<wchar_t, std::__1::ostreambuf_iterator<wchar_t, std::__1::char_traits<wchar_t> > >::~money_put()
PUBLIC 2aaf0 0 std::__1::money_put<wchar_t, std::__1::ostreambuf_iterator<wchar_t, std::__1::char_traits<wchar_t> > >::do_put(std::__1::ostreambuf_iterator<wchar_t, std::__1::char_traits<wchar_t> >, bool, std::__1::ios_base&, wchar_t, long double) const
PUBLIC 2afae 0 std::__1::__money_put<wchar_t>::__gather_info(bool, bool, std::__1::locale const&, std::__1::money_base::pattern&, wchar_t&, wchar_t&, std::__1::basic_string<char, std::__1::char_traits<char>, std::__1::allocator<char> >&, std::__1::basic_string<wchar_t, std::__1::char_traits<wchar_t>, std::__1::allocator<wchar_t> >&, std::__1::basic_string<wchar_t, std::__1::char_traits<wchar_t>, std::__1::allocator<wchar_t> >&, int&)
PUBLIC 2b38c 0 std::__1::__money_put<wchar_t>::__format(wchar_t*, wchar_t*&, wchar_t*&, unsigned int, wchar_t const*, wchar_t const*, std::__1::ctype<wchar_t> const&, bool, std::__1::money_base::pattern const&, wchar_t, wchar_t, std::__1::basic_string<char, std::__1::char_traits<char>, std::__1::allocator<char> > const&, std::__1::basic_string<wchar_t, std::__1::char_traits<wchar_t>, std::__1::allocator<wchar_t> > const&, std::__1::basic_string<wchar_t, std::__1::char_traits<wchar_t>, std::__1::allocator<wchar_t> > const&, int)
PUBLIC 2b7a4 0 std::__1::money_put<wchar_t, std::__1::ostreambuf_iterator<wchar_t, std::__1::char_traits<wchar_t> > >::do_put(std::__1::ostreambuf_iterator<wchar_t, std::__1::char_traits<wchar_t> >, bool, std::__1::ios_base&, wchar_t, std::__1::basic_string<wchar_t, std::__1::char_traits<wchar_t>, std::__1::allocator<wchar_t> > const&) const
PUBLIC 2bb5e 0 std::__1::__money_put<char>::__money_put()
PUBLIC 2bb64 0 std::__1::__money_put<wchar_t>::__money_put()
PUBLIC 2bb6a 0 std::__1::messages<char>::messages(unsigned long)
PUBLIC 2bb86 0 std::__1::messages<char>::messages(unsigned long)
PUBLIC 2bba2 0 std::__1::messages<char>::open(std::__1::basic_string<char, std::__1::char_traits<char>, std::__1::allocator<char> > const&, std::__1::locale const&) const
PUBLIC 2bbb0 0 std::__1::messages<char>::get(long, int, int, std::__1::basic_string<char, std::__1::char_traits<char>, std::__1::allocator<char> > const&) const
PUBLIC 2bbca 0 std::__1::messages<char>::close(long) const
PUBLIC 2bbd8 0 std::__1::messages<char>::~messages()
PUBLIC 2bbe2 0 std::__1::messages<char>::~messages()
PUBLIC 2bbec 0 std::__1::messages<char>::~messages()
PUBLIC 2bc08 0 std::__1::messages<char>::do_open(std::__1::basic_string<char, std::__1::char_traits<char>, std::__1::allocator<char> > const&, std::__1::locale const&) const
PUBLIC 2bc2e 0 std::__1::messages<char>::do_get(long, int, int, std::__1::basic_string<char, std::__1::char_traits<char>, std::__1::allocator<char> > const&) const
PUBLIC 2bd66 0 std::__1::messages<char>::do_close(long) const
PUBLIC 2bd7c 0 std::__1::messages<wchar_t>::messages(unsigned long)
PUBLIC 2bd98 0 std::__1::messages<wchar_t>::messages(unsigned long)
PUBLIC 2bdb4 0 std::__1::messages<wchar_t>::open(std::__1::basic_string<char, std::__1::char_traits<char>, std::__1::allocator<char> > const&, std::__1::locale const&) const
PUBLIC 2bdc2 0 std::__1::messages<wchar_t>::get(long, int, int, std::__1::basic_string<wchar_t, std::__1::char_traits<wchar_t>, std::__1::allocator<wchar_t> > const&) const
PUBLIC 2bddc 0 std::__1::messages<wchar_t>::close(long) const
PUBLIC 2bdea 0 std::__1::messages<wchar_t>::~messages()
PUBLIC 2bdf4 0 std::__1::messages<wchar_t>::~messages()
PUBLIC 2bdfe 0 std::__1::messages<wchar_t>::~messages()
PUBLIC 2be1a 0 std::__1::messages<wchar_t>::do_open(std::__1::basic_string<char, std::__1::char_traits<char>, std::__1::allocator<char> > const&, std::__1::locale const&) const
PUBLIC 2be40 0 std::__1::messages<wchar_t>::do_get(long, int, int, std::__1::basic_string<wchar_t, std::__1::char_traits<wchar_t>, std::__1::allocator<wchar_t> > const&) const
PUBLIC 2c17a 0 std::__1::__narrow_to_utf8<32ul>::~__narrow_to_utf8()
PUBLIC 2c184 0 std::__1::__widen_from_utf8<32ul>::~__widen_from_utf8()
PUBLIC 2c18e 0 std::__1::messages<wchar_t>::do_close(long) const
PUBLIC 2c1a4 0 std::__1::messages_byname<char>::messages_byname(char const*, unsigned long)
PUBLIC 2c1c0 0 std::__1::messages_byname<char>::messages_byname(char const*, unsigned long)
PUBLIC 2c1dc 0 std::__1::messages_byname<char>::messages_byname(std::__1::basic_string<char, std::__1::char_traits<char>, std::__1::allocator<char> > const&, unsigned long)
PUBLIC 2c1f8 0 std::__1::messages_byname<char>::messages_byname(std::__1::basic_string<char, std::__1::char_traits<char>, std::__1::allocator<char> > const&, unsigned long)
PUBLIC 2c214 0 std::__1::messages_byname<char>::~messages_byname()
PUBLIC 2c21e 0 std::__1::messages_byname<char>::~messages_byname()
PUBLIC 2c228 0 std::__1::messages_byname<char>::~messages_byname()
PUBLIC 2c244 0 std::__1::messages_byname<wchar_t>::messages_byname(char const*, unsigned long)
PUBLIC 2c260 0 std::__1::messages_byname<wchar_t>::messages_byname(char const*, unsigned long)
PUBLIC 2c27c 0 std::__1::messages_byname<wchar_t>::messages_byname(std::__1::basic_string<char, std::__1::char_traits<char>, std::__1::allocator<char> > const&, unsigned long)
PUBLIC 2c298 0 std::__1::messages_byname<wchar_t>::messages_byname(std::__1::basic_string<char, std::__1::char_traits<char>, std::__1::allocator<char> > const&, unsigned long)
PUBLIC 2c2b4 0 std::__1::messages_byname<wchar_t>::~messages_byname()
PUBLIC 2c2be 0 std::__1::messages_byname<wchar_t>::~messages_byname()
PUBLIC 2c2c8 0 std::__1::messages_byname<wchar_t>::~messages_byname()
PUBLIC 2c2e4 0 std::__1::codecvt_byname<char, char, __mbstate_t>::codecvt_byname(char const*, unsigned long)
PUBLIC 2c300 0 std::__1::codecvt_byname<char, char, __mbstate_t>::codecvt_byname(char const*, unsigned long)
PUBLIC 2c31c 0 std::__1::codecvt_byname<char, char, __mbstate_t>::codecvt_byname(std::__1::basic_string<char, std::__1::char_traits<char>, std::__1::allocator<char> > const&, unsigned long)
PUBLIC 2c338 0 std::__1::codecvt_byname<char, char, __mbstate_t>::codecvt_byname(std::__1::basic_string<char, std::__1::char_traits<char>, std::__1::allocator<char> > const&, unsigned long)
PUBLIC 2c354 0 std::__1::codecvt_byname<char, char, __mbstate_t>::~codecvt_byname()
PUBLIC 2c35e 0 std::__1::codecvt<char, char, __mbstate_t>::~codecvt()
PUBLIC 2c368 0 std::__1::codecvt_byname<char, char, __mbstate_t>::~codecvt_byname()
PUBLIC 2c372 0 std::__1::codecvt_byname<char, char, __mbstate_t>::~codecvt_byname()
PUBLIC 2c38e 0 std::__1::codecvt_byname<wchar_t, char, __mbstate_t>::codecvt_byname(char const*, unsigned long)
PUBLIC 2c3b2 0 std::__1::codecvt<wchar_t, char, __mbstate_t>::codecvt(char const*, unsigned long)
PUBLIC 2c4f6 0 std::__1::codecvt_byname<wchar_t, char, __mbstate_t>::codecvt_byname(char const*, unsigned long)
PUBLIC 2c51a 0 std::__1::codecvt_byname<wchar_t, char, __mbstate_t>::codecvt_byname(std::__1::basic_string<char, std::__1::char_traits<char>, std::__1::allocator<char> > const&, unsigned long)
PUBLIC 2c54c 0 std::__1::codecvt_byname<wchar_t, char, __mbstate_t>::codecvt_byname(std::__1::basic_string<char, std::__1::char_traits<char>, std::__1::allocator<char> > const&, unsigned long)
PUBLIC 2c57e 0 std::__1::codecvt_byname<wchar_t, char, __mbstate_t>::~codecvt_byname()
PUBLIC 2c588 0 std::__1::codecvt<wchar_t, char, __mbstate_t>::~codecvt()
PUBLIC 2c5ca 0 std::__1::codecvt_byname<wchar_t, char, __mbstate_t>::~codecvt_byname()
PUBLIC 2c5d4 0 std::__1::codecvt_byname<wchar_t, char, __mbstate_t>::~codecvt_byname()
PUBLIC 2c5f0 0 std::__1::codecvt_byname<char16_t, char, __mbstate_t>::codecvt_byname(char const*, unsigned long)
PUBLIC 2c60c 0 std::__1::codecvt_byname<char16_t, char, __mbstate_t>::codecvt_byname(char const*, unsigned long)
PUBLIC 2c628 0 std::__1::codecvt_byname<char16_t, char, __mbstate_t>::codecvt_byname(std::__1::basic_string<char, std::__1::char_traits<char>, std::__1::allocator<char> > const&, unsigned long)
PUBLIC 2c644 0 std::__1::codecvt_byname<char16_t, char, __mbstate_t>::codecvt_byname(std::__1::basic_string<char, std::__1::char_traits<char>, std::__1::allocator<char> > const&, unsigned long)
PUBLIC 2c660 0 std::__1::codecvt_byname<char16_t, char, __mbstate_t>::~codecvt_byname()
PUBLIC 2c66a 0 std::__1::codecvt<char16_t, char, __mbstate_t>::~codecvt()
PUBLIC 2c674 0 std::__1::codecvt_byname<char16_t, char, __mbstate_t>::~codecvt_byname()
PUBLIC 2c67e 0 std::__1::codecvt_byname<char16_t, char, __mbstate_t>::~codecvt_byname()
PUBLIC 2c69a 0 std::__1::codecvt_byname<char32_t, char, __mbstate_t>::codecvt_byname(char const*, unsigned long)
PUBLIC 2c6b6 0 std::__1::codecvt_byname<char32_t, char, __mbstate_t>::codecvt_byname(char const*, unsigned long)
PUBLIC 2c6d2 0 std::__1::codecvt_byname<char32_t, char, __mbstate_t>::codecvt_byname(std::__1::basic_string<char, std::__1::char_traits<char>, std::__1::allocator<char> > const&, unsigned long)
PUBLIC 2c6ee 0 std::__1::codecvt_byname<char32_t, char, __mbstate_t>::codecvt_byname(std::__1::basic_string<char, std::__1::char_traits<char>, std::__1::allocator<char> > const&, unsigned long)
PUBLIC 2c70a 0 std::__1::codecvt_byname<char32_t, char, __mbstate_t>::~codecvt_byname()
PUBLIC 2c714 0 std::__1::codecvt<char32_t, char, __mbstate_t>::~codecvt()
PUBLIC 2c71e 0 std::__1::codecvt_byname<char32_t, char, __mbstate_t>::~codecvt_byname()
PUBLIC 2c728 0 std::__1::codecvt_byname<char32_t, char, __mbstate_t>::~codecvt_byname()
PUBLIC 2c744 0 std::__1::__vector_base_common<true>::__vector_base_common()
PUBLIC 2c74a 0 std::__1::__vector_base_common<true>::__vector_base_common()
PUBLIC 2c750 0 std::__1::__vector_base_common<true>::__throw_length_error() const
PUBLIC 2c7aa 0 std::__1::__vector_base_common<true>::__throw_out_of_range() const
PUBLIC 2c804 0 std::__1::locale::__imp::__imp(unsigned long)
PUBLIC 2cf92 0 std::__1::locale::__imp::__imp(unsigned long)
PUBLIC 2cf9c 0 std::__1::locale::__imp::__imp(std::__1::basic_string<char, std::__1::char_traits<char>, std::__1::allocator<char> > const&, unsigned long)
PUBLIC 2d80c 0 std::__1::locale::classic()
PUBLIC 2d886 0 std::__1::collate_byname<char>::collate_byname(std::__1::basic_string<char, std::__1::char_traits<char>, std::__1::allocator<char> > const&, unsigned long)
PUBLIC 2d890 0 std::__1::collate_byname<wchar_t>::collate_byname(std::__1::basic_string<char, std::__1::char_traits<char>, std::__1::allocator<char> > const&, unsigned long)
PUBLIC 2d89a 0 std::__1::ctype_byname<char>::ctype_byname(std::__1::basic_string<char, std::__1::char_traits<char>, std::__1::allocator<char> > const&, unsigned long)
PUBLIC 2d8a4 0 std::__1::ctype_byname<wchar_t>::ctype_byname(std::__1::basic_string<char, std::__1::char_traits<char>, std::__1::allocator<char> > const&, unsigned long)
PUBLIC 2d8ae 0 std::__1::numpunct_byname<char>::numpunct_byname(std::__1::basic_string<char, std::__1::char_traits<char>, std::__1::allocator<char> > const&, unsigned long)
PUBLIC 2d8b8 0 std::__1::numpunct_byname<wchar_t>::numpunct_byname(std::__1::basic_string<char, std::__1::char_traits<char>, std::__1::allocator<char> > const&, unsigned long)
PUBLIC 2d8dc 0 std::__1::locale::__imp::__imp(std::__1::basic_string<char, std::__1::char_traits<char>, std::__1::allocator<char> > const&, unsigned long)
PUBLIC 2d8e6 0 std::__1::locale::__imp::__imp(std::__1::locale::__imp const&)
PUBLIC 2d9e0 0 std::__1::locale::__imp::__imp(std::__1::locale::__imp const&)
PUBLIC 2d9ea 0 std::__1::locale::__imp::__imp(std::__1::locale::__imp const&, std::__1::basic_string<char, std::__1::char_traits<char>, std::__1::allocator<char> > const&, int)
PUBLIC 2e2b8 0 std::__1::locale::__imp::__imp(std::__1::locale::__imp const&, std::__1::basic_string<char, std::__1::char_traits<char>, std::__1::allocator<char> > const&, int)
PUBLIC 2e2c2 0 std::__1::locale::__imp::__imp(std::__1::locale::__imp const&, std::__1::locale::__imp const&, int)
PUBLIC 2e8ba 0 std::__1::locale::__imp::__imp(std::__1::locale::__imp const&, std::__1::locale::__imp const&, int)
PUBLIC 2e8c4 0 std::__1::locale::__imp::__imp(std::__1::locale::__imp const&, std::__1::locale::facet*, long)
PUBLIC 2ea20 0 std::__1::locale::__imp::install(std::__1::locale::facet*, long)
PUBLIC 2ea9a 0 std::__1::locale::__imp::__imp(std::__1::locale::__imp const&, std::__1::locale::facet*, long)
PUBLIC 2eaa4 0 std::__1::locale::__imp::~__imp()
PUBLIC 2eb2c 0 std::__1::locale::__imp::~__imp()
PUBLIC 2eb36 0 std::__1::locale::__imp::~__imp()
PUBLIC 2eb52 0 std::__1::vector<std::__1::locale::facet*, std::__1::__sso_allocator<std::__1::locale::facet*, 28ul> >::resize(unsigned long)
PUBLIC 2eb98 0 std::__1::locale::__imp::use_facet(long) const
PUBLIC 2ebe8 0 std::__1::locale::__imp::make_classic()
PUBLIC 2ec18 0 std::__1::locale::__imp::make_global()
PUBLIC 2ec44 0 std::__1::locale::locale(std::__1::locale const&)
PUBLIC 2ec58 0 std::__1::locale::__global()
PUBLIC 2eccc 0 std::__1::locale::locale()
PUBLIC 2ecf4 0 std::__1::locale::locale()
PUBLIC 2ecfe 0 std::__1::locale::locale(std::__1::locale const&)
PUBLIC 2ed12 0 std::__1::locale::~locale()
PUBLIC 2ed20 0 std::__1::locale::operator=(std::__1::locale const&)
PUBLIC 2ed4c 0 std::__1::locale::locale(char const*)
PUBLIC 2eea4 0 std::__1::locale::locale(char const*)
PUBLIC 2eeae 0 std::__1::locale::locale(std::__1::basic_string<char, std::__1::char_traits<char>, std::__1::allocator<char> > const&)
PUBLIC 2ef00 0 std::__1::locale::locale(std::__1::basic_string<char, std::__1::char_traits<char>, std::__1::allocator<char> > const&)
PUBLIC 2ef0a 0 std::__1::locale::locale(std::__1::locale const&, char const*, int)
PUBLIC 2f078 0 std::__1::locale::locale(std::__1::locale const&, char const*, int)
PUBLIC 2f082 0 std::__1::locale::locale(std::__1::locale const&, std::__1::basic_string<char, std::__1::char_traits<char>, std::__1::allocator<char> > const&, int)
PUBLIC 2f0e8 0 std::__1::locale::locale(std::__1::locale const&, std::__1::basic_string<char, std::__1::char_traits<char>, std::__1::allocator<char> > const&, int)
PUBLIC 2f0f2 0 std::__1::locale::locale(std::__1::locale const&, std::__1::locale const&, int)
PUBLIC 2f158 0 std::__1::locale::locale(std::__1::locale const&, std::__1::locale const&, int)
PUBLIC 2f162 0 std::__1::locale::name() const
PUBLIC 2f184 0 std::__1::locale::__install_ctor(std::__1::locale const&, std::__1::locale::facet*, long)
PUBLIC 2f1f4 0 std::__1::locale::global(std::__1::locale const&)
PUBLIC 2f312 0 std::__1::locale::has_facet(std::__1::locale::id&) const
PUBLIC 2f34a 0 std::__1::locale::id::__get()
PUBLIC 2f3a4 0 std::__1::locale::use_facet(std::__1::locale::id&) const
PUBLIC 2f3c6 0 std::__1::locale::operator==(std::__1::locale const&) const
PUBLIC 2f4ee 0 std::__1::locale::facet::~facet()
PUBLIC 2f4f8 0 std::__1::locale::facet::~facet()
PUBLIC 2f514 0 std::__1::locale::facet::__on_zero_shared()
PUBLIC 2f526 0 std::__1::locale::id::__init()
PUBLIC 2f53e 0 std::__1::collate_byname<char>::collate_byname(char const*, unsigned long)
PUBLIC 2f682 0 std::__1::(anonymous namespace)::__throw_runtime_error(std::__1::basic_string<char, std::__1::char_traits<char>, std::__1::allocator<char> > const&)
PUBLIC 2f6ce 0 std::__1::collate_byname<char>::collate_byname(char const*, unsigned long)
PUBLIC 2f6d8 0 std::__1::collate_byname<char>::collate_byname(std::__1::basic_string<char, std::__1::char_traits<char>, std::__1::allocator<char> > const&, unsigned long)
PUBLIC 2f774 0 std::__1::collate_byname<char>::~collate_byname()
PUBLIC 2f7b0 0 std::__1::collate_byname<char>::~collate_byname()
PUBLIC 2f7ba 0 std::__1::collate_byname<char>::~collate_byname()
PUBLIC 2f7d6 0 std::__1::collate_byname<char>::do_compare(char const*, char const*, char const*, char const*) const
PUBLIC 2f986 0 std::__1::collate_byname<char>::do_transform(char const*, char const*) const
PUBLIC 2fb42 0 std::__1::collate_byname<wchar_t>::collate_byname(char const*, unsigned long)
PUBLIC 2fc86 0 std::__1::collate_byname<wchar_t>::collate_byname(char const*, unsigned long)
PUBLIC 2fc90 0 std::__1::collate_byname<wchar_t>::collate_byname(std::__1::basic_string<char, std::__1::char_traits<char>, std::__1::allocator<char> > const&, unsigned long)
PUBLIC 2fd22 0 std::__1::collate_byname<wchar_t>::~collate_byname()
PUBLIC 2fd5e 0 std::__1::collate_byname<wchar_t>::~collate_byname()
PUBLIC 2fd68 0 std::__1::collate_byname<wchar_t>::~collate_byname()
PUBLIC 2fd84 0 std::__1::collate_byname<wchar_t>::do_compare(wchar_t const*, wchar_t const*, wchar_t const*, wchar_t const*) const
PUBLIC 2fe58 0 std::__1::collate_byname<wchar_t>::do_transform(wchar_t const*, wchar_t const*) const
PUBLIC 2ff54 0 std::__1::ctype<wchar_t>::~ctype()
PUBLIC 2ff5e 0 std::__1::ctype<wchar_t>::~ctype()
PUBLIC 2ff68 0 std::__1::ctype<wchar_t>::~ctype()
PUBLIC 2ff84 0 std::__1::ctype<wchar_t>::do_is(unsigned int, wchar_t) const
PUBLIC 2ffa4 0 std::__1::ctype<char>::classic_table()
PUBLIC 2ffb6 0 std::__1::ctype<wchar_t>::do_is(wchar_t const*, wchar_t const*, unsigned int*) const
PUBLIC 30002 0 std::__1::ctype<wchar_t>::do_scan_is(unsigned int, wchar_t const*, wchar_t const*) const
PUBLIC 30032 0 std::__1::ctype<wchar_t>::do_scan_not(unsigned int, wchar_t const*, wchar_t const*) const
PUBLIC 30062 0 std::__1::ctype<wchar_t>::do_toupper(wchar_t) const
PUBLIC 30080 0 std::__1::ctype<wchar_t>::do_toupper(wchar_t*, wchar_t const*) const
PUBLIC 300c6 0 std::__1::ctype<wchar_t>::do_tolower(wchar_t) const
PUBLIC 300e4 0 std::__1::ctype<wchar_t>::do_tolower(wchar_t*, wchar_t const*) const
PUBLIC 3012a 0 std::__1::ctype<wchar_t>::do_widen(char) const
PUBLIC 30132 0 std::__1::ctype<wchar_t>::do_widen(char const*, char const*, wchar_t*) const
PUBLIC 30154 0 std::__1::ctype<wchar_t>::do_narrow(wchar_t, char) const
PUBLIC 3016a 0 std::__1::ctype<wchar_t>::do_narrow(wchar_t const*, wchar_t const*, char, char*) const
PUBLIC 301a8 0 std::__1::ctype<char>::ctype(unsigned int const*, bool, unsigned long)
PUBLIC 301da 0 std::__1::ctype<char>::ctype(unsigned int const*, bool, unsigned long)
PUBLIC 3020c 0 std::__1::ctype<char>::~ctype()
PUBLIC 30242 0 std::__1::ctype<char>::~ctype()
PUBLIC 3024c 0 std::__1::ctype<char>::~ctype()
PUBLIC 30268 0 std::__1::ctype<char>::do_toupper(char) const
PUBLIC 3028a 0 std::__1::ctype<char>::do_toupper(char*, char const*) const
PUBLIC 302bc 0 std::__1::ctype<char>::do_tolower(char) const
PUBLIC 302de 0 std::__1::ctype<char>::do_tolower(char*, char const*) const
PUBLIC 30310 0 std::__1::ctype<char>::do_widen(char) const
PUBLIC 30318 0 std::__1::ctype<char>::do_widen(char const*, char const*, char*) const
PUBLIC 30338 0 std::__1::ctype<char>::do_narrow(char, char) const
PUBLIC 30348 0 std::__1::ctype<char>::do_narrow(char const*, char const*, char, char*) const
PUBLIC 30374 0 std::__1::ctype_byname<char>::ctype_byname(char const*, unsigned long)
PUBLIC 304cc 0 std::__1::ctype_byname<char>::ctype_byname(char const*, unsigned long)
PUBLIC 304d6 0 std::__1::ctype_byname<char>::ctype_byname(std::__1::basic_string<char, std::__1::char_traits<char>, std::__1::allocator<char> > const&, unsigned long)
PUBLIC 3057c 0 std::__1::ctype_byname<char>::~ctype_byname()
PUBLIC 305b8 0 std::__1::ctype_byname<char>::~ctype_byname()
PUBLIC 305c2 0 std::__1::ctype_byname<char>::~ctype_byname()
PUBLIC 305de 0 std::__1::ctype_byname<char>::do_toupper(char) const
PUBLIC 30610 0 std::__1::ctype_byname<char>::do_toupper(char*, char const*) const
PUBLIC 30664 0 std::__1::ctype_byname<char>::do_tolower(char) const
PUBLIC 30696 0 std::__1::ctype_byname<char>::do_tolower(char*, char const*) const
PUBLIC 306ea 0 std::__1::ctype_byname<wchar_t>::ctype_byname(char const*, unsigned long)
PUBLIC 3082e 0 std::__1::ctype_byname<wchar_t>::ctype_byname(char const*, unsigned long)
PUBLIC 30838 0 std::__1::ctype_byname<wchar_t>::ctype_byname(std::__1::basic_string<char, std::__1::char_traits<char>, std::__1::allocator<char> > const&, unsigned long)
PUBLIC 308ca 0 std::__1::ctype_byname<wchar_t>::~ctype_byname()
PUBLIC 30906 0 std::__1::ctype_byname<wchar_t>::~ctype_byname()
PUBLIC 30910 0 std::__1::ctype_byname<wchar_t>::~ctype_byname()
PUBLIC 3092c 0 std::__1::ctype_byname<wchar_t>::do_is(unsigned int, wchar_t) const
PUBLIC 30960 0 std::__1::ctype_byname<wchar_t>::do_is(wchar_t const*, wchar_t const*, unsigned int*) const
PUBLIC 30ad0 0 std::__1::ctype_byname<wchar_t>::do_scan_is(unsigned int, wchar_t const*, wchar_t const*) const
PUBLIC 30b3e 0 std::__1::ctype_byname<wchar_t>::do_scan_not(unsigned int, wchar_t const*, wchar_t const*) const
PUBLIC 30bac 0 std::__1::ctype_byname<wchar_t>::do_toupper(wchar_t) const
PUBLIC 30bd8 0 std::__1::ctype_byname<wchar_t>::do_toupper(wchar_t*, wchar_t const*) const
PUBLIC 30c2e 0 std::__1::ctype_byname<wchar_t>::do_tolower(wchar_t) const
PUBLIC 30c5a 0 std::__1::ctype_byname<wchar_t>::do_tolower(wchar_t*, wchar_t const*) const
PUBLIC 30cb0 0 std::__1::ctype_byname<wchar_t>::do_widen(char) const
PUBLIC 30cc4 0 std::__1::ctype_byname<wchar_t>::do_widen(char const*, char const*, wchar_t*) const
PUBLIC 30d0c 0 std::__1::ctype_byname<wchar_t>::do_narrow(wchar_t, char) const
PUBLIC 30d34 0 std::__1::ctype_byname<wchar_t>::do_narrow(wchar_t const*, wchar_t const*, char, char*) const
PUBLIC 30d8e 0 std::__1::codecvt<char, char, __mbstate_t>::~codecvt()
PUBLIC 30d98 0 std::__1::codecvt<char, char, __mbstate_t>::~codecvt()
PUBLIC 30db4 0 std::__1::codecvt<char, char, __mbstate_t>::do_out(__mbstate_t&, char const*, char const*, char const*&, char*, char*, char*&) const
PUBLIC 30dca 0 std::__1::codecvt<char, char, __mbstate_t>::do_in(__mbstate_t&, char const*, char const*, char const*&, char*, char*, char*&) const
PUBLIC 30de0 0 std::__1::codecvt<char, char, __mbstate_t>::do_unshift(__mbstate_t&, char*, char*, char*&) const
PUBLIC 30dee 0 std::__1::codecvt<char, char, __mbstate_t>::do_encoding() const
PUBLIC 30dfa 0 std::__1::codecvt<char, char, __mbstate_t>::do_always_noconv() const
PUBLIC 30e02 0 std::__1::codecvt<char, char, __mbstate_t>::do_length(__mbstate_t&, char const*, char const*, unsigned long) const
PUBLIC 30e16 0 std::__1::codecvt<char, char, __mbstate_t>::do_max_length() const
PUBLIC 30e22 0 std::__1::codecvt<wchar_t, char, __mbstate_t>::codecvt(unsigned long)
PUBLIC 30e42 0 std::__1::codecvt<wchar_t, char, __mbstate_t>::codecvt(unsigned long)
PUBLIC 30e62 0 std::__1::codecvt<wchar_t, char, __mbstate_t>::codecvt(char const*, unsigned long)
PUBLIC 30e6c 0 std::__1::codecvt<wchar_t, char, __mbstate_t>::~codecvt()
PUBLIC 30e76 0 std::__1::codecvt<wchar_t, char, __mbstate_t>::~codecvt()
PUBLIC 30e92 0 std::__1::codecvt<wchar_t, char, __mbstate_t>::do_out(__mbstate_t&, wchar_t const*, wchar_t const*, wchar_t const*&, char*, char*, char*&) const
PUBLIC 31116 0 std::__1::codecvt<wchar_t, char, __mbstate_t>::do_in(__mbstate_t&, char const*, char const*, char const*&, wchar_t*, wchar_t*, wchar_t*&) const
PUBLIC 3135e 0 std::__1::codecvt<wchar_t, char, __mbstate_t>::do_unshift(__mbstate_t&, char*, char*, char*&) const
PUBLIC 313f6 0 std::__1::codecvt<wchar_t, char, __mbstate_t>::do_encoding() const
PUBLIC 3144a 0 std::__1::codecvt<wchar_t, char, __mbstate_t>::do_always_noconv() const
PUBLIC 31452 0 std::__1::codecvt<wchar_t, char, __mbstate_t>::do_length(__mbstate_t&, char const*, char const*, unsigned long) const
PUBLIC 314e6 0 std::__1::codecvt<wchar_t, char, __mbstate_t>::do_max_length() const
PUBLIC 3150a 0 std::__1::codecvt<char16_t, char, __mbstate_t>::~codecvt()
PUBLIC 31514 0 std::__1::codecvt<char16_t, char, __mbstate_t>::~codecvt()
PUBLIC 31530 0 std::__1::codecvt<char16_t, char, __mbstate_t>::do_out(__mbstate_t&, char16_t const*, char16_t const*, char16_t const*&, char*, char*, char*&) const
PUBLIC 31591 0 std::__1::utf16_to_utf8(unsigned short const*, unsigned short const*, unsigned short const*&, unsigned char*, unsigned char*, unsigned char*&, unsigned long, std::__1::codecvt_mode)
PUBLIC 3180e 0 std::__1::codecvt<char16_t, char, __mbstate_t>::do_in(__mbstate_t&, char const*, char const*, char const*&, char16_t*, char16_t*, char16_t*&) const
PUBLIC 3186f 0 std::__1::utf8_to_utf16(unsigned char const*, unsigned char const*, unsigned char const*&, unsigned short*, unsigned short*, unsigned short*&, unsigned long, std::__1::codecvt_mode)
PUBLIC 31b30 0 std::__1::codecvt<char16_t, char, __mbstate_t>::do_unshift(__mbstate_t&, char*, char*, char*&) const
PUBLIC 31b3e 0 std::__1::codecvt<char16_t, char, __mbstate_t>::do_encoding() const
PUBLIC 31b46 0 std::__1::codecvt<char16_t, char, __mbstate_t>::do_always_noconv() const
PUBLIC 31b4e 0 std::__1::codecvt<char16_t, char, __mbstate_t>::do_length(__mbstate_t&, char const*, char const*, unsigned long) const
PUBLIC 31b6c 0 std::__1::utf8_to_utf16_length(unsigned char const*, unsigned char const*, unsigned long, unsigned long, std::__1::codecvt_mode)
PUBLIC 31d8a 0 std::__1::codecvt<char16_t, char, __mbstate_t>::do_max_length() const
PUBLIC 31d96 0 std::__1::codecvt<char32_t, char, __mbstate_t>::~codecvt()
PUBLIC 31da0 0 std::__1::codecvt<char32_t, char, __mbstate_t>::~codecvt()
PUBLIC 31dbc 0 std::__1::codecvt<char32_t, char, __mbstate_t>::do_out(__mbstate_t&, char32_t const*, char32_t const*, char32_t const*&, char*, char*, char*&) const
PUBLIC 31e1d 0 std::__1::ucs4_to_utf8(unsigned int const*, unsigned int const*, unsigned int const*&, unsigned char*, unsigned char*, unsigned char*&, unsigned long, std::__1::codecvt_mode)
PUBLIC 31f88 0 std::__1::codecvt<char32_t, char, __mbstate_t>::do_in(__mbstate_t&, char const*, char const*, char const*&, char32_t*, char32_t*, char32_t*&) const
PUBLIC 31fe9 0 std::__1::utf8_to_ucs4(unsigned char const*, unsigned char const*, unsigned char const*&, unsigned int*, unsigned int*, unsigned int*&, unsigned long, std::__1::codecvt_mode)
PUBLIC 32228 0 std::__1::codecvt<char32_t, char, __mbstate_t>::do_unshift(__mbstate_t&, char*, char*, char*&) const
PUBLIC 32236 0 std::__1::codecvt<char32_t, char, __mbstate_t>::do_encoding() const
PUBLIC 3223e 0 std::__1::codecvt<char32_t, char, __mbstate_t>::do_always_noconv() const
PUBLIC 32246 0 std::__1::codecvt<char32_t, char, __mbstate_t>::do_length(__mbstate_t&, char const*, char const*, unsigned long) const
PUBLIC 32264 0 std::__1::utf8_to_ucs4_length(unsigned char const*, unsigned char const*, unsigned long, unsigned long, std::__1::codecvt_mode)
PUBLIC 32474 0 std::__1::codecvt<char32_t, char, __mbstate_t>::do_max_length() const
PUBLIC 32480 0 std::__1::__codecvt_utf8<wchar_t>::do_out(__mbstate_t&, wchar_t const*, wchar_t const*, wchar_t const*&, char*, char*, char*&) const
PUBLIC 324ea 0 std::__1::__codecvt_utf8<wchar_t>::do_in(__mbstate_t&, char const*, char const*, char const*&, wchar_t*, wchar_t*, wchar_t*&) const
PUBLIC 32554 0 std::__1::__codecvt_utf8<wchar_t>::do_unshift(__mbstate_t&, char*, char*, char*&) const
PUBLIC 32562 0 std::__1::__codecvt_utf8<wchar_t>::do_encoding() const
PUBLIC 3256a 0 std::__1::__codecvt_utf8<wchar_t>::do_always_noconv() const
PUBLIC 32572 0 std::__1::__codecvt_utf8<wchar_t>::do_length(__mbstate_t&, char const*, char const*, unsigned long) const
PUBLIC 32594 0 std::__1::__codecvt_utf8<wchar_t>::do_max_length() const
PUBLIC 325aa 0 std::__1::__codecvt_utf8<char16_t>::do_out(__mbstate_t&, char16_t const*, char16_t const*, char16_t const*&, char*, char*, char*&) const
PUBLIC 326a6 0 std::__1::__codecvt_utf8<char16_t>::do_in(__mbstate_t&, char const*, char const*, char const*&, char16_t*, char16_t*, char16_t*&) const
PUBLIC 3281a 0 std::__1::__codecvt_utf8<char16_t>::do_unshift(__mbstate_t&, char*, char*, char*&) const
PUBLIC 32828 0 std::__1::__codecvt_utf8<char16_t>::do_encoding() const
PUBLIC 32830 0 std::__1::__codecvt_utf8<char16_t>::do_always_noconv() const
PUBLIC 32838 0 std::__1::__codecvt_utf8<char16_t>::do_length(__mbstate_t&, char const*, char const*, unsigned long) const
PUBLIC 32992 0 std::__1::__codecvt_utf8<char16_t>::do_max_length() const
PUBLIC 329a8 0 std::__1::__codecvt_utf8<char32_t>::do_out(__mbstate_t&, char32_t const*, char32_t const*, char32_t const*&, char*, char*, char*&) const
PUBLIC 32a12 0 std::__1::__codecvt_utf8<char32_t>::do_in(__mbstate_t&, char const*, char const*, char const*&, char32_t*, char32_t*, char32_t*&) const
PUBLIC 32a7c 0 std::__1::__codecvt_utf8<char32_t>::do_unshift(__mbstate_t&, char*, char*, char*&) const
PUBLIC 32a8a 0 std::__1::__codecvt_utf8<char32_t>::do_encoding() const
PUBLIC 32a92 0 std::__1::__codecvt_utf8<char32_t>::do_always_noconv() const
PUBLIC 32a9a 0 std::__1::__codecvt_utf8<char32_t>::do_length(__mbstate_t&, char const*, char const*, unsigned long) const
PUBLIC 32abc 0 std::__1::__codecvt_utf8<char32_t>::do_max_length() const
PUBLIC 32ad2 0 std::__1::__codecvt_utf16<wchar_t, false>::do_out(__mbstate_t&, wchar_t const*, wchar_t const*, wchar_t const*&, char*, char*, char*&) const
PUBLIC 32b3c 0 std::__1::ucs4_to_utf16be(unsigned int const*, unsigned int const*, unsigned int const*&, unsigned char*, unsigned char*, unsigned char*&, unsigned long, std::__1::codecvt_mode)
PUBLIC 32c5c 0 std::__1::__codecvt_utf16<wchar_t, false>::do_in(__mbstate_t&, char const*, char const*, char const*&, wchar_t*, wchar_t*, wchar_t*&) const
PUBLIC 32cc6 0 std::__1::utf16be_to_ucs4(unsigned char const*, unsigned char const*, unsigned char const*&, unsigned int*, unsigned int*, unsigned int*&, unsigned long, std::__1::codecvt_mode)
PUBLIC 32dec 0 std::__1::__codecvt_utf16<wchar_t, false>::do_unshift(__mbstate_t&, char*, char*, char*&) const
PUBLIC 32dfa 0 std::__1::__codecvt_utf16<wchar_t, false>::do_encoding() const
PUBLIC 32e02 0 std::__1::__codecvt_utf16<wchar_t, false>::do_always_noconv() const
PUBLIC 32e0a 0 std::__1::__codecvt_utf16<wchar_t, false>::do_length(__mbstate_t&, char const*, char const*, unsigned long) const
PUBLIC 32e2b 0 std::__1::utf16be_to_ucs4_length(unsigned char const*, unsigned char const*, unsigned long, unsigned long, std::__1::codecvt_mode)
PUBLIC 32f28 0 std::__1::__codecvt_utf16<wchar_t, false>::do_max_length() const
PUBLIC 32f3a 0 std::__1::__codecvt_utf16<wchar_t, true>::do_out(__mbstate_t&, wchar_t const*, wchar_t const*, wchar_t const*&, char*, char*, char*&) const
PUBLIC 32fa4 0 std::__1::ucs4_to_utf16le(unsigned int const*, unsigned int const*, unsigned int const*&, unsigned char*, unsigned char*, unsigned char*&, unsigned long, std::__1::codecvt_mode)
PUBLIC 330c8 0 std::__1::__codecvt_utf16<wchar_t, true>::do_in(__mbstate_t&, char const*, char const*, char const*&, wchar_t*, wchar_t*, wchar_t*&) const
PUBLIC 33132 0 std::__1::utf16le_to_ucs4(unsigned char const*, unsigned char const*, unsigned char const*&, unsigned int*, unsigned int*, unsigned int*&, unsigned long, std::__1::codecvt_mode)
PUBLIC 33258 0 std::__1::__codecvt_utf16<wchar_t, true>::do_unshift(__mbstate_t&, char*, char*, char*&) const
PUBLIC 33266 0 std::__1::__codecvt_utf16<wchar_t, true>::do_encoding() const
PUBLIC 3326e 0 std::__1::__codecvt_utf16<wchar_t, true>::do_always_noconv() const
PUBLIC 33276 0 std::__1::__codecvt_utf16<wchar_t, true>::do_length(__mbstate_t&, char const*, char const*, unsigned long) const
PUBLIC 33297 0 std::__1::utf16le_to_ucs4_length(unsigned char const*, unsigned char const*, unsigned long, unsigned long, std::__1::codecvt_mode)
PUBLIC 33394 0 std::__1::__codecvt_utf16<wchar_t, true>::do_max_length() const
PUBLIC 333a6 0 std::__1::__codecvt_utf16<char16_t, false>::do_out(__mbstate_t&, char16_t const*, char16_t const*, char16_t const*&, char*, char*, char*&) const
PUBLIC 33422 0 std::__1::__codecvt_utf16<char16_t, false>::do_in(__mbstate_t&, char const*, char const*, char const*&, char16_t*, char16_t*, char16_t*&) const
PUBLIC 334b0 0 std::__1::__codecvt_utf16<char16_t, false>::do_unshift(__mbstate_t&, char*, char*, char*&) const
PUBLIC 334be 0 std::__1::__codecvt_utf16<char16_t, false>::do_encoding() const
PUBLIC 334c6 0 std::__1::__codecvt_utf16<char16_t, false>::do_always_noconv() const
PUBLIC 334ce 0 std::__1::__codecvt_utf16<char16_t, false>::do_length(__mbstate_t&, char const*, char const*, unsigned long) const
PUBLIC 33550 0 std::__1::__codecvt_utf16<char16_t, false>::do_max_length() const
PUBLIC 33562 0 std::__1::__codecvt_utf16<char16_t, true>::do_out(__mbstate_t&, char16_t const*, char16_t const*, char16_t const*&, char*, char*, char*&) const
PUBLIC 335de 0 std::__1::__codecvt_utf16<char16_t, true>::do_in(__mbstate_t&, char const*, char const*, char const*&, char16_t*, char16_t*, char16_t*&) const
PUBLIC 3366c 0 std::__1::__codecvt_utf16<char16_t, true>::do_unshift(__mbstate_t&, char*, char*, char*&) const
PUBLIC 3367a 0 std::__1::__codecvt_utf16<char16_t, true>::do_encoding() const
PUBLIC 33682 0 std::__1::__codecvt_utf16<char16_t, true>::do_always_noconv() const
PUBLIC 3368a 0 std::__1::__codecvt_utf16<char16_t, true>::do_length(__mbstate_t&, char const*, char const*, unsigned long) const
PUBLIC 3370c 0 std::__1::__codecvt_utf16<char16_t, true>::do_max_length() const
PUBLIC 3371e 0 std::__1::__codecvt_utf16<char32_t, false>::do_out(__mbstate_t&, char32_t const*, char32_t const*, char32_t const*&, char*, char*, char*&) const
PUBLIC 33788 0 std::__1::__codecvt_utf16<char32_t, false>::do_in(__mbstate_t&, char const*, char const*, char const*&, char32_t*, char32_t*, char32_t*&) const
PUBLIC 337f2 0 std::__1::__codecvt_utf16<char32_t, false>::do_unshift(__mbstate_t&, char*, char*, char*&) const
PUBLIC 33800 0 std::__1::__codecvt_utf16<char32_t, false>::do_encoding() const
PUBLIC 33808 0 std::__1::__codecvt_utf16<char32_t, false>::do_always_noconv() const
PUBLIC 33810 0 std::__1::__codecvt_utf16<char32_t, false>::do_length(__mbstate_t&, char const*, char const*, unsigned long) const
PUBLIC 33832 0 std::__1::__codecvt_utf16<char32_t, false>::do_max_length() const
PUBLIC 33844 0 std::__1::__codecvt_utf16<char32_t, true>::do_out(__mbstate_t&, char32_t const*, char32_t const*, char32_t const*&, char*, char*, char*&) const
PUBLIC 338ae 0 std::__1::__codecvt_utf16<char32_t, true>::do_in(__mbstate_t&, char const*, char const*, char const*&, char32_t*, char32_t*, char32_t*&) const
PUBLIC 33918 0 std::__1::__codecvt_utf16<char32_t, true>::do_unshift(__mbstate_t&, char*, char*, char*&) const
PUBLIC 33926 0 std::__1::__codecvt_utf16<char32_t, true>::do_encoding() const
PUBLIC 3392e 0 std::__1::__codecvt_utf16<char32_t, true>::do_always_noconv() const
PUBLIC 33936 0 std::__1::__codecvt_utf16<char32_t, true>::do_length(__mbstate_t&, char const*, char const*, unsigned long) const
PUBLIC 33958 0 std::__1::__codecvt_utf16<char32_t, true>::do_max_length() const
PUBLIC 3396a 0 std::__1::__codecvt_utf8_utf16<wchar_t>::do_out(__mbstate_t&, wchar_t const*, wchar_t const*, wchar_t const*&, char*, char*, char*&) const
PUBLIC 339d4 0 std::__1::utf16_to_utf8(unsigned int const*, unsigned int const*, unsigned int const*&, unsigned char*, unsigned char*, unsigned char*&, unsigned long, std::__1::codecvt_mode)
PUBLIC 33c08 0 std::__1::__codecvt_utf8_utf16<wchar_t>::do_in(__mbstate_t&, char const*, char const*, char const*&, wchar_t*, wchar_t*, wchar_t*&) const
PUBLIC 33c72 0 std::__1::utf8_to_utf16(unsigned char const*, unsigned char const*, unsigned char const*&, unsigned int*, unsigned int*, unsigned int*&, unsigned long, std::__1::codecvt_mode)
PUBLIC 33f40 0 std::__1::__codecvt_utf8_utf16<wchar_t>::do_unshift(__mbstate_t&, char*, char*, char*&) const
PUBLIC 33f4e 0 std::__1::__codecvt_utf8_utf16<wchar_t>::do_encoding() const
PUBLIC 33f56 0 std::__1::__codecvt_utf8_utf16<wchar_t>::do_always_noconv() const
PUBLIC 33f5e 0 std::__1::__codecvt_utf8_utf16<wchar_t>::do_length(__mbstate_t&, char const*, char const*, unsigned long) const
PUBLIC 33f80 0 std::__1::__codecvt_utf8_utf16<wchar_t>::do_max_length() const
PUBLIC 33f96 0 std::__1::__codecvt_utf8_utf16<char16_t>::do_out(__mbstate_t&, char16_t const*, char16_t const*, char16_t const*&, char*, char*, char*&) const
PUBLIC 34000 0 std::__1::__codecvt_utf8_utf16<char16_t>::do_in(__mbstate_t&, char const*, char const*, char const*&, char16_t*, char16_t*, char16_t*&) const
PUBLIC 3406a 0 std::__1::__codecvt_utf8_utf16<char16_t>::do_unshift(__mbstate_t&, char*, char*, char*&) const
PUBLIC 34078 0 std::__1::__codecvt_utf8_utf16<char16_t>::do_encoding() const
PUBLIC 34080 0 std::__1::__codecvt_utf8_utf16<char16_t>::do_always_noconv() const
PUBLIC 34088 0 std::__1::__codecvt_utf8_utf16<char16_t>::do_length(__mbstate_t&, char const*, char const*, unsigned long) const
PUBLIC 340aa 0 std::__1::__codecvt_utf8_utf16<char16_t>::do_max_length() const
PUBLIC 340c0 0 std::__1::__codecvt_utf8_utf16<char32_t>::do_out(__mbstate_t&, char32_t const*, char32_t const*, char32_t const*&, char*, char*, char*&) const
PUBLIC 3412a 0 std::__1::__codecvt_utf8_utf16<char32_t>::do_in(__mbstate_t&, char const*, char const*, char const*&, char32_t*, char32_t*, char32_t*&) const
PUBLIC 34194 0 std::__1::__codecvt_utf8_utf16<char32_t>::do_unshift(__mbstate_t&, char*, char*, char*&) const
PUBLIC 341a2 0 std::__1::__codecvt_utf8_utf16<char32_t>::do_encoding() const
PUBLIC 341aa 0 std::__1::__codecvt_utf8_utf16<char32_t>::do_always_noconv() const
PUBLIC 341b2 0 std::__1::__codecvt_utf8_utf16<char32_t>::do_length(__mbstate_t&, char const*, char const*, unsigned long) const
PUBLIC 341d4 0 std::__1::__codecvt_utf8_utf16<char32_t>::do_max_length() const
PUBLIC 341ea 0 std::__1::__narrow_to_utf8<16ul>::~__narrow_to_utf8()
PUBLIC 341f4 0 std::__1::__narrow_to_utf8<16ul>::~__narrow_to_utf8()
PUBLIC 341fe 0 std::__1::__narrow_to_utf8<16ul>::~__narrow_to_utf8()
PUBLIC 3421a 0 std::__1::__narrow_to_utf8<32ul>::~__narrow_to_utf8()
PUBLIC 34224 0 std::__1::__narrow_to_utf8<32ul>::~__narrow_to_utf8()
PUBLIC 34240 0 std::__1::__widen_from_utf8<16ul>::~__widen_from_utf8()
PUBLIC 3424a 0 std::__1::__widen_from_utf8<16ul>::~__widen_from_utf8()
PUBLIC 34254 0 std::__1::__widen_from_utf8<16ul>::~__widen_from_utf8()
PUBLIC 34270 0 std::__1::__widen_from_utf8<32ul>::~__widen_from_utf8()
PUBLIC 3427a 0 std::__1::__widen_from_utf8<32ul>::~__widen_from_utf8()
PUBLIC 34296 0 std::__1::numpunct<char>::numpunct(unsigned long)
PUBLIC 342c2 0 std::__1::numpunct<char>::numpunct(unsigned long)
PUBLIC 342ee 0 std::__1::numpunct<wchar_t>::numpunct(unsigned long)
PUBLIC 34322 0 std::__1::numpunct<wchar_t>::numpunct(unsigned long)
PUBLIC 34356 0 std::__1::numpunct<char>::~numpunct()
PUBLIC 34386 0 std::__1::numpunct<char>::~numpunct()
PUBLIC 34390 0 std::__1::numpunct<char>::~numpunct()
PUBLIC 343ac 0 std::__1::numpunct<wchar_t>::~numpunct()
PUBLIC 343dc 0 std::__1::numpunct<wchar_t>::~numpunct()
PUBLIC 343e6 0 std::__1::numpunct<wchar_t>::~numpunct()
PUBLIC 34402 0 std::__1::numpunct<char>::do_decimal_point() const
PUBLIC 3440c 0 std::__1::numpunct<wchar_t>::do_decimal_point() const
PUBLIC 34416 0 std::__1::numpunct<char>::do_thousands_sep() const
PUBLIC 34420 0 std::__1::numpunct<wchar_t>::do_thousands_sep() const
PUBLIC 3442a 0 std::__1::numpunct<char>::do_grouping() const
PUBLIC 34446 0 std::__1::numpunct<wchar_t>::do_grouping() const
PUBLIC 34462 0 std::__1::numpunct<char>::do_truename() const
PUBLIC 34486 0 std::__1::numpunct<wchar_t>::do_truename() const
PUBLIC 344c2 0 std::__1::numpunct<char>::do_falsename() const
PUBLIC 344ea 0 std::__1::numpunct<wchar_t>::do_falsename() const
PUBLIC 34526 0 std::__1::numpunct_byname<char>::numpunct_byname(char const*, unsigned long)
PUBLIC 34572 0 std::__1::numpunct_byname<char>::__init(char const*)
PUBLIC 3470c 0 std::__1::numpunct_byname<char>::numpunct_byname(char const*, unsigned long)
PUBLIC 34716 0 std::__1::numpunct_byname<char>::numpunct_byname(std::__1::basic_string<char, std::__1::char_traits<char>, std::__1::allocator<char> > const&, unsigned long)
PUBLIC 34772 0 std::__1::numpunct_byname<char>::~numpunct_byname()
PUBLIC 3477c 0 std::__1::numpunct_byname<char>::~numpunct_byname()
PUBLIC 34786 0 std::__1::numpunct_byname<char>::~numpunct_byname()
PUBLIC 347a2 0 std::__1::checked_string_to_char_convert(char&, char const*, _xlocale*)
PUBLIC 3480a 0 std::__1::numpunct_byname<wchar_t>::numpunct_byname(char const*, unsigned long)
PUBLIC 3485e 0 std::__1::numpunct_byname<wchar_t>::__init(char const*)
PUBLIC 349f8 0 std::__1::numpunct_byname<wchar_t>::numpunct_byname(char const*, unsigned long)
PUBLIC 34a02 0 std::__1::numpunct_byname<wchar_t>::numpunct_byname(std::__1::basic_string<char, std::__1::char_traits<char>, std::__1::allocator<char> > const&, unsigned long)
PUBLIC 34a66 0 std::__1::numpunct_byname<wchar_t>::~numpunct_byname()
PUBLIC 34a70 0 std::__1::numpunct_byname<wchar_t>::~numpunct_byname()
PUBLIC 34a7a 0 std::__1::numpunct_byname<wchar_t>::~numpunct_byname()
PUBLIC 34a96 0 std::__1::checked_string_to_wchar_convert(wchar_t&, char const*, _xlocale*)
PUBLIC 34b4a 0 std::__1::__num_get_base::__get_base(std::__1::ios_base&)
PUBLIC 34b7a 0 std::__1::__time_get_c_storage<char>::__weeks() const
PUBLIC 34d34 0 std::__1::__time_get_c_storage<wchar_t>::__weeks() const
PUBLIC 34eee 0 std::__1::__time_get_c_storage<char>::__months() const
PUBLIC 35166 0 std::__1::__time_get_c_storage<wchar_t>::__months() const
PUBLIC 353de 0 std::__1::__time_get_c_storage<char>::__am_pm() const
PUBLIC 354b4 0 std::__1::__time_get_c_storage<wchar_t>::__am_pm() const
PUBLIC 3558a 0 std::__1::__time_get_c_storage<char>::__x() const
PUBLIC 3560e 0 std::__1::__time_get_c_storage<wchar_t>::__x() const
PUBLIC 356b4 0 std::__1::__time_get_c_storage<char>::__X() const
PUBLIC 35738 0 std::__1::__time_get_c_storage<wchar_t>::__X() const
PUBLIC 357de 0 std::__1::__time_get_c_storage<char>::__c() const
PUBLIC 35880 0 std::__1::__time_get_c_storage<wchar_t>::__c() const
PUBLIC 35926 0 std::__1::__time_get_c_storage<char>::__r() const
PUBLIC 359ba 0 std::__1::__time_get_c_storage<wchar_t>::__r() const
PUBLIC 35a60 0 std::__1::__time_get::__time_get(char const*)
PUBLIC 35b7e 0 std::__1::__time_get::__time_get(char const*)
PUBLIC 35b88 0 std::__1::__time_get::__time_get(std::__1::basic_string<char, std::__1::char_traits<char>, std::__1::allocator<char> > const&)
PUBLIC 35bfa 0 std::__1::__time_get::__time_get(std::__1::basic_string<char, std::__1::char_traits<char>, std::__1::allocator<char> > const&)
PUBLIC 35c04 0 std::__1::__time_get::~__time_get()
PUBLIC 35c1a 0 std::__1::__time_get::~__time_get()
PUBLIC 35c24 0 std::__1::__time_get_storage<char>::__analyze(char, std::__1::ctype<char> const&)
PUBLIC 362c0 0 std::__1::basic_string<char, std::__1::char_traits<char>, std::__1::allocator<char> >* std::__1::__scan_keyword<char*, std::__1::basic_string<char, std::__1::char_traits<char>, std::__1::allocator<char> >*, std::__1::ctype<char> >(char*&, char*, std::__1::basic_string<char, std::__1::char_traits<char>, std::__1::allocator<char> >*, std::__1::basic_string<char, std::__1::char_traits<char>, std::__1::allocator<char> >*, std::__1::ctype<char> const&, unsigned int&, bool)
PUBLIC 36609 0 int std::__1::__get_up_to_n_digits<char, char*>(char*&, char*, unsigned int&, std::__1::ctype<char> const&, int)
PUBLIC 366e0 0 std::__1::__time_get_storage<wchar_t>::__analyze(char, std::__1::ctype<wchar_t> const&)
PUBLIC 36df8 0 std::__1::basic_string<wchar_t, std::__1::char_traits<wchar_t>, std::__1::allocator<wchar_t> >* std::__1::__scan_keyword<wchar_t*, std::__1::basic_string<wchar_t, std::__1::char_traits<wchar_t>, std::__1::allocator<wchar_t> >*, std::__1::ctype<wchar_t> >(wchar_t*&, wchar_t*, std::__1::basic_string<wchar_t, std::__1::char_traits<wchar_t>, std::__1::allocator<wchar_t> >*, std::__1::basic_string<wchar_t, std::__1::char_traits<wchar_t>, std::__1::allocator<wchar_t> >*, std::__1::ctype<wchar_t> const&, unsigned int&, bool)
PUBLIC 37140 0 int std::__1::__get_up_to_n_digits<wchar_t, wchar_t*>(wchar_t*&, wchar_t*, unsigned int&, std::__1::ctype<wchar_t> const&, int)
PUBLIC 3723a 0 std::__1::__time_get_storage<char>::init(std::__1::ctype<char> const&)
PUBLIC 375e2 0 std::__1::__time_get_storage<wchar_t>::init(std::__1::ctype<wchar_t> const&)
PUBLIC 37ce2 0 std::__1::enable_if<(__is_forward_iterator<wchar_t*>::value) && (__libcpp_string_gets_noexcept_iterator<wchar_t*>::value), std::__1::basic_string<wchar_t, std::__1::char_traits<wchar_t>, std::__1::allocator<wchar_t> >&>::type std::__1::basic_string<wchar_t, std::__1::char_traits<wchar_t>, std::__1::allocator<wchar_t> >::assign<wchar_t*>(wchar_t*, wchar_t*)
PUBLIC 37db6 0 std::__1::__time_get_temp<char>::~__time_get_temp()
PUBLIC 37dc0 0 std::__1::__time_get_storage<char>::__time_get_storage(char const*)
PUBLIC 37dca 0 std::__1::__time_get_storage<char>::__time_get_storage(std::__1::basic_string<char, std::__1::char_traits<char>, std::__1::allocator<char> > const&)
PUBLIC 37dd4 0 std::__1::__time_get_temp<wchar_t>::~__time_get_temp()
PUBLIC 37dde 0 std::__1::__time_get_storage<wchar_t>::__time_get_storage(char const*)
PUBLIC 37de8 0 std::__1::__time_get_storage<wchar_t>::__time_get_storage(std::__1::basic_string<char, std::__1::char_traits<char>, std::__1::allocator<char> > const&)
PUBLIC 37df2 0 std::__1::__time_put::__time_put(char const*)
PUBLIC 37dfc 0 std::__1::__time_put::__time_put(std::__1::basic_string<char, std::__1::char_traits<char>, std::__1::allocator<char> > const&)
PUBLIC 37e06 0 std::__1::__time_put::~__time_put()
PUBLIC 37e10 0 void std::__1::__init_pat<char>(std::__1::money_base::pattern&, std::__1::basic_string<char, std::__1::char_traits<char>, std::__1::allocator<char> >&, bool, char, char, char, char)
PUBLIC 381e4 0 void std::__1::__init_pat<wchar_t>(std::__1::money_base::pattern&, std::__1::basic_string<wchar_t, std::__1::char_traits<wchar_t>, std::__1::allocator<wchar_t> >&, bool, char, char, char, wchar_t)
PUBLIC 385ce 0 std::__1::__codecvt_utf16<wchar_t, false>::~__codecvt_utf16()
PUBLIC 385d4 0 std::__1::__codecvt_utf16<wchar_t, true>::~__codecvt_utf16()
PUBLIC 385e2 0 std::__1::__codecvt_utf8_utf16<wchar_t>::~__codecvt_utf8_utf16()
PUBLIC 385ec 0 std::__1::__codecvt_utf8<wchar_t>::~__codecvt_utf8()
PUBLIC 385f8 0 std::__1::__codecvt_utf16<wchar_t, false>::~__codecvt_utf16()
PUBLIC 385fe 0 std::__1::__codecvt_utf16<wchar_t, true>::~__codecvt_utf16()
PUBLIC 3860c 0 std::__1::__codecvt_utf8_utf16<wchar_t>::~__codecvt_utf8_utf16()
PUBLIC 38616 0 std::__1::__codecvt_utf8<wchar_t>::~__codecvt_utf8()
PUBLIC 38638 0 std::__1::__codecvt_utf8<char32_t>::~__codecvt_utf8()
PUBLIC 3863a 0 std::__1::__codecvt_utf16<char16_t, false>::~__codecvt_utf16()
PUBLIC 38640 0 std::__1::__codecvt_utf16<char16_t, true>::~__codecvt_utf16()
PUBLIC 38646 0 std::__1::__codecvt_utf16<char32_t, false>::~__codecvt_utf16()
PUBLIC 3864c 0 std::__1::__codecvt_utf16<char32_t, true>::~__codecvt_utf16()
PUBLIC 38658 0 std::__1::__codecvt_utf8_utf16<char32_t>::~__codecvt_utf8_utf16()
PUBLIC 3865e 0 std::__1::__codecvt_utf8_utf16<char16_t>::~__codecvt_utf8_utf16()
PUBLIC 38662 0 std::__1::__codecvt_utf8<char16_t>::~__codecvt_utf8()
PUBLIC 38672 0 std::__1::__codecvt_utf8<char32_t>::~__codecvt_utf8()
PUBLIC 38674 0 std::__1::__codecvt_utf16<char16_t, false>::~__codecvt_utf16()
PUBLIC 3867a 0 std::__1::__codecvt_utf16<char16_t, true>::~__codecvt_utf16()
PUBLIC 38680 0 std::__1::__codecvt_utf16<char32_t, false>::~__codecvt_utf16()
PUBLIC 38686 0 std::__1::__codecvt_utf16<char32_t, true>::~__codecvt_utf16()
PUBLIC 38692 0 std::__1::__codecvt_utf8_utf16<char32_t>::~__codecvt_utf8_utf16()
PUBLIC 38698 0 std::__1::__codecvt_utf8_utf16<char16_t>::~__codecvt_utf8_utf16()
PUBLIC 3869c 0 std::__1::__codecvt_utf8<char16_t>::~__codecvt_utf8()
PUBLIC 386c4 0 std::__1::__vector_base<std::__1::locale::facet*, std::__1::__sso_allocator<std::__1::locale::facet*, 28ul> >::~__vector_base()
PUBLIC 3870a 0 std::__1::vector<std::__1::locale::facet*, std::__1::__sso_allocator<std::__1::locale::facet*, 28ul> >::vector(unsigned long)
PUBLIC 38770 0 std::__1::vector<std::__1::locale::facet*, std::__1::__sso_allocator<std::__1::locale::facet*, 28ul> >::allocate(unsigned long)
PUBLIC 387cc 0 std::__1::enable_if<(__is_forward_iterator<std::__1::locale::facet**>::value) && (is_constructible<std::__1::locale::facet*, std::__1::iterator_traits<std::__1::locale::facet**>::reference>::value), void>::type std::__1::vector<std::__1::locale::facet*, std::__1::__sso_allocator<std::__1::locale::facet*, 28ul> >::assign<std::__1::locale::facet**>(std::__1::locale::facet**, std::__1::locale::facet**)
PUBLIC 38912 0 std::__1::vector<std::__1::locale::facet*, std::__1::__sso_allocator<std::__1::locale::facet*, 28ul> >::deallocate()
PUBLIC 3896e 0 std::__1::vector<std::__1::locale::facet*, std::__1::__sso_allocator<std::__1::locale::facet*, 28ul> >::__append(unsigned long)
PUBLIC 38abc 0 std::__1::vector<std::__1::locale::facet*, std::__1::__sso_allocator<std::__1::locale::facet*, 28ul> >::__swap_out_circular_buffer(std::__1::__split_buffer<std::__1::locale::facet*, std::__1::__sso_allocator<std::__1::locale::facet*, 28ul>&>&)
PUBLIC 38b22 0 std::__1::__split_buffer<std::__1::locale::facet*, std::__1::__sso_allocator<std::__1::locale::facet*, 28ul>&>::~__split_buffer()
PUBLIC 38b6b 0 void std::__1::__call_once_proxy<std::__1::tuple<std::__1::(anonymous namespace)::__fake_bind&&> >(void*)
PUBLIC 38b90 0 std::__1::enable_if<__is_forward_iterator<wchar_t const*>::value, void>::type std::__1::basic_string<wchar_t, std::__1::char_traits<wchar_t>, std::__1::allocator<wchar_t> >::__init<wchar_t const*>(wchar_t const*, wchar_t const*)
PUBLIC 38ca6 0 std::__1::__time_get_temp<char>::~__time_get_temp()
PUBLIC 38cc2 0 std::__1::__time_get_temp<wchar_t>::~__time_get_temp()
PUBLIC 38cde 0 std::__1::__wrap_iter<char*> std::__1::__rotate_gcd<std::__1::__wrap_iter<char*> >(std::__1::__wrap_iter<char*>, std::__1::__wrap_iter<char*>, std::__1::__wrap_iter<char*>)
PUBLIC 38d8a 0 std::__1::__wrap_iter<wchar_t*> std::__1::__rotate_gcd<std::__1::__wrap_iter<wchar_t*> >(std::__1::__wrap_iter<wchar_t*>, std::__1::__wrap_iter<wchar_t*>, std::__1::__wrap_iter<wchar_t*>)
PUBLIC 38e49 0 long long std::__1::__num_get_signed_integral<long long>(char const*, char const*, unsigned int&, int)
PUBLIC 38e4b 0 long std::__1::__num_get_signed_integral<long>(char const*, char const*, unsigned int&, int)
PUBLIC 38ef7 0 unsigned short std::__1::__num_get_unsigned_integral<unsigned short>(char const*, char const*, unsigned int&, int)
PUBLIC 38f94 0 unsigned int std::__1::__num_get_unsigned_integral<unsigned int>(char const*, char const*, unsigned int&, int)
PUBLIC 39038 0 unsigned long long std::__1::__num_get_unsigned_integral<unsigned long long>(char const*, char const*, unsigned int&, int)
PUBLIC 39041 0 unsigned long std::__1::__num_get_unsigned_integral<unsigned long>(char const*, char const*, unsigned int&, int)
PUBLIC 390df 0 float std::__1::__num_get_float<float>(char const*, char const*, unsigned int&)
PUBLIC 39165 0 double std::__1::__num_get_float<double>(char const*, char const*, unsigned int&)
PUBLIC 391ec 0 long double std::__1::__num_get_float<long double>(char const*, char const*, unsigned int&)
PUBLIC 3926e 0 std::__1::basic_string<char, std::__1::char_traits<char>, std::__1::allocator<char> >& std::__1::basic_string<char, std::__1::char_traits<char>, std::__1::allocator<char> >::__append_forward_unsafe<char*>(char*, char*)
PUBLIC 3944c 0 std::__1::basic_string<wchar_t, std::__1::char_traits<wchar_t>, std::__1::allocator<wchar_t> >& std::__1::basic_string<wchar_t, std::__1::char_traits<wchar_t>, std::__1::allocator<wchar_t> >::__append_forward_unsafe<wchar_t*>(wchar_t*, wchar_t*)
PUBLIC 395e8 0 std::__1::enable_if<__is_forward_iterator<wchar_t*>::value, void>::type std::__1::basic_string<wchar_t, std::__1::char_traits<wchar_t>, std::__1::allocator<wchar_t> >::__init<wchar_t*>(wchar_t*, wchar_t*)
PUBLIC 396fe 0 __cxx_global_array_dtor
PUBLIC 3972e 0 __cxx_global_array_dtor.75
PUBLIC 3975e 0 __cxx_global_array_dtor.90
PUBLIC 3978e 0 __cxx_global_array_dtor.114
PUBLIC 397be 0 __cxx_global_array_dtor.138
PUBLIC 397ee 0 __cxx_global_array_dtor.141
PUBLIC 39820 0 std::__1::bad_weak_ptr::~bad_weak_ptr()
PUBLIC 3982a 0 std::__1::bad_weak_ptr::~bad_weak_ptr()
PUBLIC 39834 0 std::__1::bad_weak_ptr::~bad_weak_ptr()
PUBLIC 39850 0 std::__1::bad_weak_ptr::what() const
PUBLIC 3985e 0 std::__1::__shared_count::~__shared_count()
PUBLIC 39864 0 std::__1::__shared_count::~__shared_count()
PUBLIC 3986a 0 std::__1::__shared_count::~__shared_count()
PUBLIC 39874 0 std::__1::__shared_count::__add_shared()
PUBLIC 39880 0 std::__1::__shared_count::__release_shared()
PUBLIC 398a4 0 std::__1::__shared_weak_count::~__shared_weak_count()
PUBLIC 398aa 0 std::__1::__shared_weak_count::~__shared_weak_count()
PUBLIC 398b0 0 std::__1::__shared_weak_count::~__shared_weak_count()
PUBLIC 398ba 0 std::__1::__shared_weak_count::__add_shared()
PUBLIC 398c6 0 std::__1::__shared_weak_count::__add_weak()
PUBLIC 398d2 0 std::__1::__shared_weak_count::__release_shared()
PUBLIC 3992a 0 std::__1::__shared_weak_count::__release_weak()
PUBLIC 3996c 0 std::__1::__shared_weak_count::lock()
PUBLIC 39996 0 std::__1::__shared_weak_count::__get_deleter(std::type_info const&) const
PUBLIC 3999e 0 std::__1::__sp_mut::lock()
PUBLIC 399de 0 std::__1::__sp_mut::unlock()
PUBLIC 399f4 0 std::__1::__get_sp_mut(void const*)
PUBLIC 39ba6 0 std::__1::declare_reachable(void*)
PUBLIC 39bac 0 std::__1::declare_no_pointers(char*, unsigned long)
PUBLIC 39bb2 0 std::__1::undeclare_no_pointers(char*, unsigned long)
PUBLIC 39bb8 0 std::__1::get_pointer_safety()
PUBLIC 39bc0 0 std::__1::__undeclare_reachable(void*)
PUBLIC 39bc9 0 std::__1::align(unsigned long, unsigned long, void*&, unsigned long&)
PUBLIC 39c04 0 std::bad_variant_access::what() const
PUBLIC 39c12 0 std::bad_variant_access::~bad_variant_access()
PUBLIC 39c1c 0 std::bad_variant_access::~bad_variant_access()
PUBLIC 39c40 0 std::__1::mutex::~mutex()
PUBLIC 39c6c 0 std::__1::mutex::~mutex()
PUBLIC 39c76 0 std::__1::mutex::lock()
PUBLIC 39c94 0 std::__1::mutex::try_lock()
PUBLIC 39cac 0 std::__1::mutex::unlock()
PUBLIC 39ce2 0 std::__1::recursive_mutex::recursive_mutex()
PUBLIC 39d8c 0 std::__1::recursive_mutex::recursive_mutex()
PUBLIC 39d96 0 std::__1::recursive_mutex::~recursive_mutex()
PUBLIC 39dcc 0 std::__1::recursive_mutex::~recursive_mutex()
PUBLIC 39dd6 0 std::__1::recursive_mutex::lock()
PUBLIC 39df4 0 std::__1::recursive_mutex::unlock()
PUBLIC 39e2a 0 std::__1::recursive_mutex::try_lock()
PUBLIC 39e42 0 std::__1::timed_mutex::timed_mutex()
PUBLIC 39e8e 0 std::__1::timed_mutex::timed_mutex()
PUBLIC 39eda 0 std::__1::timed_mutex::~timed_mutex()
PUBLIC 39f22 0 std::__1::timed_mutex::~timed_mutex()
PUBLIC 39f2c 0 std::__1::timed_mutex::lock()
PUBLIC 39f90 0 std::__1::timed_mutex::try_lock()
PUBLIC 39fca 0 std::__1::timed_mutex::unlock()
PUBLIC 39ffc 0 std::__1::recursive_timed_mutex::recursive_timed_mutex()
PUBLIC 3a04c 0 std::__1::recursive_timed_mutex::recursive_timed_mutex()
PUBLIC 3a09c 0 std::__1::recursive_timed_mutex::~recursive_timed_mutex()
PUBLIC 3a0e4 0 std::__1::recursive_timed_mutex::~recursive_timed_mutex()
PUBLIC 3a0ee 0 std::__1::recursive_timed_mutex::lock()
PUBLIC 3a1bc 0 std::__1::recursive_timed_mutex::try_lock()
PUBLIC 3a23e 0 std::__1::recursive_timed_mutex::unlock()
PUBLIC 3a2b0 0 std::__1::unique_lock<std::__1::mutex>::unlock()
PUBLIC 3a2e3 0 std::__1::__call_once(unsigned long volatile&, void*, void (*)(void*))
PUBLIC 3a3fa 0 std::__throw_bad_alloc()
PUBLIC 3a430 0 std::__1::random_device::random_device(std::__1::basic_string<char, std::__1::char_traits<char>, std::__1::allocator<char> > const&)
PUBLIC 3a4c2 0 std::__1::random_device::random_device(std::__1::basic_string<char, std::__1::char_traits<char>, std::__1::allocator<char> > const&)
PUBLIC 3a4cc 0 std::__1::random_device::~random_device()
PUBLIC 3a4fc 0 std::__1::random_device::~random_device()
PUBLIC 3a506 0 std::__1::random_device::operator()()
PUBLIC 3a57c 0 std::__1::random_device::entropy() const
PUBLIC 3a586 0 std::__1::regex_error::regex_error(std::__1::regex_constants::error_type)
PUBLIC 3a5ce 0 std::__1::regex_error::regex_error(std::__1::regex_constants::error_type)
PUBLIC 3a616 0 std::__1::regex_error::~regex_error()
PUBLIC 3a620 0 std::__1::regex_error::~regex_error()
PUBLIC 3a62a 0 std::__1::regex_error::~regex_error()
PUBLIC 3a646 0 std::__1::__get_collation_name(char const*)
PUBLIC 3a70f 0 std::__1::__get_classname(char const*, bool)
PUBLIC 3a7c8 0 std::__1::__match_any_but_newline<char>::__exec(std::__1::__state<char>&) const
PUBLIC 3a80a 0 std::__1::__match_any_but_newline<wchar_t>::__exec(std::__1::__state<wchar_t>&) const
PUBLIC 3a860 0 std::logic_error::logic_error(std::__1::basic_string<char, std::__1::char_traits<char>, std::__1::allocator<char> > const&)
PUBLIC 3a8e4 0 std::logic_error::logic_error(std::__1::basic_string<char, std::__1::char_traits<char>, std::__1::allocator<char> > const&)
PUBLIC 3a8ee 0 std::logic_error::logic_error(char const*)
PUBLIC 3a968 0 std::logic_error::logic_error(char const*)
PUBLIC 3a972 0 std::logic_error::logic_error(std::logic_error const&)
PUBLIC 3aa14 0 std::logic_error::logic_error(std::logic_error const&)
PUBLIC 3aa1e 0 std::logic_error::operator=(std::logic_error const&)
PUBLIC 3aa3e 0 std::__1::__libcpp_refstring::operator=(std::__1::__libcpp_refstring const&)
PUBLIC 3ab84 0 std::runtime_error::runtime_error(std::__1::basic_string<char, std::__1::char_traits<char>, std::__1::allocator<char> > const&)
PUBLIC 3ac08 0 std::runtime_error::runtime_error(std::__1::basic_string<char, std::__1::char_traits<char>, std::__1::allocator<char> > const&)
PUBLIC 3ac12 0 std::runtime_error::runtime_error(char const*)
PUBLIC 3ac8c 0 std::runtime_error::runtime_error(char const*)
PUBLIC 3ac96 0 std::runtime_error::runtime_error(std::runtime_error const&)
PUBLIC 3ad38 0 std::runtime_error::runtime_error(std::runtime_error const&)
PUBLIC 3ad42 0 std::runtime_error::operator=(std::runtime_error const&)
PUBLIC 3ad70 0 std::__1::__basic_string_common<true>::__throw_length_error() const
PUBLIC 3adca 0 std::__1::__basic_string_common<true>::__throw_out_of_range() const
PUBLIC 3ae24 0 std::__1::basic_string<char, std::__1::char_traits<char>, std::__1::allocator<char> >::basic_string()
PUBLIC 3ae4c 0 std::__1::basic_string<char, std::__1::char_traits<char>, std::__1::allocator<char> >::__zero()
PUBLIC 3ae60 0 std::__1::basic_string<char, std::__1::char_traits<char>, std::__1::allocator<char> >::basic_string()
PUBLIC 3ae74 0 std::__1::basic_string<char, std::__1::char_traits<char>, std::__1::allocator<char> >::basic_string(std::__1::allocator<char> const&)
PUBLIC 3ae88 0 std::__1::basic_string<char, std::__1::char_traits<char>, std::__1::allocator<char> >::basic_string(std::__1::allocator<char> const&)
PUBLIC 3ae9c 0 std::__1::basic_string<char, std::__1::char_traits<char>, std::__1::allocator<char> >::basic_string(std::__1::basic_string<char, std::__1::char_traits<char>, std::__1::allocator<char> > const&)
PUBLIC 3af40 0 std::__1::basic_string<char, std::__1::char_traits<char>, std::__1::allocator<char> >::__alloc() const
PUBLIC 3af4a 0 std::__1::basic_string<char, std::__1::char_traits<char>, std::__1::allocator<char> >::__is_long() const
PUBLIC 3af54 0 std::__1::basic_string<char, std::__1::char_traits<char>, std::__1::allocator<char> >::__init(char const*, unsigned long)
PUBLIC 3afce 0 std::__1::basic_string<char, std::__1::char_traits<char>, std::__1::allocator<char> >::__get_long_pointer() const
PUBLIC 3afd8 0 std::__1::basic_string<char, std::__1::char_traits<char>, std::__1::allocator<char> >::__get_long_size() const
PUBLIC 3afe2 0 std::__1::basic_string<char, std::__1::char_traits<char>, std::__1::allocator<char> >::basic_string(std::__1::basic_string<char, std::__1::char_traits<char>, std::__1::allocator<char> > const&)
PUBLIC 3afec 0 std::__1::basic_string<char, std::__1::char_traits<char>, std::__1::allocator<char> >::basic_string(std::__1::basic_string<char, std::__1::char_traits<char>, std::__1::allocator<char> > const&, std::__1::allocator<char> const&)
PUBLIC 3b090 0 std::__1::basic_string<char, std::__1::char_traits<char>, std::__1::allocator<char> >::basic_string(std::__1::basic_string<char, std::__1::char_traits<char>, std::__1::allocator<char> > const&, std::__1::allocator<char> const&)
PUBLIC 3b09a 0 std::__1::basic_string<char, std::__1::char_traits<char>, std::__1::allocator<char> >::basic_string(std::__1::basic_string<char, std::__1::char_traits<char>, std::__1::allocator<char> >&&)
PUBLIC 3b0c4 0 std::__1::basic_string<char, std::__1::char_traits<char>, std::__1::allocator<char> >::basic_string(std::__1::basic_string<char, std::__1::char_traits<char>, std::__1::allocator<char> >&&)
PUBLIC 3b0ee 0 std::__1::basic_string<char, std::__1::char_traits<char>, std::__1::allocator<char> >::basic_string(std::__1::basic_string<char, std::__1::char_traits<char>, std::__1::allocator<char> >&&, std::__1::allocator<char> const&)
PUBLIC 3b118 0 std::__1::basic_string<char, std::__1::char_traits<char>, std::__1::allocator<char> >::__alloc()
PUBLIC 3b122 0 std::__1::basic_string<char, std::__1::char_traits<char>, std::__1::allocator<char> >::__get_long_pointer()
PUBLIC 3b12c 0 std::__1::basic_string<char, std::__1::char_traits<char>, std::__1::allocator<char> >::basic_string(std::__1::basic_string<char, std::__1::char_traits<char>, std::__1::allocator<char> >&&, std::__1::allocator<char> const&)
PUBLIC 3b156 0 std::__1::basic_string<char, std::__1::char_traits<char>, std::__1::allocator<char> >::basic_string(char const*)
PUBLIC 3b1ee 0 std::__1::basic_string<char, std::__1::char_traits<char>, std::__1::allocator<char> >::basic_string(char const*)
PUBLIC 3b286 0 std::__1::basic_string<char, std::__1::char_traits<char>, std::__1::allocator<char> >::basic_string(char const*, std::__1::allocator<char> const&)
PUBLIC 3b31e 0 std::__1::basic_string<char, std::__1::char_traits<char>, std::__1::allocator<char> >::basic_string(char const*, std::__1::allocator<char> const&)
PUBLIC 3b3b6 0 std::__1::basic_string<char, std::__1::char_traits<char>, std::__1::allocator<char> >::basic_string(char const*, unsigned long)
PUBLIC 3b43a 0 std::__1::basic_string<char, std::__1::char_traits<char>, std::__1::allocator<char> >::basic_string(char const*, unsigned long)
PUBLIC 3b4be 0 std::__1::basic_string<char, std::__1::char_traits<char>, std::__1::allocator<char> >::basic_string(char const*, unsigned long, std::__1::allocator<char> const&)
PUBLIC 3b542 0 std::__1::basic_string<char, std::__1::char_traits<char>, std::__1::allocator<char> >::basic_string(char const*, unsigned long, std::__1::allocator<char> const&)
PUBLIC 3b5c6 0 std::__1::basic_string<char, std::__1::char_traits<char>, std::__1::allocator<char> >::basic_string(unsigned long, char)
PUBLIC 3b64c 0 std::__1::basic_string<char, std::__1::char_traits<char>, std::__1::allocator<char> >::__init(unsigned long, char)
PUBLIC 3b6c6 0 std::__1::basic_string<char, std::__1::char_traits<char>, std::__1::allocator<char> >::basic_string(unsigned long, char)
PUBLIC 3b74c 0 std::__1::basic_string<char, std::__1::char_traits<char>, std::__1::allocator<char> >::basic_string(unsigned long, char, std::__1::allocator<char> const&)
PUBLIC 3b7d2 0 std::__1::basic_string<char, std::__1::char_traits<char>, std::__1::allocator<char> >::basic_string(unsigned long, char, std::__1::allocator<char> const&)
PUBLIC 3b858 0 std::__1::basic_string<char, std::__1::char_traits<char>, std::__1::allocator<char> >::basic_string(std::__1::basic_string<char, std::__1::char_traits<char>, std::__1::allocator<char> > const&, unsigned long, unsigned long, std::__1::allocator<char> const&)
PUBLIC 3b91c 0 std::__1::basic_string<char, std::__1::char_traits<char>, std::__1::allocator<char> >::size() const
PUBLIC 3b932 0 std::__1::basic_string<char, std::__1::char_traits<char>, std::__1::allocator<char> >::data() const
PUBLIC 3b94a 0 std::__1::basic_string<char, std::__1::char_traits<char>, std::__1::allocator<char> >::basic_string(std::__1::basic_string<char, std::__1::char_traits<char>, std::__1::allocator<char> > const&, unsigned long, unsigned long, std::__1::allocator<char> const&)
PUBLIC 3b954 0 std::__1::basic_string<char, std::__1::char_traits<char>, std::__1::allocator<char> >::basic_string(std::__1::basic_string<char, std::__1::char_traits<char>, std::__1::allocator<char> > const&, unsigned long, std::__1::allocator<char> const&)
PUBLIC 3ba0c 0 std::__1::basic_string<char, std::__1::char_traits<char>, std::__1::allocator<char> >::basic_string(std::__1::basic_string<char, std::__1::char_traits<char>, std::__1::allocator<char> > const&, unsigned long, std::__1::allocator<char> const&)
PUBLIC 3bac4 0 std::__1::basic_string<char, std::__1::char_traits<char>, std::__1::allocator<char> >::basic_string(std::__1::basic_string_view<char, std::__1::char_traits<char> >)
PUBLIC 3bb48 0 std::__1::basic_string<char, std::__1::char_traits<char>, std::__1::allocator<char> >::basic_string(std::__1::basic_string_view<char, std::__1::char_traits<char> >)
PUBLIC 3bbcc 0 std::__1::basic_string<char, std::__1::char_traits<char>, std::__1::allocator<char> >::basic_string(std::__1::basic_string_view<char, std::__1::char_traits<char> >, std::__1::allocator<char> const&)
PUBLIC 3bc50 0 std::__1::basic_string<char, std::__1::char_traits<char>, std::__1::allocator<char> >::basic_string(std::__1::basic_string_view<char, std::__1::char_traits<char> >, std::__1::allocator<char> const&)
PUBLIC 3bcd4 0 std::__1::basic_string<char, std::__1::char_traits<char>, std::__1::allocator<char> >::basic_string(std::initializer_list<char>)
PUBLIC 3bd62 0 std::__1::basic_string<char, std::__1::char_traits<char>, std::__1::allocator<char> >::basic_string(std::initializer_list<char>)
PUBLIC 3bdf0 0 std::__1::basic_string<char, std::__1::char_traits<char>, std::__1::allocator<char> >::basic_string(std::initializer_list<char>, std::__1::allocator<char> const&)
PUBLIC 3be7e 0 std::__1::basic_string<char, std::__1::char_traits<char>, std::__1::allocator<char> >::basic_string(std::initializer_list<char>, std::__1::allocator<char> const&)
PUBLIC 3bf0c 0 std::__1::basic_string<char, std::__1::char_traits<char>, std::__1::allocator<char> >::~basic_string()
PUBLIC 3bf22 0 std::__1::basic_string<char, std::__1::char_traits<char>, std::__1::allocator<char> >::__get_long_cap() const
PUBLIC 3bf30 0 std::__1::basic_string<char, std::__1::char_traits<char>, std::__1::allocator<char> >::~basic_string()
PUBLIC 3bf46 0 std::__1::basic_string<char, std::__1::char_traits<char>, std::__1::allocator<char> >::operator std::__1::basic_string_view<char, std::__1::char_traits<char> >() const
PUBLIC 3bf68 0 std::__1::basic_string<char, std::__1::char_traits<char>, std::__1::allocator<char> >::operator=(std::__1::basic_string<char, std::__1::char_traits<char>, std::__1::allocator<char> > const&)
PUBLIC 3bfa6 0 std::__1::basic_string<char, std::__1::char_traits<char>, std::__1::allocator<char> >::__copy_assign_alloc(std::__1::basic_string<char, std::__1::char_traits<char>, std::__1::allocator<char> > const&)
PUBLIC 3bfac 0 std::__1::basic_string<char, std::__1::char_traits<char>, std::__1::allocator<char> >::assign(char const*, unsigned long)
PUBLIC 3c054 0 std::__1::basic_string<char, std::__1::char_traits<char>, std::__1::allocator<char> >::operator=(std::__1::basic_string<char, std::__1::char_traits<char>, std::__1::allocator<char> >&&)
PUBLIC 3c0ba 0 std::__1::basic_string<char, std::__1::char_traits<char>, std::__1::allocator<char> >::__move_assign(std::__1::basic_string<char, std::__1::char_traits<char>, std::__1::allocator<char> >&, std::__1::integral_constant<bool, true>)
PUBLIC 3c11c 0 std::__1::basic_string<char, std::__1::char_traits<char>, std::__1::allocator<char> >::operator=(char const*)
PUBLIC 3c144 0 std::__1::basic_string<char, std::__1::char_traits<char>, std::__1::allocator<char> >::assign(char const*)
PUBLIC 3c16c 0 std::__1::basic_string<char, std::__1::char_traits<char>, std::__1::allocator<char> >::operator=(char)
PUBLIC 3c196 0 std::__1::basic_string<char, std::__1::char_traits<char>, std::__1::allocator<char> >::__set_long_size(unsigned long)
PUBLIC 3c1a0 0 std::__1::basic_string<char, std::__1::char_traits<char>, std::__1::allocator<char> >::__get_short_pointer()
PUBLIC 3c1aa 0 std::__1::basic_string<char, std::__1::char_traits<char>, std::__1::allocator<char> >::__set_short_size(unsigned long)
PUBLIC 3c1b6 0 std::__1::basic_string<char, std::__1::char_traits<char>, std::__1::allocator<char> >::__invalidate_iterators_past(unsigned long)
PUBLIC 3c1bc 0 std::__1::basic_string<char, std::__1::char_traits<char>, std::__1::allocator<char> >::operator=(std::initializer_list<char>)
PUBLIC 3c1c6 0 std::__1::basic_string<char, std::__1::char_traits<char>, std::__1::allocator<char> >::begin()
PUBLIC 3c1de 0 std::__1::basic_string<char, std::__1::char_traits<char>, std::__1::allocator<char> >::__get_pointer()
PUBLIC 3c1f6 0 std::__1::basic_string<char, std::__1::char_traits<char>, std::__1::allocator<char> >::begin() const
PUBLIC 3c20e 0 std::__1::basic_string<char, std::__1::char_traits<char>, std::__1::allocator<char> >::__get_pointer() const
PUBLIC 3c226 0 std::__1::basic_string<char, std::__1::char_traits<char>, std::__1::allocator<char> >::end()
PUBLIC 3c24a 0 std::__1::basic_string<char, std::__1::char_traits<char>, std::__1::allocator<char> >::end() const
PUBLIC 3c26e 0 std::__1::basic_string<char, std::__1::char_traits<char>, std::__1::allocator<char> >::rbegin()
PUBLIC 3c294 0 std::__1::basic_string<char, std::__1::char_traits<char>, std::__1::allocator<char> >::rbegin() const
PUBLIC 3c2ba 0 std::__1::basic_string<char, std::__1::char_traits<char>, std::__1::allocator<char> >::rend()
PUBLIC 3c2d4 0 std::__1::basic_string<char, std::__1::char_traits<char>, std::__1::allocator<char> >::rend() const
PUBLIC 3c2ee 0 std::__1::basic_string<char, std::__1::char_traits<char>, std::__1::allocator<char> >::cbegin() const
PUBLIC 3c306 0 std::__1::basic_string<char, std::__1::char_traits<char>, std::__1::allocator<char> >::cend() const
PUBLIC 3c32a 0 std::__1::basic_string<char, std::__1::char_traits<char>, std::__1::allocator<char> >::crbegin() const
PUBLIC 3c350 0 std::__1::basic_string<char, std::__1::char_traits<char>, std::__1::allocator<char> >::crend() const
PUBLIC 3c36a 0 std::__1::basic_string<char, std::__1::char_traits<char>, std::__1::allocator<char> >::__get_short_size() const
PUBLIC 3c376 0 std::__1::basic_string<char, std::__1::char_traits<char>, std::__1::allocator<char> >::length() const
PUBLIC 3c38c 0 std::__1::basic_string<char, std::__1::char_traits<char>, std::__1::allocator<char> >::max_size() const
PUBLIC 3c39a 0 std::__1::basic_string<char, std::__1::char_traits<char>, std::__1::allocator<char> >::capacity() const
PUBLIC 3c3b6 0 std::__1::basic_string<char, std::__1::char_traits<char>, std::__1::allocator<char> >::resize(unsigned long, char)
PUBLIC 3c3fc 0 std::__1::basic_string<char, std::__1::char_traits<char>, std::__1::allocator<char> >::append(unsigned long, char)
PUBLIC 3c4ce 0 std::__1::basic_string<char, std::__1::char_traits<char>, std::__1::allocator<char> >::__erase_to_end(unsigned long)
PUBLIC 3c4f2 0 std::__1::basic_string<char, std::__1::char_traits<char>, std::__1::allocator<char> >::resize(unsigned long)
PUBLIC 3c4fe 0 std::__1::basic_string<char, std::__1::char_traits<char>, std::__1::allocator<char> >::reserve(unsigned long)
PUBLIC 3c65e 0 std::__1::basic_string<char, std::__1::char_traits<char>, std::__1::allocator<char> >::__recommend(unsigned long)
PUBLIC 3c680 0 std::__1::basic_string<char, std::__1::char_traits<char>, std::__1::allocator<char> >::__set_long_cap(unsigned long)
PUBLIC 3c68e 0 std::__1::basic_string<char, std::__1::char_traits<char>, std::__1::allocator<char> >::__set_long_pointer(char*)
PUBLIC 3c698 0 std::__1::basic_string<char, std::__1::char_traits<char>, std::__1::allocator<char> >::__invalidate_all_iterators()
PUBLIC 3c69e 0 std::__1::basic_string<char, std::__1::char_traits<char>, std::__1::allocator<char> >::shrink_to_fit()
PUBLIC 3c6b4 0 std::__1::basic_string<char, std::__1::char_traits<char>, std::__1::allocator<char> >::clear()
PUBLIC 3c6d6 0 std::__1::basic_string<char, std::__1::char_traits<char>, std::__1::allocator<char> >::empty() const
PUBLIC 3c6f2 0 std::__1::basic_string<char, std::__1::char_traits<char>, std::__1::allocator<char> >::operator[](unsigned long) const
PUBLIC 3c70c 0 std::__1::basic_string<char, std::__1::char_traits<char>, std::__1::allocator<char> >::operator[](unsigned long)
PUBLIC 3c726 0 std::__1::basic_string<char, std::__1::char_traits<char>, std::__1::allocator<char> >::at(unsigned long) const
PUBLIC 3c75c 0 std::__1::basic_string<char, std::__1::char_traits<char>, std::__1::allocator<char> >::at(unsigned long)
PUBLIC 3c792 0 std::__1::basic_string<char, std::__1::char_traits<char>, std::__1::allocator<char> >::operator+=(std::__1::basic_string<char, std::__1::char_traits<char>, std::__1::allocator<char> > const&)
PUBLIC 3c7ba 0 std::__1::basic_string<char, std::__1::char_traits<char>, std::__1::allocator<char> >::append(std::__1::basic_string<char, std::__1::char_traits<char>, std::__1::allocator<char> > const&)
PUBLIC 3c7e2 0 std::__1::basic_string<char, std::__1::char_traits<char>, std::__1::allocator<char> >::operator+=(std::__1::basic_string_view<char, std::__1::char_traits<char> >)
PUBLIC 3c7ec 0 std::__1::basic_string<char, std::__1::char_traits<char>, std::__1::allocator<char> >::append(std::__1::basic_string_view<char, std::__1::char_traits<char> >)
PUBLIC 3c7f6 0 std::__1::basic_string<char, std::__1::char_traits<char>, std::__1::allocator<char> >::operator+=(char const*)
PUBLIC 3c81e 0 std::__1::basic_string<char, std::__1::char_traits<char>, std::__1::allocator<char> >::append(char const*)
PUBLIC 3c846 0 std::__1::basic_string<char, std::__1::char_traits<char>, std::__1::allocator<char> >::operator+=(char)
PUBLIC 3c85e 0 std::__1::basic_string<char, std::__1::char_traits<char>, std::__1::allocator<char> >::push_back(char)
PUBLIC 3c8f6 0 std::__1::basic_string<char, std::__1::char_traits<char>, std::__1::allocator<char> >::operator+=(std::initializer_list<char>)
PUBLIC 3c900 0 std::__1::basic_string<char, std::__1::char_traits<char>, std::__1::allocator<char> >::append(std::initializer_list<char>)
PUBLIC 3c90a 0 std::__1::basic_string<char, std::__1::char_traits<char>, std::__1::allocator<char> >::append(char const*, unsigned long)
PUBLIC 3c9c4 0 std::__1::basic_string<char, std::__1::char_traits<char>, std::__1::allocator<char> >::append(std::__1::basic_string<char, std::__1::char_traits<char>, std::__1::allocator<char> > const&, unsigned long, unsigned long)
PUBLIC 3ca08 0 std::__1::basic_string<char, std::__1::char_traits<char>, std::__1::allocator<char> >::__set_size(unsigned long)
PUBLIC 3ca20 0 std::__1::basic_string<char, std::__1::char_traits<char>, std::__1::allocator<char> >::__grow_by_and_replace(unsigned long, unsigned long, unsigned long, unsigned long, unsigned long, unsigned long, char const*)
PUBLIC 3cb50 0 std::__1::basic_string<char, std::__1::char_traits<char>, std::__1::allocator<char> >::__grow_by(unsigned long, unsigned long, unsigned long, unsigned long, unsigned long, unsigned long)
PUBLIC 3cc4e 0 std::__1::basic_string<char, std::__1::char_traits<char>, std::__1::allocator<char> >::pop_back()
PUBLIC 3cc82 0 std::__1::basic_string<char, std::__1::char_traits<char>, std::__1::allocator<char> >::front()
PUBLIC 3cc9a 0 std::__1::basic_string<char, std::__1::char_traits<char>, std::__1::allocator<char> >::front() const
PUBLIC 3ccb2 0 std::__1::basic_string<char, std::__1::char_traits<char>, std::__1::allocator<char> >::back()
PUBLIC 3ccd4 0 std::__1::basic_string<char, std::__1::char_traits<char>, std::__1::allocator<char> >::back() const
PUBLIC 3ccf6 0 std::__1::basic_string<char, std::__1::char_traits<char>, std::__1::allocator<char> >::assign(std::__1::basic_string_view<char, std::__1::char_traits<char> >)
PUBLIC 3cd00 0 std::__1::basic_string<char, std::__1::char_traits<char>, std::__1::allocator<char> >::assign(std::__1::basic_string<char, std::__1::char_traits<char>, std::__1::allocator<char> > const&)
PUBLIC 3cd0a 0 std::__1::basic_string<char, std::__1::char_traits<char>, std::__1::allocator<char> >::assign(std::__1::basic_string<char, std::__1::char_traits<char>, std::__1::allocator<char> >&&)
PUBLIC 3cd70 0 std::__1::basic_string<char, std::__1::char_traits<char>, std::__1::allocator<char> >::assign(std::__1::basic_string<char, std::__1::char_traits<char>, std::__1::allocator<char> > const&, unsigned long, unsigned long)
PUBLIC 3cdb4 0 std::__1::basic_string<char, std::__1::char_traits<char>, std::__1::allocator<char> >::assign(unsigned long, char)
PUBLIC 3ce62 0 std::__1::basic_string<char, std::__1::char_traits<char>, std::__1::allocator<char> >::assign(std::initializer_list<char>)
PUBLIC 3ce6c 0 std::__1::basic_string<char, std::__1::char_traits<char>, std::__1::allocator<char> >::insert(unsigned long, std::__1::basic_string<char, std::__1::char_traits<char>, std::__1::allocator<char> > const&)
PUBLIC 3ce94 0 std::__1::basic_string<char, std::__1::char_traits<char>, std::__1::allocator<char> >::insert(unsigned long, char const*, unsigned long)
PUBLIC 3cf9e 0 std::__1::basic_string<char, std::__1::char_traits<char>, std::__1::allocator<char> >::insert(unsigned long, std::__1::basic_string_view<char, std::__1::char_traits<char> >)
PUBLIC 3cfa8 0 std::__1::basic_string<char, std::__1::char_traits<char>, std::__1::allocator<char> >::insert(unsigned long, std::__1::basic_string<char, std::__1::char_traits<char>, std::__1::allocator<char> > const&, unsigned long, unsigned long)
PUBLIC 3cfec 0 std::__1::basic_string<char, std::__1::char_traits<char>, std::__1::allocator<char> >::insert(unsigned long, char const*)
PUBLIC 3d022 0 std::__1::basic_string<char, std::__1::char_traits<char>, std::__1::allocator<char> >::insert(unsigned long, unsigned long, char)
PUBLIC 3d122 0 std::__1::basic_string<char, std::__1::char_traits<char>, std::__1::allocator<char> >::insert(std::__1::__wrap_iter<char const*>, char)
PUBLIC 3d200 0 std::__1::basic_string<char, std::__1::char_traits<char>, std::__1::allocator<char> >::insert(std::__1::__wrap_iter<char const*>, unsigned long, char)
PUBLIC 3d246 0 std::__1::basic_string<char, std::__1::char_traits<char>, std::__1::allocator<char> >::insert(std::__1::__wrap_iter<char const*>, std::initializer_list<char>)
PUBLIC 3d254 0 std::__1::enable_if<(__is_forward_iterator<char const*>::value) && (__libcpp_string_gets_noexcept_iterator<char const*>::value), std::__1::__wrap_iter<char*> >::type std::__1::basic_string<char, std::__1::char_traits<char>, std::__1::allocator<char> >::insert<char const*>(std::__1::__wrap_iter<char const*>, char const*, char const*)
PUBLIC 3d470 0 std::__1::basic_string<char, std::__1::char_traits<char>, std::__1::allocator<char> >::erase(unsigned long, unsigned long)
PUBLIC 3d500 0 std::__1::basic_string<char, std::__1::char_traits<char>, std::__1::allocator<char> >::erase(std::__1::__wrap_iter<char const*>)
PUBLIC 3d532 0 std::__1::basic_string<char, std::__1::char_traits<char>, std::__1::allocator<char> >::erase(std::__1::__wrap_iter<char const*>, std::__1::__wrap_iter<char const*>)
PUBLIC 3d562 0 std::__1::basic_string<char, std::__1::char_traits<char>, std::__1::allocator<char> >::replace(unsigned long, unsigned long, std::__1::basic_string<char, std::__1::char_traits<char>, std::__1::allocator<char> > const&)
PUBLIC 3d58c 0 std::__1::basic_string<char, std::__1::char_traits<char>, std::__1::allocator<char> >::replace(unsigned long, unsigned long, char const*, unsigned long)
PUBLIC 3d750 0 std::__1::basic_string<char, std::__1::char_traits<char>, std::__1::allocator<char> >::replace(unsigned long, unsigned long, std::__1::basic_string_view<char, std::__1::char_traits<char> >)
PUBLIC 3d75a 0 std::__1::basic_string<char, std::__1::char_traits<char>, std::__1::allocator<char> >::replace(unsigned long, unsigned long, std::__1::basic_string<char, std::__1::char_traits<char>, std::__1::allocator<char> > const&, unsigned long, unsigned long)
PUBLIC 3d7a6 0 std::__1::basic_string<char, std::__1::char_traits<char>, std::__1::allocator<char> >::replace(unsigned long, unsigned long, char const*)
PUBLIC 3d7e2 0 std::__1::basic_string<char, std::__1::char_traits<char>, std::__1::allocator<char> >::replace(unsigned long, unsigned long, unsigned long, char)
PUBLIC 3d90e 0 std::__1::basic_string<char, std::__1::char_traits<char>, std::__1::allocator<char> >::replace(std::__1::__wrap_iter<char const*>, std::__1::__wrap_iter<char const*>, std::__1::basic_string<char, std::__1::char_traits<char>, std::__1::allocator<char> > const&)
PUBLIC 3d94c 0 std::__1::basic_string<char, std::__1::char_traits<char>, std::__1::allocator<char> >::replace(std::__1::__wrap_iter<char const*>, std::__1::__wrap_iter<char const*>, std::__1::basic_string_view<char, std::__1::char_traits<char> >)
PUBLIC 3d96c 0 std::__1::basic_string<char, std::__1::char_traits<char>, std::__1::allocator<char> >::replace(std::__1::__wrap_iter<char const*>, std::__1::__wrap_iter<char const*>, char const*, unsigned long)
PUBLIC 3d98c 0 std::__1::basic_string<char, std::__1::char_traits<char>, std::__1::allocator<char> >::replace(std::__1::__wrap_iter<char const*>, std::__1::__wrap_iter<char const*>, char const*)
PUBLIC 3d9e0 0 std::__1::basic_string<char, std::__1::char_traits<char>, std::__1::allocator<char> >::replace(std::__1::__wrap_iter<char const*>, std::__1::__wrap_iter<char const*>, unsigned long, char)
PUBLIC 3da04 0 std::__1::basic_string<char, std::__1::char_traits<char>, std::__1::allocator<char> >::replace(std::__1::__wrap_iter<char const*>, std::__1::__wrap_iter<char const*>, std::initializer_list<char>)
PUBLIC 3da12 0 std::__1::enable_if<__is_input_iterator<char const*>::value, std::__1::basic_string<char, std::__1::char_traits<char>, std::__1::allocator<char> >&>::type std::__1::basic_string<char, std::__1::char_traits<char>, std::__1::allocator<char> >::replace<char const*>(std::__1::__wrap_iter<char const*>, std::__1::__wrap_iter<char const*>, char const*, char const*)
PUBLIC 3db32 0 std::__1::basic_string<char, std::__1::char_traits<char>, std::__1::allocator<char> >::copy(char*, unsigned long, unsigned long) const
PUBLIC 3db94 0 std::__1::basic_string<char, std::__1::char_traits<char>, std::__1::allocator<char> >::substr(unsigned long, unsigned long) const
PUBLIC 3dbb0 0 std::__1::basic_string<char, std::__1::char_traits<char>, std::__1::allocator<char> >::swap(std::__1::basic_string<char, std::__1::char_traits<char>, std::__1::allocator<char> >&)
PUBLIC 3dbfa 0 std::__1::basic_string<char, std::__1::char_traits<char>, std::__1::allocator<char> >::c_str() const
PUBLIC 3dc12 0 std::__1::basic_string<char, std::__1::char_traits<char>, std::__1::allocator<char> >::get_allocator() const
PUBLIC 3dc18 0 std::__1::basic_string<char, std::__1::char_traits<char>, std::__1::allocator<char> >::find(std::__1::basic_string<char, std::__1::char_traits<char>, std::__1::allocator<char> > const&, unsigned long) const
PUBLIC 3dcf8 0 std::__1::basic_string<char, std::__1::char_traits<char>, std::__1::allocator<char> >::find(std::__1::basic_string_view<char, std::__1::char_traits<char> >, unsigned long) const
PUBLIC 3ddbe 0 std::__1::basic_string<char, std::__1::char_traits<char>, std::__1::allocator<char> >::find(char const*, unsigned long, unsigned long) const
PUBLIC 3de88 0 std::__1::basic_string<char, std::__1::char_traits<char>, std::__1::allocator<char> >::find(char const*, unsigned long) const
PUBLIC 3df68 0 std::__1::basic_string<char, std::__1::char_traits<char>, std::__1::allocator<char> >::find(char, unsigned long) const
PUBLIC 3dfc8 0 std::__1::basic_string<char, std::__1::char_traits<char>, std::__1::allocator<char> >::rfind(std::__1::basic_string<char, std::__1::char_traits<char>, std::__1::allocator<char> > const&, unsigned long) const
PUBLIC 3e092 0 std::__1::basic_string<char, std::__1::char_traits<char>, std::__1::allocator<char> >::rfind(std::__1::basic_string_view<char, std::__1::char_traits<char> >, unsigned long) const
PUBLIC 3e140 0 std::__1::basic_string<char, std::__1::char_traits<char>, std::__1::allocator<char> >::rfind(char const*, unsigned long, unsigned long) const
PUBLIC 3e1ee 0 std::__1::basic_string<char, std::__1::char_traits<char>, std::__1::allocator<char> >::rfind(char const*, unsigned long) const
PUBLIC 3e2bc 0 std::__1::basic_string<char, std::__1::char_traits<char>, std::__1::allocator<char> >::rfind(char, unsigned long) const
PUBLIC 3e304 0 std::__1::basic_string<char, std::__1::char_traits<char>, std::__1::allocator<char> >::find_first_of(std::__1::basic_string<char, std::__1::char_traits<char>, std::__1::allocator<char> > const&, unsigned long) const
PUBLIC 3e392 0 std::__1::basic_string<char, std::__1::char_traits<char>, std::__1::allocator<char> >::find_first_of(std::__1::basic_string_view<char, std::__1::char_traits<char> >, unsigned long) const
PUBLIC 3e406 0 std::__1::basic_string<char, std::__1::char_traits<char>, std::__1::allocator<char> >::find_first_of(char const*, unsigned long, unsigned long) const
PUBLIC 3e47a 0 std::__1::basic_string<char, std::__1::char_traits<char>, std::__1::allocator<char> >::find_first_of(char const*, unsigned long) const
PUBLIC 3e510 0 std::__1::basic_string<char, std::__1::char_traits<char>, std::__1::allocator<char> >::find_first_of(char, unsigned long) const
PUBLIC 3e51a 0 std::__1::basic_string<char, std::__1::char_traits<char>, std::__1::allocator<char> >::find_last_of(std::__1::basic_string<char, std::__1::char_traits<char>, std::__1::allocator<char> > const&, unsigned long) const
PUBLIC 3e5b2 0 std::__1::basic_string<char, std::__1::char_traits<char>, std::__1::allocator<char> >::find_last_of(std::__1::basic_string_view<char, std::__1::char_traits<char> >, unsigned long) const
PUBLIC 3e636 0 std::__1::basic_string<char, std::__1::char_traits<char>, std::__1::allocator<char> >::find_last_of(char const*, unsigned long, unsigned long) const
PUBLIC 3e6ba 0 std::__1::basic_string<char, std::__1::char_traits<char>, std::__1::allocator<char> >::find_last_of(char const*, unsigned long) const
PUBLIC 3e750 0 std::__1::basic_string<char, std::__1::char_traits<char>, std::__1::allocator<char> >::find_last_of(char, unsigned long) const
PUBLIC 3e75a 0 std::__1::basic_string<char, std::__1::char_traits<char>, std::__1::allocator<char> >::find_first_not_of(std::__1::basic_string<char, std::__1::char_traits<char>, std::__1::allocator<char> > const&, unsigned long) const
PUBLIC 3e7fa 0 std::__1::basic_string<char, std::__1::char_traits<char>, std::__1::allocator<char> >::find_first_not_of(std::__1::basic_string_view<char, std::__1::char_traits<char> >, unsigned long) const
PUBLIC 3e884 0 std::__1::basic_string<char, std::__1::char_traits<char>, std::__1::allocator<char> >::find_first_not_of(char const*, unsigned long, unsigned long) const
PUBLIC 3e90e 0 std::__1::basic_string<char, std::__1::char_traits<char>, std::__1::allocator<char> >::find_first_not_of(char const*, unsigned long) const
PUBLIC 3e9a0 0 std::__1::basic_string<char, std::__1::char_traits<char>, std::__1::allocator<char> >::find_first_not_of(char, unsigned long) const
PUBLIC 3e9de 0 std::__1::basic_string<char, std::__1::char_traits<char>, std::__1::allocator<char> >::find_last_not_of(std::__1::basic_string<char, std::__1::char_traits<char>, std::__1::allocator<char> > const&, unsigned long) const
PUBLIC 3ea6c 0 std::__1::basic_string<char, std::__1::char_traits<char>, std::__1::allocator<char> >::find_last_not_of(std::__1::basic_string_view<char, std::__1::char_traits<char> >, unsigned long) const
PUBLIC 3eae4 0 std::__1::basic_string<char, std::__1::char_traits<char>, std::__1::allocator<char> >::find_last_not_of(char const*, unsigned long, unsigned long) const
PUBLIC 3eb5c 0 std::__1::basic_string<char, std::__1::char_traits<char>, std::__1::allocator<char> >::find_last_not_of(char const*, unsigned long) const
PUBLIC 3ebee 0 std::__1::basic_string<char, std::__1::char_traits<char>, std::__1::allocator<char> >::find_last_not_of(char, unsigned long) const
PUBLIC 3ec30 0 std::__1::basic_string<char, std::__1::char_traits<char>, std::__1::allocator<char> >::compare(std::__1::basic_string<char, std::__1::char_traits<char>, std::__1::allocator<char> > const&) const
PUBLIC 3ec9e 0 std::__1::basic_string<char, std::__1::char_traits<char>, std::__1::allocator<char> >::compare(std::__1::basic_string_view<char, std::__1::char_traits<char> >) const
PUBLIC 3ecee 0 std::__1::basic_string<char, std::__1::char_traits<char>, std::__1::allocator<char> >::compare(unsigned long, unsigned long, std::__1::basic_string_view<char, std::__1::char_traits<char> >) const
PUBLIC 3ecf8 0 std::__1::basic_string<char, std::__1::char_traits<char>, std::__1::allocator<char> >::compare(unsigned long, unsigned long, char const*, unsigned long) const
PUBLIC 3ed70 0 std::__1::basic_string<char, std::__1::char_traits<char>, std::__1::allocator<char> >::compare(unsigned long, unsigned long, std::__1::basic_string<char, std::__1::char_traits<char>, std::__1::allocator<char> > const&) const
PUBLIC 3ed9a 0 std::__1::basic_string<char, std::__1::char_traits<char>, std::__1::allocator<char> >::compare(unsigned long, unsigned long, std::__1::basic_string<char, std::__1::char_traits<char>, std::__1::allocator<char> > const&, unsigned long, unsigned long) const
PUBLIC 3ee8e 0 std::__1::basic_string<char, std::__1::char_traits<char>, std::__1::allocator<char> >::compare(char const*) const
PUBLIC 3eec8 0 std::__1::basic_string<char, std::__1::char_traits<char>, std::__1::allocator<char> >::compare(unsigned long, unsigned long, char const*) const
PUBLIC 3ef04 0 std::__1::basic_string<char, std::__1::char_traits<char>, std::__1::allocator<char> >::__invariants() const
PUBLIC 3ef7e 0 std::__1::basic_string<char, std::__1::char_traits<char>, std::__1::allocator<char> >::__get_short_pointer() const
PUBLIC 3ef88 0 std::__1::basic_string<char, std::__1::char_traits<char>, std::__1::allocator<char> >::__init(char const*, unsigned long, unsigned long)
PUBLIC 3f008 0 std::__1::basic_string<char, std::__1::char_traits<char>, std::__1::allocator<char> >::__copy_assign_alloc(std::__1::basic_string<char, std::__1::char_traits<char>, std::__1::allocator<char> > const&, std::__1::integral_constant<bool, false>)
PUBLIC 3f00e 0 std::__1::basic_string<char, std::__1::char_traits<char>, std::__1::allocator<char> >::__copy_assign_alloc(std::__1::basic_string<char, std::__1::char_traits<char>, std::__1::allocator<char> > const&, std::__1::integral_constant<bool, true>)
PUBLIC 3f014 0 std::__1::basic_string<char, std::__1::char_traits<char>, std::__1::allocator<char> >::__move_assign(std::__1::basic_string<char, std::__1::char_traits<char>, std::__1::allocator<char> >&, std::__1::integral_constant<bool, false>)
PUBLIC 3f076 0 std::__1::basic_string<char, std::__1::char_traits<char>, std::__1::allocator<char> >::__move_assign_alloc(std::__1::basic_string<char, std::__1::char_traits<char>, std::__1::allocator<char> >&)
PUBLIC 3f07c 0 std::__1::basic_string<char, std::__1::char_traits<char>, std::__1::allocator<char> >::__move_assign_alloc(std::__1::basic_string<char, std::__1::char_traits<char>, std::__1::allocator<char> >&, std::__1::integral_constant<bool, true>)
PUBLIC 3f082 0 std::__1::basic_string<char, std::__1::char_traits<char>, std::__1::allocator<char> >::__move_assign_alloc(std::__1::basic_string<char, std::__1::char_traits<char>, std::__1::allocator<char> >&, std::__1::integral_constant<bool, false>)
PUBLIC 3f088 0 std::__1::basic_string<wchar_t, std::__1::char_traits<wchar_t>, std::__1::allocator<wchar_t> >::basic_string()
PUBLIC 3f09c 0 std::__1::basic_string<wchar_t, std::__1::char_traits<wchar_t>, std::__1::allocator<wchar_t> >::__zero()
PUBLIC 3f0b0 0 std::__1::basic_string<wchar_t, std::__1::char_traits<wchar_t>, std::__1::allocator<wchar_t> >::basic_string()
PUBLIC 3f0c4 0 std::__1::basic_string<wchar_t, std::__1::char_traits<wchar_t>, std::__1::allocator<wchar_t> >::basic_string(std::__1::allocator<wchar_t> const&)
PUBLIC 3f0d8 0 std::__1::basic_string<wchar_t, std::__1::char_traits<wchar_t>, std::__1::allocator<wchar_t> >::basic_string(std::__1::allocator<wchar_t> const&)
PUBLIC 3f0ec 0 std::__1::basic_string<wchar_t, std::__1::char_traits<wchar_t>, std::__1::allocator<wchar_t> >::basic_string(std::__1::basic_string<wchar_t, std::__1::char_traits<wchar_t>, std::__1::allocator<wchar_t> > const&)
PUBLIC 3f128 0 std::__1::basic_string<wchar_t, std::__1::char_traits<wchar_t>, std::__1::allocator<wchar_t> >::__alloc() const
PUBLIC 3f132 0 std::__1::basic_string<wchar_t, std::__1::char_traits<wchar_t>, std::__1::allocator<wchar_t> >::__is_long() const
PUBLIC 3f13c 0 std::__1::basic_string<wchar_t, std::__1::char_traits<wchar_t>, std::__1::allocator<wchar_t> >::__init(wchar_t const*, unsigned long)
PUBLIC 3f22c 0 std::__1::basic_string<wchar_t, std::__1::char_traits<wchar_t>, std::__1::allocator<wchar_t> >::__get_long_pointer() const
PUBLIC 3f236 0 std::__1::basic_string<wchar_t, std::__1::char_traits<wchar_t>, std::__1::allocator<wchar_t> >::__get_long_size() const
PUBLIC 3f240 0 std::__1::basic_string<wchar_t, std::__1::char_traits<wchar_t>, std::__1::allocator<wchar_t> >::basic_string(std::__1::basic_string<wchar_t, std::__1::char_traits<wchar_t>, std::__1::allocator<wchar_t> > const&)
PUBLIC 3f24a 0 std::__1::basic_string<wchar_t, std::__1::char_traits<wchar_t>, std::__1::allocator<wchar_t> >::basic_string(std::__1::basic_string<wchar_t, std::__1::char_traits<wchar_t>, std::__1::allocator<wchar_t> > const&, std::__1::allocator<wchar_t> const&)
PUBLIC 3f286 0 std::__1::basic_string<wchar_t, std::__1::char_traits<wchar_t>, std::__1::allocator<wchar_t> >::basic_string(std::__1::basic_string<wchar_t, std::__1::char_traits<wchar_t>, std::__1::allocator<wchar_t> > const&, std::__1::allocator<wchar_t> const&)
PUBLIC 3f2c2 0 std::__1::basic_string<wchar_t, std::__1::char_traits<wchar_t>, std::__1::allocator<wchar_t> >::basic_string(std::__1::basic_string<wchar_t, std::__1::char_traits<wchar_t>, std::__1::allocator<wchar_t> >&&)
PUBLIC 3f2ec 0 std::__1::basic_string<wchar_t, std::__1::char_traits<wchar_t>, std::__1::allocator<wchar_t> >::basic_string(std::__1::basic_string<wchar_t, std::__1::char_traits<wchar_t>, std::__1::allocator<wchar_t> >&&)
PUBLIC 3f316 0 std::__1::basic_string<wchar_t, std::__1::char_traits<wchar_t>, std::__1::allocator<wchar_t> >::basic_string(std::__1::basic_string<wchar_t, std::__1::char_traits<wchar_t>, std::__1::allocator<wchar_t> >&&, std::__1::allocator<wchar_t> const&)
PUBLIC 3f340 0 std::__1::basic_string<wchar_t, std::__1::char_traits<wchar_t>, std::__1::allocator<wchar_t> >::__alloc()
PUBLIC 3f34a 0 std::__1::basic_string<wchar_t, std::__1::char_traits<wchar_t>, std::__1::allocator<wchar_t> >::__get_long_pointer()
PUBLIC 3f354 0 std::__1::basic_string<wchar_t, std::__1::char_traits<wchar_t>, std::__1::allocator<wchar_t> >::basic_string(std::__1::basic_string<wchar_t, std::__1::char_traits<wchar_t>, std::__1::allocator<wchar_t> >&&, std::__1::allocator<wchar_t> const&)
PUBLIC 3f37e 0 std::__1::basic_string<wchar_t, std::__1::char_traits<wchar_t>, std::__1::allocator<wchar_t> >::basic_string(wchar_t const*)
PUBLIC 3f3b2 0 std::__1::basic_string<wchar_t, std::__1::char_traits<wchar_t>, std::__1::allocator<wchar_t> >::basic_string(wchar_t const*)
PUBLIC 3f3e6 0 std::__1::basic_string<wchar_t, std::__1::char_traits<wchar_t>, std::__1::allocator<wchar_t> >::basic_string(wchar_t const*, std::__1::allocator<wchar_t> const&)
PUBLIC 3f41a 0 std::__1::basic_string<wchar_t, std::__1::char_traits<wchar_t>, std::__1::allocator<wchar_t> >::basic_string(wchar_t const*, std::__1::allocator<wchar_t> const&)
PUBLIC 3f44e 0 std::__1::basic_string<wchar_t, std::__1::char_traits<wchar_t>, std::__1::allocator<wchar_t> >::basic_string(wchar_t const*, unsigned long)
PUBLIC 3f466 0 std::__1::basic_string<wchar_t, std::__1::char_traits<wchar_t>, std::__1::allocator<wchar_t> >::basic_string(wchar_t const*, unsigned long)
PUBLIC 3f47e 0 std::__1::basic_string<wchar_t, std::__1::char_traits<wchar_t>, std::__1::allocator<wchar_t> >::basic_string(wchar_t const*, unsigned long, std::__1::allocator<wchar_t> const&)
PUBLIC 3f496 0 std::__1::basic_string<wchar_t, std::__1::char_traits<wchar_t>, std::__1::allocator<wchar_t> >::basic_string(wchar_t const*, unsigned long, std::__1::allocator<wchar_t> const&)
PUBLIC 3f4ae 0 std::__1::basic_string<wchar_t, std::__1::char_traits<wchar_t>, std::__1::allocator<wchar_t> >::basic_string(unsigned long, wchar_t)
PUBLIC 3f4c6 0 std::__1::basic_string<wchar_t, std::__1::char_traits<wchar_t>, std::__1::allocator<wchar_t> >::__init(unsigned long, wchar_t)
PUBLIC 3f5b6 0 std::__1::basic_string<wchar_t, std::__1::char_traits<wchar_t>, std::__1::allocator<wchar_t> >::basic_string(unsigned long, wchar_t)
PUBLIC 3f5ce 0 std::__1::basic_string<wchar_t, std::__1::char_traits<wchar_t>, std::__1::allocator<wchar_t> >::basic_string(unsigned long, wchar_t, std::__1::allocator<wchar_t> const&)
PUBLIC 3f5e6 0 std::__1::basic_string<wchar_t, std::__1::char_traits<wchar_t>, std::__1::allocator<wchar_t> >::basic_string(unsigned long, wchar_t, std::__1::allocator<wchar_t> const&)
PUBLIC 3f5fe 0 std::__1::basic_string<wchar_t, std::__1::char_traits<wchar_t>, std::__1::allocator<wchar_t> >::basic_string(std::__1::basic_string<wchar_t, std::__1::char_traits<wchar_t>, std::__1::allocator<wchar_t> > const&, unsigned long, unsigned long, std::__1::allocator<wchar_t> const&)
PUBLIC 3f64e 0 std::__1::basic_string<wchar_t, std::__1::char_traits<wchar_t>, std::__1::allocator<wchar_t> >::size() const
PUBLIC 3f664 0 std::__1::basic_string<wchar_t, std::__1::char_traits<wchar_t>, std::__1::allocator<wchar_t> >::data() const
PUBLIC 3f67c 0 std::__1::basic_string<wchar_t, std::__1::char_traits<wchar_t>, std::__1::allocator<wchar_t> >::basic_string(std::__1::basic_string<wchar_t, std::__1::char_traits<wchar_t>, std::__1::allocator<wchar_t> > const&, unsigned long, unsigned long, std::__1::allocator<wchar_t> const&)
PUBLIC 3f686 0 std::__1::basic_string<wchar_t, std::__1::char_traits<wchar_t>, std::__1::allocator<wchar_t> >::basic_string(std::__1::basic_string<wchar_t, std::__1::char_traits<wchar_t>, std::__1::allocator<wchar_t> > const&, unsigned long, std::__1::allocator<wchar_t> const&)
PUBLIC 3f6ce 0 std::__1::basic_string<wchar_t, std::__1::char_traits<wchar_t>, std::__1::allocator<wchar_t> >::basic_string(std::__1::basic_string<wchar_t, std::__1::char_traits<wchar_t>, std::__1::allocator<wchar_t> > const&, unsigned long, std::__1::allocator<wchar_t> const&)
PUBLIC 3f716 0 std::__1::basic_string<wchar_t, std::__1::char_traits<wchar_t>, std::__1::allocator<wchar_t> >::basic_string(std::__1::basic_string_view<wchar_t, std::__1::char_traits<wchar_t> >)
PUBLIC 3f72e 0 std::__1::basic_string<wchar_t, std::__1::char_traits<wchar_t>, std::__1::allocator<wchar_t> >::basic_string(std::__1::basic_string_view<wchar_t, std::__1::char_traits<wchar_t> >)
PUBLIC 3f746 0 std::__1::basic_string<wchar_t, std::__1::char_traits<wchar_t>, std::__1::allocator<wchar_t> >::basic_string(std::__1::basic_string_view<wchar_t, std::__1::char_traits<wchar_t> >, std::__1::allocator<wchar_t> const&)
PUBLIC 3f75e 0 std::__1::basic_string<wchar_t, std::__1::char_traits<wchar_t>, std::__1::allocator<wchar_t> >::basic_string(std::__1::basic_string_view<wchar_t, std::__1::char_traits<wchar_t> >, std::__1::allocator<wchar_t> const&)
PUBLIC 3f776 0 std::__1::basic_string<wchar_t, std::__1::char_traits<wchar_t>, std::__1::allocator<wchar_t> >::basic_string(std::initializer_list<wchar_t>)
PUBLIC 3f798 0 std::__1::basic_string<wchar_t, std::__1::char_traits<wchar_t>, std::__1::allocator<wchar_t> >::basic_string(std::initializer_list<wchar_t>)
PUBLIC 3f7b4 0 std::__1::basic_string<wchar_t, std::__1::char_traits<wchar_t>, std::__1::allocator<wchar_t> >::basic_string(std::initializer_list<wchar_t>, std::__1::allocator<wchar_t> const&)
PUBLIC 3f7d0 0 std::__1::basic_string<wchar_t, std::__1::char_traits<wchar_t>, std::__1::allocator<wchar_t> >::basic_string(std::initializer_list<wchar_t>, std::__1::allocator<wchar_t> const&)
PUBLIC 3f7ec 0 std::__1::basic_string<wchar_t, std::__1::char_traits<wchar_t>, std::__1::allocator<wchar_t> >::~basic_string()
PUBLIC 3f802 0 std::__1::basic_string<wchar_t, std::__1::char_traits<wchar_t>, std::__1::allocator<wchar_t> >::__get_long_cap() const
PUBLIC 3f810 0 std::__1::basic_string<wchar_t, std::__1::char_traits<wchar_t>, std::__1::allocator<wchar_t> >::~basic_string()
PUBLIC 3f826 0 std::__1::basic_string<wchar_t, std::__1::char_traits<wchar_t>, std::__1::allocator<wchar_t> >::operator std::__1::basic_string_view<wchar_t, std::__1::char_traits<wchar_t> >() const
PUBLIC 3f848 0 std::__1::basic_string<wchar_t, std::__1::char_traits<wchar_t>, std::__1::allocator<wchar_t> >::operator=(std::__1::basic_string<wchar_t, std::__1::char_traits<wchar_t>, std::__1::allocator<wchar_t> > const&)
PUBLIC 3f886 0 std::__1::basic_string<wchar_t, std::__1::char_traits<wchar_t>, std::__1::allocator<wchar_t> >::__copy_assign_alloc(std::__1::basic_string<wchar_t, std::__1::char_traits<wchar_t>, std::__1::allocator<wchar_t> > const&)
PUBLIC 3f88c 0 std::__1::basic_string<wchar_t, std::__1::char_traits<wchar_t>, std::__1::allocator<wchar_t> >::assign(wchar_t const*, unsigned long)
PUBLIC 3f942 0 std::__1::basic_string<wchar_t, std::__1::char_traits<wchar_t>, std::__1::allocator<wchar_t> >::operator=(std::__1::basic_string<wchar_t, std::__1::char_traits<wchar_t>, std::__1::allocator<wchar_t> >&&)
PUBLIC 3f9b0 0 std::__1::basic_string<wchar_t, std::__1::char_traits<wchar_t>, std::__1::allocator<wchar_t> >::__move_assign(std::__1::basic_string<wchar_t, std::__1::char_traits<wchar_t>, std::__1::allocator<wchar_t> >&, std::__1::integral_constant<bool, true>)
PUBLIC 3fa1a 0 std::__1::basic_string<wchar_t, std::__1::char_traits<wchar_t>, std::__1::allocator<wchar_t> >::operator=(wchar_t const*)
PUBLIC 3fa42 0 std::__1::basic_string<wchar_t, std::__1::char_traits<wchar_t>, std::__1::allocator<wchar_t> >::assign(wchar_t const*)
PUBLIC 3fa6a 0 std::__1::basic_string<wchar_t, std::__1::char_traits<wchar_t>, std::__1::allocator<wchar_t> >::operator=(wchar_t)
PUBLIC 3fa96 0 std::__1::basic_string<wchar_t, std::__1::char_traits<wchar_t>, std::__1::allocator<wchar_t> >::__set_long_size(unsigned long)
PUBLIC 3faa0 0 std::__1::basic_string<wchar_t, std::__1::char_traits<wchar_t>, std::__1::allocator<wchar_t> >::__get_short_pointer()
PUBLIC 3faaa 0 std::__1::basic_string<wchar_t, std::__1::char_traits<wchar_t>, std::__1::allocator<wchar_t> >::__set_short_size(unsigned long)
PUBLIC 3fab6 0 std::__1::basic_string<wchar_t, std::__1::char_traits<wchar_t>, std::__1::allocator<wchar_t> >::__invalidate_iterators_past(unsigned long)
PUBLIC 3fabc 0 std::__1::basic_string<wchar_t, std::__1::char_traits<wchar_t>, std::__1::allocator<wchar_t> >::operator=(std::initializer_list<wchar_t>)
PUBLIC 3fac6 0 std::__1::basic_string<wchar_t, std::__1::char_traits<wchar_t>, std::__1::allocator<wchar_t> >::begin()
PUBLIC 3fade 0 std::__1::basic_string<wchar_t, std::__1::char_traits<wchar_t>, std::__1::allocator<wchar_t> >::__get_pointer()
PUBLIC 3faf6 0 std::__1::basic_string<wchar_t, std::__1::char_traits<wchar_t>, std::__1::allocator<wchar_t> >::begin() const
PUBLIC 3fb0e 0 std::__1::basic_string<wchar_t, std::__1::char_traits<wchar_t>, std::__1::allocator<wchar_t> >::__get_pointer() const
PUBLIC 3fb26 0 std::__1::basic_string<wchar_t, std::__1::char_traits<wchar_t>, std::__1::allocator<wchar_t> >::end()
PUBLIC 3fb48 0 std::__1::basic_string<wchar_t, std::__1::char_traits<wchar_t>, std::__1::allocator<wchar_t> >::end() const
PUBLIC 3fb6a 0 std::__1::basic_string<wchar_t, std::__1::char_traits<wchar_t>, std::__1::allocator<wchar_t> >::rbegin()
PUBLIC 3fb90 0 std::__1::basic_string<wchar_t, std::__1::char_traits<wchar_t>, std::__1::allocator<wchar_t> >::rbegin() const
PUBLIC 3fbb6 0 std::__1::basic_string<wchar_t, std::__1::char_traits<wchar_t>, std::__1::allocator<wchar_t> >::rend()
PUBLIC 3fbd2 0 std::__1::basic_string<wchar_t, std::__1::char_traits<wchar_t>, std::__1::allocator<wchar_t> >::rend() const
PUBLIC 3fbee 0 std::__1::basic_string<wchar_t, std::__1::char_traits<wchar_t>, std::__1::allocator<wchar_t> >::cbegin() const
PUBLIC 3fc06 0 std::__1::basic_string<wchar_t, std::__1::char_traits<wchar_t>, std::__1::allocator<wchar_t> >::cend() const
PUBLIC 3fc28 0 std::__1::basic_string<wchar_t, std::__1::char_traits<wchar_t>, std::__1::allocator<wchar_t> >::crbegin() const
PUBLIC 3fc4e 0 std::__1::basic_string<wchar_t, std::__1::char_traits<wchar_t>, std::__1::allocator<wchar_t> >::crend() const
PUBLIC 3fc6a 0 std::__1::basic_string<wchar_t, std::__1::char_traits<wchar_t>, std::__1::allocator<wchar_t> >::__get_short_size() const
PUBLIC 3fc76 0 std::__1::basic_string<wchar_t, std::__1::char_traits<wchar_t>, std::__1::allocator<wchar_t> >::length() const
PUBLIC 3fc8c 0 std::__1::basic_string<wchar_t, std::__1::char_traits<wchar_t>, std::__1::allocator<wchar_t> >::max_size() const
PUBLIC 3fc9c 0 std::__1::basic_string<wchar_t, std::__1::char_traits<wchar_t>, std::__1::allocator<wchar_t> >::capacity() const
PUBLIC 3fcb8 0 std::__1::basic_string<wchar_t, std::__1::char_traits<wchar_t>, std::__1::allocator<wchar_t> >::resize(unsigned long, wchar_t)
PUBLIC 3fd02 0 std::__1::basic_string<wchar_t, std::__1::char_traits<wchar_t>, std::__1::allocator<wchar_t> >::append(unsigned long, wchar_t)
PUBLIC 3fdde 0 std::__1::basic_string<wchar_t, std::__1::char_traits<wchar_t>, std::__1::allocator<wchar_t> >::__erase_to_end(unsigned long)
PUBLIC 3fe08 0 std::__1::basic_string<wchar_t, std::__1::char_traits<wchar_t>, std::__1::allocator<wchar_t> >::resize(unsigned long)
PUBLIC 3fe14 0 std::__1::basic_string<wchar_t, std::__1::char_traits<wchar_t>, std::__1::allocator<wchar_t> >::reserve(unsigned long)
PUBLIC 4004c 0 std::__1::basic_string<wchar_t, std::__1::char_traits<wchar_t>, std::__1::allocator<wchar_t> >::__recommend(unsigned long)
PUBLIC 4006e 0 std::__1::basic_string<wchar_t, std::__1::char_traits<wchar_t>, std::__1::allocator<wchar_t> >::__set_long_cap(unsigned long)
PUBLIC 4007c 0 std::__1::basic_string<wchar_t, std::__1::char_traits<wchar_t>, std::__1::allocator<wchar_t> >::__set_long_pointer(wchar_t*)
PUBLIC 40086 0 std::__1::basic_string<wchar_t, std::__1::char_traits<wchar_t>, std::__1::allocator<wchar_t> >::__invalidate_all_iterators()
PUBLIC 4008c 0 std::__1::basic_string<wchar_t, std::__1::char_traits<wchar_t>, std::__1::allocator<wchar_t> >::shrink_to_fit()
PUBLIC 400a2 0 std::__1::basic_string<wchar_t, std::__1::char_traits<wchar_t>, std::__1::allocator<wchar_t> >::clear()
PUBLIC 400cc 0 std::__1::basic_string<wchar_t, std::__1::char_traits<wchar_t>, std::__1::allocator<wchar_t> >::empty() const
PUBLIC 400e8 0 std::__1::basic_string<wchar_t, std::__1::char_traits<wchar_t>, std::__1::allocator<wchar_t> >::operator[](unsigned long) const
PUBLIC 40102 0 std::__1::basic_string<wchar_t, std::__1::char_traits<wchar_t>, std::__1::allocator<wchar_t> >::operator[](unsigned long)
PUBLIC 4011c 0 std::__1::basic_string<wchar_t, std::__1::char_traits<wchar_t>, std::__1::allocator<wchar_t> >::at(unsigned long) const
PUBLIC 40150 0 std::__1::basic_string<wchar_t, std::__1::char_traits<wchar_t>, std::__1::allocator<wchar_t> >::at(unsigned long)
PUBLIC 40184 0 std::__1::basic_string<wchar_t, std::__1::char_traits<wchar_t>, std::__1::allocator<wchar_t> >::operator+=(std::__1::basic_string<wchar_t, std::__1::char_traits<wchar_t>, std::__1::allocator<wchar_t> > const&)
PUBLIC 401ac 0 std::__1::basic_string<wchar_t, std::__1::char_traits<wchar_t>, std::__1::allocator<wchar_t> >::append(std::__1::basic_string<wchar_t, std::__1::char_traits<wchar_t>, std::__1::allocator<wchar_t> > const&)
PUBLIC 401d4 0 std::__1::basic_string<wchar_t, std::__1::char_traits<wchar_t>, std::__1::allocator<wchar_t> >::operator+=(std::__1::basic_string_view<wchar_t, std::__1::char_traits<wchar_t> >)
PUBLIC 401de 0 std::__1::basic_string<wchar_t, std::__1::char_traits<wchar_t>, std::__1::allocator<wchar_t> >::append(std::__1::basic_string_view<wchar_t, std::__1::char_traits<wchar_t> >)
PUBLIC 401e8 0 std::__1::basic_string<wchar_t, std::__1::char_traits<wchar_t>, std::__1::allocator<wchar_t> >::operator+=(wchar_t const*)
PUBLIC 40210 0 std::__1::basic_string<wchar_t, std::__1::char_traits<wchar_t>, std::__1::allocator<wchar_t> >::append(wchar_t const*)
PUBLIC 40238 0 std::__1::basic_string<wchar_t, std::__1::char_traits<wchar_t>, std::__1::allocator<wchar_t> >::operator+=(wchar_t)
PUBLIC 40250 0 std::__1::basic_string<wchar_t, std::__1::char_traits<wchar_t>, std::__1::allocator<wchar_t> >::push_back(wchar_t)
PUBLIC 402ec 0 std::__1::basic_string<wchar_t, std::__1::char_traits<wchar_t>, std::__1::allocator<wchar_t> >::operator+=(std::initializer_list<wchar_t>)
PUBLIC 402f6 0 std::__1::basic_string<wchar_t, std::__1::char_traits<wchar_t>, std::__1::allocator<wchar_t> >::append(std::initializer_list<wchar_t>)
PUBLIC 40300 0 std::__1::basic_string<wchar_t, std::__1::char_traits<wchar_t>, std::__1::allocator<wchar_t> >::append(wchar_t const*, unsigned long)
PUBLIC 403cc 0 std::__1::basic_string<wchar_t, std::__1::char_traits<wchar_t>, std::__1::allocator<wchar_t> >::append(std::__1::basic_string<wchar_t, std::__1::char_traits<wchar_t>, std::__1::allocator<wchar_t> > const&, unsigned long, unsigned long)
PUBLIC 4040e 0 std::__1::basic_string<wchar_t, std::__1::char_traits<wchar_t>, std::__1::allocator<wchar_t> >::__set_size(unsigned long)
PUBLIC 40426 0 std::__1::basic_string<wchar_t, std::__1::char_traits<wchar_t>, std::__1::allocator<wchar_t> >::__grow_by_and_replace(unsigned long, unsigned long, unsigned long, unsigned long, unsigned long, unsigned long, wchar_t const*)
PUBLIC 405de 0 std::__1::basic_string<wchar_t, std::__1::char_traits<wchar_t>, std::__1::allocator<wchar_t> >::__grow_by(unsigned long, unsigned long, unsigned long, unsigned long, unsigned long, unsigned long)
PUBLIC 40754 0 std::__1::basic_string<wchar_t, std::__1::char_traits<wchar_t>, std::__1::allocator<wchar_t> >::pop_back()
PUBLIC 4078e 0 std::__1::basic_string<wchar_t, std::__1::char_traits<wchar_t>, std::__1::allocator<wchar_t> >::front()
PUBLIC 407a6 0 std::__1::basic_string<wchar_t, std::__1::char_traits<wchar_t>, std::__1::allocator<wchar_t> >::front() const
PUBLIC 407be 0 std::__1::basic_string<wchar_t, std::__1::char_traits<wchar_t>, std::__1::allocator<wchar_t> >::back()
PUBLIC 407e2 0 std::__1::basic_string<wchar_t, std::__1::char_traits<wchar_t>, std::__1::allocator<wchar_t> >::back() const
PUBLIC 40806 0 std::__1::basic_string<wchar_t, std::__1::char_traits<wchar_t>, std::__1::allocator<wchar_t> >::assign(std::__1::basic_string_view<wchar_t, std::__1::char_traits<wchar_t> >)
PUBLIC 40810 0 std::__1::basic_string<wchar_t, std::__1::char_traits<wchar_t>, std::__1::allocator<wchar_t> >::assign(std::__1::basic_string<wchar_t, std::__1::char_traits<wchar_t>, std::__1::allocator<wchar_t> > const&)
PUBLIC 4081a 0 std::__1::basic_string<wchar_t, std::__1::char_traits<wchar_t>, std::__1::allocator<wchar_t> >::assign(std::__1::basic_string<wchar_t, std::__1::char_traits<wchar_t>, std::__1::allocator<wchar_t> >&&)
PUBLIC 40888 0 std::__1::basic_string<wchar_t, std::__1::char_traits<wchar_t>, std::__1::allocator<wchar_t> >::assign(std::__1::basic_string<wchar_t, std::__1::char_traits<wchar_t>, std::__1::allocator<wchar_t> > const&, unsigned long, unsigned long)
PUBLIC 408ca 0 std::__1::basic_string<wchar_t, std::__1::char_traits<wchar_t>, std::__1::allocator<wchar_t> >::assign(unsigned long, wchar_t)
PUBLIC 40982 0 std::__1::basic_string<wchar_t, std::__1::char_traits<wchar_t>, std::__1::allocator<wchar_t> >::assign(std::initializer_list<wchar_t>)
PUBLIC 4098c 0 std::__1::basic_string<wchar_t, std::__1::char_traits<wchar_t>, std::__1::allocator<wchar_t> >::insert(unsigned long, std::__1::basic_string<wchar_t, std::__1::char_traits<wchar_t>, std::__1::allocator<wchar_t> > const&)
PUBLIC 409b4 0 std::__1::basic_string<wchar_t, std::__1::char_traits<wchar_t>, std::__1::allocator<wchar_t> >::insert(unsigned long, wchar_t const*, unsigned long)
PUBLIC 40ad6 0 std::__1::basic_string<wchar_t, std::__1::char_traits<wchar_t>, std::__1::allocator<wchar_t> >::insert(unsigned long, std::__1::basic_string_view<wchar_t, std::__1::char_traits<wchar_t> >)
PUBLIC 40ae0 0 std::__1::basic_string<wchar_t, std::__1::char_traits<wchar_t>, std::__1::allocator<wchar_t> >::insert(unsigned long, std::__1::basic_string<wchar_t, std::__1::char_traits<wchar_t>, std::__1::allocator<wchar_t> > const&, unsigned long, unsigned long)
PUBLIC 40b22 0 std::__1::basic_string<wchar_t, std::__1::char_traits<wchar_t>, std::__1::allocator<wchar_t> >::insert(unsigned long, wchar_t const*)
PUBLIC 40b58 0 std::__1::basic_string<wchar_t, std::__1::char_traits<wchar_t>, std::__1::allocator<wchar_t> >::insert(unsigned long, unsigned long, wchar_t)
PUBLIC 40c68 0 std::__1::basic_string<wchar_t, std::__1::char_traits<wchar_t>, std::__1::allocator<wchar_t> >::insert(std::__1::__wrap_iter<wchar_t const*>, wchar_t)
PUBLIC 40d52 0 std::__1::basic_string<wchar_t, std::__1::char_traits<wchar_t>, std::__1::allocator<wchar_t> >::insert(std::__1::__wrap_iter<wchar_t const*>, unsigned long, wchar_t)
PUBLIC 40d98 0 std::__1::basic_string<wchar_t, std::__1::char_traits<wchar_t>, std::__1::allocator<wchar_t> >::insert(std::__1::__wrap_iter<wchar_t const*>, std::initializer_list<wchar_t>)
PUBLIC 40da6 0 std::__1::enable_if<(__is_forward_iterator<wchar_t const*>::value) && (__libcpp_string_gets_noexcept_iterator<wchar_t const*>::value), std::__1::__wrap_iter<wchar_t*> >::type std::__1::basic_string<wchar_t, std::__1::char_traits<wchar_t>, std::__1::allocator<wchar_t> >::insert<wchar_t const*>(std::__1::__wrap_iter<wchar_t const*>, wchar_t const*, wchar_t const*)
PUBLIC 40f8e 0 std::__1::basic_string<wchar_t, std::__1::char_traits<wchar_t>, std::__1::allocator<wchar_t> >::erase(unsigned long, unsigned long)
PUBLIC 41024 0 std::__1::basic_string<wchar_t, std::__1::char_traits<wchar_t>, std::__1::allocator<wchar_t> >::erase(std::__1::__wrap_iter<wchar_t const*>)
PUBLIC 4105a 0 std::__1::basic_string<wchar_t, std::__1::char_traits<wchar_t>, std::__1::allocator<wchar_t> >::erase(std::__1::__wrap_iter<wchar_t const*>, std::__1::__wrap_iter<wchar_t const*>)
PUBLIC 41092 0 std::__1::basic_string<wchar_t, std::__1::char_traits<wchar_t>, std::__1::allocator<wchar_t> >::replace(unsigned long, unsigned long, std::__1::basic_string<wchar_t, std::__1::char_traits<wchar_t>, std::__1::allocator<wchar_t> > const&)
PUBLIC 410bc 0 std::__1::basic_string<wchar_t, std::__1::char_traits<wchar_t>, std::__1::allocator<wchar_t> >::replace(unsigned long, unsigned long, wchar_t const*, unsigned long)
PUBLIC 412b6 0 std::__1::basic_string<wchar_t, std::__1::char_traits<wchar_t>, std::__1::allocator<wchar_t> >::replace(unsigned long, unsigned long, std::__1::basic_string_view<wchar_t, std::__1::char_traits<wchar_t> >)
PUBLIC 412c0 0 std::__1::basic_string<wchar_t, std::__1::char_traits<wchar_t>, std::__1::allocator<wchar_t> >::replace(unsigned long, unsigned long, std::__1::basic_string<wchar_t, std::__1::char_traits<wchar_t>, std::__1::allocator<wchar_t> > const&, unsigned long, unsigned long)
PUBLIC 41302 0 std::__1::basic_string<wchar_t, std::__1::char_traits<wchar_t>, std::__1::allocator<wchar_t> >::replace(unsigned long, unsigned long, wchar_t const*)
PUBLIC 4133e 0 std::__1::basic_string<wchar_t, std::__1::char_traits<wchar_t>, std::__1::allocator<wchar_t> >::replace(unsigned long, unsigned long, unsigned long, wchar_t)
PUBLIC 41476 0 std::__1::basic_string<wchar_t, std::__1::char_traits<wchar_t>, std::__1::allocator<wchar_t> >::replace(std::__1::__wrap_iter<wchar_t const*>, std::__1::__wrap_iter<wchar_t const*>, std::__1::basic_string<wchar_t, std::__1::char_traits<wchar_t>, std::__1::allocator<wchar_t> > const&)
PUBLIC 414bc 0 std::__1::basic_string<wchar_t, std::__1::char_traits<wchar_t>, std::__1::allocator<wchar_t> >::replace(std::__1::__wrap_iter<wchar_t const*>, std::__1::__wrap_iter<wchar_t const*>, std::__1::basic_string_view<wchar_t, std::__1::char_traits<wchar_t> >)
PUBLIC 414e4 0 std::__1::basic_string<wchar_t, std::__1::char_traits<wchar_t>, std::__1::allocator<wchar_t> >::replace(std::__1::__wrap_iter<wchar_t const*>, std::__1::__wrap_iter<wchar_t const*>, wchar_t const*, unsigned long)
PUBLIC 4150c 0 std::__1::basic_string<wchar_t, std::__1::char_traits<wchar_t>, std::__1::allocator<wchar_t> >::replace(std::__1::__wrap_iter<wchar_t const*>, std::__1::__wrap_iter<wchar_t const*>, wchar_t const*)
PUBLIC 41568 0 std::__1::basic_string<wchar_t, std::__1::char_traits<wchar_t>, std::__1::allocator<wchar_t> >::replace(std::__1::__wrap_iter<wchar_t const*>, std::__1::__wrap_iter<wchar_t const*>, unsigned long, wchar_t)
PUBLIC 41590 0 std::__1::basic_string<wchar_t, std::__1::char_traits<wchar_t>, std::__1::allocator<wchar_t> >::replace(std::__1::__wrap_iter<wchar_t const*>, std::__1::__wrap_iter<wchar_t const*>, std::initializer_list<wchar_t>)
PUBLIC 4159e 0 std::__1::enable_if<__is_input_iterator<wchar_t const*>::value, std::__1::basic_string<wchar_t, std::__1::char_traits<wchar_t>, std::__1::allocator<wchar_t> >&>::type std::__1::basic_string<wchar_t, std::__1::char_traits<wchar_t>, std::__1::allocator<wchar_t> >::replace<wchar_t const*>(std::__1::__wrap_iter<wchar_t const*>, std::__1::__wrap_iter<wchar_t const*>, wchar_t const*, wchar_t const*)
PUBLIC 41658 0 std::__1::basic_string<wchar_t, std::__1::char_traits<wchar_t>, std::__1::allocator<wchar_t> >::copy(wchar_t*, unsigned long, unsigned long) const
PUBLIC 416bc 0 std::__1::basic_string<wchar_t, std::__1::char_traits<wchar_t>, std::__1::allocator<wchar_t> >::substr(unsigned long, unsigned long) const
PUBLIC 416d8 0 std::__1::basic_string<wchar_t, std::__1::char_traits<wchar_t>, std::__1::allocator<wchar_t> >::swap(std::__1::basic_string<wchar_t, std::__1::char_traits<wchar_t>, std::__1::allocator<wchar_t> >&)
PUBLIC 41722 0 std::__1::basic_string<wchar_t, std::__1::char_traits<wchar_t>, std::__1::allocator<wchar_t> >::c_str() const
PUBLIC 4173a 0 std::__1::basic_string<wchar_t, std::__1::char_traits<wchar_t>, std::__1::allocator<wchar_t> >::get_allocator() const
PUBLIC 41740 0 std::__1::basic_string<wchar_t, std::__1::char_traits<wchar_t>, std::__1::allocator<wchar_t> >::find(std::__1::basic_string<wchar_t, std::__1::char_traits<wchar_t>, std::__1::allocator<wchar_t> > const&, unsigned long) const
PUBLIC 41840 0 std::__1::basic_string<wchar_t, std::__1::char_traits<wchar_t>, std::__1::allocator<wchar_t> >::find(std::__1::basic_string_view<wchar_t, std::__1::char_traits<wchar_t> >, unsigned long) const
PUBLIC 4192a 0 std::__1::basic_string<wchar_t, std::__1::char_traits<wchar_t>, std::__1::allocator<wchar_t> >::find(wchar_t const*, unsigned long, unsigned long) const
PUBLIC 41a14 0 std::__1::basic_string<wchar_t, std::__1::char_traits<wchar_t>, std::__1::allocator<wchar_t> >::find(wchar_t const*, unsigned long) const
PUBLIC 41b0a 0 std::__1::basic_string<wchar_t, std::__1::char_traits<wchar_t>, std::__1::allocator<wchar_t> >::find(wchar_t, unsigned long) const
PUBLIC 41b68 0 std::__1::basic_string<wchar_t, std::__1::char_traits<wchar_t>, std::__1::allocator<wchar_t> >::rfind(std::__1::basic_string<wchar_t, std::__1::char_traits<wchar_t>, std::__1::allocator<wchar_t> > const&, unsigned long) const
PUBLIC 41c50 0 std::__1::basic_string<wchar_t, std::__1::char_traits<wchar_t>, std::__1::allocator<wchar_t> >::rfind(std::__1::basic_string_view<wchar_t, std::__1::char_traits<wchar_t> >, unsigned long) const
PUBLIC 41d1e 0 std::__1::basic_string<wchar_t, std::__1::char_traits<wchar_t>, std::__1::allocator<wchar_t> >::rfind(wchar_t const*, unsigned long, unsigned long) const
PUBLIC 41dec 0 std::__1::basic_string<wchar_t, std::__1::char_traits<wchar_t>, std::__1::allocator<wchar_t> >::rfind(wchar_t const*, unsigned long) const
PUBLIC 41ed8 0 std::__1::basic_string<wchar_t, std::__1::char_traits<wchar_t>, std::__1::allocator<wchar_t> >::rfind(wchar_t, unsigned long) const
PUBLIC 41f28 0 std::__1::basic_string<wchar_t, std::__1::char_traits<wchar_t>, std::__1::allocator<wchar_t> >::find_first_of(std::__1::basic_string<wchar_t, std::__1::char_traits<wchar_t>, std::__1::allocator<wchar_t> > const&, unsigned long) const
PUBLIC 41fc2 0 std::__1::basic_string<wchar_t, std::__1::char_traits<wchar_t>, std::__1::allocator<wchar_t> >::find_first_of(std::__1::basic_string_view<wchar_t, std::__1::char_traits<wchar_t> >, unsigned long) const
PUBLIC 4203e 0 std::__1::basic_string<wchar_t, std::__1::char_traits<wchar_t>, std::__1::allocator<wchar_t> >::find_first_of(wchar_t const*, unsigned long, unsigned long) const
PUBLIC 420ba 0 std::__1::basic_string<wchar_t, std::__1::char_traits<wchar_t>, std::__1::allocator<wchar_t> >::find_first_of(wchar_t const*, unsigned long) const
PUBLIC 4215c 0 std::__1::basic_string<wchar_t, std::__1::char_traits<wchar_t>, std::__1::allocator<wchar_t> >::find_first_of(wchar_t, unsigned long) const
PUBLIC 42166 0 std::__1::basic_string<wchar_t, std::__1::char_traits<wchar_t>, std::__1::allocator<wchar_t> >::find_last_of(std::__1::basic_string<wchar_t, std::__1::char_traits<wchar_t>, std::__1::allocator<wchar_t> > const&, unsigned long) const
PUBLIC 42206 0 std::__1::basic_string<wchar_t, std::__1::char_traits<wchar_t>, std::__1::allocator<wchar_t> >::find_last_of(std::__1::basic_string_view<wchar_t, std::__1::char_traits<wchar_t> >, unsigned long) const
PUBLIC 42292 0 std::__1::basic_string<wchar_t, std::__1::char_traits<wchar_t>, std::__1::allocator<wchar_t> >::find_last_of(wchar_t const*, unsigned long, unsigned long) const
PUBLIC 4231e 0 std::__1::basic_string<wchar_t, std::__1::char_traits<wchar_t>, std::__1::allocator<wchar_t> >::find_last_of(wchar_t const*, unsigned long) const
PUBLIC 423bc 0 std::__1::basic_string<wchar_t, std::__1::char_traits<wchar_t>, std::__1::allocator<wchar_t> >::find_last_of(wchar_t, unsigned long) const
PUBLIC 423c6 0 std::__1::basic_string<wchar_t, std::__1::char_traits<wchar_t>, std::__1::allocator<wchar_t> >::find_first_not_of(std::__1::basic_string<wchar_t, std::__1::char_traits<wchar_t>, std::__1::allocator<wchar_t> > const&, unsigned long) const
PUBLIC 42474 0 std::__1::basic_string<wchar_t, std::__1::char_traits<wchar_t>, std::__1::allocator<wchar_t> >::find_first_not_of(std::__1::basic_string_view<wchar_t, std::__1::char_traits<wchar_t> >, unsigned long) const
PUBLIC 4250c 0 std::__1::basic_string<wchar_t, std::__1::char_traits<wchar_t>, std::__1::allocator<wchar_t> >::find_first_not_of(wchar_t const*, unsigned long, unsigned long) const
PUBLIC 425a4 0 std::__1::basic_string<wchar_t, std::__1::char_traits<wchar_t>, std::__1::allocator<wchar_t> >::find_first_not_of(wchar_t const*, unsigned long) const
PUBLIC 42644 0 std::__1::basic_string<wchar_t, std::__1::char_traits<wchar_t>, std::__1::allocator<wchar_t> >::find_first_not_of(wchar_t, unsigned long) const
PUBLIC 4268e 0 std::__1::basic_string<wchar_t, std::__1::char_traits<wchar_t>, std::__1::allocator<wchar_t> >::find_last_not_of(std::__1::basic_string<wchar_t, std::__1::char_traits<wchar_t>, std::__1::allocator<wchar_t> > const&, unsigned long) const
PUBLIC 42724 0 std::__1::basic_string<wchar_t, std::__1::char_traits<wchar_t>, std::__1::allocator<wchar_t> >::find_last_not_of(std::__1::basic_string_view<wchar_t, std::__1::char_traits<wchar_t> >, unsigned long) const
PUBLIC 427a4 0 std::__1::basic_string<wchar_t, std::__1::char_traits<wchar_t>, std::__1::allocator<wchar_t> >::find_last_not_of(wchar_t const*, unsigned long, unsigned long) const
PUBLIC 42824 0 std::__1::basic_string<wchar_t, std::__1::char_traits<wchar_t>, std::__1::allocator<wchar_t> >::find_last_not_of(wchar_t const*, unsigned long) const
PUBLIC 428be 0 std::__1::basic_string<wchar_t, std::__1::char_traits<wchar_t>, std::__1::allocator<wchar_t> >::find_last_not_of(wchar_t, unsigned long) const
PUBLIC 42908 0 std::__1::basic_string<wchar_t, std::__1::char_traits<wchar_t>, std::__1::allocator<wchar_t> >::compare(std::__1::basic_string<wchar_t, std::__1::char_traits<wchar_t>, std::__1::allocator<wchar_t> > const&) const
PUBLIC 42976 0 std::__1::basic_string<wchar_t, std::__1::char_traits<wchar_t>, std::__1::allocator<wchar_t> >::compare(std::__1::basic_string_view<wchar_t, std::__1::char_traits<wchar_t> >) const
PUBLIC 429c6 0 std::__1::basic_string<wchar_t, std::__1::char_traits<wchar_t>, std::__1::allocator<wchar_t> >::compare(unsigned long, unsigned long, std::__1::basic_string_view<wchar_t, std::__1::char_traits<wchar_t> >) const
PUBLIC 429d0 0 std::__1::basic_string<wchar_t, std::__1::char_traits<wchar_t>, std::__1::allocator<wchar_t> >::compare(unsigned long, unsigned long, wchar_t const*, unsigned long) const
PUBLIC 42a4a 0 std::__1::basic_string<wchar_t, std::__1::char_traits<wchar_t>, std::__1::allocator<wchar_t> >::compare(unsigned long, unsigned long, std::__1::basic_string<wchar_t, std::__1::char_traits<wchar_t>, std::__1::allocator<wchar_t> > const&) const
PUBLIC 42a74 0 std::__1::basic_string<wchar_t, std::__1::char_traits<wchar_t>, std::__1::allocator<wchar_t> >::compare(unsigned long, unsigned long, std::__1::basic_string<wchar_t, std::__1::char_traits<wchar_t>, std::__1::allocator<wchar_t> > const&, unsigned long, unsigned long) const
PUBLIC 42b68 0 std::__1::basic_string<wchar_t, std::__1::char_traits<wchar_t>, std::__1::allocator<wchar_t> >::compare(wchar_t const*) const
PUBLIC 42ba2 0 std::__1::basic_string<wchar_t, std::__1::char_traits<wchar_t>, std::__1::allocator<wchar_t> >::compare(unsigned long, unsigned long, wchar_t const*) const
PUBLIC 42bde 0 std::__1::basic_string<wchar_t, std::__1::char_traits<wchar_t>, std::__1::allocator<wchar_t> >::__invariants() const
PUBLIC 42c58 0 std::__1::basic_string<wchar_t, std::__1::char_traits<wchar_t>, std::__1::allocator<wchar_t> >::__get_short_pointer() const
PUBLIC 42c62 0 std::__1::basic_string<wchar_t, std::__1::char_traits<wchar_t>, std::__1::allocator<wchar_t> >::__init(wchar_t const*, unsigned long, unsigned long)
PUBLIC 42d58 0 std::__1::basic_string<wchar_t, std::__1::char_traits<wchar_t>, std::__1::allocator<wchar_t> >::__copy_assign_alloc(std::__1::basic_string<wchar_t, std::__1::char_traits<wchar_t>, std::__1::allocator<wchar_t> > const&, std::__1::integral_constant<bool, false>)
PUBLIC 42d5e 0 std::__1::basic_string<wchar_t, std::__1::char_traits<wchar_t>, std::__1::allocator<wchar_t> >::__copy_assign_alloc(std::__1::basic_string<wchar_t, std::__1::char_traits<wchar_t>, std::__1::allocator<wchar_t> > const&, std::__1::integral_constant<bool, true>)
PUBLIC 42d64 0 std::__1::basic_string<wchar_t, std::__1::char_traits<wchar_t>, std::__1::allocator<wchar_t> >::__move_assign(std::__1::basic_string<wchar_t, std::__1::char_traits<wchar_t>, std::__1::allocator<wchar_t> >&, std::__1::integral_constant<bool, false>)
PUBLIC 42dce 0 std::__1::basic_string<wchar_t, std::__1::char_traits<wchar_t>, std::__1::allocator<wchar_t> >::__move_assign_alloc(std::__1::basic_string<wchar_t, std::__1::char_traits<wchar_t>, std::__1::allocator<wchar_t> >&)
PUBLIC 42dd4 0 std::__1::basic_string<wchar_t, std::__1::char_traits<wchar_t>, std::__1::allocator<wchar_t> >::__move_assign_alloc(std::__1::basic_string<wchar_t, std::__1::char_traits<wchar_t>, std::__1::allocator<wchar_t> >&, std::__1::integral_constant<bool, true>)
PUBLIC 42dda 0 std::__1::basic_string<wchar_t, std::__1::char_traits<wchar_t>, std::__1::allocator<wchar_t> >::__move_assign_alloc(std::__1::basic_string<wchar_t, std::__1::char_traits<wchar_t>, std::__1::allocator<wchar_t> >&, std::__1::integral_constant<bool, false>)
PUBLIC 42de0 0 std::__1::basic_string<char, std::__1::char_traits<char>, std::__1::allocator<char> > std::__1::operator+<char, std::__1::char_traits<char>, std::__1::allocator<char> >(char const*, std::__1::basic_string<char, std::__1::char_traits<char>, std::__1::allocator<char> > const&)
PUBLIC 42edb 0 std::__1::stoi(std::__1::basic_string<char, std::__1::char_traits<char>, std::__1::allocator<char> > const&, unsigned long*, int)
PUBLIC 42fd3 0 std::__1::stoi(std::__1::basic_string<wchar_t, std::__1::char_traits<wchar_t>, std::__1::allocator<wchar_t> > const&, unsigned long*, int)
PUBLIC 430cb 0 std::__1::stol(std::__1::basic_string<char, std::__1::char_traits<char>, std::__1::allocator<char> > const&, unsigned long*, int)
PUBLIC 4313f 0 std::__1::stol(std::__1::basic_string<wchar_t, std::__1::char_traits<wchar_t>, std::__1::allocator<wchar_t> > const&, unsigned long*, int)
PUBLIC 431b3 0 std::__1::stoul(std::__1::basic_string<char, std::__1::char_traits<char>, std::__1::allocator<char> > const&, unsigned long*, int)
PUBLIC 4334b 0 std::__1::stoul(std::__1::basic_string<wchar_t, std::__1::char_traits<wchar_t>, std::__1::allocator<wchar_t> > const&, unsigned long*, int)
PUBLIC 434e7 0 std::__1::stoll(std::__1::basic_string<char, std::__1::char_traits<char>, std::__1::allocator<char> > const&, unsigned long*, int)
PUBLIC 4367f 0 std::__1::stoll(std::__1::basic_string<wchar_t, std::__1::char_traits<wchar_t>, std::__1::allocator<wchar_t> > const&, unsigned long*, int)
PUBLIC 4381b 0 std::__1::stoull(std::__1::basic_string<char, std::__1::char_traits<char>, std::__1::allocator<char> > const&, unsigned long*, int)
PUBLIC 439b2 0 std::__1::stoull(std::__1::basic_string<wchar_t, std::__1::char_traits<wchar_t>, std::__1::allocator<wchar_t> > const&, unsigned long*, int)
PUBLIC 43b4d 0 std::__1::stof(std::__1::basic_string<char, std::__1::char_traits<char>, std::__1::allocator<char> > const&, unsigned long*)
PUBLIC 43cdb 0 std::__1::stof(std::__1::basic_string<wchar_t, std::__1::char_traits<wchar_t>, std::__1::allocator<wchar_t> > const&, unsigned long*)
PUBLIC 43e6d 0 std::__1::stod(std::__1::basic_string<char, std::__1::char_traits<char>, std::__1::allocator<char> > const&, unsigned long*)
PUBLIC 43ffd 0 std::__1::stod(std::__1::basic_string<wchar_t, std::__1::char_traits<wchar_t>, std::__1::allocator<wchar_t> > const&, unsigned long*)
PUBLIC 44191 0 std::__1::stold(std::__1::basic_string<char, std::__1::char_traits<char>, std::__1::allocator<char> > const&, unsigned long*)
PUBLIC 4431f 0 std::__1::stold(std::__1::basic_string<wchar_t, std::__1::char_traits<wchar_t>, std::__1::allocator<wchar_t> > const&, unsigned long*)
PUBLIC 444b1 0 std::__1::to_string(int)
PUBLIC 445a0 0 std::__1::to_string(unsigned int)
PUBLIC 4468f 0 std::__1::to_string(long)
PUBLIC 4477e 0 std::__1::to_string(unsigned long)
PUBLIC 4486d 0 std::__1::to_string(long long)
PUBLIC 4495c 0 std::__1::to_string(unsigned long long)
PUBLIC 44a4b 0 std::__1::to_string(float)
PUBLIC 44b4b 0 std::__1::to_string(double)
PUBLIC 44c3e 0 std::__1::to_string(long double)
PUBLIC 44d31 0 std::__1::to_wstring(int)
PUBLIC 44e4f 0 std::__1::to_wstring(unsigned int)
PUBLIC 44f6d 0 std::__1::to_wstring(long)
PUBLIC 4508b 0 std::__1::to_wstring(unsigned long)
PUBLIC 451a9 0 std::__1::to_wstring(long long)
PUBLIC 452c7 0 std::__1::to_wstring(unsigned long long)
PUBLIC 453e5 0 std::__1::to_wstring(float)
PUBLIC 45511 0 std::__1::to_wstring(double)
PUBLIC 4562e 0 std::__1::to_wstring(long double)
PUBLIC 4574d 0 long std::__1::(anonymous namespace)::as_integer_helper<long, std::__1::basic_string<char, std::__1::char_traits<char>, std::__1::allocator<char> >, long (*)(char const*, char**, int)>(std::__1::basic_string<char, std::__1::char_traits<char>, std::__1::allocator<char> > const&, std::__1::basic_string<char, std::__1::char_traits<char>, std::__1::allocator<char> > const&, unsigned long*, int, long (*)(char const*, char**, int))
PUBLIC 458a7 0 std::__1::basic_string<char, std::__1::char_traits<char>, std::__1::allocator<char> > std::__1::operator+<char, std::__1::char_traits<char>, std::__1::allocator<char> >(std::__1::basic_string<char, std::__1::char_traits<char>, std::__1::allocator<char> > const&, char const*)
PUBLIC 45999 0 long std::__1::(anonymous namespace)::as_integer_helper<long, std::__1::basic_string<wchar_t, std::__1::char_traits<wchar_t>, std::__1::allocator<wchar_t> >, long (*)(wchar_t const*, wchar_t**, int)>(std::__1::basic_string<char, std::__1::char_traits<char>, std::__1::allocator<char> > const&, std::__1::basic_string<wchar_t, std::__1::char_traits<wchar_t>, std::__1::allocator<wchar_t> > const&, unsigned long*, int, long (*)(wchar_t const*, wchar_t**, int))
PUBLIC 45af8 0 std::__1::basic_string_view<char, std::__1::char_traits<char> >::compare(std::__1::basic_string_view<char, std::__1::char_traits<char> >) const
PUBLIC 45b3a 0 std::__1::basic_string_view<wchar_t, std::__1::char_traits<wchar_t> >::compare(std::__1::basic_string_view<wchar_t, std::__1::char_traits<wchar_t> >) const
PUBLIC 45b90 0 std::__1::strstreambuf::strstreambuf(long)
PUBLIC 45bc6 0 std::__1::strstreambuf::strstreambuf(long)
PUBLIC 45bfc 0 std::__1::strstreambuf::strstreambuf(void* (*)(unsigned long), void (*)(void*))
PUBLIC 45c40 0 std::__1::strstreambuf::strstreambuf(void* (*)(unsigned long), void (*)(void*))
PUBLIC 45c84 0 std::__1::strstreambuf::__init(char*, long, char*)
PUBLIC 45ce6 0 std::__1::strstreambuf::strstreambuf(char*, long, char*)
PUBLIC 45d3e 0 std::__1::strstreambuf::strstreambuf(char*, long, char*)
PUBLIC 45d96 0 std::__1::strstreambuf::strstreambuf(char const*, long)
PUBLIC 45e06 0 std::__1::strstreambuf::strstreambuf(char const*, long)
PUBLIC 45e10 0 std::__1::strstreambuf::strstreambuf(signed char*, long, signed char*)
PUBLIC 45e68 0 std::__1::strstreambuf::strstreambuf(signed char*, long, signed char*)
PUBLIC 45ec0 0 std::__1::strstreambuf::strstreambuf(signed char const*, long)
PUBLIC 45f30 0 std::__1::strstreambuf::strstreambuf(signed char const*, long)
PUBLIC 45f3a 0 std::__1::strstreambuf::strstreambuf(unsigned char*, long, unsigned char*)
PUBLIC 45f92 0 std::__1::strstreambuf::strstreambuf(unsigned char*, long, unsigned char*)
PUBLIC 45fea 0 std::__1::strstreambuf::strstreambuf(unsigned char const*, long)
PUBLIC 4605a 0 std::__1::strstreambuf::strstreambuf(unsigned char const*, long)
PUBLIC 46064 0 std::__1::strstreambuf::~strstreambuf()
PUBLIC 460cc 0 std::__1::strstreambuf::~strstreambuf()
PUBLIC 460d6 0 std::__1::strstreambuf::~strstreambuf()
PUBLIC 460f2 0 std::__1::strstreambuf::swap(std::__1::strstreambuf&)
PUBLIC 4613a 0 std::__1::strstreambuf::freeze(bool)
PUBLIC 46158 0 std::__1::strstreambuf::str()
PUBLIC 46170 0 std::__1::strstreambuf::pcount() const
PUBLIC 4617c 0 std::__1::strstreambuf::overflow(int)
PUBLIC 462b4 0 std::__1::strstreambuf::pbackfail(int)
PUBLIC 462fc 0 std::__1::strstreambuf::underflow()
PUBLIC 46322 0 std::__1::strstreambuf::seekoff(long long, std::__1::ios_base::seekdir, unsigned int)
PUBLIC 46470 0 std::__1::strstreambuf::seekpos(std::__1::fpos<__mbstate_t>, unsigned int)
PUBLIC 46558 0 std::__1::istrstream::~istrstream()
PUBLIC 46594 0 std::__1::istrstream::~istrstream()
PUBLIC 465dc 0 virtual thunk to std::__1::istrstream::~istrstream()
PUBLIC 465ee 0 std::__1::istrstream::~istrstream()
PUBLIC 4660a 0 virtual thunk to std::__1::istrstream::~istrstream()
PUBLIC 46630 0 std::__1::ostrstream::~ostrstream()
PUBLIC 4666c 0 std::__1::ostrstream::~ostrstream()
PUBLIC 466b4 0 virtual thunk to std::__1::ostrstream::~ostrstream()
PUBLIC 466c6 0 std::__1::ostrstream::~ostrstream()
PUBLIC 466e2 0 virtual thunk to std::__1::ostrstream::~ostrstream()
PUBLIC 46708 0 std::__1::strstream::~strstream()
PUBLIC 4674c 0 std::__1::strstream::~strstream()
PUBLIC 4679e 0 non-virtual thunk to std::__1::strstream::~strstream()
PUBLIC 467ac 0 virtual thunk to std::__1::strstream::~strstream()
PUBLIC 467be 0 std::__1::strstream::~strstream()
PUBLIC 467da 0 non-virtual thunk to std::__1::strstream::~strstream()
PUBLIC 467fe 0 virtual thunk to std::__1::strstream::~strstream()
PUBLIC 46824 0 std::__1::__shared_mutex_base::__shared_mutex_base()
PUBLIC 4689a 0 std::__1::__shared_mutex_base::__shared_mutex_base()
PUBLIC 46910 0 std::__1::__shared_mutex_base::lock()
PUBLIC 469b0 0 std::__1::__shared_mutex_base::try_lock()
PUBLIC 469ea 0 std::__1::__shared_mutex_base::unlock()
PUBLIC 46a1a 0 std::__1::__shared_mutex_base::lock_shared()
PUBLIC 46a8e 0 std::__1::__shared_mutex_base::try_lock_shared()
PUBLIC 46ad2 0 std::__1::__shared_mutex_base::unlock_shared()
PUBLIC 46b28 0 std::__1::shared_timed_mutex::shared_timed_mutex()
PUBLIC 46b9e 0 std::__1::shared_timed_mutex::shared_timed_mutex()
PUBLIC 46c14 0 std::__1::shared_timed_mutex::lock()
PUBLIC 46c1e 0 std::__1::shared_timed_mutex::try_lock()
PUBLIC 46c28 0 std::__1::shared_timed_mutex::unlock()
PUBLIC 46c58 0 std::__1::shared_timed_mutex::lock_shared()
PUBLIC 46c62 0 std::__1::shared_timed_mutex::try_lock_shared()
PUBLIC 46c6c 0 std::__1::shared_timed_mutex::unlock_shared()
PUBLIC 46c76 0 std::__1::error_category::error_category()
PUBLIC 46c86 0 std::__1::error_category::~error_category()
PUBLIC 46c8c 0 std::__1::error_category::~error_category()
PUBLIC 46c92 0 std::__1::error_category::~error_category()
PUBLIC 46c9c 0 std::__1::error_category::default_error_condition(int) const
PUBLIC 46ca8 0 std::__1::error_category::equivalent(int, std::__1::error_condition const&) const
PUBLIC 46ccc 0 std::__1::error_category::equivalent(std::__1::error_code const&, int) const
PUBLIC 46ce0 0 std::__1::__do_message::message(int) const
PUBLIC 46eb2 0 std::__1::__generic_error_category::name() const
PUBLIC 46ec0 0 std::__1::__generic_error_category::message(int) const
PUBLIC 46f48 0 std::__1::generic_category()
PUBLIC 46f8a 0 std::__1::__generic_error_category::~__generic_error_category()
PUBLIC 46f90 0 std::__1::__system_error_category::name() const
PUBLIC 46f9e 0 std::__1::__system_error_category::message(int) const
PUBLIC 47024 0 std::__1::__system_error_category::default_error_condition(int) const
PUBLIC 47054 0 std::__1::system_category()
PUBLIC 47096 0 std::__1::__system_error_category::~__system_error_category()
PUBLIC 4709c 0 std::__1::error_condition::message() const
PUBLIC 470be 0 std::__1::error_code::message() const
PUBLIC 470e0 0 std::__1::system_error::__init(std::__1::error_code const&, std::__1::basic_string<char, std::__1::char_traits<char>, std::__1::allocator<char> >)
PUBLIC 471b6 0 std::__1::system_error::system_error(std::__1::error_code, std::__1::basic_string<char, std::__1::char_traits<char>, std::__1::allocator<char> > const&)
PUBLIC 4726c 0 std::__1::system_error::system_error(std::__1::error_code, std::__1::basic_string<char, std::__1::char_traits<char>, std::__1::allocator<char> > const&)
PUBLIC 47276 0 std::__1::system_error::system_error(std::__1::error_code, char const*)
PUBLIC 473a8 0 std::__1::system_error::system_error(std::__1::error_code, char const*)
PUBLIC 473b2 0 std::__1::system_error::system_error(std::__1::error_code)
PUBLIC 47460 0 std::__1::system_error::system_error(std::__1::error_code)
PUBLIC 4746a 0 std::__1::system_error::system_error(int, std::__1::error_category const&, std::__1::basic_string<char, std::__1::char_traits<char>, std::__1::allocator<char> > const&)
PUBLIC 47528 0 std::__1::system_error::system_error(int, std::__1::error_category const&, std::__1::basic_string<char, std::__1::char_traits<char>, std::__1::allocator<char> > const&)
PUBLIC 47532 0 std::__1::system_error::system_error(int, std::__1::error_category const&, char const*)
PUBLIC 4766c 0 std::__1::system_error::system_error(int, std::__1::error_category const&, char const*)
PUBLIC 47676 0 std::__1::system_error::system_error(int, std::__1::error_category const&)
PUBLIC 47728 0 std::__1::system_error::system_error(int, std::__1::error_category const&)
PUBLIC 47732 0 std::__1::system_error::~system_error()
PUBLIC 4773c 0 std::__1::system_error::~system_error()
PUBLIC 47746 0 std::__1::system_error::~system_error()
PUBLIC 47762 0 std::__1::__throw_system_error(int, char const*)
PUBLIC 477c2 0 std::__1::__do_message::~__do_message()
PUBLIC 477c8 0 std::__1::__do_message::~__do_message()
PUBLIC 477d2 0 std::__1::__generic_error_category::~__generic_error_category()
PUBLIC 477dc 0 std::__1::__system_error_category::~__system_error_category()
PUBLIC 477f0 0 std::__1::thread::~thread()
PUBLIC 47800 0 std::__1::thread::~thread()
PUBLIC 47810 0 std::__1::thread::join()
PUBLIC 4784e 0 std::__1::thread::detach()
PUBLIC 4788a 0 std::__1::thread::hardware_concurrency()
PUBLIC 478eb 0 std::__1::this_thread::sleep_for(std::__1::chrono::duration<long long, std::__1::ratio<1l, 1000000000l> > const&)
PUBLIC 4794a 0 std::__1::__thread_local_data()
PUBLIC 479a8 0 std::__1::__thread_struct_imp::~__thread_struct_imp()
PUBLIC 47a3e 0 std::__1::vector<std::__1::pair<std::__1::condition_variable*, std::__1::mutex*>, std::__1::__hidden_allocator<std::__1::pair<std::__1::condition_variable*, std::__1::mutex*> > >::~vector()
PUBLIC 47a48 0 std::__1::vector<std::__1::__assoc_sub_state*, std::__1::__hidden_allocator<std::__1::__assoc_sub_state*> >::~vector()
PUBLIC 47a52 0 std::__1::__thread_struct_imp::~__thread_struct_imp()
PUBLIC 47a5c 0 std::__1::__thread_struct_imp::notify_all_at_thread_exit(std::__1::condition_variable*, std::__1::mutex*)
PUBLIC 47aa0 0 std::__1::__thread_struct_imp::__make_ready_at_thread_exit(std::__1::__assoc_sub_state*)
PUBLIC 47adc 0 std::__1::__thread_struct::__thread_struct()
PUBLIC 47b12 0 std::__1::__thread_struct::__thread_struct()
PUBLIC 47b48 0 std::__1::__thread_struct::~__thread_struct()
PUBLIC 47b74 0 std::__1::__thread_struct::~__thread_struct()
PUBLIC 47b7e 0 std::__1::__thread_struct::notify_all_at_thread_exit(std::__1::condition_variable*, std::__1::mutex*)
PUBLIC 47b8c 0 std::__1::__thread_struct::__make_ready_at_thread_exit(std::__1::__assoc_sub_state*)
PUBLIC 47b9a 0 std::__1::__vector_base<std::__1::pair<std::__1::condition_variable*, std::__1::mutex*>, std::__1::__hidden_allocator<std::__1::pair<std::__1::condition_variable*, std::__1::mutex*> > >::~__vector_base()
PUBLIC 47bd0 0 std::__1::__vector_base<std::__1::__assoc_sub_state*, std::__1::__hidden_allocator<std::__1::__assoc_sub_state*> >::~__vector_base()
PUBLIC 47c06 0 std::__1::__thread_specific_ptr<std::__1::__thread_struct>::__thread_specific_ptr()
PUBLIC 47c2a 0 std::__1::__thread_specific_ptr<std::__1::__thread_struct>::__at_thread_exit(void*)
PUBLIC 47c56 0 void std::__1::vector<std::__1::pair<std::__1::condition_variable*, std::__1::mutex*>, std::__1::__hidden_allocator<std::__1::pair<std::__1::condition_variable*, std::__1::mutex*> > >::__push_back_slow_path<std::__1::pair<std::__1::condition_variable*, std::__1::mutex*> >(std::__1::pair<std::__1::condition_variable*, std::__1::mutex*>&&)
PUBLIC 47dae 0 std::__1::vector<std::__1::pair<std::__1::condition_variable*, std::__1::mutex*>, std::__1::__hidden_allocator<std::__1::pair<std::__1::condition_variable*, std::__1::mutex*> > >::__swap_out_circular_buffer(std::__1::__split_buffer<std::__1::pair<std::__1::condition_variable*, std::__1::mutex*>, std::__1::__hidden_allocator<std::__1::pair<std::__1::condition_variable*, std::__1::mutex*> >&>&)
PUBLIC 47e14 0 void std::__1::vector<std::__1::__assoc_sub_state*, std::__1::__hidden_allocator<std::__1::__assoc_sub_state*> >::__push_back_slow_path<std::__1::__assoc_sub_state* const&>(std::__1::__assoc_sub_state* const&&&)
PUBLIC 47f62 0 std::__1::vector<std::__1::__assoc_sub_state*, std::__1::__hidden_allocator<std::__1::__assoc_sub_state*> >::__swap_out_circular_buffer(std::__1::__split_buffer<std::__1::__assoc_sub_state*, std::__1::__hidden_allocator<std::__1::__assoc_sub_state*>&>&)
PUBLIC 47fc8 0 std::bad_any_cast::what() const
PUBLIC 47fd6 0 std::experimental::fundamentals_v1::bad_any_cast::what() const
PUBLIC 47fe4 0 std::experimental::fundamentals_v1::bad_any_cast::~bad_any_cast()
PUBLIC 47fee 0 std::experimental::fundamentals_v1::bad_any_cast::~bad_any_cast()
PUBLIC 48010 0 std::__1::valarray<unsigned long>::valarray(unsigned long)
PUBLIC 48026 0 std::__1::valarray<unsigned long>::resize(unsigned long, unsigned long)
PUBLIC 480a6 0 std::__1::valarray<unsigned long>::valarray(unsigned long)
PUBLIC 480bc 0 std::__1::valarray<unsigned long>::~valarray()
PUBLIC 480ec 0 std::__1::valarray<unsigned long>::~valarray()
PUBLIC 48104 0 std::__1::gslice::__init(unsigned long)
PUBLIC 48ad8 0 GCC_except_table94
PUBLIC 48af0 0 GCC_except_table0
PUBLIC 48b08 0 GCC_except_table4
PUBLIC 48b20 0 GCC_except_table0
PUBLIC 48b38 0 GCC_except_table3
PUBLIC 48b50 0 GCC_except_table4
PUBLIC 48b68 0 GCC_except_table5
PUBLIC 48b9c 0 GCC_except_table6
PUBLIC 48bd0 0 GCC_except_table7
PUBLIC 48bfc 0 GCC_except_table13
PUBLIC 48c1c 0 GCC_except_table4
PUBLIC 48c48 0 GCC_except_table10
PUBLIC 48c84 0 GCC_except_table11
PUBLIC 48cd8 0 GCC_except_table12
PUBLIC 48d14 0 GCC_except_table13
PUBLIC 48d68 0 GCC_except_table15
PUBLIC 48da4 0 GCC_except_table17
PUBLIC 48dd0 0 GCC_except_table19
PUBLIC 48dfc 0 GCC_except_table20
PUBLIC 48e28 0 GCC_except_table24
PUBLIC 48e48 0 GCC_except_table27
PUBLIC 48e70 0 GCC_except_table29
PUBLIC 48eb0 0 GCC_except_table31
PUBLIC 48edc 0 GCC_except_table32
PUBLIC 48f08 0 GCC_except_table33
PUBLIC 48f44 0 GCC_except_table34
PUBLIC 48f70 0 GCC_except_table35
PUBLIC 48fac 0 GCC_except_table0
PUBLIC 48fd8 0 GCC_except_table5
PUBLIC 49004 0 GCC_except_table14
PUBLIC 4901c 0 GCC_except_table25
PUBLIC 49098 0 GCC_except_table26
PUBLIC 490b8 0 GCC_except_table27
PUBLIC 490d8 0 GCC_except_table29
PUBLIC 490f8 0 GCC_except_table31
PUBLIC 49118 0 GCC_except_table33
PUBLIC 49138 0 GCC_except_table65
PUBLIC 49158 0 GCC_except_table66
PUBLIC 49178 0 GCC_except_table68
PUBLIC 49198 0 GCC_except_table70
PUBLIC 491b8 0 GCC_except_table161
PUBLIC 491e0 0 GCC_except_table165
PUBLIC 49208 0 GCC_except_table178
PUBLIC 49234 0 GCC_except_table179
PUBLIC 49290 0 GCC_except_table185
PUBLIC 4933c 0 GCC_except_table189
PUBLIC 493a4 0 GCC_except_table190
PUBLIC 4940c 0 GCC_except_table191
PUBLIC 49474 0 GCC_except_table192
PUBLIC 494dc 0 GCC_except_table193
PUBLIC 49544 0 GCC_except_table194
PUBLIC 495ac 0 GCC_except_table195
PUBLIC 49614 0 GCC_except_table196
PUBLIC 4967c 0 GCC_except_table197
PUBLIC 496e4 0 GCC_except_table198
PUBLIC 4974c 0 GCC_except_table199
PUBLIC 497b4 0 GCC_except_table200
PUBLIC 4981c 0 GCC_except_table201
PUBLIC 49884 0 GCC_except_table203
PUBLIC 498d0 0 GCC_except_table205
PUBLIC 498f0 0 GCC_except_table206
PUBLIC 49970 0 GCC_except_table207
PUBLIC 49990 0 GCC_except_table208
PUBLIC 49a10 0 GCC_except_table209
PUBLIC 49a30 0 GCC_except_table210
PUBLIC 49ab0 0 GCC_except_table211
PUBLIC 49b24 0 GCC_except_table212
PUBLIC 49b70 0 GCC_except_table213
PUBLIC 49bbc 0 GCC_except_table214
PUBLIC 49c18 0 GCC_except_table215
PUBLIC 49c74 0 GCC_except_table216
PUBLIC 49cd0 0 GCC_except_table217
PUBLIC 49d1c 0 GCC_except_table218
PUBLIC 49d78 0 GCC_except_table219
PUBLIC 49dec 0 GCC_except_table220
PUBLIC 49e60 0 GCC_except_table232
PUBLIC 49e8c 0 GCC_except_table233
PUBLIC 49ee8 0 GCC_except_table239
PUBLIC 49f94 0 GCC_except_table240
PUBLIC 49ffc 0 GCC_except_table241
PUBLIC 4a064 0 GCC_except_table242
PUBLIC 4a0cc 0 GCC_except_table243
PUBLIC 4a134 0 GCC_except_table244
PUBLIC 4a19c 0 GCC_except_table245
PUBLIC 4a204 0 GCC_except_table246
PUBLIC 4a26c 0 GCC_except_table247
PUBLIC 4a2d4 0 GCC_except_table248
PUBLIC 4a33c 0 GCC_except_table249
PUBLIC 4a3a4 0 GCC_except_table250
PUBLIC 4a40c 0 GCC_except_table251
PUBLIC 4a474 0 GCC_except_table252
PUBLIC 4a4dc 0 GCC_except_table254
PUBLIC 4a528 0 GCC_except_table256
PUBLIC 4a548 0 GCC_except_table257
PUBLIC 4a5c8 0 GCC_except_table258
PUBLIC 4a5e8 0 GCC_except_table259
PUBLIC 4a668 0 GCC_except_table260
PUBLIC 4a688 0 GCC_except_table261
PUBLIC 4a708 0 GCC_except_table262
PUBLIC 4a77c 0 GCC_except_table263
PUBLIC 4a7c8 0 GCC_except_table264
PUBLIC 4a814 0 GCC_except_table265
PUBLIC 4a870 0 GCC_except_table266
PUBLIC 4a8cc 0 GCC_except_table267
PUBLIC 4a928 0 GCC_except_table268
PUBLIC 4a974 0 GCC_except_table269
PUBLIC 4a9d0 0 GCC_except_table270
PUBLIC 4aa44 0 GCC_except_table271
PUBLIC 4aab8 0 GCC_except_table285
PUBLIC 4aaec 0 GCC_except_table291
PUBLIC 4ab6c 0 GCC_except_table292
PUBLIC 4abec 0 GCC_except_table293
PUBLIC 4ac6c 0 GCC_except_table294
PUBLIC 4acec 0 GCC_except_table295
PUBLIC 4ad6c 0 GCC_except_table296
PUBLIC 4adec 0 GCC_except_table297
PUBLIC 4ae6c 0 GCC_except_table298
PUBLIC 4aeec 0 GCC_except_table299
PUBLIC 4af6c 0 GCC_except_table300
PUBLIC 4afec 0 GCC_except_table301
PUBLIC 4b06c 0 GCC_except_table302
PUBLIC 4b0ec 0 GCC_except_table303
PUBLIC 4b16c 0 GCC_except_table304
PUBLIC 4b218 0 GCC_except_table305
PUBLIC 4b274 0 GCC_except_table306
PUBLIC 4b2d0 0 GCC_except_table308
PUBLIC 4b30c 0 GCC_except_table309
PUBLIC 4b348 0 GCC_except_table325
PUBLIC 4b37c 0 GCC_except_table331
PUBLIC 4b3fc 0 GCC_except_table332
PUBLIC 4b47c 0 GCC_except_table333
PUBLIC 4b4fc 0 GCC_except_table334
PUBLIC 4b57c 0 GCC_except_table335
PUBLIC 4b5fc 0 GCC_except_table336
PUBLIC 4b67c 0 GCC_except_table337
PUBLIC 4b6fc 0 GCC_except_table338
PUBLIC 4b77c 0 GCC_except_table339
PUBLIC 4b7fc 0 GCC_except_table340
PUBLIC 4b87c 0 GCC_except_table341
PUBLIC 4b8fc 0 GCC_except_table342
PUBLIC 4b97c 0 GCC_except_table343
PUBLIC 4b9fc 0 GCC_except_table344
PUBLIC 4baa8 0 GCC_except_table345
PUBLIC 4bb04 0 GCC_except_table346
PUBLIC 4bb60 0 GCC_except_table348
PUBLIC 4bb9c 0 GCC_except_table349
PUBLIC 4bbd8 0 GCC_except_table2
PUBLIC 4bca4 0 GCC_except_table3
PUBLIC 4bccc 0 GCC_except_table5
PUBLIC 4bcf8 0 GCC_except_table13
PUBLIC 4bd24 0 GCC_except_table21
PUBLIC 4bd50 0 GCC_except_table28
PUBLIC 4bd7c 0 GCC_except_table39
PUBLIC 4bdec 0 GCC_except_table41
PUBLIC 4be5c 0 GCC_except_table43
PUBLIC 4bebc 0 GCC_except_table45
PUBLIC 4bf1c 0 GCC_except_table47
PUBLIC 4bf7c 0 GCC_except_table49
PUBLIC 4bfdc 0 GCC_except_table51
PUBLIC 4c03c 0 GCC_except_table53
PUBLIC 4c09c 0 GCC_except_table55
PUBLIC 4c0fc 0 GCC_except_table57
PUBLIC 4c15c 0 GCC_except_table59
PUBLIC 4c1bc 0 GCC_except_table60
PUBLIC 4c22c 0 GCC_except_table78
PUBLIC 4c29c 0 GCC_except_table79
PUBLIC 4c30c 0 GCC_except_table81
PUBLIC 4c36c 0 GCC_except_table83
PUBLIC 4c3cc 0 GCC_except_table85
PUBLIC 4c42c 0 GCC_except_table87
PUBLIC 4c48c 0 GCC_except_table89
PUBLIC 4c4ec 0 GCC_except_table91
PUBLIC 4c54c 0 GCC_except_table93
PUBLIC 4c5ac 0 GCC_except_table95
PUBLIC 4c60c 0 GCC_except_table97
PUBLIC 4c66c 0 GCC_except_table98
PUBLIC 4c6dc 0 GCC_except_table100
PUBLIC 4c718 0 GCC_except_table101
PUBLIC 4c754 0 GCC_except_table103
PUBLIC 4c790 0 GCC_except_table104
PUBLIC 4c7cc 0 GCC_except_table119
PUBLIC 4c814 0 GCC_except_table120
PUBLIC 4c840 0 GCC_except_table123
PUBLIC 4c894 0 GCC_except_table124
PUBLIC 4c8c0 0 GCC_except_table125
PUBLIC 4c8ec 0 GCC_except_table126
PUBLIC 4c918 0 GCC_except_table127
PUBLIC 4c944 0 GCC_except_table128
PUBLIC 4c9c0 0 GCC_except_table130
PUBLIC 4ca58 0 GCC_except_table131
PUBLIC 4cad4 0 GCC_except_table132
PUBLIC 4cb00 0 GCC_except_table146
PUBLIC 4cb48 0 GCC_except_table147
PUBLIC 4cb74 0 GCC_except_table148
PUBLIC 4cbc8 0 GCC_except_table149
PUBLIC 4cbf4 0 GCC_except_table150
PUBLIC 4cc20 0 GCC_except_table151
PUBLIC 4cc4c 0 GCC_except_table152
PUBLIC 4cc78 0 GCC_except_table153
PUBLIC 4ccf4 0 GCC_except_table154
PUBLIC 4cd8c 0 GCC_except_table155
PUBLIC 4ce08 0 GCC_except_table156
PUBLIC 4ce34 0 GCC_except_table166
PUBLIC 4ce60 0 GCC_except_table173
PUBLIC 4ce8c 0 GCC_except_table175
PUBLIC 4ceb8 0 GCC_except_table177
PUBLIC 4cee4 0 GCC_except_table179
PUBLIC 4cf10 0 GCC_except_table202
PUBLIC 4cf3c 0 GCC_except_table209
PUBLIC 4cf68 0 GCC_except_table211
PUBLIC 4cf94 0 GCC_except_table213
PUBLIC 4cfc0 0 GCC_except_table215
PUBLIC 4cfec 0 GCC_except_table229
PUBLIC 4d00c 0 GCC_except_table230
PUBLIC 4d048 0 GCC_except_table231
PUBLIC 4d068 0 GCC_except_table232
PUBLIC 4d088 0 GCC_except_table233
PUBLIC 4d0c4 0 GCC_except_table234
PUBLIC 4d0e4 0 GCC_except_table254
PUBLIC 4d104 0 GCC_except_table255
PUBLIC 4d140 0 GCC_except_table256
PUBLIC 4d160 0 GCC_except_table257
PUBLIC 4d180 0 GCC_except_table258
PUBLIC 4d1bc 0 GCC_except_table259
PUBLIC 4d1dc 0 GCC_except_table281
PUBLIC 4d208 0 GCC_except_table284
PUBLIC 4d220 0 GCC_except_table289
PUBLIC 4d240 0 GCC_except_table290
PUBLIC 4d27c 0 GCC_except_table291
PUBLIC 4d29c 0 GCC_except_table292
PUBLIC 4d2bc 0 GCC_except_table293
PUBLIC 4d2e8 0 GCC_except_table294
PUBLIC 4d308 0 GCC_except_table297
PUBLIC 4d334 0 GCC_except_table304
PUBLIC 4d354 0 GCC_except_table305
PUBLIC 4d374 0 GCC_except_table306
PUBLIC 4d394 0 GCC_except_table307
PUBLIC 4d3b4 0 GCC_except_table308
PUBLIC 4d3d4 0 GCC_except_table309
PUBLIC 4d3f4 0 GCC_except_table310
PUBLIC 4d414 0 GCC_except_table311
PUBLIC 4d434 0 GCC_except_table315
PUBLIC 4d454 0 GCC_except_table316
PUBLIC 4d474 0 GCC_except_table317
PUBLIC 4d494 0 GCC_except_table318
PUBLIC 4d4b4 0 GCC_except_table387
PUBLIC 4d4cc 0 GCC_except_table410
PUBLIC 4d4e4 0 GCC_except_table414
PUBLIC 4d504 0 GCC_except_table415
PUBLIC 4d5a0 0 GCC_except_table416
PUBLIC 4d5c0 0 GCC_except_table417
PUBLIC 4d5e0 0 GCC_except_table418
PUBLIC 4d600 0 GCC_except_table431
PUBLIC 4d620 0 GCC_except_table432
PUBLIC 4d6bc 0 GCC_except_table433
PUBLIC 4d6dc 0 GCC_except_table434
PUBLIC 4d6fc 0 GCC_except_table435
PUBLIC 4d71c 0 GCC_except_table448
PUBLIC 4d73c 0 GCC_except_table449
PUBLIC 4d828 0 GCC_except_table450
PUBLIC 4d848 0 GCC_except_table451
PUBLIC 4d868 0 GCC_except_table452
PUBLIC 4d888 0 GCC_except_table465
PUBLIC 4d8a8 0 GCC_except_table466
PUBLIC 4d994 0 GCC_except_table467
PUBLIC 4d9b4 0 GCC_except_table468
PUBLIC 4d9d4 0 GCC_except_table469
PUBLIC 4d9f4 0 GCC_except_table490
PUBLIC 4da84 0 GCC_except_table492
PUBLIC 4db98 0 GCC_except_table493
PUBLIC 4dbc4 0 GCC_except_table494
PUBLIC 4dc54 0 GCC_except_table495
PUBLIC 4dd34 0 GCC_except_table496
PUBLIC 4dd5c 0 GCC_except_table497
PUBLIC 4dd84 0 GCC_except_table507
PUBLIC 4de14 0 GCC_except_table508
PUBLIC 4df28 0 GCC_except_table509
PUBLIC 4dfb8 0 GCC_except_table510
PUBLIC 4e098 0 GCC_except_table511
PUBLIC 4e0c0 0 GCC_except_table522
PUBLIC 4e13c 0 GCC_except_table523
PUBLIC 4e200 0 GCC_except_table525
PUBLIC 4e270 0 GCC_except_table534
PUBLIC 4e2ec 0 GCC_except_table535
PUBLIC 4e3b0 0 GCC_except_table537
PUBLIC 4e420 0 GCC_except_table549
PUBLIC 4e45c 0 GCC_except_table560
PUBLIC 4e4cc 0 GCC_except_table587
PUBLIC 4e520 0 GCC_except_table592
PUBLIC 4e538 0 GCC_except_table613
PUBLIC 4e564 0 GCC_except_table614
PUBLIC 4e590 0 GCC_except_table615
PUBLIC 4e5bc 0 GCC_except_table617
PUBLIC 4e7a0 0 GCC_except_table618
PUBLIC 4e7c0 0 GCC_except_table627
PUBLIC 4e7fc 0 GCC_except_table629
PUBLIC 4e9e0 0 GCC_except_table631
PUBLIC 4ea3c 0 GCC_except_table633
PUBLIC 4ea68 0 GCC_except_table634
PUBLIC 4ea88 0 GCC_except_table644
PUBLIC 4eaa8 0 GCC_except_table645
PUBLIC 4eac0 0 GCC_except_table650
PUBLIC 4eb3c 0 GCC_except_table652
PUBLIC 4eb68 0 GCC_except_table654
PUBLIC 4ebe4 0 GCC_except_table656
PUBLIC 4ec10 0 GCC_except_table658
PUBLIC 4ec3c 0 GCC_except_table661
PUBLIC 4ec68 0 GCC_except_table662
PUBLIC 4ecc4 0 GCC_except_table666
PUBLIC 4ecdc 0 GCC_except_table671
PUBLIC 4ed30 0 GCC_except_table672
PUBLIC 4ed5c 0 GCC_except_table674
PUBLIC 4ed98 0 GCC_except_table676
PUBLIC 4edb0 0 GCC_except_table679
PUBLIC 4ee04 0 GCC_except_table680
PUBLIC 4ee64 0 GCC_except_table681
PUBLIC 4eeb8 0 GCC_except_table683
PUBLIC 4eef4 0 GCC_except_table684
PUBLIC 4ef0c 0 GCC_except_table687
PUBLIC 4ef48 0 GCC_except_table688
PUBLIC 4ef84 0 GCC_except_table718
PUBLIC 4efd8 0 GCC_except_table720
PUBLIC 4f014 0 GCC_except_table721
PUBLIC 4f02c 0 GCC_except_table728
PUBLIC 4f080 0 GCC_except_table730
PUBLIC 4f0bc 0 GCC_except_table731
PUBLIC 4f0d4 0 GCC_except_table763
PUBLIC 4f0ec 0 GCC_except_table766
PUBLIC 4f104 0 GCC_except_table913
PUBLIC 4f124 0 GCC_except_table914
PUBLIC 4f1a4 0 GCC_except_table916
PUBLIC 4f1c4 0 GCC_except_table921
PUBLIC 4f1e4 0 GCC_except_table922
PUBLIC 4f264 0 GCC_except_table924
PUBLIC 4f284 0 GCC_except_table930
PUBLIC 4f2b0 0 GCC_except_table931
PUBLIC 4f2dc 0 GCC_except_table932
PUBLIC 4f308 0 GCC_except_table933
PUBLIC 4f334 0 GCC_except_table934
PUBLIC 4f360 0 GCC_except_table935
PUBLIC 4f38c 0 GCC_except_table937
PUBLIC 4f3ac 0 GCC_except_table939
PUBLIC 4f3cc 0 GCC_except_table941
PUBLIC 4f3ec 0 GCC_except_table943
PUBLIC 4f40c 0 GCC_except_table944
PUBLIC 4f448 0 GCC_except_table946
PUBLIC 4f474 0 GCC_except_table948
PUBLIC 4f48c 0 GCC_except_table950
PUBLIC 4f4ec 0 GCC_except_table951
PUBLIC 4f534 0 GCC_except_table953
PUBLIC 4f594 0 GCC_except_table954
PUBLIC 4f5dc 0 GCC_except_table956
PUBLIC 4f65c 0 GCC_except_table957
PUBLIC 4f6dc 0 GCC_except_table1001
PUBLIC 4f6fc 0 GCC_except_table1005
PUBLIC 4f728 0 GCC_except_table1009
PUBLIC 4f754 0 GCC_except_table1023
PUBLIC 4f780 0 GCC_except_table1024
PUBLIC 4f7ac 0 GCC_except_table1025
PUBLIC 4f7d8 0 GCC_except_table19
PUBLIC 4f80c 0 GCC_except_table20
PUBLIC 4f824 0 GCC_except_table0
PUBLIC 4f83c 0 GCC_except_table4
PUBLIC 4f854 0 GCC_except_table5
PUBLIC 4f86c 0 GCC_except_table8
PUBLIC 4f884 0 GCC_except_table11
PUBLIC 4f89c 0 GCC_except_table12
PUBLIC 4f8b4 0 GCC_except_table15
PUBLIC 4f8cc 0 GCC_except_table19
PUBLIC 4f8e4 0 GCC_except_table22
PUBLIC 4f8fc 0 GCC_except_table24
PUBLIC 4f928 0 GCC_except_table25
PUBLIC 4f950 0 GCC_except_table26
PUBLIC 4f978 0 GCC_except_table28
PUBLIC 4f9d4 0 GCC_except_table0
PUBLIC 4fa00 0 GCC_except_table3
PUBLIC 4fa18 0 GCC_except_table5
PUBLIC 4fa38 0 GCC_except_table0
PUBLIC 4fa58 0 GCC_except_table2
PUBLIC 4fa78 0 GCC_except_table4
PUBLIC 4faa0 0 GCC_except_table7
PUBLIC 4fae0 0 GCC_except_table8
PUBLIC 4fb00 0 GCC_except_table10
PUBLIC 4fb20 0 GCC_except_table12
PUBLIC 4fb48 0 GCC_except_table0
PUBLIC 4fb74 0 GCC_except_table1
PUBLIC 4fba0 0 GCC_except_table57
PUBLIC 4fbb8 0 GCC_except_table58
PUBLIC 4fbd0 0 GCC_except_table89
PUBLIC 4fc04 0 GCC_except_table94
PUBLIC 4fc1c 0 GCC_except_table123
PUBLIC 4fc34 0 GCC_except_table136
PUBLIC 4fc60 0 GCC_except_table152
PUBLIC 4fc8c 0 GCC_except_table193
PUBLIC 4fcd4 0 GCC_except_table194
PUBLIC 4fcec 0 GCC_except_table201
PUBLIC 4fd04 0 GCC_except_table213
PUBLIC 4fd50 0 GCC_except_table234
PUBLIC 4fd9c 0 GCC_except_table259
PUBLIC 4fdc4 0 GCC_except_table260
PUBLIC 4fddc 0 GCC_except_table261
PUBLIC 4fdf4 0 GCC_except_table289
PUBLIC 4fe1c 0 GCC_except_table292
PUBLIC 4fe9c 0 GCC_except_table297
PUBLIC 4feb4 0 GCC_except_table314
PUBLIC 4fedc 0 GCC_except_table317
PUBLIC 4ff44 0 GCC_except_table318
PUBLIC 4ffa0 0 GCC_except_table326
PUBLIC 4ffb8 0 GCC_except_table328
PUBLIC 4ffe0 0 GCC_except_table331
PUBLIC 50020 0 GCC_except_table335
PUBLIC 50060 0 GCC_except_table336
PUBLIC 50088 0 GCC_except_table339
PUBLIC 500d4 0 GCC_except_table340
PUBLIC 500fc 0 GCC_except_table344
PUBLIC 50164 0 GCC_except_table348
PUBLIC 501a4 0 GCC_except_table355
PUBLIC 501d0 0 GCC_except_table356
PUBLIC 501f8 0 GCC_except_table396
PUBLIC 50240 0 GCC_except_table397
PUBLIC 50258 0 GCC_except_table401
PUBLIC 502a4 0 GCC_except_table404
PUBLIC 502bc 0 GCC_except_table408
PUBLIC 502f8 0 GCC_except_table409
PUBLIC 50340 0 GCC_except_table410
PUBLIC 50388 0 GCC_except_table411
PUBLIC 503a8 0 GCC_except_table412
PUBLIC 503c8 0 GCC_except_table413
PUBLIC 50444 0 GCC_except_table414
PUBLIC 504c0 0 GCC_except_table415
PUBLIC 5053c 0 GCC_except_table416
PUBLIC 505b8 0 GCC_except_table417
PUBLIC 50634 0 GCC_except_table418
PUBLIC 506b0 0 GCC_except_table419
PUBLIC 5072c 0 GCC_except_table420
PUBLIC 507a8 0 GCC_except_table421
PUBLIC 50824 0 GCC_except_table422
PUBLIC 508a0 0 GCC_except_table423
PUBLIC 5091c 0 GCC_except_table424
PUBLIC 50998 0 GCC_except_table425
PUBLIC 509d4 0 GCC_except_table426
PUBLIC 50a10 0 GCC_except_table427
PUBLIC 50a4c 0 GCC_except_table428
PUBLIC 50a88 0 GCC_except_table429
PUBLIC 50ac4 0 GCC_except_table430
PUBLIC 50b00 0 GCC_except_table431
PUBLIC 50b3c 0 GCC_except_table432
PUBLIC 50b78 0 GCC_except_table433
PUBLIC 50bb4 0 GCC_except_table434
PUBLIC 50c10 0 GCC_except_table435
PUBLIC 50c6c 0 GCC_except_table436
PUBLIC 50cc8 0 GCC_except_table437
PUBLIC 50d24 0 GCC_except_table438
PUBLIC 50d80 0 GCC_except_table439
PUBLIC 50ddc 0 GCC_except_table440
PUBLIC 50e38 0 GCC_except_table441
PUBLIC 50e94 0 GCC_except_table442
PUBLIC 50ef0 0 GCC_except_table443
PUBLIC 50f50 0 GCC_except_table444
PUBLIC 50f8c 0 GCC_except_table445
PUBLIC 50fec 0 GCC_except_table17
PUBLIC 51004 0 GCC_except_table19
PUBLIC 51030 0 GCC_except_table20
PUBLIC 5106c 0 GCC_except_table22
PUBLIC 510a8 0 GCC_except_table24
PUBLIC 510d4 0 GCC_except_table26
PUBLIC 51110 0 GCC_except_table28
PUBLIC 5114c 0 GCC_except_table30
PUBLIC 51178 0 GCC_except_table35
PUBLIC 511a4 0 GCC_except_table4
PUBLIC 511bc 0 GCC_except_table7
PUBLIC 511dc 0 GCC_except_table8
PUBLIC 511f4 0 GCC_except_table24
PUBLIC 51220 0 GCC_except_table26
PUBLIC 5124c 0 GCC_except_table3
PUBLIC 51264 0 GCC_except_table5
PUBLIC 5127c 0 GCC_except_table6
PUBLIC 512b0 0 std::__1::placeholders::_1
PUBLIC 512b1 0 std::__1::placeholders::_2
PUBLIC 512b2 0 std::__1::placeholders::_3
PUBLIC 512b3 0 std::__1::placeholders::_4
PUBLIC 512b4 0 std::__1::placeholders::_5
PUBLIC 512b5 0 std::__1::placeholders::_6
PUBLIC 512b6 0 std::__1::placeholders::_7
PUBLIC 512b7 0 std::__1::placeholders::_8
PUBLIC 512b8 0 std::__1::placeholders::_9
PUBLIC 512b9 0 std::__1::placeholders::_10
PUBLIC 512ba 0 std::__1::chrono::system_clock::is_steady
PUBLIC 512bb 0 std::__1::chrono::steady_clock::is_steady
PUBLIC 512c0 0 typeinfo name for std::nested_exception
PUBLIC 51330 0 typeinfo name for std::__1::future_error
PUBLIC 51350 0 typeinfo name for std::__1::__assoc_sub_state
PUBLIC 51370 0 typeinfo name for std::__1::__future_error_category
PUBLIC 513a0 0 std::__1::(anonymous namespace)::small_primes
PUBLIC 51460 0 std::__1::(anonymous namespace)::indices
PUBLIC 51530 0 std::__1::ios_base::boolalpha
PUBLIC 51534 0 std::__1::ios_base::dec
PUBLIC 51538 0 std::__1::ios_base::fixed
PUBLIC 5153c 0 std::__1::ios_base::hex
PUBLIC 51540 0 std::__1::ios_base::internal
PUBLIC 51544 0 std::__1::ios_base::left
PUBLIC 51548 0 std::__1::ios_base::oct
PUBLIC 5154c 0 std::__1::ios_base::right
PUBLIC 51550 0 std::__1::ios_base::scientific
PUBLIC 51554 0 std::__1::ios_base::showbase
PUBLIC 51558 0 std::__1::ios_base::showpoint
PUBLIC 5155c 0 std::__1::ios_base::showpos
PUBLIC 51560 0 std::__1::ios_base::skipws
PUBLIC 51564 0 std::__1::ios_base::unitbuf
PUBLIC 51568 0 std::__1::ios_base::uppercase
PUBLIC 5156c 0 std::__1::ios_base::adjustfield
PUBLIC 51570 0 std::__1::ios_base::basefield
PUBLIC 51574 0 std::__1::ios_base::floatfield
PUBLIC 51578 0 std::__1::ios_base::badbit
PUBLIC 5157c 0 std::__1::ios_base::eofbit
PUBLIC 51580 0 std::__1::ios_base::failbit
PUBLIC 51584 0 std::__1::ios_base::goodbit
PUBLIC 51588 0 std::__1::ios_base::app
PUBLIC 5158c 0 std::__1::ios_base::ate
PUBLIC 51590 0 std::__1::ios_base::binary
PUBLIC 51594 0 std::__1::ios_base::in
PUBLIC 51598 0 std::__1::ios_base::out
PUBLIC 5159c 0 std::__1::ios_base::trunc
PUBLIC 515a0 0 typeinfo name for std::__1::ios_base::failure
PUBLIC 515c0 0 typeinfo name for std::__1::ios_base
PUBLIC 515e0 0 typeinfo name for std::__1::basic_ios<char, std::__1::char_traits<char> >
PUBLIC 51610 0 typeinfo name for std::__1::basic_ios<wchar_t, std::__1::char_traits<wchar_t> >
PUBLIC 51640 0 typeinfo name for std::__1::basic_streambuf<char, std::__1::char_traits<char> >
PUBLIC 51680 0 typeinfo name for std::__1::basic_streambuf<wchar_t, std::__1::char_traits<wchar_t> >
PUBLIC 516c0 0 typeinfo name for std::__1::basic_istream<char, std::__1::char_traits<char> >
PUBLIC 516f0 0 typeinfo name for std::__1::basic_istream<wchar_t, std::__1::char_traits<wchar_t> >
PUBLIC 51720 0 typeinfo name for std::__1::basic_ostream<char, std::__1::char_traits<char> >
PUBLIC 51750 0 typeinfo name for std::__1::basic_ostream<wchar_t, std::__1::char_traits<wchar_t> >
PUBLIC 51780 0 typeinfo name for std::__1::basic_iostream<char, std::__1::char_traits<char> >
PUBLIC 517b0 0 typeinfo name for std::__1::__iostream_category
PUBLIC 517d0 0 typeinfo name for std::__1::__stdinbuf<char>
PUBLIC 517f0 0 typeinfo name for std::__1::__stdinbuf<wchar_t>
PUBLIC 51810 0 typeinfo name for std::__1::__stdoutbuf<char>
PUBLIC 51830 0 typeinfo name for std::__1::__stdoutbuf<wchar_t>
PUBLIC 51850 0 typeinfo name for std::experimental::bad_optional_access
PUBLIC 51880 0 typeinfo name for std::bad_optional_access
PUBLIC 518d0 0 std::__1::__num_get_base::__src
PUBLIC 518fd 0 std::__1::time_get<char, std::__1::istreambuf_iterator<char, std::__1::char_traits<char> > >::do_get_time(std::__1::istreambuf_iterator<char, std::__1::char_traits<char> >, std::__1::istreambuf_iterator<char, std::__1::char_traits<char> >, std::__1::ios_base&, unsigned int&, tm*) const::__fmt
PUBLIC 51905 0 std::__1::time_get<char, std::__1::istreambuf_iterator<char, std::__1::char_traits<char> > >::do_get(std::__1::istreambuf_iterator<char, std::__1::char_traits<char> >, std::__1::istreambuf_iterator<char, std::__1::char_traits<char> >, std::__1::ios_base&, unsigned int&, tm*, char, char) const::__fm
PUBLIC 5190d 0 std::__1::time_get<char, std::__1::istreambuf_iterator<char, std::__1::char_traits<char> > >::do_get(std::__1::istreambuf_iterator<char, std::__1::char_traits<char> >, std::__1::istreambuf_iterator<char, std::__1::char_traits<char> >, std::__1::ios_base&, unsigned int&, tm*, char, char) const::__fm
PUBLIC 51915 0 std::__1::time_get<char, std::__1::istreambuf_iterator<char, std::__1::char_traits<char> > >::do_get(std::__1::istreambuf_iterator<char, std::__1::char_traits<char> >, std::__1::istreambuf_iterator<char, std::__1::char_traits<char> >, std::__1::ios_base&, unsigned int&, tm*, char, char) const::__fm
PUBLIC 51920 0 std::__1::time_get<char, std::__1::istreambuf_iterator<char, std::__1::char_traits<char> > >::do_get(std::__1::istreambuf_iterator<char, std::__1::char_traits<char> >, std::__1::istreambuf_iterator<char, std::__1::char_traits<char> >, std::__1::ios_base&, unsigned int&, tm*, char, char) const::__fm
PUBLIC 51925 0 std::__1::time_get<char, std::__1::istreambuf_iterator<char, std::__1::char_traits<char> > >::do_get(std::__1::istreambuf_iterator<char, std::__1::char_traits<char> >, std::__1::istreambuf_iterator<char, std::__1::char_traits<char> >, std::__1::ios_base&, unsigned int&, tm*, char, char) const::__fm
PUBLIC 51930 0 std::__1::time_get<wchar_t, std::__1::istreambuf_iterator<wchar_t, std::__1::char_traits<wchar_t> > >::do_get_time(std::__1::istreambuf_iterator<wchar_t, std::__1::char_traits<wchar_t> >, std::__1::istreambuf_iterator<wchar_t, std::__1::char_traits<wchar_t> >, std::__1::ios_base&, unsigned int&, tm*) const::__fmt
PUBLIC 51950 0 std::__1::time_get<wchar_t, std::__1::istreambuf_iterator<wchar_t, std::__1::char_traits<wchar_t> > >::do_get(std::__1::istreambuf_iterator<wchar_t, std::__1::char_traits<wchar_t> >, std::__1::istreambuf_iterator<wchar_t, std::__1::char_traits<wchar_t> >, std::__1::ios_base&, unsigned int&, tm*, char, char) const::__fm
PUBLIC 51970 0 std::__1::time_get<wchar_t, std::__1::istreambuf_iterator<wchar_t, std::__1::char_traits<wchar_t> > >::do_get(std::__1::istreambuf_iterator<wchar_t, std::__1::char_traits<wchar_t> >, std::__1::istreambuf_iterator<wchar_t, std::__1::char_traits<wchar_t> >, std::__1::ios_base&, unsigned int&, tm*, char, char) const::__fm
PUBLIC 51990 0 std::__1::time_get<wchar_t, std::__1::istreambuf_iterator<wchar_t, std::__1::char_traits<wchar_t> > >::do_get(std::__1::istreambuf_iterator<wchar_t, std::__1::char_traits<wchar_t> >, std::__1::istreambuf_iterator<wchar_t, std::__1::char_traits<wchar_t> >, std::__1::ios_base&, unsigned int&, tm*, char, char) const::__fm
PUBLIC 519c0 0 std::__1::time_get<wchar_t, std::__1::istreambuf_iterator<wchar_t, std::__1::char_traits<wchar_t> > >::do_get(std::__1::istreambuf_iterator<wchar_t, std::__1::char_traits<wchar_t> >, std::__1::istreambuf_iterator<wchar_t, std::__1::char_traits<wchar_t> >, std::__1::ios_base&, unsigned int&, tm*, char, char) const::__fm
PUBLIC 519e0 0 std::__1::time_get<wchar_t, std::__1::istreambuf_iterator<wchar_t, std::__1::char_traits<wchar_t> > >::do_get(std::__1::istreambuf_iterator<wchar_t, std::__1::char_traits<wchar_t> >, std::__1::istreambuf_iterator<wchar_t, std::__1::char_traits<wchar_t> >, std::__1::ios_base&, unsigned int&, tm*, char, char) const::__fm
PUBLIC 51a00 0 std::__1::moneypunct<char, false>::intl
PUBLIC 51a01 0 std::__1::moneypunct<char, true>::intl
PUBLIC 51a02 0 std::__1::moneypunct<wchar_t, false>::intl
PUBLIC 51a03 0 std::__1::moneypunct<wchar_t, true>::intl
PUBLIC 51a04 0 std::__1::money_get<char, std::__1::istreambuf_iterator<char, std::__1::char_traits<char> > >::do_get(std::__1::istreambuf_iterator<char, std::__1::char_traits<char> >, std::__1::istreambuf_iterator<char, std::__1::char_traits<char> >, bool, std::__1::ios_base&, unsigned int&, long double&) const::__src
PUBLIC 51a0f 0 std::__1::money_get<wchar_t, std::__1::istreambuf_iterator<wchar_t, std::__1::char_traits<wchar_t> > >::do_get(std::__1::istreambuf_iterator<wchar_t, std::__1::char_traits<wchar_t> >, std::__1::istreambuf_iterator<wchar_t, std::__1::char_traits<wchar_t> >, bool, std::__1::ios_base&, unsigned int&, long double&) const::__src
PUBLIC 51a1c 0 std::__1::locale::none
PUBLIC 51a20 0 std::__1::locale::collate
PUBLIC 51a24 0 std::__1::locale::ctype
PUBLIC 51a28 0 std::__1::locale::monetary
PUBLIC 51a2c 0 std::__1::locale::numeric
PUBLIC 51a30 0 std::__1::locale::time
PUBLIC 51a34 0 std::__1::locale::messages
PUBLIC 51a38 0 std::__1::locale::all
PUBLIC 51a3c 0 std::__1::ctype_base::space
PUBLIC 51a40 0 std::__1::ctype_base::print
PUBLIC 51a44 0 std::__1::ctype_base::cntrl
PUBLIC 51a48 0 std::__1::ctype_base::upper
PUBLIC 51a4c 0 std::__1::ctype_base::lower
PUBLIC 51a50 0 std::__1::ctype_base::alpha
PUBLIC 51a54 0 std::__1::ctype_base::digit
PUBLIC 51a58 0 std::__1::ctype_base::punct
PUBLIC 51a5c 0 std::__1::ctype_base::xdigit
PUBLIC 51a60 0 std::__1::ctype_base::blank
PUBLIC 51a64 0 std::__1::ctype_base::alnum
PUBLIC 51a68 0 std::__1::ctype_base::graph
PUBLIC 51b70 0 typeinfo name for std::__1::locale::facet
PUBLIC 51b90 0 typeinfo name for std::__1::ctype<wchar_t>
PUBLIC 51bb0 0 typeinfo name for std::__1::ctype_base
PUBLIC 51bd0 0 typeinfo name for std::__1::codecvt<char, char, __mbstate_t>
PUBLIC 51c00 0 typeinfo name for std::__1::codecvt_base
PUBLIC 51c20 0 typeinfo name for std::__1::codecvt<char16_t, char, __mbstate_t>
PUBLIC 51c50 0 typeinfo name for std::__1::codecvt<char32_t, char, __mbstate_t>
PUBLIC 51c80 0 typeinfo name for std::__1::__narrow_to_utf8<16ul>
PUBLIC 51cb0 0 typeinfo name for std::__1::__narrow_to_utf8<32ul>
PUBLIC 51ce0 0 typeinfo name for std::__1::__widen_from_utf8<16ul>
PUBLIC 51d10 0 typeinfo name for std::__1::__widen_from_utf8<32ul>
PUBLIC 51d40 0 typeinfo name for std::__1::__codecvt_utf8<wchar_t>
PUBLIC 51d60 0 typeinfo name for std::__1::codecvt<wchar_t, char, __mbstate_t>
PUBLIC 51d90 0 typeinfo name for std::__1::__codecvt_utf8<char16_t>
PUBLIC 51db0 0 typeinfo name for std::__1::__codecvt_utf8<char32_t>
PUBLIC 51dd0 0 typeinfo name for std::__1::__codecvt_utf16<wchar_t, false>
PUBLIC 51e00 0 typeinfo name for std::__1::__codecvt_utf16<wchar_t, true>
PUBLIC 51e30 0 typeinfo name for std::__1::__codecvt_utf16<char16_t, false>
PUBLIC 51e60 0 typeinfo name for std::__1::__codecvt_utf16<char16_t, true>
PUBLIC 51e90 0 typeinfo name for std::__1::__codecvt_utf16<char32_t, false>
PUBLIC 51ec0 0 typeinfo name for std::__1::__codecvt_utf16<char32_t, true>
PUBLIC 51ef0 0 typeinfo name for std::__1::__codecvt_utf8_utf16<wchar_t>
PUBLIC 51f20 0 typeinfo name for std::__1::__codecvt_utf8_utf16<char32_t>
PUBLIC 51f50 0 typeinfo name for std::__1::__codecvt_utf8_utf16<char16_t>
PUBLIC 51f80 0 typeinfo name for std::__1::locale::__imp
PUBLIC 51fa0 0 typeinfo name for std::__1::collate_byname<char>
PUBLIC 51fc0 0 typeinfo name for std::__1::collate<char>
PUBLIC 51fe0 0 typeinfo name for std::__1::collate_byname<wchar_t>
PUBLIC 52000 0 typeinfo name for std::__1::collate<wchar_t>
PUBLIC 52020 0 typeinfo name for std::__1::ctype<char>
PUBLIC 52040 0 typeinfo name for std::__1::ctype_byname<char>
PUBLIC 52060 0 typeinfo name for std::__1::ctype_byname<wchar_t>
PUBLIC 52080 0 typeinfo name for std::__1::numpunct<char>
PUBLIC 520a0 0 typeinfo name for std::__1::numpunct<wchar_t>
PUBLIC 520c0 0 typeinfo name for std::__1::numpunct_byname<char>
PUBLIC 520e0 0 typeinfo name for std::__1::numpunct_byname<wchar_t>
PUBLIC 52100 0 typeinfo name for std::__1::num_get<char, std::__1::istreambuf_iterator<char, std::__1::char_traits<char> > >
PUBLIC 52150 0 typeinfo name for std::__1::__num_get<char>
PUBLIC 52170 0 typeinfo name for std::__1::__num_get_base
PUBLIC 52190 0 typeinfo name for std::__1::num_get<wchar_t, std::__1::istreambuf_iterator<wchar_t, std::__1::char_traits<wchar_t> > >
PUBLIC 521e0 0 typeinfo name for std::__1::__num_get<wchar_t>
PUBLIC 52200 0 typeinfo name for std::__1::num_put<char, std::__1::ostreambuf_iterator<char, std::__1::char_traits<char> > >
PUBLIC 52250 0 typeinfo name for std::__1::__num_put<char>
PUBLIC 52270 0 typeinfo name for std::__1::__num_put_base
PUBLIC 52290 0 typeinfo name for std::__1::num_put<wchar_t, std::__1::ostreambuf_iterator<wchar_t, std::__1::char_traits<wchar_t> > >
PUBLIC 522e0 0 typeinfo name for std::__1::__num_put<wchar_t>
PUBLIC 52300 0 typeinfo name for std::__1::time_get<char, std::__1::istreambuf_iterator<char, std::__1::char_traits<char> > >
PUBLIC 52350 0 typeinfo name for std::__1::time_base
PUBLIC 52370 0 typeinfo name for std::__1::__time_get_c_storage<char>
PUBLIC 523a0 0 typeinfo name for std::__1::time_get<wchar_t, std::__1::istreambuf_iterator<wchar_t, std::__1::char_traits<wchar_t> > >
PUBLIC 523f0 0 typeinfo name for std::__1::__time_get_c_storage<wchar_t>
PUBLIC 52420 0 typeinfo name for std::__1::time_get_byname<char, std::__1::istreambuf_iterator<char, std::__1::char_traits<char> > >
PUBLIC 52470 0 typeinfo name for std::__1::__time_get_storage<char>
PUBLIC 52490 0 typeinfo name for std::__1::__time_get
PUBLIC 524b0 0 typeinfo name for std::__1::time_get_byname<wchar_t, std::__1::istreambuf_iterator<wchar_t, std::__1::char_traits<wchar_t> > >
PUBLIC 52500 0 typeinfo name for std::__1::__time_get_storage<wchar_t>
PUBLIC 52520 0 typeinfo name for std::__1::time_put<char, std::__1::ostreambuf_iterator<char, std::__1::char_traits<char> > >
PUBLIC 52570 0 typeinfo name for std::__1::__time_put
PUBLIC 52590 0 typeinfo name for std::__1::time_put<wchar_t, std::__1::ostreambuf_iterator<wchar_t, std::__1::char_traits<wchar_t> > >
PUBLIC 525e0 0 typeinfo name for std::__1::time_put_byname<char, std::__1::ostreambuf_iterator<char, std::__1::char_traits<char> > >
PUBLIC 52630 0 typeinfo name for std::__1::time_put_byname<wchar_t, std::__1::ostreambuf_iterator<wchar_t, std::__1::char_traits<wchar_t> > >
PUBLIC 52680 0 typeinfo name for std::__1::moneypunct<char, false>
PUBLIC 526a0 0 typeinfo name for std::__1::money_base
PUBLIC 526c0 0 typeinfo name for std::__1::moneypunct<char, true>
PUBLIC 526e0 0 typeinfo name for std::__1::moneypunct<wchar_t, false>
PUBLIC 52700 0 typeinfo name for std::__1::moneypunct<wchar_t, true>
PUBLIC 52720 0 typeinfo name for std::__1::moneypunct_byname<char, false>
PUBLIC 52750 0 typeinfo name for std::__1::moneypunct_byname<char, true>
PUBLIC 52780 0 typeinfo name for std::__1::moneypunct_byname<wchar_t, false>
PUBLIC 527b0 0 typeinfo name for std::__1::moneypunct_byname<wchar_t, true>
PUBLIC 527e0 0 typeinfo name for std::__1::money_get<char, std::__1::istreambuf_iterator<char, std::__1::char_traits<char> > >
PUBLIC 52830 0 typeinfo name for std::__1::__money_get<char>
PUBLIC 52850 0 typeinfo name for std::__1::money_get<wchar_t, std::__1::istreambuf_iterator<wchar_t, std::__1::char_traits<wchar_t> > >
PUBLIC 528a0 0 typeinfo name for std::__1::__money_get<wchar_t>
PUBLIC 528c0 0 typeinfo name for std::__1::money_put<char, std::__1::ostreambuf_iterator<char, std::__1::char_traits<char> > >
PUBLIC 52910 0 typeinfo name for std::__1::__money_put<char>
PUBLIC 52930 0 typeinfo name for std::__1::money_put<wchar_t, std::__1::ostreambuf_iterator<wchar_t, std::__1::char_traits<wchar_t> > >
PUBLIC 52980 0 typeinfo name for std::__1::__money_put<wchar_t>
PUBLIC 529a0 0 typeinfo name for std::__1::messages<char>
PUBLIC 529c0 0 typeinfo name for std::__1::messages_base
PUBLIC 529e0 0 typeinfo name for std::__1::messages<wchar_t>
PUBLIC 52a00 0 typeinfo name for std::__1::messages_byname<char>
PUBLIC 52a20 0 typeinfo name for std::__1::messages_byname<wchar_t>
PUBLIC 52a40 0 typeinfo name for std::__1::codecvt_byname<char, char, __mbstate_t>
PUBLIC 52a70 0 typeinfo name for std::__1::codecvt_byname<wchar_t, char, __mbstate_t>
PUBLIC 52aa0 0 typeinfo name for std::__1::codecvt_byname<char16_t, char, __mbstate_t>
PUBLIC 52ad0 0 typeinfo name for std::__1::codecvt_byname<char32_t, char, __mbstate_t>
PUBLIC 52e70 0 typeinfo name for std::__1::__time_get_temp<char>
PUBLIC 52e90 0 typeinfo name for std::__1::__time_get_temp<wchar_t>
PUBLIC 52eb0 0 std::__1::allocator_arg
PUBLIC 52ec0 0 typeinfo name for std::__1::bad_weak_ptr
PUBLIC 52ee0 0 typeinfo name for std::__1::__shared_count
PUBLIC 52f00 0 typeinfo name for std::__1::__shared_weak_count
PUBLIC 52f20 0 typeinfo name for std::bad_variant_access
PUBLIC 52f37 0 std::__1::defer_lock
PUBLIC 52f38 0 std::__1::try_to_lock
PUBLIC 52f39 0 std::__1::adopt_lock
PUBLIC 52f3a 0 std::nothrow
PUBLIC 52f40 0 typeinfo name for std::__1::regex_error
PUBLIC 52f80 0 std::__1::basic_string<char, std::__1::char_traits<char>, std::__1::allocator<char> >::npos
PUBLIC 52f88 0 std::__1::basic_string<wchar_t, std::__1::char_traits<wchar_t>, std::__1::allocator<wchar_t> >::npos
PUBLIC 53010 0 typeinfo name for std::__1::strstreambuf
PUBLIC 53030 0 typeinfo name for std::__1::istrstream
PUBLIC 53050 0 typeinfo name for std::__1::ostrstream
PUBLIC 53070 0 typeinfo name for std::__1::strstream
PUBLIC 530b0 0 typeinfo name for std::__1::system_error
PUBLIC 530d0 0 typeinfo name for std::__1::error_category
PUBLIC 530f0 0 typeinfo name for std::__1::__do_message
PUBLIC 53110 0 typeinfo name for std::__1::__generic_error_category
PUBLIC 53140 0 typeinfo name for std::__1::__system_error_category
PUBLIC 53170 0 typeinfo name for std::bad_any_cast
PUBLIC 53190 0 typeinfo name for std::experimental::fundamentals_v1::bad_any_cast
PUBLIC 531c2 0 std::__1::piecewise_construct
PUBLIC 57510 0 vtable for std::nested_exception
PUBLIC 57530 0 typeinfo for std::nested_exception
PUBLIC 57540 0 vtable for std::__1::__future_error_category
PUBLIC 57588 0 vtable for std::__1::future_error
PUBLIC 575b0 0 typeinfo for std::__1::future_error
PUBLIC 575c8 0 vtable for std::__1::__assoc_sub_state
PUBLIC 57600 0 typeinfo for std::__1::__assoc_sub_state
PUBLIC 57620 0 typeinfo for std::__1::__future_error_category
PUBLIC 57640 0 vtable for std::__1::__iostream_category
PUBLIC 57688 0 vtable for std::__1::ios_base::failure
PUBLIC 576b0 0 vtable for std::__1::ios_base
PUBLIC 576d0 0 typeinfo for std::__1::ios_base::failure
PUBLIC 576e8 0 typeinfo for std::__1::ios_base
PUBLIC 57700 0 typeinfo for std::__1::__iostream_category
PUBLIC 57720 0 vtable for std::experimental::bad_optional_access
PUBLIC 57750 0 typeinfo for std::experimental::bad_optional_access
PUBLIC 57768 0 vtable for std::bad_optional_access
PUBLIC 57790 0 typeinfo for std::bad_optional_access
PUBLIC 577b0 0 vtable for std::__1::locale::__imp
PUBLIC 577d8 0 vtable for std::__1::collate_byname<char>
PUBLIC 57818 0 vtable for std::__1::collate_byname<wchar_t>
PUBLIC 57858 0 vtable for std::__1::ctype<char>
PUBLIC 578c0 0 vtable for std::__1::ctype_byname<char>
PUBLIC 57928 0 vtable for std::__1::ctype_byname<wchar_t>
PUBLIC 579b0 0 vtable for std::__1::codecvt<wchar_t, char, __mbstate_t>
PUBLIC 57a10 0 vtable for std::__1::numpunct<char>
PUBLIC 57a60 0 vtable for std::__1::numpunct<wchar_t>
PUBLIC 57ab0 0 vtable for std::__1::numpunct_byname<char>
PUBLIC 57b00 0 vtable for std::__1::numpunct_byname<wchar_t>
PUBLIC 57b50 0 vtable for std::__1::locale::facet
PUBLIC 57b80 0 typeinfo for std::__1::locale::facet
PUBLIC 57b98 0 vtable for std::__1::ctype<wchar_t>
PUBLIC 57c20 0 typeinfo for std::__1::ctype<wchar_t>
PUBLIC 57c58 0 vtable for std::__1::codecvt<char, char, __mbstate_t>
PUBLIC 57cc0 0 typeinfo for std::__1::codecvt<char, char, __mbstate_t>
PUBLIC 57cf8 0 vtable for std::__1::codecvt<char16_t, char, __mbstate_t>
PUBLIC 57d60 0 typeinfo for std::__1::codecvt<char16_t, char, __mbstate_t>
PUBLIC 57d98 0 vtable for std::__1::codecvt<char32_t, char, __mbstate_t>
PUBLIC 57e00 0 typeinfo for std::__1::codecvt<char32_t, char, __mbstate_t>
PUBLIC 57e38 0 vtable for std::__1::__narrow_to_utf8<16ul>
PUBLIC 57ea0 0 typeinfo for std::__1::__narrow_to_utf8<16ul>
PUBLIC 57eb8 0 vtable for std::__1::__narrow_to_utf8<32ul>
PUBLIC 57f20 0 typeinfo for std::__1::__narrow_to_utf8<32ul>
PUBLIC 57f38 0 vtable for std::__1::__widen_from_utf8<16ul>
PUBLIC 57fa0 0 typeinfo for std::__1::__widen_from_utf8<16ul>
PUBLIC 57fb8 0 vtable for std::__1::__widen_from_utf8<32ul>
PUBLIC 58020 0 typeinfo for std::__1::__widen_from_utf8<32ul>
PUBLIC 58038 0 vtable for std::__1::__codecvt_utf8<wchar_t>
PUBLIC 580a0 0 typeinfo for std::__1::codecvt<wchar_t, char, __mbstate_t>
PUBLIC 580e0 0 typeinfo for std::__1::__codecvt_utf8<wchar_t>
PUBLIC 580f8 0 vtable for std::__1::__codecvt_utf8<char16_t>
PUBLIC 58160 0 typeinfo for std::__1::__codecvt_utf8<char16_t>
PUBLIC 58178 0 vtable for std::__1::__codecvt_utf8<char32_t>
PUBLIC 581e0 0 typeinfo for std::__1::__codecvt_utf8<char32_t>
PUBLIC 581f8 0 vtable for std::__1::__codecvt_utf16<wchar_t, false>
PUBLIC 58260 0 typeinfo for std::__1::__codecvt_utf16<wchar_t, false>
PUBLIC 58278 0 vtable for std::__1::__codecvt_utf16<wchar_t, true>
PUBLIC 582e0 0 typeinfo for std::__1::__codecvt_utf16<wchar_t, true>
PUBLIC 582f8 0 vtable for std::__1::__codecvt_utf16<char16_t, false>
PUBLIC 58360 0 typeinfo for std::__1::__codecvt_utf16<char16_t, false>
PUBLIC 58378 0 vtable for std::__1::__codecvt_utf16<char16_t, true>
PUBLIC 583e0 0 typeinfo for std::__1::__codecvt_utf16<char16_t, true>
PUBLIC 583f8 0 vtable for std::__1::__codecvt_utf16<char32_t, false>
PUBLIC 58460 0 typeinfo for std::__1::__codecvt_utf16<char32_t, false>
PUBLIC 58478 0 vtable for std::__1::__codecvt_utf16<char32_t, true>
PUBLIC 584e0 0 typeinfo for std::__1::__codecvt_utf16<char32_t, true>
PUBLIC 584f8 0 vtable for std::__1::__codecvt_utf8_utf16<wchar_t>
PUBLIC 58560 0 typeinfo for std::__1::__codecvt_utf8_utf16<wchar_t>
PUBLIC 58578 0 vtable for std::__1::__codecvt_utf8_utf16<char32_t>
PUBLIC 585e0 0 typeinfo for std::__1::__codecvt_utf8_utf16<char32_t>
PUBLIC 585f8 0 vtable for std::__1::__codecvt_utf8_utf16<char16_t>
PUBLIC 58660 0 typeinfo for std::__1::__codecvt_utf8_utf16<char16_t>
PUBLIC 58680 0 typeinfo for std::__1::locale::__imp
PUBLIC 586a0 0 typeinfo for std::__1::collate_byname<char>
PUBLIC 586c0 0 typeinfo for std::__1::collate_byname<wchar_t>
PUBLIC 586e0 0 typeinfo for std::__1::ctype<char>
PUBLIC 58720 0 typeinfo for std::__1::ctype_byname<char>
PUBLIC 58740 0 typeinfo for std::__1::ctype_byname<wchar_t>
PUBLIC 58760 0 typeinfo for std::__1::numpunct<char>
PUBLIC 58780 0 typeinfo for std::__1::numpunct<wchar_t>
PUBLIC 587a0 0 typeinfo for std::__1::numpunct_byname<char>
PUBLIC 587c0 0 typeinfo for std::__1::numpunct_byname<wchar_t>
PUBLIC 587e0 0 vtable for std::__1::bad_weak_ptr
PUBLIC 58810 0 typeinfo for std::__1::bad_weak_ptr
PUBLIC 58828 0 vtable for std::__1::__shared_count
PUBLIC 58850 0 typeinfo for std::__1::__shared_count
PUBLIC 58860 0 vtable for std::__1::__shared_weak_count
PUBLIC 588a0 0 typeinfo for std::__1::__shared_weak_count
PUBLIC 588d0 0 vtable for std::bad_variant_access
PUBLIC 58900 0 typeinfo for std::bad_variant_access
PUBLIC 58920 0 vtable for std::__1::regex_error
PUBLIC 58950 0 std::__1::(anonymous namespace)::collatenames
PUBLIC 59040 0 std::__1::(anonymous namespace)::ClassNames
PUBLIC 59130 0 typeinfo for std::__1::regex_error
PUBLIC 591d0 0 vtable for std::__1::strstreambuf
PUBLIC 59250 0 vtable for std::__1::istrstream
PUBLIC 592a0 0 VTT for std::__1::istrstream
PUBLIC 592c0 0 vtable for std::__1::ostrstream
PUBLIC 59310 0 VTT for std::__1::ostrstream
PUBLIC 59330 0 vtable for std::__1::strstream
PUBLIC 593b0 0 VTT for std::__1::strstream
PUBLIC 59400 0 typeinfo for std::__1::strstreambuf
PUBLIC 59420 0 construction vtable for std::__1::basic_istream<char, std::__1::char_traits<char> >-in-std::__1::istrstream
PUBLIC 59470 0 typeinfo for std::__1::istrstream
PUBLIC 59490 0 construction vtable for std::__1::basic_ostream<char, std::__1::char_traits<char> >-in-std::__1::ostrstream
PUBLIC 594e0 0 typeinfo for std::__1::ostrstream
PUBLIC 59500 0 construction vtable for std::__1::basic_iostream<char, std::__1::char_traits<char> >-in-std::__1::strstream
PUBLIC 59580 0 construction vtable for std::__1::basic_istream<char, std::__1::char_traits<char> >-in-std::__1::strstream
PUBLIC 595d0 0 construction vtable for std::__1::basic_ostream<char, std::__1::char_traits<char> >-in-std::__1::strstream
PUBLIC 59620 0 typeinfo for std::__1::strstream
PUBLIC 59640 0 vtable for std::__1::error_category
PUBLIC 59688 0 vtable for std::__1::system_error
PUBLIC 596b0 0 typeinfo for std::__1::system_error
PUBLIC 596c8 0 typeinfo for std::__1::error_category
PUBLIC 596d8 0 vtable for std::__1::__do_message
PUBLIC 59720 0 typeinfo for std::__1::__do_message
PUBLIC 59738 0 vtable for std::__1::__generic_error_category
PUBLIC 59780 0 typeinfo for std::__1::__generic_error_category
PUBLIC 59798 0 vtable for std::__1::__system_error_category
PUBLIC 597e0 0 typeinfo for std::__1::__system_error_category
PUBLIC 59800 0 vtable for std::bad_any_cast
PUBLIC 59830 0 typeinfo for std::bad_any_cast
PUBLIC 59848 0 vtable for std::experimental::fundamentals_v1::bad_any_cast
PUBLIC 59870 0 typeinfo for std::experimental::fundamentals_v1::bad_any_cast
PUBLIC 5a000 0 std::__1::__rs_mut
PUBLIC 5a040 0 std::__1::future_category()::__f
PUBLIC 5a050 0 vtable for std::__1::basic_ios<char, std::__1::char_traits<char> >
PUBLIC 5a070 0 vtable for std::__1::basic_ios<wchar_t, std::__1::char_traits<wchar_t> >
PUBLIC 5a090 0 vtable for std::__1::basic_streambuf<char, std::__1::char_traits<char> >
PUBLIC 5a110 0 vtable for std::__1::basic_streambuf<wchar_t, std::__1::char_traits<wchar_t> >
PUBLIC 5a190 0 vtable for std::__1::basic_istream<char, std::__1::char_traits<char> >
PUBLIC 5a1e0 0 VTT for std::__1::basic_istream<char, std::__1::char_traits<char> >
PUBLIC 5a1f0 0 vtable for std::__1::basic_istream<wchar_t, std::__1::char_traits<wchar_t> >
PUBLIC 5a240 0 VTT for std::__1::basic_istream<wchar_t, std::__1::char_traits<wchar_t> >
PUBLIC 5a250 0 vtable for std::__1::basic_ostream<char, std::__1::char_traits<char> >
PUBLIC 5a2a0 0 VTT for std::__1::basic_ostream<char, std::__1::char_traits<char> >
PUBLIC 5a2b0 0 vtable for std::__1::basic_ostream<wchar_t, std::__1::char_traits<wchar_t> >
PUBLIC 5a300 0 VTT for std::__1::basic_ostream<wchar_t, std::__1::char_traits<wchar_t> >
PUBLIC 5a310 0 vtable for std::__1::basic_iostream<char, std::__1::char_traits<char> >
PUBLIC 5a390 0 VTT for std::__1::basic_iostream<char, std::__1::char_traits<char> >
PUBLIC 5a3c8 0 std::__1::iostream_category()::s
PUBLIC 5a3d0 0 std::__1::ios_base::sync_with_stdio(bool)::previous_state
PUBLIC 5a3e0 0 typeinfo for std::__1::basic_ios<char, std::__1::char_traits<char> >
PUBLIC 5a400 0 typeinfo for std::__1::basic_ios<wchar_t, std::__1::char_traits<wchar_t> >
PUBLIC 5a418 0 typeinfo for std::__1::basic_streambuf<char, std::__1::char_traits<char> >
PUBLIC 5a428 0 typeinfo for std::__1::basic_streambuf<wchar_t, std::__1::char_traits<wchar_t> >
PUBLIC 5a440 0 typeinfo for std::__1::basic_istream<char, std::__1::char_traits<char> >
PUBLIC 5a470 0 typeinfo for std::__1::basic_istream<wchar_t, std::__1::char_traits<wchar_t> >
PUBLIC 5a4a0 0 typeinfo for std::__1::basic_ostream<char, std::__1::char_traits<char> >
PUBLIC 5a4d0 0 typeinfo for std::__1::basic_ostream<wchar_t, std::__1::char_traits<wchar_t> >
PUBLIC 5a500 0 construction vtable for std::__1::basic_istream<char, std::__1::char_traits<char> >-in-std::__1::basic_iostream<char, std::__1::char_traits<char> >
PUBLIC 5a550 0 construction vtable for std::__1::basic_ostream<char, std::__1::char_traits<char> >-in-std::__1::basic_iostream<char, std::__1::char_traits<char> >
PUBLIC 5a5a0 0 typeinfo for std::__1::basic_iostream<char, std::__1::char_traits<char> >
PUBLIC 5a5e0 0 vtable for std::__1::__stdinbuf<char>
PUBLIC 5a660 0 typeinfo for std::__1::__stdinbuf<char>
PUBLIC 5a678 0 vtable for std::__1::__stdinbuf<wchar_t>
PUBLIC 5a700 0 typeinfo for std::__1::__stdinbuf<wchar_t>
PUBLIC 5a718 0 vtable for std::__1::__stdoutbuf<char>
PUBLIC 5a7a0 0 typeinfo for std::__1::__stdoutbuf<char>
PUBLIC 5a7b8 0 vtable for std::__1::__stdoutbuf<wchar_t>
PUBLIC 5a840 0 typeinfo for std::__1::__stdoutbuf<wchar_t>
PUBLIC 5a860 0 vtable for std::__1::collate<char>
PUBLIC 5a8a0 0 std::__1::collate<char>::id
PUBLIC 5a8b0 0 vtable for std::__1::collate<wchar_t>
PUBLIC 5a8f0 0 std::__1::collate<wchar_t>::id
PUBLIC 5a900 0 vtable for std::__1::num_get<char, std::__1::istreambuf_iterator<char, std::__1::char_traits<char> > >
PUBLIC 5a980 0 std::__1::num_get<char, std::__1::istreambuf_iterator<char, std::__1::char_traits<char> > >::id
PUBLIC 5a990 0 vtable for std::__1::num_get<wchar_t, std::__1::istreambuf_iterator<wchar_t, std::__1::char_traits<wchar_t> > >
PUBLIC 5aa10 0 std::__1::num_get<wchar_t, std::__1::istreambuf_iterator<wchar_t, std::__1::char_traits<wchar_t> > >::id
PUBLIC 5aa20 0 vtable for std::__1::num_put<char, std::__1::ostreambuf_iterator<char, std::__1::char_traits<char> > >
PUBLIC 5aa88 0 std::__1::num_put<char, std::__1::ostreambuf_iterator<char, std::__1::char_traits<char> > >::id
PUBLIC 5aa98 0 vtable for std::__1::num_put<wchar_t, std::__1::ostreambuf_iterator<wchar_t, std::__1::char_traits<wchar_t> > >
PUBLIC 5ab00 0 std::__1::num_put<wchar_t, std::__1::ostreambuf_iterator<wchar_t, std::__1::char_traits<wchar_t> > >::id
PUBLIC 5ab10 0 vtable for std::__1::time_get<char, std::__1::istreambuf_iterator<char, std::__1::char_traits<char> > >
PUBLIC 5abb8 0 std::__1::time_get<char, std::__1::istreambuf_iterator<char, std::__1::char_traits<char> > >::id
PUBLIC 5abc8 0 vtable for std::__1::time_get<wchar_t, std::__1::istreambuf_iterator<wchar_t, std::__1::char_traits<wchar_t> > >
PUBLIC 5ac70 0 std::__1::time_get<wchar_t, std::__1::istreambuf_iterator<wchar_t, std::__1::char_traits<wchar_t> > >::id
PUBLIC 5ac80 0 vtable for std::__1::time_get_byname<char, std::__1::istreambuf_iterator<char, std::__1::char_traits<char> > >
PUBLIC 5ad60 0 vtable for std::__1::time_get_byname<wchar_t, std::__1::istreambuf_iterator<wchar_t, std::__1::char_traits<wchar_t> > >
PUBLIC 5ae40 0 vtable for std::__1::time_put<char, std::__1::ostreambuf_iterator<char, std::__1::char_traits<char> > >
PUBLIC 5ae70 0 std::__1::time_put<char, std::__1::ostreambuf_iterator<char, std::__1::char_traits<char> > >::id
PUBLIC 5ae80 0 vtable for std::__1::time_put<wchar_t, std::__1::ostreambuf_iterator<wchar_t, std::__1::char_traits<wchar_t> > >
PUBLIC 5aeb0 0 std::__1::time_put<wchar_t, std::__1::ostreambuf_iterator<wchar_t, std::__1::char_traits<wchar_t> > >::id
PUBLIC 5aec0 0 vtable for std::__1::time_put_byname<char, std::__1::ostreambuf_iterator<char, std::__1::char_traits<char> > >
PUBLIC 5aef0 0 vtable for std::__1::time_put_byname<wchar_t, std::__1::ostreambuf_iterator<wchar_t, std::__1::char_traits<wchar_t> > >
PUBLIC 5af20 0 vtable for std::__1::moneypunct<char, false>
PUBLIC 5af90 0 std::__1::moneypunct<char, false>::id
PUBLIC 5afa0 0 vtable for std::__1::moneypunct<char, true>
PUBLIC 5b010 0 std::__1::moneypunct<char, true>::id
PUBLIC 5b020 0 vtable for std::__1::moneypunct<wchar_t, false>
PUBLIC 5b090 0 std::__1::moneypunct<wchar_t, false>::id
PUBLIC 5b0a0 0 vtable for std::__1::moneypunct<wchar_t, true>
PUBLIC 5b110 0 std::__1::moneypunct<wchar_t, true>::id
PUBLIC 5b120 0 vtable for std::__1::moneypunct_byname<char, false>
PUBLIC 5b190 0 vtable for std::__1::moneypunct_byname<char, true>
PUBLIC 5b200 0 vtable for std::__1::moneypunct_byname<wchar_t, false>
PUBLIC 5b270 0 vtable for std::__1::moneypunct_byname<wchar_t, true>
PUBLIC 5b2e0 0 vtable for std::__1::money_get<char, std::__1::istreambuf_iterator<char, std::__1::char_traits<char> > >
PUBLIC 5b318 0 std::__1::money_get<char, std::__1::istreambuf_iterator<char, std::__1::char_traits<char> > >::id
PUBLIC 5b328 0 vtable for std::__1::money_get<wchar_t, std::__1::istreambuf_iterator<wchar_t, std::__1::char_traits<wchar_t> > >
PUBLIC 5b360 0 std::__1::money_get<wchar_t, std::__1::istreambuf_iterator<wchar_t, std::__1::char_traits<wchar_t> > >::id
PUBLIC 5b370 0 vtable for std::__1::money_put<char, std::__1::ostreambuf_iterator<char, std::__1::char_traits<char> > >
PUBLIC 5b3a8 0 std::__1::money_put<char, std::__1::ostreambuf_iterator<char, std::__1::char_traits<char> > >::id
PUBLIC 5b3b8 0 vtable for std::__1::money_put<wchar_t, std::__1::ostreambuf_iterator<wchar_t, std::__1::char_traits<wchar_t> > >
PUBLIC 5b3f0 0 std::__1::money_put<wchar_t, std::__1::ostreambuf_iterator<wchar_t, std::__1::char_traits<wchar_t> > >::id
PUBLIC 5b400 0 vtable for std::__1::messages<char>
PUBLIC 5b440 0 std::__1::messages<char>::id
PUBLIC 5b450 0 vtable for std::__1::messages<wchar_t>
PUBLIC 5b490 0 std::__1::messages<wchar_t>::id
PUBLIC 5b4a0 0 vtable for std::__1::messages_byname<char>
PUBLIC 5b4e0 0 vtable for std::__1::messages_byname<wchar_t>
PUBLIC 5b520 0 vtable for std::__1::codecvt_byname<char, char, __mbstate_t>
PUBLIC 5b580 0 vtable for std::__1::codecvt_byname<wchar_t, char, __mbstate_t>
PUBLIC 5b5e0 0 vtable for std::__1::codecvt_byname<char16_t, char, __mbstate_t>
PUBLIC 5b640 0 vtable for std::__1::codecvt_byname<char32_t, char, __mbstate_t>
PUBLIC 5b6a0 0 typeinfo for std::__1::ctype_base
PUBLIC 5b6b0 0 typeinfo for std::__1::codecvt_base
PUBLIC 5b6c0 0 typeinfo for std::__1::collate<char>
PUBLIC 5b6e0 0 typeinfo for std::__1::collate<wchar_t>
PUBLIC 5b6f8 0 typeinfo for std::__1::__num_get_base
PUBLIC 5b710 0 typeinfo for std::__1::__num_get<char>
PUBLIC 5b740 0 typeinfo for std::__1::num_get<char, std::__1::istreambuf_iterator<char, std::__1::char_traits<char> > >
PUBLIC 5b780 0 typeinfo for std::__1::__num_get<wchar_t>
PUBLIC 5b7b0 0 typeinfo for std::__1::num_get<wchar_t, std::__1::istreambuf_iterator<wchar_t, std::__1::char_traits<wchar_t> > >
PUBLIC 5b7e8 0 typeinfo for std::__1::__num_put_base
PUBLIC 5b800 0 typeinfo for std::__1::__num_put<char>
PUBLIC 5b830 0 typeinfo for std::__1::num_put<char, std::__1::ostreambuf_iterator<char, std::__1::char_traits<char> > >
PUBLIC 5b870 0 typeinfo for std::__1::__num_put<wchar_t>
PUBLIC 5b8a0 0 typeinfo for std::__1::num_put<wchar_t, std::__1::ostreambuf_iterator<wchar_t, std::__1::char_traits<wchar_t> > >
PUBLIC 5b8d8 0 typeinfo for std::__1::time_base
PUBLIC 5b8e8 0 typeinfo for std::__1::__time_get_c_storage<char>
PUBLIC 5b900 0 typeinfo for std::__1::time_get<char, std::__1::istreambuf_iterator<char, std::__1::char_traits<char> > >
PUBLIC 5b948 0 typeinfo for std::__1::__time_get_c_storage<wchar_t>
PUBLIC 5b960 0 typeinfo for std::__1::time_get<wchar_t, std::__1::istreambuf_iterator<wchar_t, std::__1::char_traits<wchar_t> > >
PUBLIC 5b9a8 0 typeinfo for std::__1::__time_get
PUBLIC 5b9c0 0 typeinfo for std::__1::__time_get_storage<char>
PUBLIC 5b9e0 0 typeinfo for std::__1::time_get_byname<char, std::__1::istreambuf_iterator<char, std::__1::char_traits<char> > >
PUBLIC 5ba20 0 typeinfo for std::__1::__time_get_storage<wchar_t>
PUBLIC 5ba40 0 typeinfo for std::__1::time_get_byname<wchar_t, std::__1::istreambuf_iterator<wchar_t, std::__1::char_traits<wchar_t> > >
PUBLIC 5ba78 0 typeinfo for std::__1::__time_put
PUBLIC 5ba90 0 typeinfo for std::__1::time_put<char, std::__1::ostreambuf_iterator<char, std::__1::char_traits<char> > >
PUBLIC 5bad0 0 typeinfo for std::__1::time_put<wchar_t, std::__1::ostreambuf_iterator<wchar_t, std::__1::char_traits<wchar_t> > >
PUBLIC 5bb10 0 typeinfo for std::__1::time_put_byname<char, std::__1::ostreambuf_iterator<char, std::__1::char_traits<char> > >
PUBLIC 5bb30 0 typeinfo for std::__1::time_put_byname<wchar_t, std::__1::ostreambuf_iterator<wchar_t, std::__1::char_traits<wchar_t> > >
PUBLIC 5bb48 0 typeinfo for std::__1::money_base
PUBLIC 5bb60 0 typeinfo for std::__1::moneypunct<char, false>
PUBLIC 5bba0 0 typeinfo for std::__1::moneypunct<char, true>
PUBLIC 5bbe0 0 typeinfo for std::__1::moneypunct<wchar_t, false>
PUBLIC 5bc20 0 typeinfo for std::__1::moneypunct<wchar_t, true>
PUBLIC 5bc60 0 typeinfo for std::__1::moneypunct_byname<char, false>
PUBLIC 5bc80 0 typeinfo for std::__1::moneypunct_byname<char, true>
PUBLIC 5bca0 0 typeinfo for std::__1::moneypunct_byname<wchar_t, false>
PUBLIC 5bcc0 0 typeinfo for std::__1::moneypunct_byname<wchar_t, true>
PUBLIC 5bcd8 0 typeinfo for std::__1::__money_get<char>
PUBLIC 5bcf0 0 typeinfo for std::__1::money_get<char, std::__1::istreambuf_iterator<char, std::__1::char_traits<char> > >
PUBLIC 5bd28 0 typeinfo for std::__1::__money_get<wchar_t>
PUBLIC 5bd40 0 typeinfo for std::__1::money_get<wchar_t, std::__1::istreambuf_iterator<wchar_t, std::__1::char_traits<wchar_t> > >
PUBLIC 5bd78 0 typeinfo for std::__1::__money_put<char>
PUBLIC 5bd90 0 typeinfo for std::__1::money_put<char, std::__1::ostreambuf_iterator<char, std::__1::char_traits<char> > >
PUBLIC 5bdc8 0 typeinfo for std::__1::__money_put<wchar_t>
PUBLIC 5bde0 0 typeinfo for std::__1::money_put<wchar_t, std::__1::ostreambuf_iterator<wchar_t, std::__1::char_traits<wchar_t> > >
PUBLIC 5be18 0 typeinfo for std::__1::messages_base
PUBLIC 5be30 0 typeinfo for std::__1::messages<char>
PUBLIC 5be70 0 typeinfo for std::__1::messages<wchar_t>
PUBLIC 5beb0 0 typeinfo for std::__1::messages_byname<char>
PUBLIC 5bed0 0 typeinfo for std::__1::messages_byname<wchar_t>
PUBLIC 5bef0 0 typeinfo for std::__1::codecvt_byname<char, char, __mbstate_t>
PUBLIC 5bf10 0 typeinfo for std::__1::codecvt_byname<wchar_t, char, __mbstate_t>
PUBLIC 5bf30 0 typeinfo for std::__1::codecvt_byname<char16_t, char, __mbstate_t>
PUBLIC 5bf50 0 typeinfo for std::__1::codecvt_byname<char32_t, char, __mbstate_t>
PUBLIC 5bf68 0 vtable for std::__1::__time_get_temp<char>
PUBLIC 5bfd0 0 typeinfo for std::__1::__time_get_temp<char>
PUBLIC 5bfe8 0 vtable for std::__1::__time_get_temp<wchar_t>
PUBLIC 5c070 0 typeinfo for std::__1::__time_get_temp<wchar_t>
PUBLIC 5c090 0 std::__1::mut_back
PUBLIC 5c490 0 std::__1::mut
PUBLIC 5c4d0 0 std::__1::cv
PUBLIC 5c500 0 std::__1::__rs_default::__c_
PUBLIC 5c504 0 std::__1::ios_base::__xindex_
PUBLIC 5c510 0 std::__1::cin
PUBLIC 5c5b8 0 std::__1::wcin
PUBLIC 5c660 0 std::__1::cout
PUBLIC 5c700 0 std::__1::wcout
PUBLIC 5c7a0 0 std::__1::cerr
PUBLIC 5c840 0 std::__1::wcerr
PUBLIC 5c8e0 0 std::__1::clog
PUBLIC 5c980 0 std::__1::wclog
PUBLIC 5ca20 0 std::__1::__start_std_streams
PUBLIC 5ca28 0 std::__1::locale::id::__next_id
PUBLIC 5ca30 0 std::__1::ctype<wchar_t>::id
PUBLIC 5ca40 0 std::__1::ctype<char>::id
PUBLIC 5ca50 0 std::__1::codecvt<char, char, __mbstate_t>::id
PUBLIC 5ca60 0 std::__1::codecvt<wchar_t, char, __mbstate_t>::id
PUBLIC 5ca70 0 std::__1::codecvt<char16_t, char, __mbstate_t>::id
PUBLIC 5ca80 0 std::__1::codecvt<char32_t, char, __mbstate_t>::id
PUBLIC 5ca90 0 std::__1::numpunct<char>::id
PUBLIC 5caa0 0 std::__1::numpunct<wchar_t>::id
PUBLIC 5cab0 0 std::__1::__rs_default::operator()()::__rs_g
PUBLIC 5d478 0 guard variable for std::__1::__rs_default::operator()()::__rs_g
PUBLIC 5d480 0 guard variable for std::__1::future_category()::__f
PUBLIC 5d488 0 guard variable for std::__1::iostream_category()::s
PUBLIC 5d490 0 std::__1::ios_base::iword(int)::error
PUBLIC 5d498 0 std::__1::ios_base::pword(int)::error
PUBLIC 5d4a0 0 std::__1::__cin
PUBLIC 5d508 0 std::__1::mb_cin
PUBLIC 5d588 0 std::__1::__wcin
PUBLIC 5d5f0 0 std::__1::mb_wcin
PUBLIC 5d670 0 std::__1::__cout
PUBLIC 5d6d0 0 std::__1::mb_cout
PUBLIC 5d750 0 std::__1::__wcout
PUBLIC 5d7b0 0 std::__1::mb_wcout
PUBLIC 5d830 0 std::__1::__cerr
PUBLIC 5d890 0 std::__1::mb_cerr
PUBLIC 5d910 0 std::__1::__wcerr
PUBLIC 5d970 0 std::__1::mb_wcerr
PUBLIC 5d9f0 0 std::__1::locale::__imp::make_classic()::buf
PUBLIC 5d9f8 0 std::__1::locale::classic()::c
PUBLIC 5da00 0 guard variable for std::__1::locale::classic()::c
PUBLIC 5da08 0 std::__1::locale::__imp::make_global()::buf
PUBLIC 5da10 0 std::__1::locale::__global()::g
PUBLIC 5da18 0 guard variable for std::__1::locale::__global()::g
PUBLIC 5da20 0 std::__1::__time_get_c_storage<char>::__weeks() const::weeks
PUBLIC 5da28 0 guard variable for std::__1::__time_get_c_storage<char>::__weeks() const::weeks
PUBLIC 5da30 0 std::__1::__time_get_c_storage<wchar_t>::__weeks() const::weeks
PUBLIC 5da38 0 guard variable for std::__1::__time_get_c_storage<wchar_t>::__weeks() const::weeks
PUBLIC 5da40 0 std::__1::__time_get_c_storage<char>::__months() const::months
PUBLIC 5da48 0 guard variable for std::__1::__time_get_c_storage<char>::__months() const::months
PUBLIC 5da50 0 std::__1::__time_get_c_storage<wchar_t>::__months() const::months
PUBLIC 5da58 0 guard variable for std::__1::__time_get_c_storage<wchar_t>::__months() const::months
PUBLIC 5da60 0 std::__1::__time_get_c_storage<char>::__am_pm() const::am_pm
PUBLIC 5da68 0 guard variable for std::__1::__time_get_c_storage<char>::__am_pm() const::am_pm
PUBLIC 5da70 0 std::__1::__time_get_c_storage<wchar_t>::__am_pm() const::am_pm
PUBLIC 5da78 0 guard variable for std::__1::__time_get_c_storage<wchar_t>::__am_pm() const::am_pm
PUBLIC 5da80 0 std::__1::__time_get_c_storage<char>::__x() const::s
PUBLIC 5da98 0 guard variable for std::__1::__time_get_c_storage<char>::__x() const::s
PUBLIC 5daa0 0 std::__1::__time_get_c_storage<wchar_t>::__x() const::s
PUBLIC 5dab8 0 guard variable for std::__1::__time_get_c_storage<wchar_t>::__x() const::s
PUBLIC 5dac0 0 std::__1::__time_get_c_storage<char>::__X() const::s
PUBLIC 5dad8 0 guard variable for std::__1::__time_get_c_storage<char>::__X() const::s
PUBLIC 5dae0 0 std::__1::__time_get_c_storage<wchar_t>::__X() const::s
PUBLIC 5daf8 0 guard variable for std::__1::__time_get_c_storage<wchar_t>::__X() const::s
PUBLIC 5db00 0 std::__1::__time_get_c_storage<char>::__c() const::s
PUBLIC 5db18 0 guard variable for std::__1::__time_get_c_storage<char>::__c() const::s
PUBLIC 5db20 0 std::__1::__time_get_c_storage<wchar_t>::__c() const::s
PUBLIC 5db38 0 guard variable for std::__1::__time_get_c_storage<wchar_t>::__c() const::s
PUBLIC 5db40 0 std::__1::__time_get_c_storage<char>::__r() const::s
PUBLIC 5db58 0 guard variable for std::__1::__time_get_c_storage<char>::__r() const::s
PUBLIC 5db60 0 std::__1::__time_get_c_storage<wchar_t>::__r() const::s
PUBLIC 5db78 0 guard variable for std::__1::__time_get_c_storage<wchar_t>::__r() const::s
PUBLIC 5db80 0 std::__1::init_weeks()::weeks
PUBLIC 5dcd0 0 guard variable for std::__1::init_weeks()::weeks
PUBLIC 5dce0 0 std::__1::init_wweeks()::weeks
PUBLIC 5de30 0 guard variable for std::__1::init_wweeks()::weeks
PUBLIC 5de40 0 std::__1::init_months()::months
PUBLIC 5e080 0 guard variable for std::__1::init_months()::months
PUBLIC 5e090 0 std::__1::init_wmonths()::months
PUBLIC 5e2d0 0 guard variable for std::__1::init_wmonths()::months
PUBLIC 5e2e0 0 std::__1::init_am_pm()::am_pm
PUBLIC 5e520 0 guard variable for std::__1::init_am_pm()::am_pm
PUBLIC 5e530 0 std::__1::init_wam_pm()::am_pm
PUBLIC 5e770 0 guard variable for std::__1::init_wam_pm()::am_pm
PUBLIC 5e780 0 std::__1::collate<char>& std::__1::(anonymous namespace)::make<std::__1::collate<char>, unsigned int>(unsigned int)::buf
PUBLIC 5e790 0 std::__1::collate<wchar_t>& std::__1::(anonymous namespace)::make<std::__1::collate<wchar_t>, unsigned int>(unsigned int)::buf
PUBLIC 5e7a0 0 std::__1::ctype<char>& std::__1::(anonymous namespace)::make<std::__1::ctype<char>, std::nullptr_t, bool, unsigned int>(std::nullptr_t, bool, unsigned int)::buf
PUBLIC 5e7c0 0 std::__1::ctype<wchar_t>& std::__1::(anonymous namespace)::make<std::__1::ctype<wchar_t>, unsigned int>(unsigned int)::buf
PUBLIC 5e7d0 0 std::__1::codecvt<char, char, __mbstate_t>& std::__1::(anonymous namespace)::make<std::__1::codecvt<char, char, __mbstate_t>, unsigned int>(unsigned int)::buf
PUBLIC 5e7e0 0 std::__1::codecvt<wchar_t, char, __mbstate_t>& std::__1::(anonymous namespace)::make<std::__1::codecvt<wchar_t, char, __mbstate_t>, unsigned int>(unsigned int)::buf
PUBLIC 5e800 0 std::__1::codecvt<char16_t, char, __mbstate_t>& std::__1::(anonymous namespace)::make<std::__1::codecvt<char16_t, char, __mbstate_t>, unsigned int>(unsigned int)::buf
PUBLIC 5e810 0 std::__1::codecvt<char32_t, char, __mbstate_t>& std::__1::(anonymous namespace)::make<std::__1::codecvt<char32_t, char, __mbstate_t>, unsigned int>(unsigned int)::buf
PUBLIC 5e820 0 std::__1::numpunct<char>& std::__1::(anonymous namespace)::make<std::__1::numpunct<char>, unsigned int>(unsigned int)::buf
PUBLIC 5e850 0 std::__1::numpunct<wchar_t>& std::__1::(anonymous namespace)::make<std::__1::numpunct<wchar_t>, unsigned int>(unsigned int)::buf
PUBLIC 5e880 0 std::__1::num_get<char, std::__1::istreambuf_iterator<char, std::__1::char_traits<char> > >& std::__1::(anonymous namespace)::make<std::__1::num_get<char, std::__1::istreambuf_iterator<char, std::__1::char_traits<char> > >, unsigned int>(unsigned int)::buf
PUBLIC 5e890 0 std::__1::num_get<wchar_t, std::__1::istreambuf_iterator<wchar_t, std::__1::char_traits<wchar_t> > >& std::__1::(anonymous namespace)::make<std::__1::num_get<wchar_t, std::__1::istreambuf_iterator<wchar_t, std::__1::char_traits<wchar_t> > >, unsigned int>(unsigned int)::buf
PUBLIC 5e8a0 0 std::__1::num_put<char, std::__1::ostreambuf_iterator<char, std::__1::char_traits<char> > >& std::__1::(anonymous namespace)::make<std::__1::num_put<char, std::__1::ostreambuf_iterator<char, std::__1::char_traits<char> > >, unsigned int>(unsigned int)::buf
PUBLIC 5e8b0 0 std::__1::num_put<wchar_t, std::__1::ostreambuf_iterator<wchar_t, std::__1::char_traits<wchar_t> > >& std::__1::(anonymous namespace)::make<std::__1::num_put<wchar_t, std::__1::ostreambuf_iterator<wchar_t, std::__1::char_traits<wchar_t> > >, unsigned int>(unsigned int)::buf
PUBLIC 5e8c0 0 std::__1::moneypunct<char, false>& std::__1::(anonymous namespace)::make<std::__1::moneypunct<char, false>, unsigned int>(unsigned int)::buf
PUBLIC 5e8d0 0 std::__1::moneypunct<char, true>& std::__1::(anonymous namespace)::make<std::__1::moneypunct<char, true>, unsigned int>(unsigned int)::buf
PUBLIC 5e8e0 0 std::__1::moneypunct<wchar_t, false>& std::__1::(anonymous namespace)::make<std::__1::moneypunct<wchar_t, false>, unsigned int>(unsigned int)::buf
PUBLIC 5e8f0 0 std::__1::moneypunct<wchar_t, true>& std::__1::(anonymous namespace)::make<std::__1::moneypunct<wchar_t, true>, unsigned int>(unsigned int)::buf
PUBLIC 5e900 0 std::__1::money_get<char, std::__1::istreambuf_iterator<char, std::__1::char_traits<char> > >& std::__1::(anonymous namespace)::make<std::__1::money_get<char, std::__1::istreambuf_iterator<char, std::__1::char_traits<char> > >, unsigned int>(unsigned int)::buf
PUBLIC 5e910 0 std::__1::money_get<wchar_t, std::__1::istreambuf_iterator<wchar_t, std::__1::char_traits<wchar_t> > >& std::__1::(anonymous namespace)::make<std::__1::money_get<wchar_t, std::__1::istreambuf_iterator<wchar_t, std::__1::char_traits<wchar_t> > >, unsigned int>(unsigned int)::buf
PUBLIC 5e920 0 std::__1::money_put<char, std::__1::ostreambuf_iterator<char, std::__1::char_traits<char> > >& std::__1::(anonymous namespace)::make<std::__1::money_put<char, std::__1::ostreambuf_iterator<char, std::__1::char_traits<char> > >, unsigned int>(unsigned int)::buf
PUBLIC 5e930 0 std::__1::money_put<wchar_t, std::__1::ostreambuf_iterator<wchar_t, std::__1::char_traits<wchar_t> > >& std::__1::(anonymous namespace)::make<std::__1::money_put<wchar_t, std::__1::ostreambuf_iterator<wchar_t, std::__1::char_traits<wchar_t> > >, unsigned int>(unsigned int)::buf
PUBLIC 5e940 0 std::__1::time_get<char, std::__1::istreambuf_iterator<char, std::__1::char_traits<char> > >& std::__1::(anonymous namespace)::make<std::__1::time_get<char, std::__1::istreambuf_iterator<char, std::__1::char_traits<char> > >, unsigned int>(unsigned int)::buf
PUBLIC 5e960 0 std::__1::time_get<wchar_t, std::__1::istreambuf_iterator<wchar_t, std::__1::char_traits<wchar_t> > >& std::__1::(anonymous namespace)::make<std::__1::time_get<wchar_t, std::__1::istreambuf_iterator<wchar_t, std::__1::char_traits<wchar_t> > >, unsigned int>(unsigned int)::buf
PUBLIC 5e980 0 std::__1::time_put<char, std::__1::ostreambuf_iterator<char, std::__1::char_traits<char> > >& std::__1::(anonymous namespace)::make<std::__1::time_put<char, std::__1::ostreambuf_iterator<char, std::__1::char_traits<char> > >, unsigned int>(unsigned int)::buf
PUBLIC 5e9a0 0 std::__1::time_put<wchar_t, std::__1::ostreambuf_iterator<wchar_t, std::__1::char_traits<wchar_t> > >& std::__1::(anonymous namespace)::make<std::__1::time_put<wchar_t, std::__1::ostreambuf_iterator<wchar_t, std::__1::char_traits<wchar_t> > >, unsigned int>(unsigned int)::buf
PUBLIC 5e9c0 0 std::__1::messages<char>& std::__1::(anonymous namespace)::make<std::__1::messages<char>, unsigned int>(unsigned int)::buf
PUBLIC 5e9d0 0 std::__1::messages<wchar_t>& std::__1::(anonymous namespace)::make<std::__1::messages<wchar_t>, unsigned int>(unsigned int)::buf
PUBLIC 5e9e0 0 std::__1::locale::__imp& std::__1::(anonymous namespace)::make<std::__1::locale::__imp, unsigned int>(unsigned int)::buf
PUBLIC 5eb20 0 std::__1::__get_sp_mut(void const*)::muts
PUBLIC 5eba0 0 guard variable for std::__1::__get_sp_mut(void const*)::muts
PUBLIC 5eba8 0 std::__1::__refstring_imp::(anonymous namespace)::get_gcc_empty_string_storage()::p
PUBLIC 5ebb0 0 guard variable for std::__1::__refstring_imp::(anonymous namespace)::get_gcc_empty_string_storage()::p
PUBLIC 5ebb8 0 std::__1::generic_category()::s
PUBLIC 5ebc0 0 guard variable for std::__1::generic_category()::s
PUBLIC 5ebc8 0 std::__1::system_category()::s
PUBLIC 5ebd0 0 guard variable for std::__1::system_category()::s
PUBLIC 5ebd8 0 std::__1::__thread_local_data()::__p
PUBLIC 5ebe0 0 guard variable for std::__1::__thread_local_data()::__p
STACK CFI INIT 69d0 b .cfa: $rsp 8 + .ra: .cfa -8 + ^
STACK CFI 69d1 .cfa: $rsp 16 +
