MODULE mac x86_64 B260AC33EB9A30C68746D011B3B02B080 libc++.dylib
PUBLIC 950 0 _GLOBAL__sub_I_iostream.cpp
PUBLIC 974 0 std::__1::ios_base::Init::Init()
PUBLIC d4c 0 std::__1::__stdinbuf<char>::__stdinbuf(__sFILE*, __mbstate_t*)
PUBLIC dce 0 std::__1::basic_streambuf<char, std::__1::char_traits<char> >::basic_streambuf()
PUBLIC e16 0 std::__1::locale::locale()
PUBLIC e2e 0 std::__1::locale::locale()
PUBLIC e56 0 std::__1::locale::__global()
PUBLIC ed2 0 std::__1::locale::classic()
PUBLIC f52 0 std::__1::locale::__imp::__imp(unsigned long)
PUBLIC 16e6 0 std::__1::vector<std::__1::locale::facet*, std::__1::__sso_allocator<std::__1::locale::facet*, 28ul> >::vector(unsigned long)
PUBLIC 174e 0 std::__1::vector<std::__1::locale::facet*, std::__1::__sso_allocator<std::__1::locale::facet*, 28ul> >::allocate(unsigned long)
PUBLIC 17ac 0 std::__1::locale::id::__get()
PUBLIC 180b 0 std::__1::__call_once(unsigned long volatile&, void*, void (*)(void*))
PUBLIC 192f 0 void std::__1::__call_once_proxy<std::__1::tuple<std::__1::(anonymous namespace)::__fake_bind&&> >(void*)
PUBLIC 1954 0 std::__1::locale::id::__init()
PUBLIC 196c 0 std::__1::locale::__imp::install(std::__1::locale::facet*, long)
PUBLIC 19f0 0 std::__1::__shared_count::__add_shared()
PUBLIC 1a00 0 std::__1::vector<std::__1::locale::facet*, std::__1::__sso_allocator<std::__1::locale::facet*, 28ul> >::resize(unsigned long)
PUBLIC 1a48 0 std::__1::vector<std::__1::locale::facet*, std::__1::__sso_allocator<std::__1::locale::facet*, 28ul> >::__append(unsigned long)
PUBLIC 1bd2 0 std::__1::locale::locale(std::__1::locale const&)
PUBLIC 1bf4 0 std::__1::__stdinbuf<char>::imbue(std::__1::locale const&)
PUBLIC 1c46 0 std::__1::locale::use_facet(std::__1::locale::id&) const
PUBLIC 1c76 0 std::__1::locale::__imp::use_facet(long) const
PUBLIC 1cd2 0 std::__1::codecvt<char, char, __mbstate_t>::do_encoding() const
PUBLIC 1cde 0 std::__1::codecvt<char, char, __mbstate_t>::do_always_noconv() const
PUBLIC 1ce6 0 std::__1::locale::~locale()
PUBLIC 1cfc 0 std::__1::__shared_count::__release_shared()
PUBLIC 1d2a 0 std::__1::ios_base::init(void*)
PUBLIC 1d94 0 std::__1::__stdinbuf<wchar_t>::__stdinbuf(__sFILE*, __mbstate_t*)
PUBLIC 1e1a 0 std::__1::basic_streambuf<wchar_t, std::__1::char_traits<wchar_t> >::basic_streambuf()
PUBLIC 1e5c 0 std::__1::__stdinbuf<wchar_t>::imbue(std::__1::locale const&)
PUBLIC 1eba 0 std::__1::codecvt<wchar_t, char, __mbstate_t>::do_encoding() const
PUBLIC 1f0e 0 std::__1::codecvt<wchar_t, char, __mbstate_t>::do_always_noconv() const
PUBLIC 1f1a 0 std::__1::__stdoutbuf<char>::__stdoutbuf(__sFILE*, __mbstate_t*)
PUBLIC 1faa 0 std::__1::__stdoutbuf<wchar_t>::__stdoutbuf(__sFILE*, __mbstate_t*)
PUBLIC 2040 0 std::__1::__shared_weak_count::__release_weak()
PUBLIC 2076 0 std::__1::basic_string<char, std::__1::char_traits<char>, std::__1::allocator<char> >::~basic_string()
PUBLIC 208c 0 std::__1::mutex::~mutex()
PUBLIC 20aa 0 std::__1::ios_base::Init::~Init()
PUBLIC 20b4 0 std::__1::ios_base::Init::~Init()
PUBLIC 2108 0 std::__1::basic_ostream<char, std::__1::char_traits<char> >::flush()
PUBLIC 21ce 0 std::__1::basic_ostream<char, std::__1::char_traits<char> >::sentry::sentry(std::__1::basic_ostream<char, std::__1::char_traits<char> >&)
PUBLIC 2216 0 std::__1::__stdoutbuf<char>::sync()
PUBLIC 22c4 0 std::__1::codecvt<char, char, __mbstate_t>::do_unshift(__mbstate_t&, char*, char*, char*&) const
PUBLIC 22d2 0 std::__1::basic_ostream<char, std::__1::char_traits<char> >::sentry::~sentry()
PUBLIC 235e 0 std::__1::basic_ostream<wchar_t, std::__1::char_traits<wchar_t> >::flush()
PUBLIC 2424 0 std::__1::basic_ostream<wchar_t, std::__1::char_traits<wchar_t> >::sentry::sentry(std::__1::basic_ostream<wchar_t, std::__1::char_traits<wchar_t> >&)
PUBLIC 2466 0 std::__1::__stdoutbuf<wchar_t>::sync()
PUBLIC 2514 0 std::__1::codecvt<wchar_t, char, __mbstate_t>::do_unshift(__mbstate_t&, char*, char*, char*&) const
PUBLIC 25b8 0 std::__1::basic_ostream<wchar_t, std::__1::char_traits<wchar_t> >::sentry::~sentry()
PUBLIC 264c 0 std::__1::basic_string<char, std::__1::char_traits<char>, std::__1::allocator<char> >::__grow_by(unsigned long, unsigned long, unsigned long, unsigned long, unsigned long, unsigned long)
PUBLIC 2752 0 std::__1::basic_string<char, std::__1::char_traits<char>, std::__1::allocator<char> >::basic_string(std::__1::basic_string<char, std::__1::char_traits<char>, std::__1::allocator<char> > const&)
PUBLIC 275c 0 std::__1::basic_string<char, std::__1::char_traits<char>, std::__1::allocator<char> >::basic_string(std::__1::basic_string<char, std::__1::char_traits<char>, std::__1::allocator<char> > const&)
PUBLIC 280e 0 std::__1::basic_string<char, std::__1::char_traits<char>, std::__1::allocator<char> >::operator=(std::__1::basic_string<char, std::__1::char_traits<char>, std::__1::allocator<char> > const&)
PUBLIC 2854 0 std::__1::basic_string<char, std::__1::char_traits<char>, std::__1::allocator<char> >::assign(char const*, unsigned long)
PUBLIC 28fc 0 std::__1::basic_string<char, std::__1::char_traits<char>, std::__1::allocator<char> >::__grow_by_and_replace(unsigned long, unsigned long, unsigned long, unsigned long, unsigned long, unsigned long, char const*)
PUBLIC 2a38 0 std::__1::basic_string<char, std::__1::char_traits<char>, std::__1::allocator<char> >::append(char const*)
PUBLIC 2a6e 0 std::__1::basic_string<char, std::__1::char_traits<char>, std::__1::allocator<char> >::append(char const*, unsigned long)
PUBLIC 2b20 0 std::__1::mutex::lock()
PUBLIC 2b46 0 std::__1::mutex::unlock()
PUBLIC 2b7e 0 std::__1::__next_prime(unsigned long)
PUBLIC 33e8 0 std::__1::basic_string<char, std::__1::char_traits<char>, std::__1::allocator<char> >::assign(char const*)
PUBLIC 3418 0 std::__1::basic_ostream<char, std::__1::char_traits<char> >::sentry::sentry(std::__1::basic_ostream<char, std::__1::char_traits<char> >&)
PUBLIC 3422 0 std::__1::ios_base::getloc() const
PUBLIC 3444 0 std::__1::ctype<char>::do_widen(char) const
PUBLIC 3452 0 std::__1::basic_streambuf<char, std::__1::char_traits<char> >::xsputn(char const*, long)
PUBLIC 34e8 0 std::__1::basic_string<char, std::__1::char_traits<char>, std::__1::allocator<char> >::push_back(char)
PUBLIC 3584 0 std::__1::basic_string<char, std::__1::char_traits<char>, std::__1::allocator<char> >::resize(unsigned long, char)
PUBLIC 35ca 0 std::__1::basic_string<char, std::__1::char_traits<char>, std::__1::allocator<char> >::append(unsigned long, char)
PUBLIC 369a 0 std::__1::basic_ostream<char, std::__1::char_traits<char> >::sentry::~sentry()
PUBLIC 36a4 0 std::__1::basic_streambuf<char, std::__1::char_traits<char> >::~basic_streambuf()
PUBLIC 36cc 0 std::__1::basic_ostream<char, std::__1::char_traits<char> >::~basic_ostream()
PUBLIC 36d8 0 std::__1::basic_ios<char, std::__1::char_traits<char> >::~basic_ios()
PUBLIC 36e6 0 std::__1::ios_base::~ios_base()
PUBLIC 375a 0 std::__1::basic_ostream<char, std::__1::char_traits<char> >::operator<<(unsigned long long)
PUBLIC 38f0 0 std::__1::num_put<char, std::__1::ostreambuf_iterator<char, std::__1::char_traits<char> > >::do_put(std::__1::ostreambuf_iterator<char, std::__1::char_traits<char> >, std::__1::ios_base&, char, unsigned long long) const
PUBLIC 3a36 0 std::__1::__num_put_base::__format_int(char*, char const*, bool, unsigned int)
PUBLIC 3a90 0 std::__1::__num_put_base::__identify_padding(char*, char*, std::__1::ios_base const&)
PUBLIC 3ad4 0 std::__1::__num_put<char>::__widen_and_group_int(char*, char*, char*, char*, char*&, char*&, std::__1::locale const&)
PUBLIC 3db2 0 std::__1::numpunct<char>::do_grouping() const
PUBLIC 3ddc 0 std::__1::ctype<char>::do_widen(char const*, char const*, char*) const
PUBLIC 3e0f 0 std::__1::ostreambuf_iterator<char, std::__1::char_traits<char> > std::__1::__pad_and_output<char, std::__1::char_traits<char> >(std::__1::ostreambuf_iterator<char, std::__1::char_traits<char> >, char const*, char const*, char const*, std::__1::ios_base&, char)
PUBLIC 3f7a 0 std::__1::basic_ostream<char, std::__1::char_traits<char> >::operator<<(long long)
PUBLIC 4116 0 std::__1::num_put<char, std::__1::ostreambuf_iterator<char, std::__1::char_traits<char> > >::do_put(std::__1::ostreambuf_iterator<char, std::__1::char_traits<char> >, std::__1::ios_base&, char, long long) const
PUBLIC 425e 0 std::__1::ios_base::imbue(std::__1::locale const&)
PUBLIC 42e2 0 std::__1::locale::operator=(std::__1::locale const&)
PUBLIC 4314 0 std::__1::basic_streambuf<char, std::__1::char_traits<char> >::imbue(std::__1::locale const&)
PUBLIC 431c 0 std::__1::basic_string<char, std::__1::char_traits<char>, std::__1::allocator<char> >::reserve(unsigned long)
PUBLIC 446e 0 std::__1::basic_string<char, std::__1::char_traits<char>, std::__1::allocator<char> >::replace(unsigned long, unsigned long, char const*, unsigned long)
PUBLIC 4634 0 std::__1::basic_string<char, std::__1::char_traits<char>, std::__1::allocator<char> >::basic_string(std::__1::basic_string<char, std::__1::char_traits<char>, std::__1::allocator<char> > const&, unsigned long, unsigned long, std::__1::allocator<char> const&)
PUBLIC 4648 0 std::__1::basic_string<char, std::__1::char_traits<char>, std::__1::allocator<char> >::basic_string(std::__1::basic_string<char, std::__1::char_traits<char>, std::__1::allocator<char> > const&, unsigned long, unsigned long, std::__1::allocator<char> const&)
PUBLIC 471a 0 std::__1::basic_string<char, std::__1::char_traits<char>, std::__1::allocator<char> >::insert(unsigned long, char const*)
PUBLIC 4750 0 std::__1::basic_string<char, std::__1::char_traits<char>, std::__1::allocator<char> >::insert(unsigned long, char const*, unsigned long)
PUBLIC 4858 0 std::__1::basic_string<char, std::__1::char_traits<char>, std::__1::allocator<char> >::rfind(char, unsigned long) const
PUBLIC 48ba 0 std::__1::basic_string<char, std::__1::char_traits<char>, std::__1::allocator<char> >::compare(unsigned long, unsigned long, char const*, unsigned long) const
PUBLIC 4932 0 std::exception_ptr::~exception_ptr()
PUBLIC 4946 0 std::__1::basic_string<char, std::__1::char_traits<char>, std::__1::allocator<char> > std::__1::operator+<char, std::__1::char_traits<char>, std::__1::allocator<char> >(char const*, std::__1::basic_string<char, std::__1::char_traits<char>, std::__1::allocator<char> > const&)
PUBLIC 4a5c 0 std::__1::__shared_weak_count::lock()
PUBLIC 4a88 0 void std::__1::__sort<std::__1::__less<unsigned int, unsigned int>&, unsigned int*>(unsigned int*, unsigned int*, std::__1::__less<unsigned int, unsigned int>&)
PUBLIC 4e00 0 void std::__1::__insertion_sort_3<std::__1::__less<unsigned int, unsigned int>&, unsigned int*>(unsigned int*, unsigned int*, std::__1::__less<unsigned int, unsigned int>&)
PUBLIC 4e88 0 unsigned int std::__1::__sort3<std::__1::__less<unsigned int, unsigned int>&, unsigned int*>(unsigned int*, unsigned int*, unsigned int*, std::__1::__less<unsigned int, unsigned int>&)
PUBLIC 4ef6 0 std::runtime_error::runtime_error(char const*)
PUBLIC 4f7e 0 std::__1::basic_string<char, std::__1::char_traits<char>, std::__1::allocator<char> >::erase(unsigned long, unsigned long)
PUBLIC 5010 0 std::__1::basic_string<char, std::__1::char_traits<char>, std::__1::allocator<char> >::compare(unsigned long, unsigned long, std::__1::basic_string<char, std::__1::char_traits<char>, std::__1::allocator<char> > const&, unsigned long, unsigned long) const
PUBLIC 510c 0 std::__1::basic_string_view<char, std::__1::char_traits<char> >::compare(std::__1::basic_string_view<char, std::__1::char_traits<char> >) const
PUBLIC 515a 0 std::__1::basic_ostream<char, std::__1::char_traits<char> >::operator<<(int)
PUBLIC 5316 0 std::__1::num_put<char, std::__1::ostreambuf_iterator<char, std::__1::char_traits<char> > >::do_put(std::__1::ostreambuf_iterator<char, std::__1::char_traits<char> >, std::__1::ios_base&, char, long) const
PUBLIC 545a 0 std::__1::basic_ostream<char, std::__1::char_traits<char> >::operator<<(unsigned int)
PUBLIC 55f2 0 std::__1::num_put<char, std::__1::ostreambuf_iterator<char, std::__1::char_traits<char> > >::do_put(std::__1::ostreambuf_iterator<char, std::__1::char_traits<char> >, std::__1::ios_base&, char, unsigned long) const
PUBLIC 573a 0 std::__1::basic_ostream<char, std::__1::char_traits<char> >::operator<<(long)
PUBLIC 58d4 0 std::__1::to_string(int)
PUBLIC 59d9 0 unsigned int std::__1::__sort5<std::__1::__less<unsigned int, unsigned int>&, unsigned int*>(unsigned int*, unsigned int*, unsigned int*, unsigned int*, unsigned int*, std::__1::__less<unsigned int, unsigned int>&)
PUBLIC 5a67 0 unsigned int std::__1::__sort4<std::__1::__less<unsigned int, unsigned int>&, unsigned int*>(unsigned int*, unsigned int*, unsigned int*, unsigned int*, std::__1::__less<unsigned int, unsigned int>&)
PUBLIC 5ad4 0 std::__1::locale::has_facet(std::__1::locale::id&) const
PUBLIC 5b0e 0 std::__1::ios_base::clear(unsigned int)
PUBLIC 5b98 0 std::__1::basic_istream<char, std::__1::char_traits<char> >::~basic_istream()
PUBLIC 5ba4 0 std::__1::basic_string<char, std::__1::char_traits<char>, std::__1::allocator<char> >::compare(char const*) const
PUBLIC 5be0 0 std::__1::ios_base::Init::Init()
PUBLIC 5bee 0 std::__1::basic_istream<char, std::__1::char_traits<char> >::sentry::sentry(std::__1::basic_istream<char, std::__1::char_traits<char> >&, bool)
PUBLIC 5bfc 0 std::__1::basic_istream<char, std::__1::char_traits<char> >::sentry::sentry(std::__1::basic_istream<char, std::__1::char_traits<char> >&, bool)
PUBLIC 5d84 0 std::__1::basic_streambuf<char, std::__1::char_traits<char> >::uflow()
PUBLIC 5dc0 0 std::__1::basic_string<char, std::__1::char_traits<char>, std::__1::allocator<char> >::find(char, unsigned long) const
PUBLIC 5e26 0 std::__1::strstreambuf::strstreambuf(long)
PUBLIC 5e5c 0 std::__1::strstreambuf::overflow(int)
PUBLIC 5f94 0 std::__1::basic_istream<char, std::__1::char_traits<char> >::operator>>(int&)
PUBLIC 60dc 0 std::__1::strstreambuf::underflow()
PUBLIC 6102 0 std::__1::num_get<char, std::__1::istreambuf_iterator<char, std::__1::char_traits<char> > >::do_get(std::__1::istreambuf_iterator<char, std::__1::char_traits<char> >, std::__1::istreambuf_iterator<char, std::__1::char_traits<char> >, std::__1::ios_base&, unsigned int&, long&) const
PUBLIC 610c 0 std::__1::istreambuf_iterator<char, std::__1::char_traits<char> > std::__1::num_get<char, std::__1::istreambuf_iterator<char, std::__1::char_traits<char> > >::__do_get_signed<long>(std::__1::istreambuf_iterator<char, std::__1::char_traits<char> >, std::__1::istreambuf_iterator<char, std::__1::char_traits<char> >, std::__1::ios_base&, unsigned int&, long&) const
PUBLIC 64ee 0 std::__1::__num_get<char>::__stage2_int_prep(std::__1::ios_base&, char*, char&)
PUBLIC 65ae 0 std::__1::numpunct<char>::do_thousands_sep() const
PUBLIC 65c0 0 std::__1::__num_get<char>::__stage2_int_loop(char, int, char*, char*&, unsigned int&, char, std::__1::basic_string<char, std::__1::char_traits<char>, std::__1::allocator<char> > const&, unsigned int*, unsigned int*&, char*)
PUBLIC 66f3 0 long long std::__1::__num_get_signed_integral<long long>(char const*, char const*, unsigned int&, int)
PUBLIC 66f5 0 long std::__1::__num_get_signed_integral<long>(char const*, char const*, unsigned int&, int)
PUBLIC 679d 0 std::__1::__check_grouping(std::__1::basic_string<char, std::__1::char_traits<char>, std::__1::allocator<char> > const&, unsigned int*, unsigned int*, unsigned int&)
PUBLIC 689e 0 std::__1::strstream::~strstream()
PUBLIC 68f6 0 std::__1::strstreambuf::~strstreambuf()
PUBLIC 6950 0 std::__1::basic_iostream<char, std::__1::char_traits<char> >::~basic_iostream()
PUBLIC 6962 0 std::__1::basic_istream<char, std::__1::char_traits<char> >::operator>>(double&)
PUBLIC 6a64 0 std::__1::num_get<char, std::__1::istreambuf_iterator<char, std::__1::char_traits<char> > >::do_get(std::__1::istreambuf_iterator<char, std::__1::char_traits<char> >, std::__1::istreambuf_iterator<char, std::__1::char_traits<char> >, std::__1::ios_base&, unsigned int&, double&) const
PUBLIC 6a6e 0 std::__1::istreambuf_iterator<char, std::__1::char_traits<char> > std::__1::num_get<char, std::__1::istreambuf_iterator<char, std::__1::char_traits<char> > >::__do_get_floating_point<double>(std::__1::istreambuf_iterator<char, std::__1::char_traits<char> >, std::__1::istreambuf_iterator<char, std::__1::char_traits<char> >, std::__1::ios_base&, unsigned int&, double&) const
PUBLIC 6e5e 0 std::__1::__num_get<char>::__stage2_float_prep(std::__1::ios_base&, char*, char&, char&)
PUBLIC 6f3a 0 std::__1::numpunct<char>::do_decimal_point() const
PUBLIC 6f4e 0 std::__1::__num_get<char>::__stage2_float_loop(char, bool&, char&, char*, char*&, char, char, std::__1::basic_string<char, std::__1::char_traits<char>, std::__1::allocator<char> > const&, unsigned int*, unsigned int*&, unsigned int&, char*)
PUBLIC 7136 0 double std::__1::__num_get_float<double>(char const*, char const*, unsigned int&)
PUBLIC 71c8 0 std::__1::recursive_mutex::recursive_mutex()
PUBLIC 71de 0 std::__1::recursive_mutex::recursive_mutex()
PUBLIC 7294 0 std::__1::recursive_mutex::lock()
PUBLIC 72b2 0 std::__1::recursive_mutex::unlock()
PUBLIC 72f0 0 std::__1::basic_string<char, std::__1::char_traits<char>, std::__1::allocator<char> >::copy(char*, unsigned long, unsigned long) const
PUBLIC 735a 0 std::__1::basic_ostream<char, std::__1::char_traits<char> >::operator<<(unsigned long)
PUBLIC 74f6 0 std::__1::basic_ostream<char, std::__1::char_traits<char> >::operator<<(short)
PUBLIC 76b0 0 std::__1::__get_sp_mut(void const*)
PUBLIC 7868 0 std::__1::__sp_mut::lock()
PUBLIC 78aa 0 std::__1::__sp_mut::unlock()
PUBLIC 78ca 0 std::__1::to_string(unsigned int)
PUBLIC 79c6 0 std::__1::basic_string<char, std::__1::char_traits<char>, std::__1::allocator<char> >::find(char const*, unsigned long, unsigned long) const
PUBLIC 7a9c 0 std::__1::chrono::steady_clock::now()
PUBLIC 7ae6 0 std::__1::__thread_struct::__thread_struct()
PUBLIC 7b20 0 std::__1::thread::~thread()
PUBLIC 7b3b 0 std::__1::__thread_local_data()
PUBLIC 7ba2 0 std::__1::__thread_specific_ptr<std::__1::__thread_struct>::__thread_specific_ptr()
PUBLIC 7bc8 0 std::__1::condition_variable::wait(std::__1::unique_lock<std::__1::mutex>&)
PUBLIC 7c14 0 std::__1::condition_variable::notify_all()
PUBLIC 7c30 0 std::__1::chrono::system_clock::now()
PUBLIC 7ca4 0 std::__1::condition_variable::__do_timed_wait(std::__1::unique_lock<std::__1::mutex>&, std::__1::chrono::time_point<std::__1::chrono::system_clock, std::__1::chrono::duration<long long, std::__1::ratio<1l, 1000000000l> > >)
PUBLIC 7d4c 0 void std::__1::__sort<std::__1::__less<unsigned long, unsigned long>&, unsigned long*>(unsigned long*, unsigned long*, std::__1::__less<unsigned long, unsigned long>&)
PUBLIC 80e1 0 void std::__1::__insertion_sort_3<std::__1::__less<unsigned long long, unsigned long long>&, unsigned long long*>(unsigned long long*, unsigned long long*, std::__1::__less<unsigned long long, unsigned long long>&)
PUBLIC 80e9 0 void std::__1::__insertion_sort_3<std::__1::__less<unsigned long, unsigned long>&, unsigned long*>(unsigned long*, unsigned long*, std::__1::__less<unsigned long, unsigned long>&)
PUBLIC 8170 0 unsigned int std::__1::__sort3<std::__1::__less<unsigned long long, unsigned long long>&, unsigned long long*>(unsigned long long*, unsigned long long*, unsigned long long*, std::__1::__less<unsigned long long, unsigned long long>&)
PUBLIC 8178 0 unsigned int std::__1::__sort3<std::__1::__less<unsigned long, unsigned long>&, unsigned long*>(unsigned long*, unsigned long*, unsigned long*, std::__1::__less<unsigned long, unsigned long>&)
PUBLIC 81e4 0 std::__1::basic_string<char, std::__1::char_traits<char>, std::__1::allocator<char> >::__init(char const*, unsigned long)
PUBLIC 8260 0 void std::__1::__sort<std::__1::__less<double, double>&, double*>(double*, double*, std::__1::__less<double, double>&)
PUBLIC 8620 0 std::__1::condition_variable::notify_one()
PUBLIC 863c 0 std::__1::condition_variable::~condition_variable()
PUBLIC 865c 0 bool std::__1::__insertion_sort_incomplete<std::__1::__less<unsigned long, unsigned long>&, unsigned long*>(unsigned long*, unsigned long*, std::__1::__less<unsigned long, unsigned long>&)
PUBLIC 87b0 0 void std::__1::__sort<std::__1::__less<unsigned char, unsigned char>&, unsigned char*>(unsigned char*, unsigned char*, std::__1::__less<unsigned char, unsigned char>&)
PUBLIC 8af4 0 void std::__1::__insertion_sort_3<std::__1::__less<unsigned char, unsigned char>&, unsigned char*>(unsigned char*, unsigned char*, std::__1::__less<unsigned char, unsigned char>&)
PUBLIC 8b7c 0 unsigned int std::__1::__sort3<std::__1::__less<unsigned char, unsigned char>&, unsigned char*>(unsigned char*, unsigned char*, unsigned char*, std::__1::__less<unsigned char, unsigned char>&)
PUBLIC 8be2 0 std::__1::align(unsigned long, unsigned long, void*&, unsigned long&)
PUBLIC 8c1e 0 std::__1::basic_string<char, std::__1::char_traits<char>, std::__1::allocator<char> >::compare(unsigned long, unsigned long, char const*) const
PUBLIC 8c5c 0 bool std::__1::__insertion_sort_incomplete<std::__1::__less<unsigned int, unsigned int>&, unsigned int*>(unsigned int*, unsigned int*, std::__1::__less<unsigned int, unsigned int>&)
PUBLIC 8db2 0 std::runtime_error::runtime_error(char const*)
PUBLIC 8dc2 0 std::__1::basic_istream<char, std::__1::char_traits<char> >::operator>>(unsigned long&)
PUBLIC 8eca 0 std::__1::num_get<char, std::__1::istreambuf_iterator<char, std::__1::char_traits<char> > >::do_get(std::__1::istreambuf_iterator<char, std::__1::char_traits<char> >, std::__1::istreambuf_iterator<char, std::__1::char_traits<char> >, std::__1::ios_base&, unsigned int&, unsigned long&) const
PUBLIC 8ed4 0 std::__1::istreambuf_iterator<char, std::__1::char_traits<char> > std::__1::num_get<char, std::__1::istreambuf_iterator<char, std::__1::char_traits<char> > >::__do_get_unsigned<unsigned long>(std::__1::istreambuf_iterator<char, std::__1::char_traits<char> >, std::__1::istreambuf_iterator<char, std::__1::char_traits<char> >, std::__1::ios_base&, unsigned int&, unsigned long&) const
PUBLIC 92b9 0 unsigned long long std::__1::__num_get_unsigned_integral<unsigned long long>(char const*, char const*, unsigned int&, int)
PUBLIC 92bb 0 unsigned long std::__1::__num_get_unsigned_integral<unsigned long>(char const*, char const*, unsigned int&, int)
PUBLIC 935a 0 std::__1::system_category()
PUBLIC 93a2 0 std::__1::basic_string<char, std::__1::char_traits<char>, std::__1::allocator<char> >::replace(unsigned long, unsigned long, char const*)
PUBLIC 93ec 0 std::__1::to_string(long long)
PUBLIC 94e4 0 std::__1::basic_ostream<char, std::__1::char_traits<char> >::operator<<(bool)
PUBLIC 967a 0 std::__1::num_put<char, std::__1::ostreambuf_iterator<char, std::__1::char_traits<char> > >::do_put(std::__1::ostreambuf_iterator<char, std::__1::char_traits<char> >, std::__1::ios_base&, char, bool) const
PUBLIC 97da 0 std::__1::basic_ostream<char, std::__1::char_traits<char> >::operator<<(float)
PUBLIC 9978 0 std::__1::num_put<char, std::__1::ostreambuf_iterator<char, std::__1::char_traits<char> > >::do_put(std::__1::ostreambuf_iterator<char, std::__1::char_traits<char> >, std::__1::ios_base&, char, double) const
PUBLIC 9c12 0 std::__1::__num_put_base::__format_float(char*, char const*, unsigned int)
PUBLIC 9ca8 0 std::__1::__num_put<char>::__widen_and_group_float(char*, char*, char*, char*, char*&, char*&, std::__1::locale const&)
PUBLIC a07c 0 std::__1::promise<void>::promise()
PUBLIC a0fa 0 std::__1::promise<void>::get_future()
PUBLIC a174 0 std::__1::future<void>::future(std::__1::__assoc_sub_state*)
PUBLIC a214 0 std::__1::future<void>::~future()
PUBLIC a22e 0 std::__1::promise<void>::set_value()
PUBLIC a29e 0 std::__1::__assoc_sub_state::set_value()
PUBLIC a372 0 std::__1::basic_istream<char, std::__1::char_traits<char> >::peek()
PUBLIC a440 0 std::__1::basic_istream<char, std::__1::char_traits<char> >::get()
PUBLIC a528 0 std::__1::__codecvt_utf8_utf16<char16_t>::do_in(__mbstate_t&, char const*, char const*, char const*&, char16_t*, char16_t*, char16_t*&) const
PUBLIC a593 0 std::__1::utf8_to_utf16(unsigned char const*, unsigned char const*, unsigned char const*&, unsigned short*, unsigned short*, unsigned short*&, unsigned long, std::__1::codecvt_mode)
PUBLIC a844 0 std::__1::codecvt<char16_t, char, __mbstate_t>::~codecvt()
PUBLIC a84e 0 std::__1::__shared_count::~__shared_count()
PUBLIC a858 0 std::__1::to_string(float)
PUBLIC a95a 0 std::__1::basic_ostream<char, std::__1::char_traits<char> >::operator<<(void const*)
PUBLIC aaee 0 std::__1::num_put<char, std::__1::ostreambuf_iterator<char, std::__1::char_traits<char> > >::do_put(std::__1::ostreambuf_iterator<char, std::__1::char_traits<char> >, std::__1::ios_base&, char, void const*) const
PUBLIC ac32 0 std::__1::basic_ostream<char, std::__1::char_traits<char> >::operator<<(double)
PUBLIC add0 0 std::__1::promise<void>::~promise()
PUBLIC adda 0 std::__1::promise<void>::~promise()
PUBLIC aeac 0 std::__1::__assoc_sub_state::__on_zero_shared()
PUBLIC aec4 0 std::__1::__assoc_sub_state::~__assoc_sub_state()
PUBLIC af12 0 std::__1::__shared_weak_count::__add_shared()
PUBLIC af2a 0 std::__1::__shared_weak_count::__release_shared()
PUBLIC af8e 0 std::__1::__shared_weak_count::__add_weak()
PUBLIC af9b 0 std::__1::this_thread::sleep_for(std::__1::chrono::duration<long long, std::__1::ratio<1l, 1000000000l> > const&)
PUBLIC b01a 0 std::__1::basic_string<char, std::__1::char_traits<char>, std::__1::allocator<char> >::__init(char const*, unsigned long, unsigned long)
PUBLIC b09e 0 std::__1::mutex::try_lock()
PUBLIC b0c0 0 std::__1::mutex::~mutex()
PUBLIC b0ec 0 std::__1::basic_ostream<char, std::__1::char_traits<char> >::write(char const*, long)
PUBLIC b1da 0 std::__1::random_device::random_device(std::__1::basic_string<char, std::__1::char_traits<char>, std::__1::allocator<char> > const&)
PUBLIC b1f0 0 std::__1::random_device::random_device(std::__1::basic_string<char, std::__1::char_traits<char>, std::__1::allocator<char> > const&)
PUBLIC b286 0 std::__1::random_device::operator()()
PUBLIC b2fc 0 std::__1::random_device::~random_device()
PUBLIC b314 0 std::__1::random_device::~random_device()
PUBLIC b330 0 void std::__1::__sort<std::__1::__less<long long, long long>&, long long*>(long long*, long long*, std::__1::__less<long long, long long>&)
PUBLIC b6c4 0 unsigned int std::__1::__sort3<std::__1::__less<long, long>&, long*>(long*, long*, long*, std::__1::__less<long, long>&)
PUBLIC b6cc 0 unsigned int std::__1::__sort3<std::__1::__less<long long, long long>&, long long*>(long long*, long long*, long long*, std::__1::__less<long long, long long>&)
PUBLIC b73d 0 unsigned int std::__1::__sort4<std::__1::__less<long, long>&, long*>(long*, long*, long*, long*, std::__1::__less<long, long>&)
PUBLIC b745 0 unsigned int std::__1::__sort4<std::__1::__less<long long, long long>&, long long*>(long long*, long long*, long long*, long long*, std::__1::__less<long long, long long>&)
PUBLIC b7b2 0 unsigned int std::__1::__sort5<std::__1::__less<unsigned long long, unsigned long long>&, unsigned long long*>(unsigned long long*, unsigned long long*, unsigned long long*, unsigned long long*, unsigned long long*, std::__1::__less<unsigned long long, unsigned long long>&)
PUBLIC b7ba 0 unsigned int std::__1::__sort5<std::__1::__less<unsigned long, unsigned long>&, unsigned long*>(unsigned long*, unsigned long*, unsigned long*, unsigned long*, unsigned long*, std::__1::__less<unsigned long, unsigned long>&)
PUBLIC b849 0 unsigned int std::__1::__sort4<std::__1::__less<unsigned long long, unsigned long long>&, unsigned long long*>(unsigned long long*, unsigned long long*, unsigned long long*, unsigned long long*, std::__1::__less<unsigned long long, unsigned long long>&)
PUBLIC b851 0 unsigned int std::__1::__sort4<std::__1::__less<unsigned long, unsigned long>&, unsigned long*>(unsigned long*, unsigned long*, unsigned long*, unsigned long*, std::__1::__less<unsigned long, unsigned long>&)
PUBLIC b8c5 0 void std::__1::__insertion_sort_3<std::__1::__less<long, long>&, long*>(long*, long*, std::__1::__less<long, long>&)
PUBLIC b8cd 0 void std::__1::__insertion_sort_3<std::__1::__less<long long, long long>&, long long*>(long long*, long long*, std::__1::__less<long long, long long>&)
PUBLIC b95a 0 std::__1::basic_string<char, std::__1::char_traits<char>, std::__1::allocator<char> >::rfind(char const*, unsigned long, unsigned long) const
PUBLIC ba7c 0 std::__1::basic_string<char, std::__1::char_traits<char>, std::__1::allocator<char> >::__init(unsigned long, char)
PUBLIC bafa 0 std::__1::basic_istream<char, std::__1::char_traits<char> >::operator>>(unsigned long long&)
PUBLIC bbfc 0 std::__1::num_get<char, std::__1::istreambuf_iterator<char, std::__1::char_traits<char> > >::do_get(std::__1::istreambuf_iterator<char, std::__1::char_traits<char> >, std::__1::istreambuf_iterator<char, std::__1::char_traits<char> >, std::__1::ios_base&, unsigned int&, unsigned long long&) const
PUBLIC bc06 0 std::__1::basic_istream<char, std::__1::char_traits<char> >::operator>>(float&)
PUBLIC bd0e 0 std::__1::num_get<char, std::__1::istreambuf_iterator<char, std::__1::char_traits<char> > >::do_get(std::__1::istreambuf_iterator<char, std::__1::char_traits<char> >, std::__1::istreambuf_iterator<char, std::__1::char_traits<char> >, std::__1::ios_base&, unsigned int&, float&) const
PUBLIC bd27 0 float std::__1::__num_get_float<float>(char const*, char const*, unsigned int&)
PUBLIC bdb6 0 std::uncaught_exception()
PUBLIC bdd2 0 std::__1::basic_string<char, std::__1::char_traits<char>, std::__1::allocator<char> >::~basic_string()
PUBLIC bdf0 0 std::__1::condition_variable::~condition_variable()
PUBLIC be10 0 void std::__1::__sort<std::__1::__less<char, char>&, char*>(char*, char*, std::__1::__less<char, char>&)
PUBLIC c14c 0 unsigned int std::__1::__sort3<std::__1::__less<signed char, signed char>&, signed char*>(signed char*, signed char*, signed char*, std::__1::__less<signed char, signed char>&)
PUBLIC c1ab 0 unsigned int std::__1::__sort4<std::__1::__less<signed char, signed char>&, signed char*>(signed char*, signed char*, signed char*, signed char*, std::__1::__less<signed char, signed char>&)
PUBLIC c20d 0 unsigned int std::__1::__sort5<std::__1::__less<signed char, signed char>&, signed char*>(signed char*, signed char*, signed char*, signed char*, signed char*, std::__1::__less<signed char, signed char>&)
PUBLIC c294 0 void std::__1::__insertion_sort_3<std::__1::__less<signed char, signed char>&, signed char*>(signed char*, signed char*, std::__1::__less<signed char, signed char>&)
PUBLIC c311 0 bool std::__1::__insertion_sort_incomplete<std::__1::__less<char, char>&, char*>(char*, char*, std::__1::__less<char, char>&)
PUBLIC c450 0 void std::__1::__sort<std::__1::__less<wchar_t, wchar_t>&, wchar_t*>(wchar_t*, wchar_t*, std::__1::__less<wchar_t, wchar_t>&)
PUBLIC c7c8 0 unsigned int std::__1::__sort3<std::__1::__less<int, int>&, int*>(int*, int*, int*, std::__1::__less<int, int>&)
PUBLIC c7d0 0 unsigned int std::__1::__sort3<std::__1::__less<wchar_t, wchar_t>&, wchar_t*>(wchar_t*, wchar_t*, wchar_t*, std::__1::__less<wchar_t, wchar_t>&)
PUBLIC c837 0 unsigned int std::__1::__sort4<std::__1::__less<int, int>&, int*>(int*, int*, int*, int*, std::__1::__less<int, int>&)
PUBLIC c83f 0 unsigned int std::__1::__sort4<std::__1::__less<wchar_t, wchar_t>&, wchar_t*>(wchar_t*, wchar_t*, wchar_t*, wchar_t*, std::__1::__less<wchar_t, wchar_t>&)
PUBLIC c8a9 0 unsigned int std::__1::__sort5<std::__1::__less<int, int>&, int*>(int*, int*, int*, int*, int*, std::__1::__less<int, int>&)
PUBLIC c8b1 0 unsigned int std::__1::__sort5<std::__1::__less<wchar_t, wchar_t>&, wchar_t*>(wchar_t*, wchar_t*, wchar_t*, wchar_t*, wchar_t*, std::__1::__less<wchar_t, wchar_t>&)
PUBLIC c940 0 void std::__1::__insertion_sort_3<std::__1::__less<int, int>&, int*>(int*, int*, std::__1::__less<int, int>&)
PUBLIC c948 0 void std::__1::__insertion_sort_3<std::__1::__less<wchar_t, wchar_t>&, wchar_t*>(wchar_t*, wchar_t*, std::__1::__less<wchar_t, wchar_t>&)
PUBLIC c9c4 0 bool std::__1::__insertion_sort_incomplete<std::__1::__less<wchar_t, wchar_t>&, wchar_t*>(wchar_t*, wchar_t*, std::__1::__less<wchar_t, wchar_t>&)
PUBLIC cb10 0 void std::__1::__sort<std::__1::__less<signed char, signed char>&, signed char*>(signed char*, signed char*, std::__1::__less<signed char, signed char>&)
PUBLIC ce51 0 bool std::__1::__insertion_sort_incomplete<std::__1::__less<signed char, signed char>&, signed char*>(signed char*, signed char*, std::__1::__less<signed char, signed char>&)
PUBLIC cf9b 0 unsigned int std::__1::__sort4<std::__1::__less<unsigned char, unsigned char>&, unsigned char*>(unsigned char*, unsigned char*, unsigned char*, unsigned char*, std::__1::__less<unsigned char, unsigned char>&)
PUBLIC cffd 0 unsigned int std::__1::__sort5<std::__1::__less<unsigned char, unsigned char>&, unsigned char*>(unsigned char*, unsigned char*, unsigned char*, unsigned char*, unsigned char*, std::__1::__less<unsigned char, unsigned char>&)
PUBLIC d091 0 bool std::__1::__insertion_sort_incomplete<std::__1::__less<unsigned char, unsigned char>&, unsigned char*>(unsigned char*, unsigned char*, std::__1::__less<unsigned char, unsigned char>&)
PUBLIC d1d0 0 void std::__1::__sort<std::__1::__less<short, short>&, short*>(short*, short*, std::__1::__less<short, short>&)
PUBLIC d55c 0 unsigned int std::__1::__sort3<std::__1::__less<short, short>&, short*>(short*, short*, short*, std::__1::__less<short, short>&)
PUBLIC d5d0 0 unsigned int std::__1::__sort4<std::__1::__less<short, short>&, short*>(short*, short*, short*, short*, std::__1::__less<short, short>&)
PUBLIC d641 0 unsigned int std::__1::__sort5<std::__1::__less<short, short>&, short*>(short*, short*, short*, short*, short*, std::__1::__less<short, short>&)
PUBLIC d6dc 0 void std::__1::__insertion_sort_3<std::__1::__less<short, short>&, short*>(short*, short*, std::__1::__less<short, short>&)
PUBLIC d75f 0 bool std::__1::__insertion_sort_incomplete<std::__1::__less<short, short>&, short*>(short*, short*, std::__1::__less<short, short>&)
PUBLIC d8b4 0 void std::__1::__sort<std::__1::__less<unsigned short, unsigned short>&, unsigned short*>(unsigned short*, unsigned short*, std::__1::__less<unsigned short, unsigned short>&)
PUBLIC dc40 0 unsigned int std::__1::__sort3<std::__1::__less<unsigned short, unsigned short>&, unsigned short*>(unsigned short*, unsigned short*, unsigned short*, std::__1::__less<unsigned short, unsigned short>&)
PUBLIC dcb4 0 unsigned int std::__1::__sort4<std::__1::__less<unsigned short, unsigned short>&, unsigned short*>(unsigned short*, unsigned short*, unsigned short*, unsigned short*, std::__1::__less<unsigned short, unsigned short>&)
PUBLIC dd25 0 unsigned int std::__1::__sort5<std::__1::__less<unsigned short, unsigned short>&, unsigned short*>(unsigned short*, unsigned short*, unsigned short*, unsigned short*, unsigned short*, std::__1::__less<unsigned short, unsigned short>&)
PUBLIC ddc0 0 void std::__1::__insertion_sort_3<std::__1::__less<unsigned short, unsigned short>&, unsigned short*>(unsigned short*, unsigned short*, std::__1::__less<unsigned short, unsigned short>&)
PUBLIC de43 0 bool std::__1::__insertion_sort_incomplete<std::__1::__less<unsigned short, unsigned short>&, unsigned short*>(unsigned short*, unsigned short*, std::__1::__less<unsigned short, unsigned short>&)
PUBLIC df98 0 void std::__1::__sort<std::__1::__less<int, int>&, int*>(int*, int*, std::__1::__less<int, int>&)
PUBLIC e30c 0 bool std::__1::__insertion_sort_incomplete<std::__1::__less<int, int>&, int*>(int*, int*, std::__1::__less<int, int>&)
PUBLIC e458 0 void std::__1::__sort<std::__1::__less<long, long>&, long*>(long*, long*, std::__1::__less<long, long>&)
PUBLIC e7ee 0 unsigned int std::__1::__sort5<std::__1::__less<long long, long long>&, long long*>(long long*, long long*, long long*, long long*, long long*, std::__1::__less<long long, long long>&)
PUBLIC e7f6 0 unsigned int std::__1::__sort5<std::__1::__less<long, long>&, long*>(long*, long*, long*, long*, long*, std::__1::__less<long, long>&)
PUBLIC e888 0 bool std::__1::__insertion_sort_incomplete<std::__1::__less<long, long>&, long*>(long*, long*, std::__1::__less<long, long>&)
PUBLIC e9e0 0 bool std::__1::__insertion_sort_incomplete<std::__1::__less<long long, long long>&, long long*>(long long*, long long*, std::__1::__less<long long, long long>&)
PUBLIC eb34 0 void std::__1::__sort<std::__1::__less<unsigned long long, unsigned long long>&, unsigned long long*>(unsigned long long*, unsigned long long*, std::__1::__less<unsigned long long, unsigned long long>&)
PUBLIC eec4 0 bool std::__1::__insertion_sort_incomplete<std::__1::__less<unsigned long long, unsigned long long>&, unsigned long long*>(unsigned long long*, unsigned long long*, std::__1::__less<unsigned long long, unsigned long long>&)
PUBLIC f018 0 void std::__1::__sort<std::__1::__less<float, float>&, float*>(float*, float*, std::__1::__less<float, float>&)
PUBLIC f3c8 0 unsigned int std::__1::__sort3<std::__1::__less<float, float>&, float*>(float*, float*, float*, std::__1::__less<float, float>&)
PUBLIC f441 0 unsigned int std::__1::__sort4<std::__1::__less<float, float>&, float*>(float*, float*, float*, float*, std::__1::__less<float, float>&)
PUBLIC f4be 0 unsigned int std::__1::__sort5<std::__1::__less<float, float>&, float*>(float*, float*, float*, float*, float*, std::__1::__less<float, float>&)
PUBLIC f569 0 void std::__1::__insertion_sort_3<std::__1::__less<float, float>&, float*>(float*, float*, std::__1::__less<float, float>&)
PUBLIC f5f2 0 bool std::__1::__insertion_sort_incomplete<std::__1::__less<float, float>&, float*>(float*, float*, std::__1::__less<float, float>&)
PUBLIC f750 0 unsigned int std::__1::__sort3<std::__1::__less<double, double>&, double*>(double*, double*, double*, std::__1::__less<double, double>&)
PUBLIC f7ce 0 unsigned int std::__1::__sort4<std::__1::__less<double, double>&, double*>(double*, double*, double*, double*, std::__1::__less<double, double>&)
PUBLIC f84e 0 unsigned int std::__1::__sort5<std::__1::__less<double, double>&, double*>(double*, double*, double*, double*, double*, std::__1::__less<double, double>&)
PUBLIC f8fd 0 void std::__1::__insertion_sort_3<std::__1::__less<double, double>&, double*>(double*, double*, std::__1::__less<double, double>&)
PUBLIC f98a 0 bool std::__1::__insertion_sort_incomplete<std::__1::__less<double, double>&, double*>(double*, double*, std::__1::__less<double, double>&)
PUBLIC faec 0 void std::__1::__sort<std::__1::__less<long double, long double>&, long double*>(long double*, long double*, std::__1::__less<long double, long double>&)
PUBLIC fee8 0 unsigned int std::__1::__sort3<std::__1::__less<long double, long double>&, long double*>(long double*, long double*, long double*, std::__1::__less<long double, long double>&)
PUBLIC ff72 0 unsigned int std::__1::__sort4<std::__1::__less<long double, long double>&, long double*>(long double*, long double*, long double*, long double*, std::__1::__less<long double, long double>&)
PUBLIC ffea 0 unsigned int std::__1::__sort5<std::__1::__less<long double, long double>&, long double*>(long double*, long double*, long double*, long double*, long double*, std::__1::__less<long double, long double>&)
PUBLIC 1008d 0 void std::__1::__insertion_sort_3<std::__1::__less<long double, long double>&, long double*>(long double*, long double*, std::__1::__less<long double, long double>&)
PUBLIC 10117 0 bool std::__1::__insertion_sort_incomplete<std::__1::__less<long double, long double>&, long double*>(long double*, long double*, std::__1::__less<long double, long double>&)
PUBLIC 10274 0 std::__1::__rs_default::__rs_default()
PUBLIC 10290 0 std::__1::__rs_default::__rs_default()
PUBLIC 102ac 0 std::__1::__rs_default::__rs_default(std::__1::__rs_default const&)
PUBLIC 102b8 0 std::__1::__rs_default::__rs_default(std::__1::__rs_default const&)
PUBLIC 102c4 0 std::__1::__rs_default::~__rs_default()
PUBLIC 102f0 0 __clang_call_terminate
PUBLIC 102fc 0 std::__1::__rs_default::~__rs_default()
PUBLIC 10306 0 std::__1::__rs_default::operator()()
PUBLIC 10384 0 std::__1::mersenne_twister_engine<unsigned int, 32ul, 624ul, 397ul, 31ul, 2567483615u, 11ul, 4294967295u, 7ul, 2636928640u, 15ul, 4022730752u, 18ul, 1812433253u>::operator()()
PUBLIC 10437 0 std::__1::__rs_get()
PUBLIC 1046c 0 std::__1::chrono::system_clock::to_time_t(std::__1::chrono::time_point<std::__1::chrono::system_clock, std::__1::chrono::duration<long long, std::__1::ratio<1l, 1000000l> > > const&)
PUBLIC 1048e 0 std::__1::chrono::system_clock::from_time_t(long)
PUBLIC 104a3 0 std::__1::notify_all_at_thread_exit(std::__1::condition_variable&, std::__1::unique_lock<std::__1::mutex>)
PUBLIC 1052c 0 std::uncaught_exceptions()
PUBLIC 10536 0 std::exception_ptr::~exception_ptr()
PUBLIC 10544 0 std::exception_ptr::exception_ptr(std::exception_ptr const&)
PUBLIC 10558 0 std::exception_ptr::exception_ptr(std::exception_ptr const&)
PUBLIC 1056c 0 std::exception_ptr::operator=(std::exception_ptr const&)
PUBLIC 1059c 0 std::nested_exception::nested_exception()
PUBLIC 105bf 0 std::current_exception()
PUBLIC 105da 0 std::nested_exception::nested_exception()
PUBLIC 105fe 0 std::nested_exception::~nested_exception()
PUBLIC 10616 0 std::nested_exception::~nested_exception()
PUBLIC 1062e 0 std::nested_exception::~nested_exception()
PUBLIC 10658 0 std::nested_exception::rethrow_nested() const
PUBLIC 106ae 0 std::rethrow_exception(std::exception_ptr)
PUBLIC 106c0 0 std::__1::__future_error_category::name() const
PUBLIC 106ce 0 std::__1::__future_error_category::message(int) const
PUBLIC 108c8 0 std::__1::future_category()
PUBLIC 10918 0 std::__1::__future_error_category::~__future_error_category()
PUBLIC 10922 0 std::__1::future_error::future_error(std::__1::error_code)
PUBLIC 109a2 0 std::__1::future_error::future_error(std::__1::error_code)
PUBLIC 109ac 0 std::__1::future_error::~future_error()
PUBLIC 109b6 0 std::__1::future_error::~future_error()
PUBLIC 109c0 0 std::__1::future_error::~future_error()
PUBLIC 109e6 0 std::__1::__assoc_sub_state::set_value_at_thread_exit()
PUBLIC 10aba 0 std::__1::__assoc_sub_state::set_exception(std::exception_ptr)
PUBLIC 10b92 0 std::__1::__assoc_sub_state::set_exception_at_thread_exit(std::exception_ptr)
PUBLIC 10c6e 0 std::__1::__assoc_sub_state::__make_ready()
PUBLIC 10ca4 0 std::__1::__assoc_sub_state::copy()
PUBLIC 10d4e 0 std::__1::__assoc_sub_state::__sub_wait(std::__1::unique_lock<std::__1::mutex>&)
PUBLIC 10db6 0 std::__1::__assoc_sub_state::wait()
PUBLIC 10e18 0 std::__1::unique_lock<std::__1::mutex>::unlock()
PUBLIC 10e4c 0 std::__1::__assoc_sub_state::__execute()
PUBLIC 10ea6 0 std::__1::future<void>::future(std::__1::__assoc_sub_state*)
PUBLIC 10eb0 0 std::__1::future<void>::~future()
PUBLIC 10ec8 0 std::__1::future<void>::get()
PUBLIC 10f0e 0 std::__1::promise<void>::promise()
PUBLIC 10f9b 0 std::exception_ptr std::make_exception_ptr<std::__1::future_error>(std::__1::future_error)
PUBLIC 11028 0 std::__1::promise<void>::set_exception(std::exception_ptr)
PUBLIC 110c4 0 std::__1::promise<void>::set_value_at_thread_exit()
PUBLIC 1112e 0 std::__1::promise<void>::set_exception_at_thread_exit(std::exception_ptr)
PUBLIC 111ca 0 std::__1::shared_future<void>::~shared_future()
PUBLIC 111de 0 std::__1::shared_future<void>::~shared_future()
PUBLIC 111f2 0 std::__1::shared_future<void>::operator=(std::__1::shared_future<void> const&)
PUBLIC 11228 0 std::__1::__assoc_sub_state::~__assoc_sub_state()
PUBLIC 11268 0 std::__1::__future_error_category::~__future_error_category()
PUBLIC 11290 0 std::__1::basic_ios<char, std::__1::char_traits<char> >::operator bool() const
PUBLIC 1129e 0 std::__1::basic_ios<char, std::__1::char_traits<char> >::fail() const
PUBLIC 112ac 0 std::__1::basic_ios<char, std::__1::char_traits<char> >::operator!() const
PUBLIC 112ba 0 std::__1::basic_ios<char, std::__1::char_traits<char> >::rdstate() const
PUBLIC 112c4 0 std::__1::basic_ios<char, std::__1::char_traits<char> >::clear(unsigned int)
PUBLIC 112d0 0 std::__1::basic_ios<char, std::__1::char_traits<char> >::setstate(unsigned int)
PUBLIC 112de 0 std::__1::basic_ios<char, std::__1::char_traits<char> >::good() const
PUBLIC 112ec 0 std::__1::basic_ios<char, std::__1::char_traits<char> >::eof() const
PUBLIC 112fa 0 std::__1::basic_ios<char, std::__1::char_traits<char> >::bad() const
PUBLIC 11306 0 std::__1::basic_ios<char, std::__1::char_traits<char> >::exceptions() const
PUBLIC 11310 0 std::__1::basic_ios<char, std::__1::char_traits<char> >::exceptions(unsigned int)
PUBLIC 11320 0 std::__1::basic_ios<char, std::__1::char_traits<char> >::basic_ios(std::__1::basic_streambuf<char, std::__1::char_traits<char> >*)
PUBLIC 113b2 0 std::__1::basic_ios<char, std::__1::char_traits<char> >::init(std::__1::basic_streambuf<char, std::__1::char_traits<char> >*)
PUBLIC 11436 0 std::__1::basic_ios<char, std::__1::char_traits<char> >::basic_ios(std::__1::basic_streambuf<char, std::__1::char_traits<char> >*)
PUBLIC 114d2 0 std::__1::basic_ios<char, std::__1::char_traits<char> >::~basic_ios()
PUBLIC 114dc 0 std::__1::basic_ios<char, std::__1::char_traits<char> >::~basic_ios()
PUBLIC 114f8 0 std::__1::basic_ios<char, std::__1::char_traits<char> >::tie() const
PUBLIC 11506 0 std::__1::basic_ios<char, std::__1::char_traits<char> >::tie(std::__1::basic_ostream<char, std::__1::char_traits<char> >*)
PUBLIC 1151a 0 std::__1::basic_ios<char, std::__1::char_traits<char> >::rdbuf() const
PUBLIC 11524 0 std::__1::basic_ios<char, std::__1::char_traits<char> >::rdbuf(std::__1::basic_streambuf<char, std::__1::char_traits<char> >*)
PUBLIC 11544 0 std::__1::basic_ios<char, std::__1::char_traits<char> >::copyfmt(std::__1::basic_ios<char, std::__1::char_traits<char> > const&)
PUBLIC 115f0 0 std::__1::ios_base::__call_callbacks(std::__1::ios_base::event)
PUBLIC 11630 0 std::__1::ios_base::copyfmt(std::__1::ios_base const&)
PUBLIC 1194e 0 std::__1::basic_ios<char, std::__1::char_traits<char> >::fill() const
PUBLIC 119cc 0 std::__1::basic_ios<char, std::__1::char_traits<char> >::widen(char) const
PUBLIC 11a34 0 std::__1::basic_ios<char, std::__1::char_traits<char> >::fill(char)
PUBLIC 11a48 0 std::__1::basic_ios<char, std::__1::char_traits<char> >::imbue(std::__1::locale const&)
PUBLIC 11aea 0 std::__1::basic_streambuf<char, std::__1::char_traits<char> >::pubimbue(std::__1::locale const&)
PUBLIC 11b32 0 std::__1::basic_ios<char, std::__1::char_traits<char> >::narrow(char, char) const
PUBLIC 11ba2 0 std::__1::basic_ios<char, std::__1::char_traits<char> >::basic_ios()
PUBLIC 11bb6 0 std::__1::basic_ios<char, std::__1::char_traits<char> >::basic_ios()
PUBLIC 11bd2 0 std::__1::basic_ios<char, std::__1::char_traits<char> >::move(std::__1::basic_ios<char, std::__1::char_traits<char> >&)
PUBLIC 11c10 0 std::__1::ios_base::move(std::__1::ios_base&)
PUBLIC 11cae 0 std::__1::basic_ios<char, std::__1::char_traits<char> >::move(std::__1::basic_ios<char, std::__1::char_traits<char> >&&)
PUBLIC 11cec 0 std::__1::basic_ios<char, std::__1::char_traits<char> >::swap(std::__1::basic_ios<char, std::__1::char_traits<char> >&)
PUBLIC 11d3a 0 std::__1::ios_base::swap(std::__1::ios_base&)
PUBLIC 11e5e 0 std::__1::basic_ios<char, std::__1::char_traits<char> >::set_rdbuf(std::__1::basic_streambuf<char, std::__1::char_traits<char> >*)
PUBLIC 11e68 0 std::__1::basic_ios<wchar_t, std::__1::char_traits<wchar_t> >::operator bool() const
PUBLIC 11e76 0 std::__1::basic_ios<wchar_t, std::__1::char_traits<wchar_t> >::fail() const
PUBLIC 11e84 0 std::__1::basic_ios<wchar_t, std::__1::char_traits<wchar_t> >::operator!() const
PUBLIC 11e92 0 std::__1::basic_ios<wchar_t, std::__1::char_traits<wchar_t> >::rdstate() const
PUBLIC 11e9c 0 std::__1::basic_ios<wchar_t, std::__1::char_traits<wchar_t> >::clear(unsigned int)
PUBLIC 11ea6 0 std::__1::basic_ios<wchar_t, std::__1::char_traits<wchar_t> >::setstate(unsigned int)
PUBLIC 11eb4 0 std::__1::basic_ios<wchar_t, std::__1::char_traits<wchar_t> >::good() const
PUBLIC 11ec2 0 std::__1::basic_ios<wchar_t, std::__1::char_traits<wchar_t> >::eof() const
PUBLIC 11ed0 0 std::__1::basic_ios<wchar_t, std::__1::char_traits<wchar_t> >::bad() const
PUBLIC 11edc 0 std::__1::basic_ios<wchar_t, std::__1::char_traits<wchar_t> >::exceptions() const
PUBLIC 11ee6 0 std::__1::basic_ios<wchar_t, std::__1::char_traits<wchar_t> >::exceptions(unsigned int)
PUBLIC 11ef6 0 std::__1::basic_ios<wchar_t, std::__1::char_traits<wchar_t> >::basic_ios(std::__1::basic_streambuf<wchar_t, std::__1::char_traits<wchar_t> >*)
PUBLIC 11f88 0 std::__1::basic_ios<wchar_t, std::__1::char_traits<wchar_t> >::init(std::__1::basic_streambuf<wchar_t, std::__1::char_traits<wchar_t> >*)
PUBLIC 1200c 0 std::__1::basic_ios<wchar_t, std::__1::char_traits<wchar_t> >::basic_ios(std::__1::basic_streambuf<wchar_t, std::__1::char_traits<wchar_t> >*)
PUBLIC 1209e 0 std::__1::basic_ios<wchar_t, std::__1::char_traits<wchar_t> >::~basic_ios()
PUBLIC 120a8 0 std::__1::basic_ios<wchar_t, std::__1::char_traits<wchar_t> >::~basic_ios()
PUBLIC 120b2 0 std::__1::basic_ios<wchar_t, std::__1::char_traits<wchar_t> >::~basic_ios()
PUBLIC 120ce 0 std::__1::basic_ios<wchar_t, std::__1::char_traits<wchar_t> >::tie() const
PUBLIC 120dc 0 std::__1::basic_ios<wchar_t, std::__1::char_traits<wchar_t> >::tie(std::__1::basic_ostream<wchar_t, std::__1::char_traits<wchar_t> >*)
PUBLIC 120f0 0 std::__1::basic_ios<wchar_t, std::__1::char_traits<wchar_t> >::rdbuf() const
PUBLIC 120fa 0 std::__1::basic_ios<wchar_t, std::__1::char_traits<wchar_t> >::rdbuf(std::__1::basic_streambuf<wchar_t, std::__1::char_traits<wchar_t> >*)
PUBLIC 1211a 0 std::__1::basic_ios<wchar_t, std::__1::char_traits<wchar_t> >::copyfmt(std::__1::basic_ios<wchar_t, std::__1::char_traits<wchar_t> > const&)
PUBLIC 121c6 0 std::__1::basic_ios<wchar_t, std::__1::char_traits<wchar_t> >::fill() const
PUBLIC 12240 0 std::__1::basic_ios<wchar_t, std::__1::char_traits<wchar_t> >::widen(char) const
PUBLIC 122a6 0 std::__1::basic_ios<wchar_t, std::__1::char_traits<wchar_t> >::fill(wchar_t)
PUBLIC 122b8 0 std::__1::basic_ios<wchar_t, std::__1::char_traits<wchar_t> >::imbue(std::__1::locale const&)
PUBLIC 12352 0 std::__1::basic_streambuf<wchar_t, std::__1::char_traits<wchar_t> >::pubimbue(std::__1::locale const&)
PUBLIC 1239a 0 std::__1::basic_ios<wchar_t, std::__1::char_traits<wchar_t> >::narrow(wchar_t, char) const
PUBLIC 12408 0 std::__1::basic_ios<wchar_t, std::__1::char_traits<wchar_t> >::basic_ios()
PUBLIC 1241c 0 std::__1::basic_ios<wchar_t, std::__1::char_traits<wchar_t> >::basic_ios()
PUBLIC 12430 0 std::__1::basic_ios<wchar_t, std::__1::char_traits<wchar_t> >::move(std::__1::basic_ios<wchar_t, std::__1::char_traits<wchar_t> >&)
PUBLIC 1246e 0 std::__1::basic_ios<wchar_t, std::__1::char_traits<wchar_t> >::move(std::__1::basic_ios<wchar_t, std::__1::char_traits<wchar_t> >&&)
PUBLIC 124ac 0 std::__1::basic_ios<wchar_t, std::__1::char_traits<wchar_t> >::swap(std::__1::basic_ios<wchar_t, std::__1::char_traits<wchar_t> >&)
PUBLIC 124fa 0 std::__1::basic_ios<wchar_t, std::__1::char_traits<wchar_t> >::set_rdbuf(std::__1::basic_streambuf<wchar_t, std::__1::char_traits<wchar_t> >*)
PUBLIC 12510 0 std::__1::basic_streambuf<char, std::__1::char_traits<char> >::~basic_streambuf()
PUBLIC 1252c 0 std::__1::basic_streambuf<char, std::__1::char_traits<char> >::~basic_streambuf()
PUBLIC 1255a 0 std::__1::basic_streambuf<char, std::__1::char_traits<char> >::getloc() const
PUBLIC 12576 0 std::__1::basic_streambuf<char, std::__1::char_traits<char> >::pubsetbuf(char*, long)
PUBLIC 12584 0 std::__1::basic_streambuf<char, std::__1::char_traits<char> >::pubseekoff(long long, std::__1::ios_base::seekdir, unsigned int)
PUBLIC 1259e 0 std::__1::basic_streambuf<char, std::__1::char_traits<char> >::pubseekpos(std::__1::fpos<__mbstate_t>, unsigned int)
PUBLIC 125da 0 std::__1::basic_streambuf<char, std::__1::char_traits<char> >::pubsync()
PUBLIC 125e6 0 std::__1::basic_streambuf<char, std::__1::char_traits<char> >::in_avail()
PUBLIC 12604 0 std::__1::basic_streambuf<char, std::__1::char_traits<char> >::snextc()
PUBLIC 1265e 0 std::__1::basic_streambuf<char, std::__1::char_traits<char> >::sbumpc()
PUBLIC 12680 0 std::__1::basic_streambuf<char, std::__1::char_traits<char> >::sgetc()
PUBLIC 1269a 0 std::__1::basic_streambuf<char, std::__1::char_traits<char> >::sgetn(char*, long)
PUBLIC 126a8 0 std::__1::basic_streambuf<char, std::__1::char_traits<char> >::sputbackc(char)
PUBLIC 126d6 0 std::__1::basic_streambuf<char, std::__1::char_traits<char> >::sungetc()
PUBLIC 12702 0 std::__1::basic_streambuf<char, std::__1::char_traits<char> >::sputc(char)
PUBLIC 12730 0 std::__1::basic_streambuf<char, std::__1::char_traits<char> >::sputn(char const*, long)
PUBLIC 12740 0 std::__1::basic_streambuf<char, std::__1::char_traits<char> >::basic_streambuf()
PUBLIC 12782 0 std::__1::basic_streambuf<char, std::__1::char_traits<char> >::basic_streambuf(std::__1::basic_streambuf<char, std::__1::char_traits<char> > const&)
PUBLIC 127ca 0 std::__1::basic_streambuf<char, std::__1::char_traits<char> >::basic_streambuf(std::__1::basic_streambuf<char, std::__1::char_traits<char> > const&)
PUBLIC 12812 0 std::__1::basic_streambuf<char, std::__1::char_traits<char> >::operator=(std::__1::basic_streambuf<char, std::__1::char_traits<char> > const&)
PUBLIC 12850 0 std::__1::basic_streambuf<char, std::__1::char_traits<char> >::swap(std::__1::basic_streambuf<char, std::__1::char_traits<char> >&)
PUBLIC 12908 0 std::__1::basic_streambuf<char, std::__1::char_traits<char> >::eback() const
PUBLIC 12912 0 std::__1::basic_streambuf<char, std::__1::char_traits<char> >::gptr() const
PUBLIC 1291c 0 std::__1::basic_streambuf<char, std::__1::char_traits<char> >::egptr() const
PUBLIC 12926 0 std::__1::basic_streambuf<char, std::__1::char_traits<char> >::gbump(int)
PUBLIC 12934 0 std::__1::basic_streambuf<char, std::__1::char_traits<char> >::setg(char*, char*, char*)
PUBLIC 12946 0 std::__1::basic_streambuf<char, std::__1::char_traits<char> >::pbase() const
PUBLIC 12950 0 std::__1::basic_streambuf<char, std::__1::char_traits<char> >::pptr() const
PUBLIC 1295a 0 std::__1::basic_streambuf<char, std::__1::char_traits<char> >::epptr() const
PUBLIC 12964 0 std::__1::basic_streambuf<char, std::__1::char_traits<char> >::pbump(int)
PUBLIC 12972 0 std::__1::basic_streambuf<char, std::__1::char_traits<char> >::setp(char*, char*)
PUBLIC 1298a 0 std::__1::basic_streambuf<char, std::__1::char_traits<char> >::setbuf(char*, long)
PUBLIC 12994 0 std::__1::basic_streambuf<char, std::__1::char_traits<char> >::seekoff(long long, std::__1::ios_base::seekdir, unsigned int)
PUBLIC 129ea 0 std::__1::basic_streambuf<char, std::__1::char_traits<char> >::seekpos(std::__1::fpos<__mbstate_t>, unsigned int)
PUBLIC 12a40 0 std::__1::basic_streambuf<char, std::__1::char_traits<char> >::sync()
PUBLIC 12a48 0 std::__1::basic_streambuf<char, std::__1::char_traits<char> >::showmanyc()
PUBLIC 12a50 0 std::__1::basic_streambuf<char, std::__1::char_traits<char> >::xsgetn(char*, long)
PUBLIC 12ae8 0 std::__1::basic_streambuf<char, std::__1::char_traits<char> >::underflow()
PUBLIC 12af6 0 std::__1::basic_streambuf<char, std::__1::char_traits<char> >::pbackfail(int)
PUBLIC 12b02 0 std::__1::basic_streambuf<char, std::__1::char_traits<char> >::overflow(int)
PUBLIC 12b0e 0 std::__1::basic_streambuf<wchar_t, std::__1::char_traits<wchar_t> >::~basic_streambuf()
PUBLIC 12b2a 0 std::__1::basic_streambuf<wchar_t, std::__1::char_traits<wchar_t> >::~basic_streambuf()
PUBLIC 12b46 0 std::__1::basic_streambuf<wchar_t, std::__1::char_traits<wchar_t> >::~basic_streambuf()
PUBLIC 12b74 0 std::__1::basic_streambuf<wchar_t, std::__1::char_traits<wchar_t> >::getloc() const
PUBLIC 12b90 0 std::__1::basic_streambuf<wchar_t, std::__1::char_traits<wchar_t> >::pubsetbuf(wchar_t*, long)
PUBLIC 12b9e 0 std::__1::basic_streambuf<wchar_t, std::__1::char_traits<wchar_t> >::pubseekoff(long long, std::__1::ios_base::seekdir, unsigned int)
PUBLIC 12bb8 0 std::__1::basic_streambuf<wchar_t, std::__1::char_traits<wchar_t> >::pubseekpos(std::__1::fpos<__mbstate_t>, unsigned int)
PUBLIC 12bf4 0 std::__1::basic_streambuf<wchar_t, std::__1::char_traits<wchar_t> >::pubsync()
PUBLIC 12c00 0 std::__1::basic_streambuf<wchar_t, std::__1::char_traits<wchar_t> >::in_avail()
PUBLIC 12c22 0 std::__1::basic_streambuf<wchar_t, std::__1::char_traits<wchar_t> >::snextc()
PUBLIC 12c78 0 std::__1::basic_streambuf<wchar_t, std::__1::char_traits<wchar_t> >::sbumpc()
PUBLIC 12c9a 0 std::__1::basic_streambuf<wchar_t, std::__1::char_traits<wchar_t> >::sgetc()
PUBLIC 12cb4 0 std::__1::basic_streambuf<wchar_t, std::__1::char_traits<wchar_t> >::sgetn(wchar_t*, long)
PUBLIC 12cc2 0 std::__1::basic_streambuf<wchar_t, std::__1::char_traits<wchar_t> >::sputbackc(wchar_t)
PUBLIC 12cec 0 std::__1::basic_streambuf<wchar_t, std::__1::char_traits<wchar_t> >::sungetc()
PUBLIC 12d16 0 std::__1::basic_streambuf<wchar_t, std::__1::char_traits<wchar_t> >::sputc(wchar_t)
PUBLIC 12d3c 0 std::__1::basic_streambuf<wchar_t, std::__1::char_traits<wchar_t> >::sputn(wchar_t const*, long)
PUBLIC 12d4c 0 std::__1::basic_streambuf<wchar_t, std::__1::char_traits<wchar_t> >::basic_streambuf()
PUBLIC 12d8e 0 std::__1::basic_streambuf<wchar_t, std::__1::char_traits<wchar_t> >::basic_streambuf(std::__1::basic_streambuf<wchar_t, std::__1::char_traits<wchar_t> > const&)
PUBLIC 12dd6 0 std::__1::basic_streambuf<wchar_t, std::__1::char_traits<wchar_t> >::basic_streambuf(std::__1::basic_streambuf<wchar_t, std::__1::char_traits<wchar_t> > const&)
PUBLIC 12e1e 0 std::__1::basic_streambuf<wchar_t, std::__1::char_traits<wchar_t> >::operator=(std::__1::basic_streambuf<wchar_t, std::__1::char_traits<wchar_t> > const&)
PUBLIC 12e5c 0 std::__1::basic_streambuf<wchar_t, std::__1::char_traits<wchar_t> >::swap(std::__1::basic_streambuf<wchar_t, std::__1::char_traits<wchar_t> >&)
PUBLIC 12f14 0 std::__1::basic_streambuf<wchar_t, std::__1::char_traits<wchar_t> >::eback() const
PUBLIC 12f1e 0 std::__1::basic_streambuf<wchar_t, std::__1::char_traits<wchar_t> >::gptr() const
PUBLIC 12f28 0 std::__1::basic_streambuf<wchar_t, std::__1::char_traits<wchar_t> >::egptr() const
PUBLIC 12f32 0 std::__1::basic_streambuf<wchar_t, std::__1::char_traits<wchar_t> >::gbump(int)
PUBLIC 12f44 0 std::__1::basic_streambuf<wchar_t, std::__1::char_traits<wchar_t> >::setg(wchar_t*, wchar_t*, wchar_t*)
PUBLIC 12f56 0 std::__1::basic_streambuf<wchar_t, std::__1::char_traits<wchar_t> >::pbase() const
PUBLIC 12f60 0 std::__1::basic_streambuf<wchar_t, std::__1::char_traits<wchar_t> >::pptr() const
PUBLIC 12f6a 0 std::__1::basic_streambuf<wchar_t, std::__1::char_traits<wchar_t> >::epptr() const
PUBLIC 12f74 0 std::__1::basic_streambuf<wchar_t, std::__1::char_traits<wchar_t> >::pbump(int)
PUBLIC 12f86 0 std::__1::basic_streambuf<wchar_t, std::__1::char_traits<wchar_t> >::setp(wchar_t*, wchar_t*)
PUBLIC 12f98 0 std::__1::basic_streambuf<wchar_t, std::__1::char_traits<wchar_t> >::imbue(std::__1::locale const&)
PUBLIC 12f9e 0 std::__1::basic_streambuf<wchar_t, std::__1::char_traits<wchar_t> >::setbuf(wchar_t*, long)
PUBLIC 12fa8 0 std::__1::basic_streambuf<wchar_t, std::__1::char_traits<wchar_t> >::seekoff(long long, std::__1::ios_base::seekdir, unsigned int)
PUBLIC 12ffe 0 std::__1::basic_streambuf<wchar_t, std::__1::char_traits<wchar_t> >::seekpos(std::__1::fpos<__mbstate_t>, unsigned int)
PUBLIC 13054 0 std::__1::basic_streambuf<wchar_t, std::__1::char_traits<wchar_t> >::sync()
PUBLIC 1305c 0 std::__1::basic_streambuf<wchar_t, std::__1::char_traits<wchar_t> >::showmanyc()
PUBLIC 13064 0 std::__1::basic_streambuf<wchar_t, std::__1::char_traits<wchar_t> >::xsgetn(wchar_t*, long)
PUBLIC 1310a 0 std::__1::basic_streambuf<wchar_t, std::__1::char_traits<wchar_t> >::underflow()
PUBLIC 13116 0 std::__1::basic_streambuf<wchar_t, std::__1::char_traits<wchar_t> >::uflow()
PUBLIC 13146 0 std::__1::basic_streambuf<wchar_t, std::__1::char_traits<wchar_t> >::pbackfail(int)
PUBLIC 13152 0 std::__1::basic_streambuf<wchar_t, std::__1::char_traits<wchar_t> >::xsputn(wchar_t const*, long)
PUBLIC 131f0 0 std::__1::basic_streambuf<wchar_t, std::__1::char_traits<wchar_t> >::overflow(int)
PUBLIC 131fc 0 std::__1::basic_istream<char, std::__1::char_traits<char> >::basic_istream(std::__1::basic_streambuf<char, std::__1::char_traits<char> >*)
PUBLIC 13294 0 std::__1::basic_istream<char, std::__1::char_traits<char> >::basic_istream(std::__1::basic_streambuf<char, std::__1::char_traits<char> >*)
PUBLIC 1333e 0 std::__1::basic_istream<char, std::__1::char_traits<char> >::~basic_istream()
PUBLIC 1334c 0 virtual thunk to std::__1::basic_istream<char, std::__1::char_traits<char> >::~basic_istream()
PUBLIC 13362 0 std::__1::basic_istream<char, std::__1::char_traits<char> >::~basic_istream()
PUBLIC 13382 0 virtual thunk to std::__1::basic_istream<char, std::__1::char_traits<char> >::~basic_istream()
PUBLIC 133ac 0 std::__1::basic_istream<char, std::__1::char_traits<char> >::basic_istream(std::__1::basic_istream<char, std::__1::char_traits<char> >&&)
PUBLIC 13434 0 std::__1::basic_istream<char, std::__1::char_traits<char> >::basic_istream(std::__1::basic_istream<char, std::__1::char_traits<char> >&&)
PUBLIC 134ae 0 std::__1::basic_istream<char, std::__1::char_traits<char> >::operator=(std::__1::basic_istream<char, std::__1::char_traits<char> >&&)
PUBLIC 13536 0 std::__1::basic_istream<char, std::__1::char_traits<char> >::swap(std::__1::basic_istream<char, std::__1::char_traits<char> >&)
PUBLIC 135c8 0 std::__1::basic_istream<char, std::__1::char_traits<char> >::sentry::operator bool() const
PUBLIC 135d0 0 std::__1::basic_istream<char, std::__1::char_traits<char> >::operator>>(std::__1::basic_istream<char, std::__1::char_traits<char> >& (*)(std::__1::basic_istream<char, std::__1::char_traits<char> >&))
PUBLIC 135d8 0 std::__1::basic_istream<char, std::__1::char_traits<char> >::operator>>(std::__1::basic_ios<char, std::__1::char_traits<char> >& (*)(std::__1::basic_ios<char, std::__1::char_traits<char> >&))
PUBLIC 135f8 0 std::__1::basic_istream<char, std::__1::char_traits<char> >::operator>>(std::__1::ios_base& (*)(std::__1::ios_base&))
PUBLIC 13618 0 std::__1::basic_istream<char, std::__1::char_traits<char> >::operator>>(std::__1::basic_streambuf<char, std::__1::char_traits<char> >*)
PUBLIC 137a0 0 std::__1::ios_base::__set_failbit_and_consider_rethrow()
PUBLIC 137cc 0 std::__1::ios_base::__set_badbit_and_consider_rethrow()
PUBLIC 137e0 0 std::__1::basic_istream<char, std::__1::char_traits<char> >::operator>>(bool&)
PUBLIC 138dc 0 std::__1::basic_istream<char, std::__1::char_traits<char> >::operator>>(short&)
PUBLIC 13a18 0 std::__1::basic_istream<char, std::__1::char_traits<char> >::operator>>(unsigned short&)
PUBLIC 13b1a 0 std::__1::basic_istream<char, std::__1::char_traits<char> >::operator>>(unsigned int&)
PUBLIC 13c16 0 std::__1::basic_istream<char, std::__1::char_traits<char> >::operator>>(long&)
PUBLIC 13d1e 0 std::__1::basic_istream<char, std::__1::char_traits<char> >::operator>>(long long&)
PUBLIC 13e1e 0 std::__1::basic_istream<char, std::__1::char_traits<char> >::operator>>(long double&)
PUBLIC 13f1a 0 std::__1::basic_istream<char, std::__1::char_traits<char> >::operator>>(void*&)
PUBLIC 14016 0 std::__1::basic_istream<char, std::__1::char_traits<char> >::gcount() const
PUBLIC 1402a 0 std::__1::basic_istream<char, std::__1::char_traits<char> >::get(char&)
PUBLIC 1404c 0 std::__1::basic_istream<char, std::__1::char_traits<char> >::get(char*, long)
PUBLIC 140da 0 std::__1::basic_istream<char, std::__1::char_traits<char> >::get(char*, long, char)
PUBLIC 1423c 0 std::__1::basic_istream<char, std::__1::char_traits<char> >::get(std::__1::basic_streambuf<char, std::__1::char_traits<char> >&)
PUBLIC 142be 0 std::__1::basic_istream<char, std::__1::char_traits<char> >::get(std::__1::basic_streambuf<char, std::__1::char_traits<char> >&, char)
PUBLIC 14414 0 std::__1::basic_istream<char, std::__1::char_traits<char> >::getline(char*, long)
PUBLIC 144a2 0 std::__1::basic_istream<char, std::__1::char_traits<char> >::getline(char*, long, char)
PUBLIC 14606 0 std::__1::basic_istream<char, std::__1::char_traits<char> >::ignore(long, int)
PUBLIC 14754 0 std::__1::basic_istream<char, std::__1::char_traits<char> >::read(char*, long)
PUBLIC 1481e 0 std::__1::basic_istream<char, std::__1::char_traits<char> >::readsome(char*, long)
PUBLIC 14914 0 std::__1::basic_istream<char, std::__1::char_traits<char> >::putback(char)
PUBLIC 14a0c 0 std::__1::basic_istream<char, std::__1::char_traits<char> >::unget()
PUBLIC 14af6 0 std::__1::basic_istream<char, std::__1::char_traits<char> >::sync()
PUBLIC 14b9c 0 std::__1::basic_istream<char, std::__1::char_traits<char> >::tellg()
PUBLIC 14cca 0 std::__1::basic_istream<char, std::__1::char_traits<char> >::seekg(std::__1::fpos<__mbstate_t>)
PUBLIC 14dd6 0 std::__1::basic_istream<char, std::__1::char_traits<char> >::seekg(long long, std::__1::ios_base::seekdir)
PUBLIC 14ee2 0 std::__1::basic_istream<wchar_t, std::__1::char_traits<wchar_t> >::basic_istream(std::__1::basic_streambuf<wchar_t, std::__1::char_traits<wchar_t> >*)
PUBLIC 14f7a 0 std::__1::basic_istream<wchar_t, std::__1::char_traits<wchar_t> >::basic_istream(std::__1::basic_streambuf<wchar_t, std::__1::char_traits<wchar_t> >*)
PUBLIC 1501e 0 std::__1::basic_istream<wchar_t, std::__1::char_traits<wchar_t> >::~basic_istream()
PUBLIC 15024 0 std::__1::basic_istream<wchar_t, std::__1::char_traits<wchar_t> >::~basic_istream()
PUBLIC 15032 0 virtual thunk to std::__1::basic_istream<wchar_t, std::__1::char_traits<wchar_t> >::~basic_istream()
PUBLIC 15048 0 std::__1::basic_istream<wchar_t, std::__1::char_traits<wchar_t> >::~basic_istream()
PUBLIC 15068 0 virtual thunk to std::__1::basic_istream<wchar_t, std::__1::char_traits<wchar_t> >::~basic_istream()
PUBLIC 15092 0 std::__1::basic_istream<wchar_t, std::__1::char_traits<wchar_t> >::basic_istream(std::__1::basic_istream<wchar_t, std::__1::char_traits<wchar_t> >&&)
PUBLIC 1511a 0 std::__1::basic_istream<wchar_t, std::__1::char_traits<wchar_t> >::basic_istream(std::__1::basic_istream<wchar_t, std::__1::char_traits<wchar_t> >&&)
PUBLIC 15194 0 std::__1::basic_istream<wchar_t, std::__1::char_traits<wchar_t> >::operator=(std::__1::basic_istream<wchar_t, std::__1::char_traits<wchar_t> >&&)
PUBLIC 1521c 0 std::__1::basic_istream<wchar_t, std::__1::char_traits<wchar_t> >::swap(std::__1::basic_istream<wchar_t, std::__1::char_traits<wchar_t> >&)
PUBLIC 152a2 0 std::__1::basic_istream<wchar_t, std::__1::char_traits<wchar_t> >::sentry::sentry(std::__1::basic_istream<wchar_t, std::__1::char_traits<wchar_t> >&, bool)
PUBLIC 15464 0 std::__1::basic_istream<wchar_t, std::__1::char_traits<wchar_t> >::sentry::sentry(std::__1::basic_istream<wchar_t, std::__1::char_traits<wchar_t> >&, bool)
PUBLIC 1546e 0 std::__1::basic_istream<wchar_t, std::__1::char_traits<wchar_t> >::sentry::operator bool() const
PUBLIC 15476 0 std::__1::basic_istream<wchar_t, std::__1::char_traits<wchar_t> >::operator>>(std::__1::basic_istream<wchar_t, std::__1::char_traits<wchar_t> >& (*)(std::__1::basic_istream<wchar_t, std::__1::char_traits<wchar_t> >&))
PUBLIC 1547e 0 std::__1::basic_istream<wchar_t, std::__1::char_traits<wchar_t> >::operator>>(std::__1::basic_ios<wchar_t, std::__1::char_traits<wchar_t> >& (*)(std::__1::basic_ios<wchar_t, std::__1::char_traits<wchar_t> >&))
PUBLIC 1549e 0 std::__1::basic_istream<wchar_t, std::__1::char_traits<wchar_t> >::operator>>(std::__1::ios_base& (*)(std::__1::ios_base&))
PUBLIC 154be 0 std::__1::basic_istream<wchar_t, std::__1::char_traits<wchar_t> >::operator>>(std::__1::basic_streambuf<wchar_t, std::__1::char_traits<wchar_t> >*)
PUBLIC 15646 0 std::__1::basic_istream<wchar_t, std::__1::char_traits<wchar_t> >::operator>>(bool&)
PUBLIC 15742 0 std::__1::basic_istream<wchar_t, std::__1::char_traits<wchar_t> >::operator>>(short&)
PUBLIC 1587e 0 std::__1::basic_istream<wchar_t, std::__1::char_traits<wchar_t> >::operator>>(unsigned short&)
PUBLIC 1597a 0 std::__1::basic_istream<wchar_t, std::__1::char_traits<wchar_t> >::operator>>(int&)
PUBLIC 15ac0 0 std::__1::basic_istream<wchar_t, std::__1::char_traits<wchar_t> >::operator>>(unsigned int&)
PUBLIC 15bbc 0 std::__1::basic_istream<wchar_t, std::__1::char_traits<wchar_t> >::operator>>(long&)
PUBLIC 15cb8 0 std::__1::basic_istream<wchar_t, std::__1::char_traits<wchar_t> >::operator>>(unsigned long&)
PUBLIC 15db4 0 std::__1::basic_istream<wchar_t, std::__1::char_traits<wchar_t> >::operator>>(long long&)
PUBLIC 15eb0 0 std::__1::basic_istream<wchar_t, std::__1::char_traits<wchar_t> >::operator>>(unsigned long long&)
PUBLIC 15fac 0 std::__1::basic_istream<wchar_t, std::__1::char_traits<wchar_t> >::operator>>(float&)
PUBLIC 160a8 0 std::__1::basic_istream<wchar_t, std::__1::char_traits<wchar_t> >::operator>>(double&)
PUBLIC 161a4 0 std::__1::basic_istream<wchar_t, std::__1::char_traits<wchar_t> >::operator>>(long double&)
PUBLIC 162a0 0 std::__1::basic_istream<wchar_t, std::__1::char_traits<wchar_t> >::operator>>(void*&)
PUBLIC 1639c 0 std::__1::basic_istream<wchar_t, std::__1::char_traits<wchar_t> >::gcount() const
PUBLIC 163a6 0 std::__1::basic_istream<wchar_t, std::__1::char_traits<wchar_t> >::get()
PUBLIC 16480 0 std::__1::basic_istream<wchar_t, std::__1::char_traits<wchar_t> >::get(wchar_t&)
PUBLIC 164a2 0 std::__1::basic_istream<wchar_t, std::__1::char_traits<wchar_t> >::get(wchar_t*, long)
PUBLIC 16530 0 std::__1::basic_istream<wchar_t, std::__1::char_traits<wchar_t> >::get(wchar_t*, long, wchar_t)
PUBLIC 166a2 0 std::__1::basic_istream<wchar_t, std::__1::char_traits<wchar_t> >::get(std::__1::basic_streambuf<wchar_t, std::__1::char_traits<wchar_t> >&)
PUBLIC 16722 0 std::__1::basic_istream<wchar_t, std::__1::char_traits<wchar_t> >::get(std::__1::basic_streambuf<wchar_t, std::__1::char_traits<wchar_t> >&, wchar_t)
PUBLIC 16876 0 std::__1::basic_istream<wchar_t, std::__1::char_traits<wchar_t> >::getline(wchar_t*, long)
PUBLIC 16904 0 std::__1::basic_istream<wchar_t, std::__1::char_traits<wchar_t> >::getline(wchar_t*, long, wchar_t)
PUBLIC 16a7a 0 std::__1::basic_istream<wchar_t, std::__1::char_traits<wchar_t> >::ignore(long, int)
PUBLIC 16bc4 0 std::__1::basic_istream<wchar_t, std::__1::char_traits<wchar_t> >::peek()
PUBLIC 16c86 0 std::__1::basic_istream<wchar_t, std::__1::char_traits<wchar_t> >::read(wchar_t*, long)
PUBLIC 16d50 0 std::__1::basic_istream<wchar_t, std::__1::char_traits<wchar_t> >::readsome(wchar_t*, long)
PUBLIC 16e4a 0 std::__1::basic_istream<wchar_t, std::__1::char_traits<wchar_t> >::putback(wchar_t)
PUBLIC 16f46 0 std::__1::basic_istream<wchar_t, std::__1::char_traits<wchar_t> >::unget()
PUBLIC 17034 0 std::__1::basic_istream<wchar_t, std::__1::char_traits<wchar_t> >::sync()
PUBLIC 170da 0 std::__1::basic_istream<wchar_t, std::__1::char_traits<wchar_t> >::tellg()
PUBLIC 17208 0 std::__1::basic_istream<wchar_t, std::__1::char_traits<wchar_t> >::seekg(std::__1::fpos<__mbstate_t>)
PUBLIC 17314 0 std::__1::basic_istream<wchar_t, std::__1::char_traits<wchar_t> >::seekg(long long, std::__1::ios_base::seekdir)
PUBLIC 17420 0 std::__1::basic_ostream<char, std::__1::char_traits<char> >::basic_ostream(std::__1::basic_streambuf<char, std::__1::char_traits<char> >*)
PUBLIC 174b4 0 std::__1::basic_ostream<char, std::__1::char_traits<char> >::basic_ostream(std::__1::basic_streambuf<char, std::__1::char_traits<char> >*)
PUBLIC 17562 0 std::__1::basic_ostream<char, std::__1::char_traits<char> >::~basic_ostream()
PUBLIC 17570 0 virtual thunk to std::__1::basic_ostream<char, std::__1::char_traits<char> >::~basic_ostream()
PUBLIC 17586 0 std::__1::basic_ostream<char, std::__1::char_traits<char> >::~basic_ostream()
PUBLIC 175a6 0 virtual thunk to std::__1::basic_ostream<char, std::__1::char_traits<char> >::~basic_ostream()
PUBLIC 175d0 0 std::__1::basic_ostream<char, std::__1::char_traits<char> >::basic_ostream(std::__1::basic_ostream<char, std::__1::char_traits<char> >&&)
PUBLIC 17644 0 std::__1::basic_ostream<char, std::__1::char_traits<char> >::basic_ostream(std::__1::basic_ostream<char, std::__1::char_traits<char> >&&)
PUBLIC 176c0 0 std::__1::basic_ostream<char, std::__1::char_traits<char> >::operator=(std::__1::basic_ostream<char, std::__1::char_traits<char> >&&)
PUBLIC 17738 0 std::__1::basic_ostream<char, std::__1::char_traits<char> >::swap(std::__1::basic_ostream<char, std::__1::char_traits<char> >&)
PUBLIC 177b4 0 std::__1::basic_ostream<char, std::__1::char_traits<char> >::sentry::operator bool() const
PUBLIC 177bc 0 std::__1::basic_ostream<char, std::__1::char_traits<char> >::operator<<(std::__1::basic_ostream<char, std::__1::char_traits<char> >& (*)(std::__1::basic_ostream<char, std::__1::char_traits<char> >&))
PUBLIC 177c4 0 std::__1::basic_ostream<char, std::__1::char_traits<char> >::operator<<(std::__1::basic_ios<char, std::__1::char_traits<char> >& (*)(std::__1::basic_ios<char, std::__1::char_traits<char> >&))
PUBLIC 177e4 0 std::__1::basic_ostream<char, std::__1::char_traits<char> >::operator<<(std::__1::ios_base& (*)(std::__1::ios_base&))
PUBLIC 17808 0 std::__1::basic_ostream<char, std::__1::char_traits<char> >::operator<<(unsigned short)
PUBLIC 179a6 0 std::__1::basic_ostream<char, std::__1::char_traits<char> >::operator<<(long double)
PUBLIC 17b4a 0 std::__1::basic_ostream<char, std::__1::char_traits<char> >::operator<<(std::__1::basic_streambuf<char, std::__1::char_traits<char> >*)
PUBLIC 17d14 0 std::__1::basic_ostream<char, std::__1::char_traits<char> >::put(char)
PUBLIC 17e18 0 std::__1::basic_ostream<char, std::__1::char_traits<char> >::tellp()
PUBLIC 17ea2 0 std::__1::basic_ostream<char, std::__1::char_traits<char> >::seekp(std::__1::fpos<__mbstate_t>)
PUBLIC 17f9c 0 std::__1::basic_ostream<char, std::__1::char_traits<char> >::seekp(long long, std::__1::ios_base::seekdir)
PUBLIC 18096 0 std::__1::basic_ostream<char, std::__1::char_traits<char> >::basic_ostream()
PUBLIC 180ae 0 std::__1::basic_ostream<char, std::__1::char_traits<char> >::basic_ostream()
PUBLIC 180d6 0 std::__1::basic_ostream<wchar_t, std::__1::char_traits<wchar_t> >::basic_ostream(std::__1::basic_streambuf<wchar_t, std::__1::char_traits<wchar_t> >*)
PUBLIC 1816a 0 std::__1::basic_ostream<wchar_t, std::__1::char_traits<wchar_t> >::basic_ostream(std::__1::basic_streambuf<wchar_t, std::__1::char_traits<wchar_t> >*)
PUBLIC 18212 0 std::__1::basic_ostream<wchar_t, std::__1::char_traits<wchar_t> >::~basic_ostream()
PUBLIC 18218 0 std::__1::basic_ostream<wchar_t, std::__1::char_traits<wchar_t> >::~basic_ostream()
PUBLIC 18226 0 virtual thunk to std::__1::basic_ostream<wchar_t, std::__1::char_traits<wchar_t> >::~basic_ostream()
PUBLIC 1823c 0 std::__1::basic_ostream<wchar_t, std::__1::char_traits<wchar_t> >::~basic_ostream()
PUBLIC 1825c 0 virtual thunk to std::__1::basic_ostream<wchar_t, std::__1::char_traits<wchar_t> >::~basic_ostream()
PUBLIC 18286 0 std::__1::basic_ostream<wchar_t, std::__1::char_traits<wchar_t> >::basic_ostream(std::__1::basic_ostream<wchar_t, std::__1::char_traits<wchar_t> >&&)
PUBLIC 182fa 0 std::__1::basic_ostream<wchar_t, std::__1::char_traits<wchar_t> >::basic_ostream(std::__1::basic_ostream<wchar_t, std::__1::char_traits<wchar_t> >&&)
PUBLIC 18376 0 std::__1::basic_ostream<wchar_t, std::__1::char_traits<wchar_t> >::operator=(std::__1::basic_ostream<wchar_t, std::__1::char_traits<wchar_t> >&&)
PUBLIC 183ee 0 std::__1::basic_ostream<wchar_t, std::__1::char_traits<wchar_t> >::swap(std::__1::basic_ostream<wchar_t, std::__1::char_traits<wchar_t> >&)
PUBLIC 1846e 0 std::__1::basic_ostream<wchar_t, std::__1::char_traits<wchar_t> >::sentry::sentry(std::__1::basic_ostream<wchar_t, std::__1::char_traits<wchar_t> >&)
PUBLIC 18480 0 std::__1::basic_ostream<wchar_t, std::__1::char_traits<wchar_t> >::sentry::~sentry()
PUBLIC 1848a 0 std::__1::basic_ostream<wchar_t, std::__1::char_traits<wchar_t> >::sentry::operator bool() const
PUBLIC 18492 0 std::__1::basic_ostream<wchar_t, std::__1::char_traits<wchar_t> >::operator<<(std::__1::basic_ostream<wchar_t, std::__1::char_traits<wchar_t> >& (*)(std::__1::basic_ostream<wchar_t, std::__1::char_traits<wchar_t> >&))
PUBLIC 1849a 0 std::__1::basic_ostream<wchar_t, std::__1::char_traits<wchar_t> >::operator<<(std::__1::basic_ios<wchar_t, std::__1::char_traits<wchar_t> >& (*)(std::__1::basic_ios<wchar_t, std::__1::char_traits<wchar_t> >&))
PUBLIC 184ba 0 std::__1::basic_ostream<wchar_t, std::__1::char_traits<wchar_t> >::operator<<(std::__1::ios_base& (*)(std::__1::ios_base&))
PUBLIC 184da 0 std::__1::basic_ostream<wchar_t, std::__1::char_traits<wchar_t> >::operator<<(bool)
PUBLIC 18670 0 std::__1::basic_ostream<wchar_t, std::__1::char_traits<wchar_t> >::operator<<(short)
PUBLIC 18826 0 std::__1::basic_ostream<wchar_t, std::__1::char_traits<wchar_t> >::operator<<(unsigned short)
PUBLIC 189bc 0 std::__1::basic_ostream<wchar_t, std::__1::char_traits<wchar_t> >::operator<<(int)
PUBLIC 18b6c 0 std::__1::basic_ostream<wchar_t, std::__1::char_traits<wchar_t> >::operator<<(unsigned int)
PUBLIC 18d00 0 std::__1::basic_ostream<wchar_t, std::__1::char_traits<wchar_t> >::operator<<(long)
PUBLIC 18e94 0 std::__1::basic_ostream<wchar_t, std::__1::char_traits<wchar_t> >::operator<<(unsigned long)
PUBLIC 19028 0 std::__1::basic_ostream<wchar_t, std::__1::char_traits<wchar_t> >::operator<<(long long)
PUBLIC 191bc 0 std::__1::basic_ostream<wchar_t, std::__1::char_traits<wchar_t> >::operator<<(unsigned long long)
PUBLIC 19350 0 std::__1::basic_ostream<wchar_t, std::__1::char_traits<wchar_t> >::operator<<(float)
PUBLIC 194e4 0 std::__1::basic_ostream<wchar_t, std::__1::char_traits<wchar_t> >::operator<<(double)
PUBLIC 19676 0 std::__1::basic_ostream<wchar_t, std::__1::char_traits<wchar_t> >::operator<<(long double)
PUBLIC 19816 0 std::__1::basic_ostream<wchar_t, std::__1::char_traits<wchar_t> >::operator<<(void const*)
PUBLIC 199aa 0 std::__1::basic_ostream<wchar_t, std::__1::char_traits<wchar_t> >::operator<<(std::__1::basic_streambuf<wchar_t, std::__1::char_traits<wchar_t> >*)
PUBLIC 19b84 0 std::__1::basic_ostream<wchar_t, std::__1::char_traits<wchar_t> >::put(wchar_t)
PUBLIC 19c7e 0 std::__1::basic_ostream<wchar_t, std::__1::char_traits<wchar_t> >::write(wchar_t const*, long)
PUBLIC 19d6a 0 std::__1::basic_ostream<wchar_t, std::__1::char_traits<wchar_t> >::tellp()
PUBLIC 19df4 0 std::__1::basic_ostream<wchar_t, std::__1::char_traits<wchar_t> >::seekp(std::__1::fpos<__mbstate_t>)
PUBLIC 19eee 0 std::__1::basic_ostream<wchar_t, std::__1::char_traits<wchar_t> >::seekp(long long, std::__1::ios_base::seekdir)
PUBLIC 19fe8 0 std::__1::basic_ostream<wchar_t, std::__1::char_traits<wchar_t> >::basic_ostream()
PUBLIC 1a000 0 std::__1::basic_ostream<wchar_t, std::__1::char_traits<wchar_t> >::basic_ostream()
PUBLIC 1a028 0 std::__1::basic_iostream<char, std::__1::char_traits<char> >::basic_iostream(std::__1::basic_streambuf<char, std::__1::char_traits<char> >*)
PUBLIC 1a0fe 0 std::__1::basic_iostream<char, std::__1::char_traits<char> >::basic_iostream(std::__1::basic_streambuf<char, std::__1::char_traits<char> >*)
PUBLIC 1a1d6 0 std::__1::basic_iostream<char, std::__1::char_traits<char> >::~basic_iostream()
PUBLIC 1a1e4 0 non-virtual thunk to std::__1::basic_iostream<char, std::__1::char_traits<char> >::~basic_iostream()
PUBLIC 1a1f2 0 virtual thunk to std::__1::basic_iostream<char, std::__1::char_traits<char> >::~basic_iostream()
PUBLIC 1a208 0 std::__1::basic_iostream<char, std::__1::char_traits<char> >::~basic_iostream()
PUBLIC 1a228 0 non-virtual thunk to std::__1::basic_iostream<char, std::__1::char_traits<char> >::~basic_iostream()
PUBLIC 1a24a 0 virtual thunk to std::__1::basic_iostream<char, std::__1::char_traits<char> >::~basic_iostream()
PUBLIC 1a274 0 std::__1::basic_iostream<char, std::__1::char_traits<char> >::basic_iostream(std::__1::basic_iostream<char, std::__1::char_traits<char> >&&)
PUBLIC 1a330 0 std::__1::basic_iostream<char, std::__1::char_traits<char> >::basic_iostream(std::__1::basic_iostream<char, std::__1::char_traits<char> >&&)
PUBLIC 1a3d4 0 std::__1::basic_iostream<char, std::__1::char_traits<char> >::operator=(std::__1::basic_iostream<char, std::__1::char_traits<char> >&&)
PUBLIC 1a45c 0 std::__1::basic_iostream<char, std::__1::char_traits<char> >::swap(std::__1::basic_iostream<char, std::__1::char_traits<char> >&)
PUBLIC 1a4e2 0 std::__1::__iostream_category::name() const
PUBLIC 1a4f0 0 std::__1::__iostream_category::message(int) const
PUBLIC 1a57a 0 std::__1::iostream_category()
PUBLIC 1a5ca 0 std::__1::__iostream_category::~__iostream_category()
PUBLIC 1a5d4 0 std::__1::ios_base::failure::failure(std::__1::basic_string<char, std::__1::char_traits<char>, std::__1::allocator<char> > const&, std::__1::error_code const&)
PUBLIC 1a600 0 std::__1::ios_base::failure::failure(std::__1::basic_string<char, std::__1::char_traits<char>, std::__1::allocator<char> > const&, std::__1::error_code const&)
PUBLIC 1a62c 0 std::__1::ios_base::failure::failure(char const*, std::__1::error_code const&)
PUBLIC 1a658 0 std::__1::ios_base::failure::failure(char const*, std::__1::error_code const&)
PUBLIC 1a684 0 std::__1::ios_base::failure::~failure()
PUBLIC 1a68e 0 std::__1::ios_base::failure::~failure()
PUBLIC 1a698 0 std::__1::ios_base::failure::~failure()
PUBLIC 1a6b4 0 std::__1::ios_base::xalloc()
PUBLIC 1a6c8 0 std::__1::ios_base::iword(int)
PUBLIC 1a7c4 0 std::__1::ios_base::pword(int)
PUBLIC 1a89c 0 std::__1::ios_base::register_callback(void (*)(std::__1::ios_base::event, std::__1::ios_base&, int), int)
PUBLIC 1a972 0 std::__1::ios_base::~ios_base()
PUBLIC 1a97c 0 std::__1::ios_base::~ios_base()
PUBLIC 1a998 0 std::__1::ios_base::sync_with_stdio(bool)
PUBLIC 1a9ac 0 std::__1::__iostream_category::~__iostream_category()
PUBLIC 1a9ce 0 std::__1::__stdinbuf<char>::~__stdinbuf()
PUBLIC 1a9d8 0 std::__1::__stdinbuf<char>::~__stdinbuf()
PUBLIC 1a9f6 0 std::__1::__stdinbuf<char>::underflow()
PUBLIC 1aa02 0 std::__1::__stdinbuf<char>::uflow()
PUBLIC 1aa12 0 std::__1::__stdinbuf<char>::pbackfail(int)
PUBLIC 1ab06 0 std::__1::__stdinbuf<char>::__getchar(bool)
PUBLIC 1acc6 0 std::__1::__stdinbuf<wchar_t>::~__stdinbuf()
PUBLIC 1acd0 0 std::__1::__stdinbuf<wchar_t>::~__stdinbuf()
PUBLIC 1acee 0 std::__1::__stdinbuf<wchar_t>::underflow()
PUBLIC 1acfa 0 std::__1::__stdinbuf<wchar_t>::uflow()
PUBLIC 1ad0a 0 std::__1::__stdinbuf<wchar_t>::pbackfail(int)
PUBLIC 1adfe 0 std::__1::__stdinbuf<wchar_t>::__getchar(bool)
PUBLIC 1afc8 0 std::__1::__stdoutbuf<char>::~__stdoutbuf()
PUBLIC 1afd2 0 std::__1::__stdoutbuf<char>::~__stdoutbuf()
PUBLIC 1afee 0 std::__1::__stdoutbuf<char>::imbue(std::__1::locale const&)
PUBLIC 1b02e 0 std::__1::__stdoutbuf<char>::xsputn(char const*, long)
PUBLIC 1b096 0 std::__1::__stdoutbuf<char>::overflow(int)
PUBLIC 1b1d8 0 std::__1::__stdoutbuf<wchar_t>::~__stdoutbuf()
PUBLIC 1b1e2 0 std::__1::__stdoutbuf<wchar_t>::~__stdoutbuf()
PUBLIC 1b1fe 0 std::__1::__stdoutbuf<wchar_t>::imbue(std::__1::locale const&)
PUBLIC 1b23e 0 std::__1::__stdoutbuf<wchar_t>::xsputn(wchar_t const*, long)
PUBLIC 1b2a6 0 std::__1::__stdoutbuf<wchar_t>::overflow(int)
PUBLIC 1b3e0 0 std::__1::collate<char>::collate(unsigned long)
PUBLIC 1b3fc 0 std::__1::collate<char>::collate(unsigned long)
PUBLIC 1b418 0 std::__1::collate<char>::compare(char const*, char const*, char const*, char const*) const
PUBLIC 1b426 0 std::__1::collate<char>::transform(char const*, char const*) const
PUBLIC 1b440 0 std::__1::collate<char>::hash(char const*, char const*) const
PUBLIC 1b44e 0 std::__1::collate<char>::~collate()
PUBLIC 1b458 0 std::__1::locale::facet::~facet()
PUBLIC 1b462 0 std::__1::collate<char>::~collate()
PUBLIC 1b46c 0 std::__1::collate<char>::~collate()
PUBLIC 1b488 0 std::__1::collate<char>::do_compare(char const*, char const*, char const*, char const*) const
PUBLIC 1b4c8 0 std::__1::collate<char>::do_transform(char const*, char const*) const
PUBLIC 1b562 0 std::__1::collate<char>::do_hash(char const*, char const*) const
PUBLIC 1b5a0 0 std::__1::collate<wchar_t>::collate(unsigned long)
PUBLIC 1b5bc 0 std::__1::collate<wchar_t>::collate(unsigned long)
PUBLIC 1b5d8 0 std::__1::collate<wchar_t>::compare(wchar_t const*, wchar_t const*, wchar_t const*, wchar_t const*) const
PUBLIC 1b5e6 0 std::__1::collate<wchar_t>::transform(wchar_t const*, wchar_t const*) const
PUBLIC 1b600 0 std::__1::collate<wchar_t>::hash(wchar_t const*, wchar_t const*) const
PUBLIC 1b60e 0 std::__1::collate<wchar_t>::~collate()
PUBLIC 1b618 0 std::__1::collate<wchar_t>::~collate()
PUBLIC 1b622 0 std::__1::collate<wchar_t>::~collate()
PUBLIC 1b63e 0 std::__1::collate<wchar_t>::do_compare(wchar_t const*, wchar_t const*, wchar_t const*, wchar_t const*) const
PUBLIC 1b67e 0 std::__1::collate<wchar_t>::do_transform(wchar_t const*, wchar_t const*) const
PUBLIC 1b6aa 0 std::__1::collate<wchar_t>::do_hash(wchar_t const*, wchar_t const*) const
PUBLIC 1b6e8 0 std::__1::num_get<char, std::__1::istreambuf_iterator<char, std::__1::char_traits<char> > >::num_get(unsigned long)
PUBLIC 1b704 0 std::__1::num_get<char, std::__1::istreambuf_iterator<char, std::__1::char_traits<char> > >::num_get(unsigned long)
PUBLIC 1b720 0 std::__1::num_get<char, std::__1::istreambuf_iterator<char, std::__1::char_traits<char> > >::get(std::__1::istreambuf_iterator<char, std::__1::char_traits<char> >, std::__1::istreambuf_iterator<char, std::__1::char_traits<char> >, std::__1::ios_base&, unsigned int&, bool&) const
PUBLIC 1b72e 0 std::__1::num_get<char, std::__1::istreambuf_iterator<char, std::__1::char_traits<char> > >::get(std::__1::istreambuf_iterator<char, std::__1::char_traits<char> >, std::__1::istreambuf_iterator<char, std::__1::char_traits<char> >, std::__1::ios_base&, unsigned int&, long&) const
PUBLIC 1b73c 0 std::__1::num_get<char, std::__1::istreambuf_iterator<char, std::__1::char_traits<char> > >::get(std::__1::istreambuf_iterator<char, std::__1::char_traits<char> >, std::__1::istreambuf_iterator<char, std::__1::char_traits<char> >, std::__1::ios_base&, unsigned int&, long long&) const
PUBLIC 1b74a 0 std::__1::num_get<char, std::__1::istreambuf_iterator<char, std::__1::char_traits<char> > >::get(std::__1::istreambuf_iterator<char, std::__1::char_traits<char> >, std::__1::istreambuf_iterator<char, std::__1::char_traits<char> >, std::__1::ios_base&, unsigned int&, unsigned short&) const
PUBLIC 1b758 0 std::__1::num_get<char, std::__1::istreambuf_iterator<char, std::__1::char_traits<char> > >::get(std::__1::istreambuf_iterator<char, std::__1::char_traits<char> >, std::__1::istreambuf_iterator<char, std::__1::char_traits<char> >, std::__1::ios_base&, unsigned int&, unsigned int&) const
PUBLIC 1b766 0 std::__1::num_get<char, std::__1::istreambuf_iterator<char, std::__1::char_traits<char> > >::get(std::__1::istreambuf_iterator<char, std::__1::char_traits<char> >, std::__1::istreambuf_iterator<char, std::__1::char_traits<char> >, std::__1::ios_base&, unsigned int&, unsigned long&) const
PUBLIC 1b774 0 std::__1::num_get<char, std::__1::istreambuf_iterator<char, std::__1::char_traits<char> > >::get(std::__1::istreambuf_iterator<char, std::__1::char_traits<char> >, std::__1::istreambuf_iterator<char, std::__1::char_traits<char> >, std::__1::ios_base&, unsigned int&, unsigned long long&) const
PUBLIC 1b782 0 std::__1::num_get<char, std::__1::istreambuf_iterator<char, std::__1::char_traits<char> > >::get(std::__1::istreambuf_iterator<char, std::__1::char_traits<char> >, std::__1::istreambuf_iterator<char, std::__1::char_traits<char> >, std::__1::ios_base&, unsigned int&, float&) const
PUBLIC 1b790 0 std::__1::num_get<char, std::__1::istreambuf_iterator<char, std::__1::char_traits<char> > >::get(std::__1::istreambuf_iterator<char, std::__1::char_traits<char> >, std::__1::istreambuf_iterator<char, std::__1::char_traits<char> >, std::__1::ios_base&, unsigned int&, double&) const
PUBLIC 1b79e 0 std::__1::num_get<char, std::__1::istreambuf_iterator<char, std::__1::char_traits<char> > >::get(std::__1::istreambuf_iterator<char, std::__1::char_traits<char> >, std::__1::istreambuf_iterator<char, std::__1::char_traits<char> >, std::__1::ios_base&, unsigned int&, long double&) const
PUBLIC 1b7ac 0 std::__1::num_get<char, std::__1::istreambuf_iterator<char, std::__1::char_traits<char> > >::get(std::__1::istreambuf_iterator<char, std::__1::char_traits<char> >, std::__1::istreambuf_iterator<char, std::__1::char_traits<char> >, std::__1::ios_base&, unsigned int&, void*&) const
PUBLIC 1b7ba 0 std::__1::num_get<char, std::__1::istreambuf_iterator<char, std::__1::char_traits<char> > >::~num_get()
PUBLIC 1b7c4 0 std::__1::num_get<char, std::__1::istreambuf_iterator<char, std::__1::char_traits<char> > >::~num_get()
PUBLIC 1b7ce 0 std::__1::num_get<char, std::__1::istreambuf_iterator<char, std::__1::char_traits<char> > >::~num_get()
PUBLIC 1b7ea 0 std::__1::num_get<char, std::__1::istreambuf_iterator<char, std::__1::char_traits<char> > >::do_get(std::__1::istreambuf_iterator<char, std::__1::char_traits<char> >, std::__1::istreambuf_iterator<char, std::__1::char_traits<char> >, std::__1::ios_base&, unsigned int&, bool&) const
PUBLIC 1b9d3 0 std::__1::basic_string<char, std::__1::char_traits<char>, std::__1::allocator<char> > const* std::__1::__scan_keyword<std::__1::istreambuf_iterator<char, std::__1::char_traits<char> >, std::__1::basic_string<char, std::__1::char_traits<char>, std::__1::allocator<char> > const*, std::__1::ctype<char> >(std::__1::istreambuf_iterator<char, std::__1::char_traits<char> >&, std::__1::istreambuf_iterator<char, std::__1::char_traits<char> >, std::__1::basic_string<char, std::__1::char_traits<char>, std::__1::allocator<char> > const*, std::__1::basic_string<char, std::__1::char_traits<char>, std::__1::allocator<char> > const*, std::__1::ctype<char> const&, unsigned int&, bool)
PUBLIC 1be44 0 std::__1::num_get<char, std::__1::istreambuf_iterator<char, std::__1::char_traits<char> > >::do_get(std::__1::istreambuf_iterator<char, std::__1::char_traits<char> >, std::__1::istreambuf_iterator<char, std::__1::char_traits<char> >, std::__1::ios_base&, unsigned int&, long long&) const
PUBLIC 1be4e 0 std::__1::istreambuf_iterator<char, std::__1::char_traits<char> > std::__1::num_get<char, std::__1::istreambuf_iterator<char, std::__1::char_traits<char> > >::__do_get_signed<long long>(std::__1::istreambuf_iterator<char, std::__1::char_traits<char> >, std::__1::istreambuf_iterator<char, std::__1::char_traits<char> >, std::__1::ios_base&, unsigned int&, long long&) const
PUBLIC 1c226 0 std::__1::num_get<char, std::__1::istreambuf_iterator<char, std::__1::char_traits<char> > >::do_get(std::__1::istreambuf_iterator<char, std::__1::char_traits<char> >, std::__1::istreambuf_iterator<char, std::__1::char_traits<char> >, std::__1::ios_base&, unsigned int&, unsigned short&) const
PUBLIC 1c230 0 std::__1::istreambuf_iterator<char, std::__1::char_traits<char> > std::__1::num_get<char, std::__1::istreambuf_iterator<char, std::__1::char_traits<char> > >::__do_get_unsigned<unsigned short>(std::__1::istreambuf_iterator<char, std::__1::char_traits<char> >, std::__1::istreambuf_iterator<char, std::__1::char_traits<char> >, std::__1::ios_base&, unsigned int&, unsigned short&) const
PUBLIC 1c608 0 std::__1::num_get<char, std::__1::istreambuf_iterator<char, std::__1::char_traits<char> > >::do_get(std::__1::istreambuf_iterator<char, std::__1::char_traits<char> >, std::__1::istreambuf_iterator<char, std::__1::char_traits<char> >, std::__1::ios_base&, unsigned int&, unsigned int&) const
PUBLIC 1c612 0 std::__1::istreambuf_iterator<char, std::__1::char_traits<char> > std::__1::num_get<char, std::__1::istreambuf_iterator<char, std::__1::char_traits<char> > >::__do_get_unsigned<unsigned int>(std::__1::istreambuf_iterator<char, std::__1::char_traits<char> >, std::__1::istreambuf_iterator<char, std::__1::char_traits<char> >, std::__1::ios_base&, unsigned int&, unsigned int&) const
PUBLIC 1c9f6 0 std::__1::istreambuf_iterator<char, std::__1::char_traits<char> > std::__1::num_get<char, std::__1::istreambuf_iterator<char, std::__1::char_traits<char> > >::__do_get_unsigned<unsigned long long>(std::__1::istreambuf_iterator<char, std::__1::char_traits<char> >, std::__1::istreambuf_iterator<char, std::__1::char_traits<char> >, std::__1::ios_base&, unsigned int&, unsigned long long&) const
PUBLIC 1cdd8 0 std::__1::istreambuf_iterator<char, std::__1::char_traits<char> > std::__1::num_get<char, std::__1::istreambuf_iterator<char, std::__1::char_traits<char> > >::__do_get_floating_point<float>(std::__1::istreambuf_iterator<char, std::__1::char_traits<char> >, std::__1::istreambuf_iterator<char, std::__1::char_traits<char> >, std::__1::ios_base&, unsigned int&, float&) const
PUBLIC 1d1ca 0 std::__1::num_get<char, std::__1::istreambuf_iterator<char, std::__1::char_traits<char> > >::do_get(std::__1::istreambuf_iterator<char, std::__1::char_traits<char> >, std::__1::istreambuf_iterator<char, std::__1::char_traits<char> >, std::__1::ios_base&, unsigned int&, long double&) const
PUBLIC 1d1d4 0 std::__1::istreambuf_iterator<char, std::__1::char_traits<char> > std::__1::num_get<char, std::__1::istreambuf_iterator<char, std::__1::char_traits<char> > >::__do_get_floating_point<long double>(std::__1::istreambuf_iterator<char, std::__1::char_traits<char> >, std::__1::istreambuf_iterator<char, std::__1::char_traits<char> >, std::__1::ios_base&, unsigned int&, long double&) const
PUBLIC 1d5cc 0 std::__1::num_get<char, std::__1::istreambuf_iterator<char, std::__1::char_traits<char> > >::do_get(std::__1::istreambuf_iterator<char, std::__1::char_traits<char> >, std::__1::istreambuf_iterator<char, std::__1::char_traits<char> >, std::__1::ios_base&, unsigned int&, void*&) const
PUBLIC 1d9ac 0 std::__1::num_get<wchar_t, std::__1::istreambuf_iterator<wchar_t, std::__1::char_traits<wchar_t> > >::num_get(unsigned long)
PUBLIC 1d9c8 0 std::__1::num_get<wchar_t, std::__1::istreambuf_iterator<wchar_t, std::__1::char_traits<wchar_t> > >::num_get(unsigned long)
PUBLIC 1d9e4 0 std::__1::num_get<wchar_t, std::__1::istreambuf_iterator<wchar_t, std::__1::char_traits<wchar_t> > >::get(std::__1::istreambuf_iterator<wchar_t, std::__1::char_traits<wchar_t> >, std::__1::istreambuf_iterator<wchar_t, std::__1::char_traits<wchar_t> >, std::__1::ios_base&, unsigned int&, bool&) const
PUBLIC 1d9f2 0 std::__1::num_get<wchar_t, std::__1::istreambuf_iterator<wchar_t, std::__1::char_traits<wchar_t> > >::get(std::__1::istreambuf_iterator<wchar_t, std::__1::char_traits<wchar_t> >, std::__1::istreambuf_iterator<wchar_t, std::__1::char_traits<wchar_t> >, std::__1::ios_base&, unsigned int&, long&) const
PUBLIC 1da00 0 std::__1::num_get<wchar_t, std::__1::istreambuf_iterator<wchar_t, std::__1::char_traits<wchar_t> > >::get(std::__1::istreambuf_iterator<wchar_t, std::__1::char_traits<wchar_t> >, std::__1::istreambuf_iterator<wchar_t, std::__1::char_traits<wchar_t> >, std::__1::ios_base&, unsigned int&, long long&) const
PUBLIC 1da0e 0 std::__1::num_get<wchar_t, std::__1::istreambuf_iterator<wchar_t, std::__1::char_traits<wchar_t> > >::get(std::__1::istreambuf_iterator<wchar_t, std::__1::char_traits<wchar_t> >, std::__1::istreambuf_iterator<wchar_t, std::__1::char_traits<wchar_t> >, std::__1::ios_base&, unsigned int&, unsigned short&) const
PUBLIC 1da1c 0 std::__1::num_get<wchar_t, std::__1::istreambuf_iterator<wchar_t, std::__1::char_traits<wchar_t> > >::get(std::__1::istreambuf_iterator<wchar_t, std::__1::char_traits<wchar_t> >, std::__1::istreambuf_iterator<wchar_t, std::__1::char_traits<wchar_t> >, std::__1::ios_base&, unsigned int&, unsigned int&) const
PUBLIC 1da2a 0 std::__1::num_get<wchar_t, std::__1::istreambuf_iterator<wchar_t, std::__1::char_traits<wchar_t> > >::get(std::__1::istreambuf_iterator<wchar_t, std::__1::char_traits<wchar_t> >, std::__1::istreambuf_iterator<wchar_t, std::__1::char_traits<wchar_t> >, std::__1::ios_base&, unsigned int&, unsigned long&) const
PUBLIC 1da38 0 std::__1::num_get<wchar_t, std::__1::istreambuf_iterator<wchar_t, std::__1::char_traits<wchar_t> > >::get(std::__1::istreambuf_iterator<wchar_t, std::__1::char_traits<wchar_t> >, std::__1::istreambuf_iterator<wchar_t, std::__1::char_traits<wchar_t> >, std::__1::ios_base&, unsigned int&, unsigned long long&) const
PUBLIC 1da46 0 std::__1::num_get<wchar_t, std::__1::istreambuf_iterator<wchar_t, std::__1::char_traits<wchar_t> > >::get(std::__1::istreambuf_iterator<wchar_t, std::__1::char_traits<wchar_t> >, std::__1::istreambuf_iterator<wchar_t, std::__1::char_traits<wchar_t> >, std::__1::ios_base&, unsigned int&, float&) const
PUBLIC 1da54 0 std::__1::num_get<wchar_t, std::__1::istreambuf_iterator<wchar_t, std::__1::char_traits<wchar_t> > >::get(std::__1::istreambuf_iterator<wchar_t, std::__1::char_traits<wchar_t> >, std::__1::istreambuf_iterator<wchar_t, std::__1::char_traits<wchar_t> >, std::__1::ios_base&, unsigned int&, double&) const
PUBLIC 1da62 0 std::__1::num_get<wchar_t, std::__1::istreambuf_iterator<wchar_t, std::__1::char_traits<wchar_t> > >::get(std::__1::istreambuf_iterator<wchar_t, std::__1::char_traits<wchar_t> >, std::__1::istreambuf_iterator<wchar_t, std::__1::char_traits<wchar_t> >, std::__1::ios_base&, unsigned int&, long double&) const
PUBLIC 1da70 0 std::__1::num_get<wchar_t, std::__1::istreambuf_iterator<wchar_t, std::__1::char_traits<wchar_t> > >::get(std::__1::istreambuf_iterator<wchar_t, std::__1::char_traits<wchar_t> >, std::__1::istreambuf_iterator<wchar_t, std::__1::char_traits<wchar_t> >, std::__1::ios_base&, unsigned int&, void*&) const
PUBLIC 1da7e 0 std::__1::num_get<wchar_t, std::__1::istreambuf_iterator<wchar_t, std::__1::char_traits<wchar_t> > >::~num_get()
PUBLIC 1da88 0 std::__1::num_get<wchar_t, std::__1::istreambuf_iterator<wchar_t, std::__1::char_traits<wchar_t> > >::~num_get()
PUBLIC 1da92 0 std::__1::num_get<wchar_t, std::__1::istreambuf_iterator<wchar_t, std::__1::char_traits<wchar_t> > >::~num_get()
PUBLIC 1daae 0 std::__1::num_get<wchar_t, std::__1::istreambuf_iterator<wchar_t, std::__1::char_traits<wchar_t> > >::do_get(std::__1::istreambuf_iterator<wchar_t, std::__1::char_traits<wchar_t> >, std::__1::istreambuf_iterator<wchar_t, std::__1::char_traits<wchar_t> >, std::__1::ios_base&, unsigned int&, bool&) const
PUBLIC 1dc8a 0 std::__1::basic_string<wchar_t, std::__1::char_traits<wchar_t>, std::__1::allocator<wchar_t> > const* std::__1::__scan_keyword<std::__1::istreambuf_iterator<wchar_t, std::__1::char_traits<wchar_t> >, std::__1::basic_string<wchar_t, std::__1::char_traits<wchar_t>, std::__1::allocator<wchar_t> > const*, std::__1::ctype<wchar_t> >(std::__1::istreambuf_iterator<wchar_t, std::__1::char_traits<wchar_t> >&, std::__1::istreambuf_iterator<wchar_t, std::__1::char_traits<wchar_t> >, std::__1::basic_string<wchar_t, std::__1::char_traits<wchar_t>, std::__1::allocator<wchar_t> > const*, std::__1::basic_string<wchar_t, std::__1::char_traits<wchar_t>, std::__1::allocator<wchar_t> > const*, std::__1::ctype<wchar_t> const&, unsigned int&, bool)
PUBLIC 1e110 0 std::__1::num_get<wchar_t, std::__1::istreambuf_iterator<wchar_t, std::__1::char_traits<wchar_t> > >::do_get(std::__1::istreambuf_iterator<wchar_t, std::__1::char_traits<wchar_t> >, std::__1::istreambuf_iterator<wchar_t, std::__1::char_traits<wchar_t> >, std::__1::ios_base&, unsigned int&, long&) const
PUBLIC 1e11a 0 std::__1::istreambuf_iterator<wchar_t, std::__1::char_traits<wchar_t> > std::__1::num_get<wchar_t, std::__1::istreambuf_iterator<wchar_t, std::__1::char_traits<wchar_t> > >::__do_get_signed<long>(std::__1::istreambuf_iterator<wchar_t, std::__1::char_traits<wchar_t> >, std::__1::istreambuf_iterator<wchar_t, std::__1::char_traits<wchar_t> >, std::__1::ios_base&, unsigned int&, long&) const
PUBLIC 1e528 0 std::__1::num_get<wchar_t, std::__1::istreambuf_iterator<wchar_t, std::__1::char_traits<wchar_t> > >::do_get(std::__1::istreambuf_iterator<wchar_t, std::__1::char_traits<wchar_t> >, std::__1::istreambuf_iterator<wchar_t, std::__1::char_traits<wchar_t> >, std::__1::ios_base&, unsigned int&, long long&) const
PUBLIC 1e532 0 std::__1::istreambuf_iterator<wchar_t, std::__1::char_traits<wchar_t> > std::__1::num_get<wchar_t, std::__1::istreambuf_iterator<wchar_t, std::__1::char_traits<wchar_t> > >::__do_get_signed<long long>(std::__1::istreambuf_iterator<wchar_t, std::__1::char_traits<wchar_t> >, std::__1::istreambuf_iterator<wchar_t, std::__1::char_traits<wchar_t> >, std::__1::ios_base&, unsigned int&, long long&) const
PUBLIC 1e940 0 std::__1::num_get<wchar_t, std::__1::istreambuf_iterator<wchar_t, std::__1::char_traits<wchar_t> > >::do_get(std::__1::istreambuf_iterator<wchar_t, std::__1::char_traits<wchar_t> >, std::__1::istreambuf_iterator<wchar_t, std::__1::char_traits<wchar_t> >, std::__1::ios_base&, unsigned int&, unsigned short&) const
PUBLIC 1e94a 0 std::__1::istreambuf_iterator<wchar_t, std::__1::char_traits<wchar_t> > std::__1::num_get<wchar_t, std::__1::istreambuf_iterator<wchar_t, std::__1::char_traits<wchar_t> > >::__do_get_unsigned<unsigned short>(std::__1::istreambuf_iterator<wchar_t, std::__1::char_traits<wchar_t> >, std::__1::istreambuf_iterator<wchar_t, std::__1::char_traits<wchar_t> >, std::__1::ios_base&, unsigned int&, unsigned short&) const
PUBLIC 1ed58 0 std::__1::num_get<wchar_t, std::__1::istreambuf_iterator<wchar_t, std::__1::char_traits<wchar_t> > >::do_get(std::__1::istreambuf_iterator<wchar_t, std::__1::char_traits<wchar_t> >, std::__1::istreambuf_iterator<wchar_t, std::__1::char_traits<wchar_t> >, std::__1::ios_base&, unsigned int&, unsigned int&) const
PUBLIC 1ed62 0 std::__1::istreambuf_iterator<wchar_t, std::__1::char_traits<wchar_t> > std::__1::num_get<wchar_t, std::__1::istreambuf_iterator<wchar_t, std::__1::char_traits<wchar_t> > >::__do_get_unsigned<unsigned int>(std::__1::istreambuf_iterator<wchar_t, std::__1::char_traits<wchar_t> >, std::__1::istreambuf_iterator<wchar_t, std::__1::char_traits<wchar_t> >, std::__1::ios_base&, unsigned int&, unsigned int&) const
PUBLIC 1f16e 0 std::__1::num_get<wchar_t, std::__1::istreambuf_iterator<wchar_t, std::__1::char_traits<wchar_t> > >::do_get(std::__1::istreambuf_iterator<wchar_t, std::__1::char_traits<wchar_t> >, std::__1::istreambuf_iterator<wchar_t, std::__1::char_traits<wchar_t> >, std::__1::ios_base&, unsigned int&, unsigned long&) const
PUBLIC 1f178 0 std::__1::istreambuf_iterator<wchar_t, std::__1::char_traits<wchar_t> > std::__1::num_get<wchar_t, std::__1::istreambuf_iterator<wchar_t, std::__1::char_traits<wchar_t> > >::__do_get_unsigned<unsigned long>(std::__1::istreambuf_iterator<wchar_t, std::__1::char_traits<wchar_t> >, std::__1::istreambuf_iterator<wchar_t, std::__1::char_traits<wchar_t> >, std::__1::ios_base&, unsigned int&, unsigned long&) const
PUBLIC 1f586 0 std::__1::num_get<wchar_t, std::__1::istreambuf_iterator<wchar_t, std::__1::char_traits<wchar_t> > >::do_get(std::__1::istreambuf_iterator<wchar_t, std::__1::char_traits<wchar_t> >, std::__1::istreambuf_iterator<wchar_t, std::__1::char_traits<wchar_t> >, std::__1::ios_base&, unsigned int&, unsigned long long&) const
PUBLIC 1f590 0 std::__1::istreambuf_iterator<wchar_t, std::__1::char_traits<wchar_t> > std::__1::num_get<wchar_t, std::__1::istreambuf_iterator<wchar_t, std::__1::char_traits<wchar_t> > >::__do_get_unsigned<unsigned long long>(std::__1::istreambuf_iterator<wchar_t, std::__1::char_traits<wchar_t> >, std::__1::istreambuf_iterator<wchar_t, std::__1::char_traits<wchar_t> >, std::__1::ios_base&, unsigned int&, unsigned long long&) const
PUBLIC 1f99e 0 std::__1::num_get<wchar_t, std::__1::istreambuf_iterator<wchar_t, std::__1::char_traits<wchar_t> > >::do_get(std::__1::istreambuf_iterator<wchar_t, std::__1::char_traits<wchar_t> >, std::__1::istreambuf_iterator<wchar_t, std::__1::char_traits<wchar_t> >, std::__1::ios_base&, unsigned int&, float&) const
PUBLIC 1f9a8 0 std::__1::istreambuf_iterator<wchar_t, std::__1::char_traits<wchar_t> > std::__1::num_get<wchar_t, std::__1::istreambuf_iterator<wchar_t, std::__1::char_traits<wchar_t> > >::__do_get_floating_point<float>(std::__1::istreambuf_iterator<wchar_t, std::__1::char_traits<wchar_t> >, std::__1::istreambuf_iterator<wchar_t, std::__1::char_traits<wchar_t> >, std::__1::ios_base&, unsigned int&, float&) const
PUBLIC 1fdb6 0 std::__1::num_get<wchar_t, std::__1::istreambuf_iterator<wchar_t, std::__1::char_traits<wchar_t> > >::do_get(std::__1::istreambuf_iterator<wchar_t, std::__1::char_traits<wchar_t> >, std::__1::istreambuf_iterator<wchar_t, std::__1::char_traits<wchar_t> >, std::__1::ios_base&, unsigned int&, double&) const
PUBLIC 1fdc0 0 std::__1::istreambuf_iterator<wchar_t, std::__1::char_traits<wchar_t> > std::__1::num_get<wchar_t, std::__1::istreambuf_iterator<wchar_t, std::__1::char_traits<wchar_t> > >::__do_get_floating_point<double>(std::__1::istreambuf_iterator<wchar_t, std::__1::char_traits<wchar_t> >, std::__1::istreambuf_iterator<wchar_t, std::__1::char_traits<wchar_t> >, std::__1::ios_base&, unsigned int&, double&) const
PUBLIC 201ce 0 std::__1::num_get<wchar_t, std::__1::istreambuf_iterator<wchar_t, std::__1::char_traits<wchar_t> > >::do_get(std::__1::istreambuf_iterator<wchar_t, std::__1::char_traits<wchar_t> >, std::__1::istreambuf_iterator<wchar_t, std::__1::char_traits<wchar_t> >, std::__1::ios_base&, unsigned int&, long double&) const
PUBLIC 201d8 0 std::__1::istreambuf_iterator<wchar_t, std::__1::char_traits<wchar_t> > std::__1::num_get<wchar_t, std::__1::istreambuf_iterator<wchar_t, std::__1::char_traits<wchar_t> > >::__do_get_floating_point<long double>(std::__1::istreambuf_iterator<wchar_t, std::__1::char_traits<wchar_t> >, std::__1::istreambuf_iterator<wchar_t, std::__1::char_traits<wchar_t> >, std::__1::ios_base&, unsigned int&, long double&) const
PUBLIC 205f2 0 std::__1::num_get<wchar_t, std::__1::istreambuf_iterator<wchar_t, std::__1::char_traits<wchar_t> > >::do_get(std::__1::istreambuf_iterator<wchar_t, std::__1::char_traits<wchar_t> >, std::__1::istreambuf_iterator<wchar_t, std::__1::char_traits<wchar_t> >, std::__1::ios_base&, unsigned int&, void*&) const
PUBLIC 209ee 0 std::__1::__num_get<wchar_t>::__stage2_int_loop(wchar_t, int, char*, char*&, unsigned int&, wchar_t, std::__1::basic_string<char, std::__1::char_traits<char>, std::__1::allocator<char> > const&, unsigned int*, unsigned int*&, wchar_t*)
PUBLIC 20b28 0 std::__1::__num_get<wchar_t>::__stage2_int_prep(std::__1::ios_base&, wchar_t*, wchar_t&)
PUBLIC 20be8 0 std::__1::__num_get<wchar_t>::__stage2_float_prep(std::__1::ios_base&, wchar_t*, wchar_t&, wchar_t&)
PUBLIC 20cb8 0 std::__1::__num_get<wchar_t>::__stage2_float_loop(wchar_t, bool&, char&, char*, char*&, wchar_t, wchar_t, std::__1::basic_string<char, std::__1::char_traits<char>, std::__1::allocator<char> > const&, unsigned int*, unsigned int*&, unsigned int&, wchar_t*)
PUBLIC 20e92 0 std::__1::num_put<char, std::__1::ostreambuf_iterator<char, std::__1::char_traits<char> > >::num_put(unsigned long)
PUBLIC 20eae 0 std::__1::num_put<char, std::__1::ostreambuf_iterator<char, std::__1::char_traits<char> > >::num_put(unsigned long)
PUBLIC 20eca 0 std::__1::num_put<char, std::__1::ostreambuf_iterator<char, std::__1::char_traits<char> > >::put(std::__1::ostreambuf_iterator<char, std::__1::char_traits<char> >, std::__1::ios_base&, char, bool) const
PUBLIC 20ed8 0 std::__1::num_put<char, std::__1::ostreambuf_iterator<char, std::__1::char_traits<char> > >::put(std::__1::ostreambuf_iterator<char, std::__1::char_traits<char> >, std::__1::ios_base&, char, long) const
PUBLIC 20ee6 0 std::__1::num_put<char, std::__1::ostreambuf_iterator<char, std::__1::char_traits<char> > >::put(std::__1::ostreambuf_iterator<char, std::__1::char_traits<char> >, std::__1::ios_base&, char, long long) const
PUBLIC 20ef4 0 std::__1::num_put<char, std::__1::ostreambuf_iterator<char, std::__1::char_traits<char> > >::put(std::__1::ostreambuf_iterator<char, std::__1::char_traits<char> >, std::__1::ios_base&, char, unsigned long) const
PUBLIC 20f02 0 std::__1::num_put<char, std::__1::ostreambuf_iterator<char, std::__1::char_traits<char> > >::put(std::__1::ostreambuf_iterator<char, std::__1::char_traits<char> >, std::__1::ios_base&, char, unsigned long long) const
PUBLIC 20f10 0 std::__1::num_put<char, std::__1::ostreambuf_iterator<char, std::__1::char_traits<char> > >::put(std::__1::ostreambuf_iterator<char, std::__1::char_traits<char> >, std::__1::ios_base&, char, double) const
PUBLIC 20f1e 0 std::__1::num_put<char, std::__1::ostreambuf_iterator<char, std::__1::char_traits<char> > >::put(std::__1::ostreambuf_iterator<char, std::__1::char_traits<char> >, std::__1::ios_base&, char, long double) const
PUBLIC 20f2c 0 std::__1::num_put<char, std::__1::ostreambuf_iterator<char, std::__1::char_traits<char> > >::put(std::__1::ostreambuf_iterator<char, std::__1::char_traits<char> >, std::__1::ios_base&, char, void const*) const
PUBLIC 20f3a 0 std::__1::num_put<char, std::__1::ostreambuf_iterator<char, std::__1::char_traits<char> > >::~num_put()
PUBLIC 20f44 0 std::__1::num_put<char, std::__1::ostreambuf_iterator<char, std::__1::char_traits<char> > >::~num_put()
PUBLIC 20f4e 0 std::__1::num_put<char, std::__1::ostreambuf_iterator<char, std::__1::char_traits<char> > >::~num_put()
PUBLIC 20f74 0 std::__1::num_put<char, std::__1::ostreambuf_iterator<char, std::__1::char_traits<char> > >::do_put(std::__1::ostreambuf_iterator<char, std::__1::char_traits<char> >, std::__1::ios_base&, char, long double) const
PUBLIC 21212 0 std::__1::num_put<wchar_t, std::__1::ostreambuf_iterator<wchar_t, std::__1::char_traits<wchar_t> > >::num_put(unsigned long)
PUBLIC 2122e 0 std::__1::num_put<wchar_t, std::__1::ostreambuf_iterator<wchar_t, std::__1::char_traits<wchar_t> > >::num_put(unsigned long)
PUBLIC 2124a 0 std::__1::num_put<wchar_t, std::__1::ostreambuf_iterator<wchar_t, std::__1::char_traits<wchar_t> > >::put(std::__1::ostreambuf_iterator<wchar_t, std::__1::char_traits<wchar_t> >, std::__1::ios_base&, wchar_t, bool) const
PUBLIC 21258 0 std::__1::num_put<wchar_t, std::__1::ostreambuf_iterator<wchar_t, std::__1::char_traits<wchar_t> > >::put(std::__1::ostreambuf_iterator<wchar_t, std::__1::char_traits<wchar_t> >, std::__1::ios_base&, wchar_t, long) const
PUBLIC 21266 0 std::__1::num_put<wchar_t, std::__1::ostreambuf_iterator<wchar_t, std::__1::char_traits<wchar_t> > >::put(std::__1::ostreambuf_iterator<wchar_t, std::__1::char_traits<wchar_t> >, std::__1::ios_base&, wchar_t, long long) const
PUBLIC 21274 0 std::__1::num_put<wchar_t, std::__1::ostreambuf_iterator<wchar_t, std::__1::char_traits<wchar_t> > >::put(std::__1::ostreambuf_iterator<wchar_t, std::__1::char_traits<wchar_t> >, std::__1::ios_base&, wchar_t, unsigned long) const
PUBLIC 21282 0 std::__1::num_put<wchar_t, std::__1::ostreambuf_iterator<wchar_t, std::__1::char_traits<wchar_t> > >::put(std::__1::ostreambuf_iterator<wchar_t, std::__1::char_traits<wchar_t> >, std::__1::ios_base&, wchar_t, unsigned long long) const
PUBLIC 21290 0 std::__1::num_put<wchar_t, std::__1::ostreambuf_iterator<wchar_t, std::__1::char_traits<wchar_t> > >::put(std::__1::ostreambuf_iterator<wchar_t, std::__1::char_traits<wchar_t> >, std::__1::ios_base&, wchar_t, double) const
PUBLIC 2129e 0 std::__1::num_put<wchar_t, std::__1::ostreambuf_iterator<wchar_t, std::__1::char_traits<wchar_t> > >::put(std::__1::ostreambuf_iterator<wchar_t, std::__1::char_traits<wchar_t> >, std::__1::ios_base&, wchar_t, long double) const
PUBLIC 212ac 0 std::__1::num_put<wchar_t, std::__1::ostreambuf_iterator<wchar_t, std::__1::char_traits<wchar_t> > >::put(std::__1::ostreambuf_iterator<wchar_t, std::__1::char_traits<wchar_t> >, std::__1::ios_base&, wchar_t, void const*) const
PUBLIC 212ba 0 std::__1::num_put<wchar_t, std::__1::ostreambuf_iterator<wchar_t, std::__1::char_traits<wchar_t> > >::~num_put()
PUBLIC 212c4 0 std::__1::num_put<wchar_t, std::__1::ostreambuf_iterator<wchar_t, std::__1::char_traits<wchar_t> > >::~num_put()
PUBLIC 212ce 0 std::__1::num_put<wchar_t, std::__1::ostreambuf_iterator<wchar_t, std::__1::char_traits<wchar_t> > >::~num_put()
PUBLIC 212ea 0 std::__1::num_put<wchar_t, std::__1::ostreambuf_iterator<wchar_t, std::__1::char_traits<wchar_t> > >::do_put(std::__1::ostreambuf_iterator<wchar_t, std::__1::char_traits<wchar_t> >, std::__1::ios_base&, wchar_t, bool) const
PUBLIC 2144c 0 std::__1::num_put<wchar_t, std::__1::ostreambuf_iterator<wchar_t, std::__1::char_traits<wchar_t> > >::do_put(std::__1::ostreambuf_iterator<wchar_t, std::__1::char_traits<wchar_t> >, std::__1::ios_base&, wchar_t, long) const
PUBLIC 21592 0 std::__1::__num_put<wchar_t>::__widen_and_group_int(char*, char*, char*, wchar_t*, wchar_t*&, wchar_t*&, std::__1::locale const&)
PUBLIC 2186f 0 std::__1::ostreambuf_iterator<wchar_t, std::__1::char_traits<wchar_t> > std::__1::__pad_and_output<wchar_t, std::__1::char_traits<wchar_t> >(std::__1::ostreambuf_iterator<wchar_t, std::__1::char_traits<wchar_t> >, wchar_t const*, wchar_t const*, wchar_t const*, std::__1::ios_base&, wchar_t)
PUBLIC 2199e 0 std::__1::num_put<wchar_t, std::__1::ostreambuf_iterator<wchar_t, std::__1::char_traits<wchar_t> > >::do_put(std::__1::ostreambuf_iterator<wchar_t, std::__1::char_traits<wchar_t> >, std::__1::ios_base&, wchar_t, long long) const
PUBLIC 21ade 0 std::__1::num_put<wchar_t, std::__1::ostreambuf_iterator<wchar_t, std::__1::char_traits<wchar_t> > >::do_put(std::__1::ostreambuf_iterator<wchar_t, std::__1::char_traits<wchar_t> >, std::__1::ios_base&, wchar_t, unsigned long) const
PUBLIC 21c20 0 std::__1::num_put<wchar_t, std::__1::ostreambuf_iterator<wchar_t, std::__1::char_traits<wchar_t> > >::do_put(std::__1::ostreambuf_iterator<wchar_t, std::__1::char_traits<wchar_t> >, std::__1::ios_base&, wchar_t, unsigned long long) const
PUBLIC 21d5e 0 std::__1::num_put<wchar_t, std::__1::ostreambuf_iterator<wchar_t, std::__1::char_traits<wchar_t> > >::do_put(std::__1::ostreambuf_iterator<wchar_t, std::__1::char_traits<wchar_t> >, std::__1::ios_base&, wchar_t, double) const
PUBLIC 21ff8 0 std::__1::__num_put<wchar_t>::__widen_and_group_float(char*, char*, char*, wchar_t*, wchar_t*&, wchar_t*&, std::__1::locale const&)
PUBLIC 223c4 0 std::__1::num_put<wchar_t, std::__1::ostreambuf_iterator<wchar_t, std::__1::char_traits<wchar_t> > >::do_put(std::__1::ostreambuf_iterator<wchar_t, std::__1::char_traits<wchar_t> >, std::__1::ios_base&, wchar_t, long double) const
PUBLIC 2265e 0 std::__1::num_put<wchar_t, std::__1::ostreambuf_iterator<wchar_t, std::__1::char_traits<wchar_t> > >::do_put(std::__1::ostreambuf_iterator<wchar_t, std::__1::char_traits<wchar_t> >, std::__1::ios_base&, wchar_t, void const*) const
PUBLIC 227aa 0 std::__1::time_get<char, std::__1::istreambuf_iterator<char, std::__1::char_traits<char> > >::time_get(unsigned long)
PUBLIC 227ce 0 std::__1::time_get<char, std::__1::istreambuf_iterator<char, std::__1::char_traits<char> > >::time_get(unsigned long)
PUBLIC 227f2 0 std::__1::time_get<char, std::__1::istreambuf_iterator<char, std::__1::char_traits<char> > >::date_order() const
PUBLIC 227fe 0 std::__1::time_get<char, std::__1::istreambuf_iterator<char, std::__1::char_traits<char> > >::get_time(std::__1::istreambuf_iterator<char, std::__1::char_traits<char> >, std::__1::istreambuf_iterator<char, std::__1::char_traits<char> >, std::__1::ios_base&, unsigned int&, tm*) const
PUBLIC 2280c 0 std::__1::time_get<char, std::__1::istreambuf_iterator<char, std::__1::char_traits<char> > >::get_date(std::__1::istreambuf_iterator<char, std::__1::char_traits<char> >, std::__1::istreambuf_iterator<char, std::__1::char_traits<char> >, std::__1::ios_base&, unsigned int&, tm*) const
PUBLIC 2281a 0 std::__1::time_get<char, std::__1::istreambuf_iterator<char, std::__1::char_traits<char> > >::get_weekday(std::__1::istreambuf_iterator<char, std::__1::char_traits<char> >, std::__1::istreambuf_iterator<char, std::__1::char_traits<char> >, std::__1::ios_base&, unsigned int&, tm*) const
PUBLIC 22828 0 std::__1::time_get<char, std::__1::istreambuf_iterator<char, std::__1::char_traits<char> > >::get_monthname(std::__1::istreambuf_iterator<char, std::__1::char_traits<char> >, std::__1::istreambuf_iterator<char, std::__1::char_traits<char> >, std::__1::ios_base&, unsigned int&, tm*) const
PUBLIC 22836 0 std::__1::time_get<char, std::__1::istreambuf_iterator<char, std::__1::char_traits<char> > >::get_year(std::__1::istreambuf_iterator<char, std::__1::char_traits<char> >, std::__1::istreambuf_iterator<char, std::__1::char_traits<char> >, std::__1::ios_base&, unsigned int&, tm*) const
PUBLIC 22844 0 std::__1::time_get<char, std::__1::istreambuf_iterator<char, std::__1::char_traits<char> > >::get(std::__1::istreambuf_iterator<char, std::__1::char_traits<char> >, std::__1::istreambuf_iterator<char, std::__1::char_traits<char> >, std::__1::ios_base&, unsigned int&, tm*, char, char) const
PUBLIC 22852 0 std::__1::time_get<char, std::__1::istreambuf_iterator<char, std::__1::char_traits<char> > >::get(std::__1::istreambuf_iterator<char, std::__1::char_traits<char> >, std::__1::istreambuf_iterator<char, std::__1::char_traits<char> >, std::__1::ios_base&, unsigned int&, tm*, char const*, char const*) const
PUBLIC 22c48 0 std::__1::time_get<char, std::__1::istreambuf_iterator<char, std::__1::char_traits<char> > >::~time_get()
PUBLIC 22c52 0 std::__1::time_get<char, std::__1::istreambuf_iterator<char, std::__1::char_traits<char> > >::~time_get()
PUBLIC 22c5c 0 std::__1::time_get<char, std::__1::istreambuf_iterator<char, std::__1::char_traits<char> > >::~time_get()
PUBLIC 22c78 0 std::__1::time_get<char, std::__1::istreambuf_iterator<char, std::__1::char_traits<char> > >::do_date_order() const
PUBLIC 22c84 0 std::__1::time_get<char, std::__1::istreambuf_iterator<char, std::__1::char_traits<char> > >::do_get_time(std::__1::istreambuf_iterator<char, std::__1::char_traits<char> >, std::__1::istreambuf_iterator<char, std::__1::char_traits<char> >, std::__1::ios_base&, unsigned int&, tm*) const
PUBLIC 22ca4 0 std::__1::time_get<char, std::__1::istreambuf_iterator<char, std::__1::char_traits<char> > >::do_get_date(std::__1::istreambuf_iterator<char, std::__1::char_traits<char> >, std::__1::istreambuf_iterator<char, std::__1::char_traits<char> >, std::__1::ios_base&, unsigned int&, tm*) const
PUBLIC 22d1c 0 std::__1::time_get<char, std::__1::istreambuf_iterator<char, std::__1::char_traits<char> > >::do_get_weekday(std::__1::istreambuf_iterator<char, std::__1::char_traits<char> >, std::__1::istreambuf_iterator<char, std::__1::char_traits<char> >, std::__1::ios_base&, unsigned int&, tm*) const
PUBLIC 22dbc 0 std::__1::time_get<char, std::__1::istreambuf_iterator<char, std::__1::char_traits<char> > >::__get_weekdayname(int&, std::__1::istreambuf_iterator<char, std::__1::char_traits<char> >&, std::__1::istreambuf_iterator<char, std::__1::char_traits<char> >, unsigned int&, std::__1::ctype<char> const&) const
PUBLIC 22e66 0 std::__1::time_get<char, std::__1::istreambuf_iterator<char, std::__1::char_traits<char> > >::do_get_monthname(std::__1::istreambuf_iterator<char, std::__1::char_traits<char> >, std::__1::istreambuf_iterator<char, std::__1::char_traits<char> >, std::__1::ios_base&, unsigned int&, tm*) const
PUBLIC 22f06 0 std::__1::time_get<char, std::__1::istreambuf_iterator<char, std::__1::char_traits<char> > >::__get_monthname(int&, std::__1::istreambuf_iterator<char, std::__1::char_traits<char> >&, std::__1::istreambuf_iterator<char, std::__1::char_traits<char> >, unsigned int&, std::__1::ctype<char> const&) const
PUBLIC 22fae 0 std::__1::time_get<char, std::__1::istreambuf_iterator<char, std::__1::char_traits<char> > >::do_get_year(std::__1::istreambuf_iterator<char, std::__1::char_traits<char> >, std::__1::istreambuf_iterator<char, std::__1::char_traits<char> >, std::__1::ios_base&, unsigned int&, tm*) const
PUBLIC 2304e 0 std::__1::time_get<char, std::__1::istreambuf_iterator<char, std::__1::char_traits<char> > >::__get_year(int&, std::__1::istreambuf_iterator<char, std::__1::char_traits<char> >&, std::__1::istreambuf_iterator<char, std::__1::char_traits<char> >, unsigned int&, std::__1::ctype<char> const&) const
PUBLIC 2309e 0 std::__1::time_get<char, std::__1::istreambuf_iterator<char, std::__1::char_traits<char> > >::do_get(std::__1::istreambuf_iterator<char, std::__1::char_traits<char> >, std::__1::istreambuf_iterator<char, std::__1::char_traits<char> >, std::__1::ios_base&, unsigned int&, tm*, char, char) const
PUBLIC 23650 0 std::__1::time_get<char, std::__1::istreambuf_iterator<char, std::__1::char_traits<char> > >::__get_day(int&, std::__1::istreambuf_iterator<char, std::__1::char_traits<char> >&, std::__1::istreambuf_iterator<char, std::__1::char_traits<char> >, unsigned int&, std::__1::ctype<char> const&) const
PUBLIC 23694 0 std::__1::time_get<char, std::__1::istreambuf_iterator<char, std::__1::char_traits<char> > >::__get_hour(int&, std::__1::istreambuf_iterator<char, std::__1::char_traits<char> >&, std::__1::istreambuf_iterator<char, std::__1::char_traits<char> >, unsigned int&, std::__1::ctype<char> const&) const
PUBLIC 236d6 0 std::__1::time_get<char, std::__1::istreambuf_iterator<char, std::__1::char_traits<char> > >::__get_12_hour(int&, std::__1::istreambuf_iterator<char, std::__1::char_traits<char> >&, std::__1::istreambuf_iterator<char, std::__1::char_traits<char> >, unsigned int&, std::__1::ctype<char> const&) const
PUBLIC 2371a 0 std::__1::time_get<char, std::__1::istreambuf_iterator<char, std::__1::char_traits<char> > >::__get_day_year_num(int&, std::__1::istreambuf_iterator<char, std::__1::char_traits<char> >&, std::__1::istreambuf_iterator<char, std::__1::char_traits<char> >, unsigned int&, std::__1::ctype<char> const&) const
PUBLIC 2375e 0 std::__1::time_get<char, std::__1::istreambuf_iterator<char, std::__1::char_traits<char> > >::__get_month(int&, std::__1::istreambuf_iterator<char, std::__1::char_traits<char> >&, std::__1::istreambuf_iterator<char, std::__1::char_traits<char> >, unsigned int&, std::__1::ctype<char> const&) const
PUBLIC 237a2 0 std::__1::time_get<char, std::__1::istreambuf_iterator<char, std::__1::char_traits<char> > >::__get_minute(int&, std::__1::istreambuf_iterator<char, std::__1::char_traits<char> >&, std::__1::istreambuf_iterator<char, std::__1::char_traits<char> >, unsigned int&, std::__1::ctype<char> const&) const
PUBLIC 237e4 0 std::__1::time_get<char, std::__1::istreambuf_iterator<char, std::__1::char_traits<char> > >::__get_white_space(std::__1::istreambuf_iterator<char, std::__1::char_traits<char> >&, std::__1::istreambuf_iterator<char, std::__1::char_traits<char> >, unsigned int&, std::__1::ctype<char> const&) const
PUBLIC 23924 0 std::__1::time_get<char, std::__1::istreambuf_iterator<char, std::__1::char_traits<char> > >::__get_am_pm(int&, std::__1::istreambuf_iterator<char, std::__1::char_traits<char> >&, std::__1::istreambuf_iterator<char, std::__1::char_traits<char> >, unsigned int&, std::__1::ctype<char> const&) const
PUBLIC 239dc 0 std::__1::time_get<char, std::__1::istreambuf_iterator<char, std::__1::char_traits<char> > >::__get_second(int&, std::__1::istreambuf_iterator<char, std::__1::char_traits<char> >&, std::__1::istreambuf_iterator<char, std::__1::char_traits<char> >, unsigned int&, std::__1::ctype<char> const&) const
PUBLIC 23a1e 0 std::__1::time_get<char, std::__1::istreambuf_iterator<char, std::__1::char_traits<char> > >::__get_weekday(int&, std::__1::istreambuf_iterator<char, std::__1::char_traits<char> >&, std::__1::istreambuf_iterator<char, std::__1::char_traits<char> >, unsigned int&, std::__1::ctype<char> const&) const
PUBLIC 23a60 0 std::__1::time_get<char, std::__1::istreambuf_iterator<char, std::__1::char_traits<char> > >::__get_year4(int&, std::__1::istreambuf_iterator<char, std::__1::char_traits<char> >&, std::__1::istreambuf_iterator<char, std::__1::char_traits<char> >, unsigned int&, std::__1::ctype<char> const&) const
PUBLIC 23a96 0 std::__1::time_get<char, std::__1::istreambuf_iterator<char, std::__1::char_traits<char> > >::__get_percent(std::__1::istreambuf_iterator<char, std::__1::char_traits<char> >&, std::__1::istreambuf_iterator<char, std::__1::char_traits<char> >, unsigned int&, std::__1::ctype<char> const&) const
PUBLIC 23be4 0 int std::__1::__get_up_to_n_digits<char, std::__1::istreambuf_iterator<char, std::__1::char_traits<char> > >(std::__1::istreambuf_iterator<char, std::__1::char_traits<char> >&, std::__1::istreambuf_iterator<char, std::__1::char_traits<char> >, unsigned int&, std::__1::ctype<char> const&, int)
PUBLIC 23e7e 0 std::__1::time_get<wchar_t, std::__1::istreambuf_iterator<wchar_t, std::__1::char_traits<wchar_t> > >::time_get(unsigned long)
PUBLIC 23ea2 0 std::__1::time_get<wchar_t, std::__1::istreambuf_iterator<wchar_t, std::__1::char_traits<wchar_t> > >::time_get(unsigned long)
PUBLIC 23ec6 0 std::__1::time_get<wchar_t, std::__1::istreambuf_iterator<wchar_t, std::__1::char_traits<wchar_t> > >::date_order() const
PUBLIC 23ed2 0 std::__1::time_get<wchar_t, std::__1::istreambuf_iterator<wchar_t, std::__1::char_traits<wchar_t> > >::get_time(std::__1::istreambuf_iterator<wchar_t, std::__1::char_traits<wchar_t> >, std::__1::istreambuf_iterator<wchar_t, std::__1::char_traits<wchar_t> >, std::__1::ios_base&, unsigned int&, tm*) const
PUBLIC 23ee0 0 std::__1::time_get<wchar_t, std::__1::istreambuf_iterator<wchar_t, std::__1::char_traits<wchar_t> > >::get_date(std::__1::istreambuf_iterator<wchar_t, std::__1::char_traits<wchar_t> >, std::__1::istreambuf_iterator<wchar_t, std::__1::char_traits<wchar_t> >, std::__1::ios_base&, unsigned int&, tm*) const
PUBLIC 23eee 0 std::__1::time_get<wchar_t, std::__1::istreambuf_iterator<wchar_t, std::__1::char_traits<wchar_t> > >::get_weekday(std::__1::istreambuf_iterator<wchar_t, std::__1::char_traits<wchar_t> >, std::__1::istreambuf_iterator<wchar_t, std::__1::char_traits<wchar_t> >, std::__1::ios_base&, unsigned int&, tm*) const
PUBLIC 23efc 0 std::__1::time_get<wchar_t, std::__1::istreambuf_iterator<wchar_t, std::__1::char_traits<wchar_t> > >::get_monthname(std::__1::istreambuf_iterator<wchar_t, std::__1::char_traits<wchar_t> >, std::__1::istreambuf_iterator<wchar_t, std::__1::char_traits<wchar_t> >, std::__1::ios_base&, unsigned int&, tm*) const
PUBLIC 23f0a 0 std::__1::time_get<wchar_t, std::__1::istreambuf_iterator<wchar_t, std::__1::char_traits<wchar_t> > >::get_year(std::__1::istreambuf_iterator<wchar_t, std::__1::char_traits<wchar_t> >, std::__1::istreambuf_iterator<wchar_t, std::__1::char_traits<wchar_t> >, std::__1::ios_base&, unsigned int&, tm*) const
PUBLIC 23f18 0 std::__1::time_get<wchar_t, std::__1::istreambuf_iterator<wchar_t, std::__1::char_traits<wchar_t> > >::get(std::__1::istreambuf_iterator<wchar_t, std::__1::char_traits<wchar_t> >, std::__1::istreambuf_iterator<wchar_t, std::__1::char_traits<wchar_t> >, std::__1::ios_base&, unsigned int&, tm*, char, char) const
PUBLIC 23f26 0 std::__1::time_get<wchar_t, std::__1::istreambuf_iterator<wchar_t, std::__1::char_traits<wchar_t> > >::get(std::__1::istreambuf_iterator<wchar_t, std::__1::char_traits<wchar_t> >, std::__1::istreambuf_iterator<wchar_t, std::__1::char_traits<wchar_t> >, std::__1::ios_base&, unsigned int&, tm*, wchar_t const*, wchar_t const*) const
PUBLIC 24308 0 std::__1::time_get<wchar_t, std::__1::istreambuf_iterator<wchar_t, std::__1::char_traits<wchar_t> > >::~time_get()
PUBLIC 24312 0 std::__1::time_get<wchar_t, std::__1::istreambuf_iterator<wchar_t, std::__1::char_traits<wchar_t> > >::~time_get()
PUBLIC 2431c 0 std::__1::time_get<wchar_t, std::__1::istreambuf_iterator<wchar_t, std::__1::char_traits<wchar_t> > >::~time_get()
PUBLIC 24338 0 std::__1::time_get<wchar_t, std::__1::istreambuf_iterator<wchar_t, std::__1::char_traits<wchar_t> > >::do_date_order() const
PUBLIC 24344 0 std::__1::time_get<wchar_t, std::__1::istreambuf_iterator<wchar_t, std::__1::char_traits<wchar_t> > >::do_get_time(std::__1::istreambuf_iterator<wchar_t, std::__1::char_traits<wchar_t> >, std::__1::istreambuf_iterator<wchar_t, std::__1::char_traits<wchar_t> >, std::__1::ios_base&, unsigned int&, tm*) const
PUBLIC 24364 0 std::__1::time_get<wchar_t, std::__1::istreambuf_iterator<wchar_t, std::__1::char_traits<wchar_t> > >::do_get_date(std::__1::istreambuf_iterator<wchar_t, std::__1::char_traits<wchar_t> >, std::__1::istreambuf_iterator<wchar_t, std::__1::char_traits<wchar_t> >, std::__1::ios_base&, unsigned int&, tm*) const
PUBLIC 243de 0 std::__1::time_get<wchar_t, std::__1::istreambuf_iterator<wchar_t, std::__1::char_traits<wchar_t> > >::do_get_weekday(std::__1::istreambuf_iterator<wchar_t, std::__1::char_traits<wchar_t> >, std::__1::istreambuf_iterator<wchar_t, std::__1::char_traits<wchar_t> >, std::__1::ios_base&, unsigned int&, tm*) const
PUBLIC 2447e 0 std::__1::time_get<wchar_t, std::__1::istreambuf_iterator<wchar_t, std::__1::char_traits<wchar_t> > >::__get_weekdayname(int&, std::__1::istreambuf_iterator<wchar_t, std::__1::char_traits<wchar_t> >&, std::__1::istreambuf_iterator<wchar_t, std::__1::char_traits<wchar_t> >, unsigned int&, std::__1::ctype<wchar_t> const&) const
PUBLIC 24528 0 std::__1::time_get<wchar_t, std::__1::istreambuf_iterator<wchar_t, std::__1::char_traits<wchar_t> > >::do_get_monthname(std::__1::istreambuf_iterator<wchar_t, std::__1::char_traits<wchar_t> >, std::__1::istreambuf_iterator<wchar_t, std::__1::char_traits<wchar_t> >, std::__1::ios_base&, unsigned int&, tm*) const
PUBLIC 245c8 0 std::__1::time_get<wchar_t, std::__1::istreambuf_iterator<wchar_t, std::__1::char_traits<wchar_t> > >::__get_monthname(int&, std::__1::istreambuf_iterator<wchar_t, std::__1::char_traits<wchar_t> >&, std::__1::istreambuf_iterator<wchar_t, std::__1::char_traits<wchar_t> >, unsigned int&, std::__1::ctype<wchar_t> const&) const
PUBLIC 24670 0 std::__1::time_get<wchar_t, std::__1::istreambuf_iterator<wchar_t, std::__1::char_traits<wchar_t> > >::do_get_year(std::__1::istreambuf_iterator<wchar_t, std::__1::char_traits<wchar_t> >, std::__1::istreambuf_iterator<wchar_t, std::__1::char_traits<wchar_t> >, std::__1::ios_base&, unsigned int&, tm*) const
PUBLIC 24710 0 std::__1::time_get<wchar_t, std::__1::istreambuf_iterator<wchar_t, std::__1::char_traits<wchar_t> > >::__get_year(int&, std::__1::istreambuf_iterator<wchar_t, std::__1::char_traits<wchar_t> >&, std::__1::istreambuf_iterator<wchar_t, std::__1::char_traits<wchar_t> >, unsigned int&, std::__1::ctype<wchar_t> const&) const
PUBLIC 24760 0 std::__1::time_get<wchar_t, std::__1::istreambuf_iterator<wchar_t, std::__1::char_traits<wchar_t> > >::do_get(std::__1::istreambuf_iterator<wchar_t, std::__1::char_traits<wchar_t> >, std::__1::istreambuf_iterator<wchar_t, std::__1::char_traits<wchar_t> >, std::__1::ios_base&, unsigned int&, tm*, char, char) const
PUBLIC 24d14 0 std::__1::time_get<wchar_t, std::__1::istreambuf_iterator<wchar_t, std::__1::char_traits<wchar_t> > >::__get_day(int&, std::__1::istreambuf_iterator<wchar_t, std::__1::char_traits<wchar_t> >&, std::__1::istreambuf_iterator<wchar_t, std::__1::char_traits<wchar_t> >, unsigned int&, std::__1::ctype<wchar_t> const&) const
PUBLIC 24d58 0 std::__1::time_get<wchar_t, std::__1::istreambuf_iterator<wchar_t, std::__1::char_traits<wchar_t> > >::__get_hour(int&, std::__1::istreambuf_iterator<wchar_t, std::__1::char_traits<wchar_t> >&, std::__1::istreambuf_iterator<wchar_t, std::__1::char_traits<wchar_t> >, unsigned int&, std::__1::ctype<wchar_t> const&) const
PUBLIC 24d9a 0 std::__1::time_get<wchar_t, std::__1::istreambuf_iterator<wchar_t, std::__1::char_traits<wchar_t> > >::__get_12_hour(int&, std::__1::istreambuf_iterator<wchar_t, std::__1::char_traits<wchar_t> >&, std::__1::istreambuf_iterator<wchar_t, std::__1::char_traits<wchar_t> >, unsigned int&, std::__1::ctype<wchar_t> const&) const
PUBLIC 24dde 0 std::__1::time_get<wchar_t, std::__1::istreambuf_iterator<wchar_t, std::__1::char_traits<wchar_t> > >::__get_day_year_num(int&, std::__1::istreambuf_iterator<wchar_t, std::__1::char_traits<wchar_t> >&, std::__1::istreambuf_iterator<wchar_t, std::__1::char_traits<wchar_t> >, unsigned int&, std::__1::ctype<wchar_t> const&) const
PUBLIC 24e22 0 std::__1::time_get<wchar_t, std::__1::istreambuf_iterator<wchar_t, std::__1::char_traits<wchar_t> > >::__get_month(int&, std::__1::istreambuf_iterator<wchar_t, std::__1::char_traits<wchar_t> >&, std::__1::istreambuf_iterator<wchar_t, std::__1::char_traits<wchar_t> >, unsigned int&, std::__1::ctype<wchar_t> const&) const
PUBLIC 24e66 0 std::__1::time_get<wchar_t, std::__1::istreambuf_iterator<wchar_t, std::__1::char_traits<wchar_t> > >::__get_minute(int&, std::__1::istreambuf_iterator<wchar_t, std::__1::char_traits<wchar_t> >&, std::__1::istreambuf_iterator<wchar_t, std::__1::char_traits<wchar_t> >, unsigned int&, std::__1::ctype<wchar_t> const&) const
PUBLIC 24ea8 0 std::__1::time_get<wchar_t, std::__1::istreambuf_iterator<wchar_t, std::__1::char_traits<wchar_t> > >::__get_white_space(std::__1::istreambuf_iterator<wchar_t, std::__1::char_traits<wchar_t> >&, std::__1::istreambuf_iterator<wchar_t, std::__1::char_traits<wchar_t> >, unsigned int&, std::__1::ctype<wchar_t> const&) const
PUBLIC 24fea 0 std::__1::time_get<wchar_t, std::__1::istreambuf_iterator<wchar_t, std::__1::char_traits<wchar_t> > >::__get_am_pm(int&, std::__1::istreambuf_iterator<wchar_t, std::__1::char_traits<wchar_t> >&, std::__1::istreambuf_iterator<wchar_t, std::__1::char_traits<wchar_t> >, unsigned int&, std::__1::ctype<wchar_t> const&) const
PUBLIC 250a2 0 std::__1::time_get<wchar_t, std::__1::istreambuf_iterator<wchar_t, std::__1::char_traits<wchar_t> > >::__get_second(int&, std::__1::istreambuf_iterator<wchar_t, std::__1::char_traits<wchar_t> >&, std::__1::istreambuf_iterator<wchar_t, std::__1::char_traits<wchar_t> >, unsigned int&, std::__1::ctype<wchar_t> const&) const
PUBLIC 250e4 0 std::__1::time_get<wchar_t, std::__1::istreambuf_iterator<wchar_t, std::__1::char_traits<wchar_t> > >::__get_weekday(int&, std::__1::istreambuf_iterator<wchar_t, std::__1::char_traits<wchar_t> >&, std::__1::istreambuf_iterator<wchar_t, std::__1::char_traits<wchar_t> >, unsigned int&, std::__1::ctype<wchar_t> const&) const
PUBLIC 25126 0 std::__1::time_get<wchar_t, std::__1::istreambuf_iterator<wchar_t, std::__1::char_traits<wchar_t> > >::__get_year4(int&, std::__1::istreambuf_iterator<wchar_t, std::__1::char_traits<wchar_t> >&, std::__1::istreambuf_iterator<wchar_t, std::__1::char_traits<wchar_t> >, unsigned int&, std::__1::ctype<wchar_t> const&) const
PUBLIC 2515c 0 std::__1::time_get<wchar_t, std::__1::istreambuf_iterator<wchar_t, std::__1::char_traits<wchar_t> > >::__get_percent(std::__1::istreambuf_iterator<wchar_t, std::__1::char_traits<wchar_t> >&, std::__1::istreambuf_iterator<wchar_t, std::__1::char_traits<wchar_t> >, unsigned int&, std::__1::ctype<wchar_t> const&) const
PUBLIC 252a7 0 int std::__1::__get_up_to_n_digits<wchar_t, std::__1::istreambuf_iterator<wchar_t, std::__1::char_traits<wchar_t> > >(std::__1::istreambuf_iterator<wchar_t, std::__1::char_traits<wchar_t> >&, std::__1::istreambuf_iterator<wchar_t, std::__1::char_traits<wchar_t> >, unsigned int&, std::__1::ctype<wchar_t> const&, int)
PUBLIC 2553e 0 std::__1::time_get_byname<char, std::__1::istreambuf_iterator<char, std::__1::char_traits<char> > >::time_get_byname(char const*, unsigned long)
PUBLIC 255a0 0 std::__1::__time_get_storage<char>::__time_get_storage(char const*)
PUBLIC 256ee 0 std::__1::time_get_byname<char, std::__1::istreambuf_iterator<char, std::__1::char_traits<char> > >::time_get_byname(char const*, unsigned long)
PUBLIC 25750 0 std::__1::time_get_byname<char, std::__1::istreambuf_iterator<char, std::__1::char_traits<char> > >::time_get_byname(std::__1::basic_string<char, std::__1::char_traits<char>, std::__1::allocator<char> > const&, unsigned long)
PUBLIC 257b2 0 std::__1::__time_get_storage<char>::__time_get_storage(std::__1::basic_string<char, std::__1::char_traits<char>, std::__1::allocator<char> > const&)
PUBLIC 25900 0 std::__1::time_get_byname<char, std::__1::istreambuf_iterator<char, std::__1::char_traits<char> > >::time_get_byname(std::__1::basic_string<char, std::__1::char_traits<char>, std::__1::allocator<char> > const&, unsigned long)
PUBLIC 25962 0 std::__1::time_get_byname<char, std::__1::istreambuf_iterator<char, std::__1::char_traits<char> > >::~time_get_byname()
PUBLIC 25a3e 0 std::__1::time_get_byname<char, std::__1::istreambuf_iterator<char, std::__1::char_traits<char> > >::~time_get_byname()
PUBLIC 25b1a 0 std::__1::time_get_byname<char, std::__1::istreambuf_iterator<char, std::__1::char_traits<char> > >::~time_get_byname()
PUBLIC 25bfe 0 std::__1::time_get_byname<char, std::__1::istreambuf_iterator<char, std::__1::char_traits<char> > >::do_date_order() const
PUBLIC 25c0c 0 std::__1::__time_get_storage<char>::__do_date_order() const
PUBLIC 25f74 0 std::__1::time_get_byname<char, std::__1::istreambuf_iterator<char, std::__1::char_traits<char> > >::__weeks() const
PUBLIC 25f7e 0 non-virtual thunk to std::__1::time_get_byname<char, std::__1::istreambuf_iterator<char, std::__1::char_traits<char> > >::__weeks() const
PUBLIC 25f88 0 std::__1::time_get_byname<char, std::__1::istreambuf_iterator<char, std::__1::char_traits<char> > >::__months() const
PUBLIC 25f96 0 non-virtual thunk to std::__1::time_get_byname<char, std::__1::istreambuf_iterator<char, std::__1::char_traits<char> > >::__months() const
PUBLIC 25fa4 0 std::__1::time_get_byname<char, std::__1::istreambuf_iterator<char, std::__1::char_traits<char> > >::__am_pm() const
PUBLIC 25fb2 0 non-virtual thunk to std::__1::time_get_byname<char, std::__1::istreambuf_iterator<char, std::__1::char_traits<char> > >::__am_pm() const
PUBLIC 25fc0 0 std::__1::time_get_byname<char, std::__1::istreambuf_iterator<char, std::__1::char_traits<char> > >::__c() const
PUBLIC 25fce 0 non-virtual thunk to std::__1::time_get_byname<char, std::__1::istreambuf_iterator<char, std::__1::char_traits<char> > >::__c() const
PUBLIC 25fdc 0 std::__1::time_get_byname<char, std::__1::istreambuf_iterator<char, std::__1::char_traits<char> > >::__r() const
PUBLIC 25fea 0 non-virtual thunk to std::__1::time_get_byname<char, std::__1::istreambuf_iterator<char, std::__1::char_traits<char> > >::__r() const
PUBLIC 25ff8 0 std::__1::time_get_byname<char, std::__1::istreambuf_iterator<char, std::__1::char_traits<char> > >::__x() const
PUBLIC 26006 0 non-virtual thunk to std::__1::time_get_byname<char, std::__1::istreambuf_iterator<char, std::__1::char_traits<char> > >::__x() const
PUBLIC 26014 0 std::__1::time_get_byname<char, std::__1::istreambuf_iterator<char, std::__1::char_traits<char> > >::__X() const
PUBLIC 26022 0 non-virtual thunk to std::__1::time_get_byname<char, std::__1::istreambuf_iterator<char, std::__1::char_traits<char> > >::__X() const
PUBLIC 26030 0 std::__1::time_get_byname<wchar_t, std::__1::istreambuf_iterator<wchar_t, std::__1::char_traits<wchar_t> > >::time_get_byname(char const*, unsigned long)
PUBLIC 26092 0 std::__1::__time_get_storage<wchar_t>::__time_get_storage(char const*)
PUBLIC 261e0 0 std::__1::time_get_byname<wchar_t, std::__1::istreambuf_iterator<wchar_t, std::__1::char_traits<wchar_t> > >::time_get_byname(char const*, unsigned long)
PUBLIC 26242 0 std::__1::time_get_byname<wchar_t, std::__1::istreambuf_iterator<wchar_t, std::__1::char_traits<wchar_t> > >::time_get_byname(std::__1::basic_string<char, std::__1::char_traits<char>, std::__1::allocator<char> > const&, unsigned long)
PUBLIC 262a4 0 std::__1::__time_get_storage<wchar_t>::__time_get_storage(std::__1::basic_string<char, std::__1::char_traits<char>, std::__1::allocator<char> > const&)
PUBLIC 263f2 0 std::__1::time_get_byname<wchar_t, std::__1::istreambuf_iterator<wchar_t, std::__1::char_traits<wchar_t> > >::time_get_byname(std::__1::basic_string<char, std::__1::char_traits<char>, std::__1::allocator<char> > const&, unsigned long)
PUBLIC 26454 0 std::__1::time_get_byname<wchar_t, std::__1::istreambuf_iterator<wchar_t, std::__1::char_traits<wchar_t> > >::~time_get_byname()
PUBLIC 26530 0 std::__1::time_get_byname<wchar_t, std::__1::istreambuf_iterator<wchar_t, std::__1::char_traits<wchar_t> > >::~time_get_byname()
PUBLIC 2660c 0 std::__1::time_get_byname<wchar_t, std::__1::istreambuf_iterator<wchar_t, std::__1::char_traits<wchar_t> > >::~time_get_byname()
PUBLIC 266f0 0 std::__1::time_get_byname<wchar_t, std::__1::istreambuf_iterator<wchar_t, std::__1::char_traits<wchar_t> > >::do_date_order() const
PUBLIC 266fe 0 std::__1::__time_get_storage<wchar_t>::__do_date_order() const
PUBLIC 26a64 0 std::__1::time_get_byname<wchar_t, std::__1::istreambuf_iterator<wchar_t, std::__1::char_traits<wchar_t> > >::__weeks() const
PUBLIC 26a6e 0 non-virtual thunk to std::__1::time_get_byname<wchar_t, std::__1::istreambuf_iterator<wchar_t, std::__1::char_traits<wchar_t> > >::__weeks() const
PUBLIC 26a78 0 std::__1::time_get_byname<wchar_t, std::__1::istreambuf_iterator<wchar_t, std::__1::char_traits<wchar_t> > >::__months() const
PUBLIC 26a86 0 non-virtual thunk to std::__1::time_get_byname<wchar_t, std::__1::istreambuf_iterator<wchar_t, std::__1::char_traits<wchar_t> > >::__months() const
PUBLIC 26a94 0 std::__1::time_get_byname<wchar_t, std::__1::istreambuf_iterator<wchar_t, std::__1::char_traits<wchar_t> > >::__am_pm() const
PUBLIC 26aa2 0 non-virtual thunk to std::__1::time_get_byname<wchar_t, std::__1::istreambuf_iterator<wchar_t, std::__1::char_traits<wchar_t> > >::__am_pm() const
PUBLIC 26ab0 0 std::__1::time_get_byname<wchar_t, std::__1::istreambuf_iterator<wchar_t, std::__1::char_traits<wchar_t> > >::__c() const
PUBLIC 26abe 0 non-virtual thunk to std::__1::time_get_byname<wchar_t, std::__1::istreambuf_iterator<wchar_t, std::__1::char_traits<wchar_t> > >::__c() const
PUBLIC 26acc 0 std::__1::time_get_byname<wchar_t, std::__1::istreambuf_iterator<wchar_t, std::__1::char_traits<wchar_t> > >::__r() const
PUBLIC 26ada 0 non-virtual thunk to std::__1::time_get_byname<wchar_t, std::__1::istreambuf_iterator<wchar_t, std::__1::char_traits<wchar_t> > >::__r() const
PUBLIC 26ae8 0 std::__1::time_get_byname<wchar_t, std::__1::istreambuf_iterator<wchar_t, std::__1::char_traits<wchar_t> > >::__x() const
PUBLIC 26af6 0 non-virtual thunk to std::__1::time_get_byname<wchar_t, std::__1::istreambuf_iterator<wchar_t, std::__1::char_traits<wchar_t> > >::__x() const
PUBLIC 26b04 0 std::__1::time_get_byname<wchar_t, std::__1::istreambuf_iterator<wchar_t, std::__1::char_traits<wchar_t> > >::__X() const
PUBLIC 26b12 0 non-virtual thunk to std::__1::time_get_byname<wchar_t, std::__1::istreambuf_iterator<wchar_t, std::__1::char_traits<wchar_t> > >::__X() const
PUBLIC 26b20 0 std::__1::time_put<char, std::__1::ostreambuf_iterator<char, std::__1::char_traits<char> > >::time_put(unsigned long)
PUBLIC 26b44 0 std::__1::time_put<char, std::__1::ostreambuf_iterator<char, std::__1::char_traits<char> > >::time_put(unsigned long)
PUBLIC 26b68 0 std::__1::time_put<char, std::__1::ostreambuf_iterator<char, std::__1::char_traits<char> > >::put(std::__1::ostreambuf_iterator<char, std::__1::char_traits<char> >, std::__1::ios_base&, char, tm const*, char const*, char const*) const
PUBLIC 26d92 0 std::__1::time_put<char, std::__1::ostreambuf_iterator<char, std::__1::char_traits<char> > >::put(std::__1::ostreambuf_iterator<char, std::__1::char_traits<char> >, std::__1::ios_base&, char, tm const*, char, char) const
PUBLIC 26da0 0 std::__1::time_put<char, std::__1::ostreambuf_iterator<char, std::__1::char_traits<char> > >::~time_put()
PUBLIC 26dc0 0 std::__1::__time_put::~__time_put()
PUBLIC 26ddc 0 std::__1::time_put<char, std::__1::ostreambuf_iterator<char, std::__1::char_traits<char> > >::~time_put()
PUBLIC 26dfc 0 std::__1::time_put<char, std::__1::ostreambuf_iterator<char, std::__1::char_traits<char> > >::~time_put()
PUBLIC 26e24 0 std::__1::time_put<char, std::__1::ostreambuf_iterator<char, std::__1::char_traits<char> > >::do_put(std::__1::ostreambuf_iterator<char, std::__1::char_traits<char> >, std::__1::ios_base&, char, tm const*, char, char) const
PUBLIC 26ede 0 std::__1::__time_put::__do_put(char*, char*&, tm const*, char, char) const
PUBLIC 26f30 0 std::__1::time_put<char, std::__1::ostreambuf_iterator<char, std::__1::char_traits<char> > >::time_put(char const*, unsigned long)
PUBLIC 26f7c 0 std::__1::__time_put::__time_put(char const*)
PUBLIC 2709e 0 std::__1::time_put<char, std::__1::ostreambuf_iterator<char, std::__1::char_traits<char> > >::time_put(char const*, unsigned long)
PUBLIC 270ea 0 std::__1::time_put<char, std::__1::ostreambuf_iterator<char, std::__1::char_traits<char> > >::time_put(std::__1::basic_string<char, std::__1::char_traits<char>, std::__1::allocator<char> > const&, unsigned long)
PUBLIC 27136 0 std::__1::__time_put::__time_put(std::__1::basic_string<char, std::__1::char_traits<char>, std::__1::allocator<char> > const&)
PUBLIC 271ac 0 std::__1::time_put<char, std::__1::ostreambuf_iterator<char, std::__1::char_traits<char> > >::time_put(std::__1::basic_string<char, std::__1::char_traits<char>, std::__1::allocator<char> > const&, unsigned long)
PUBLIC 271f8 0 std::__1::time_put<wchar_t, std::__1::ostreambuf_iterator<wchar_t, std::__1::char_traits<wchar_t> > >::time_put(unsigned long)
PUBLIC 2721c 0 std::__1::time_put<wchar_t, std::__1::ostreambuf_iterator<wchar_t, std::__1::char_traits<wchar_t> > >::time_put(unsigned long)
PUBLIC 27240 0 std::__1::time_put<wchar_t, std::__1::ostreambuf_iterator<wchar_t, std::__1::char_traits<wchar_t> > >::put(std::__1::ostreambuf_iterator<wchar_t, std::__1::char_traits<wchar_t> >, std::__1::ios_base&, wchar_t, tm const*, wchar_t const*, wchar_t const*) const
PUBLIC 2742c 0 std::__1::time_put<wchar_t, std::__1::ostreambuf_iterator<wchar_t, std::__1::char_traits<wchar_t> > >::put(std::__1::ostreambuf_iterator<wchar_t, std::__1::char_traits<wchar_t> >, std::__1::ios_base&, wchar_t, tm const*, char, char) const
PUBLIC 2743a 0 std::__1::time_put<wchar_t, std::__1::ostreambuf_iterator<wchar_t, std::__1::char_traits<wchar_t> > >::~time_put()
PUBLIC 2745a 0 std::__1::time_put<wchar_t, std::__1::ostreambuf_iterator<wchar_t, std::__1::char_traits<wchar_t> > >::~time_put()
PUBLIC 2747a 0 std::__1::time_put<wchar_t, std::__1::ostreambuf_iterator<wchar_t, std::__1::char_traits<wchar_t> > >::~time_put()
PUBLIC 274a2 0 std::__1::time_put<wchar_t, std::__1::ostreambuf_iterator<wchar_t, std::__1::char_traits<wchar_t> > >::do_put(std::__1::ostreambuf_iterator<wchar_t, std::__1::char_traits<wchar_t> >, std::__1::ios_base&, wchar_t, tm const*, char, char) const
PUBLIC 2755c 0 std::__1::__time_put::__do_put(wchar_t*, wchar_t*&, tm const*, char, char) const
PUBLIC 27628 0 std::__1::time_put<wchar_t, std::__1::ostreambuf_iterator<wchar_t, std::__1::char_traits<wchar_t> > >::time_put(char const*, unsigned long)
PUBLIC 27674 0 std::__1::time_put<wchar_t, std::__1::ostreambuf_iterator<wchar_t, std::__1::char_traits<wchar_t> > >::time_put(char const*, unsigned long)
PUBLIC 276c0 0 std::__1::time_put<wchar_t, std::__1::ostreambuf_iterator<wchar_t, std::__1::char_traits<wchar_t> > >::time_put(std::__1::basic_string<char, std::__1::char_traits<char>, std::__1::allocator<char> > const&, unsigned long)
PUBLIC 2770c 0 std::__1::time_put<wchar_t, std::__1::ostreambuf_iterator<wchar_t, std::__1::char_traits<wchar_t> > >::time_put(std::__1::basic_string<char, std::__1::char_traits<char>, std::__1::allocator<char> > const&, unsigned long)
PUBLIC 27758 0 std::__1::time_put_byname<char, std::__1::ostreambuf_iterator<char, std::__1::char_traits<char> > >::time_put_byname(char const*, unsigned long)
PUBLIC 277a4 0 std::__1::time_put_byname<char, std::__1::ostreambuf_iterator<char, std::__1::char_traits<char> > >::time_put_byname(char const*, unsigned long)
PUBLIC 277f0 0 std::__1::time_put_byname<char, std::__1::ostreambuf_iterator<char, std::__1::char_traits<char> > >::time_put_byname(std::__1::basic_string<char, std::__1::char_traits<char>, std::__1::allocator<char> > const&, unsigned long)
PUBLIC 2783c 0 std::__1::time_put_byname<char, std::__1::ostreambuf_iterator<char, std::__1::char_traits<char> > >::time_put_byname(std::__1::basic_string<char, std::__1::char_traits<char>, std::__1::allocator<char> > const&, unsigned long)
PUBLIC 27888 0 std::__1::time_put_byname<char, std::__1::ostreambuf_iterator<char, std::__1::char_traits<char> > >::~time_put_byname()
PUBLIC 278a8 0 std::__1::time_put_byname<char, std::__1::ostreambuf_iterator<char, std::__1::char_traits<char> > >::~time_put_byname()
PUBLIC 278c8 0 std::__1::time_put_byname<char, std::__1::ostreambuf_iterator<char, std::__1::char_traits<char> > >::~time_put_byname()
PUBLIC 278f0 0 std::__1::time_put_byname<wchar_t, std::__1::ostreambuf_iterator<wchar_t, std::__1::char_traits<wchar_t> > >::time_put_byname(char const*, unsigned long)
PUBLIC 2793c 0 std::__1::time_put_byname<wchar_t, std::__1::ostreambuf_iterator<wchar_t, std::__1::char_traits<wchar_t> > >::time_put_byname(char const*, unsigned long)
PUBLIC 27988 0 std::__1::time_put_byname<wchar_t, std::__1::ostreambuf_iterator<wchar_t, std::__1::char_traits<wchar_t> > >::time_put_byname(std::__1::basic_string<char, std::__1::char_traits<char>, std::__1::allocator<char> > const&, unsigned long)
PUBLIC 279d4 0 std::__1::time_put_byname<wchar_t, std::__1::ostreambuf_iterator<wchar_t, std::__1::char_traits<wchar_t> > >::time_put_byname(std::__1::basic_string<char, std::__1::char_traits<char>, std::__1::allocator<char> > const&, unsigned long)
PUBLIC 27a20 0 std::__1::time_put_byname<wchar_t, std::__1::ostreambuf_iterator<wchar_t, std::__1::char_traits<wchar_t> > >::~time_put_byname()
PUBLIC 27a40 0 std::__1::time_put_byname<wchar_t, std::__1::ostreambuf_iterator<wchar_t, std::__1::char_traits<wchar_t> > >::~time_put_byname()
PUBLIC 27a60 0 std::__1::time_put_byname<wchar_t, std::__1::ostreambuf_iterator<wchar_t, std::__1::char_traits<wchar_t> > >::~time_put_byname()
PUBLIC 27a88 0 std::__1::moneypunct<char, false>::moneypunct(unsigned long)
PUBLIC 27aa4 0 std::__1::moneypunct<char, false>::moneypunct(unsigned long)
PUBLIC 27ac0 0 std::__1::moneypunct<char, false>::decimal_point() const
PUBLIC 27acc 0 std::__1::moneypunct<char, false>::thousands_sep() const
PUBLIC 27ad8 0 std::__1::moneypunct<char, false>::grouping() const
PUBLIC 27af2 0 std::__1::moneypunct<char, false>::curr_symbol() const
PUBLIC 27b0c 0 std::__1::moneypunct<char, false>::positive_sign() const
PUBLIC 27b26 0 std::__1::moneypunct<char, false>::negative_sign() const
PUBLIC 27b40 0 std::__1::moneypunct<char, false>::frac_digits() const
PUBLIC 27b4c 0 std::__1::moneypunct<char, false>::pos_format() const
PUBLIC 27b58 0 std::__1::moneypunct<char, false>::neg_format() const
PUBLIC 27b64 0 std::__1::moneypunct<char, false>::~moneypunct()
PUBLIC 27b6e 0 std::__1::moneypunct<char, false>::~moneypunct()
PUBLIC 27b78 0 std::__1::moneypunct<char, false>::~moneypunct()
PUBLIC 27b94 0 std::__1::moneypunct<char, false>::do_decimal_point() const
PUBLIC 27ba0 0 std::__1::moneypunct<char, false>::do_thousands_sep() const
PUBLIC 27bac 0 std::__1::moneypunct<char, false>::do_grouping() const
PUBLIC 27bc2 0 std::__1::moneypunct<char, false>::do_curr_symbol() const
PUBLIC 27bd8 0 std::__1::moneypunct<char, false>::do_positive_sign() const
PUBLIC 27bee 0 std::__1::moneypunct<char, false>::do_negative_sign() const
PUBLIC 27c0e 0 std::__1::moneypunct<char, false>::do_frac_digits() const
PUBLIC 27c16 0 std::__1::moneypunct<char, false>::do_pos_format() const
PUBLIC 27c22 0 std::__1::moneypunct<char, false>::do_neg_format() const
PUBLIC 27c2e 0 std::__1::moneypunct<char, true>::moneypunct(unsigned long)
PUBLIC 27c4a 0 std::__1::moneypunct<char, true>::moneypunct(unsigned long)
PUBLIC 27c66 0 std::__1::moneypunct<char, true>::decimal_point() const
PUBLIC 27c72 0 std::__1::moneypunct<char, true>::thousands_sep() const
PUBLIC 27c7e 0 std::__1::moneypunct<char, true>::grouping() const
PUBLIC 27c98 0 std::__1::moneypunct<char, true>::curr_symbol() const
PUBLIC 27cb2 0 std::__1::moneypunct<char, true>::positive_sign() const
PUBLIC 27ccc 0 std::__1::moneypunct<char, true>::negative_sign() const
PUBLIC 27ce6 0 std::__1::moneypunct<char, true>::frac_digits() const
PUBLIC 27cf2 0 std::__1::moneypunct<char, true>::pos_format() const
PUBLIC 27cfe 0 std::__1::moneypunct<char, true>::neg_format() const
PUBLIC 27d0a 0 std::__1::moneypunct<char, true>::~moneypunct()
PUBLIC 27d14 0 std::__1::moneypunct<char, true>::~moneypunct()
PUBLIC 27d1e 0 std::__1::moneypunct<char, true>::~moneypunct()
PUBLIC 27d3a 0 std::__1::moneypunct<char, true>::do_decimal_point() const
PUBLIC 27d46 0 std::__1::moneypunct<char, true>::do_thousands_sep() const
PUBLIC 27d52 0 std::__1::moneypunct<char, true>::do_grouping() const
PUBLIC 27d68 0 std::__1::moneypunct<char, true>::do_curr_symbol() const
PUBLIC 27d7e 0 std::__1::moneypunct<char, true>::do_positive_sign() const
PUBLIC 27d94 0 std::__1::moneypunct<char, true>::do_negative_sign() const
PUBLIC 27db4 0 std::__1::moneypunct<char, true>::do_frac_digits() const
PUBLIC 27dbc 0 std::__1::moneypunct<char, true>::do_pos_format() const
PUBLIC 27dc8 0 std::__1::moneypunct<char, true>::do_neg_format() const
PUBLIC 27dd4 0 std::__1::moneypunct<wchar_t, false>::moneypunct(unsigned long)
PUBLIC 27df0 0 std::__1::moneypunct<wchar_t, false>::moneypunct(unsigned long)
PUBLIC 27e0c 0 std::__1::moneypunct<wchar_t, false>::decimal_point() const
PUBLIC 27e18 0 std::__1::moneypunct<wchar_t, false>::thousands_sep() const
PUBLIC 27e24 0 std::__1::moneypunct<wchar_t, false>::grouping() const
PUBLIC 27e3e 0 std::__1::moneypunct<wchar_t, false>::curr_symbol() const
PUBLIC 27e58 0 std::__1::moneypunct<wchar_t, false>::positive_sign() const
PUBLIC 27e72 0 std::__1::moneypunct<wchar_t, false>::negative_sign() const
PUBLIC 27e8c 0 std::__1::moneypunct<wchar_t, false>::frac_digits() const
PUBLIC 27e98 0 std::__1::moneypunct<wchar_t, false>::pos_format() const
PUBLIC 27ea4 0 std::__1::moneypunct<wchar_t, false>::neg_format() const
PUBLIC 27eb0 0 std::__1::moneypunct<wchar_t, false>::~moneypunct()
PUBLIC 27eba 0 std::__1::moneypunct<wchar_t, false>::~moneypunct()
PUBLIC 27ec4 0 std::__1::moneypunct<wchar_t, false>::~moneypunct()
PUBLIC 27ee0 0 std::__1::moneypunct<wchar_t, false>::do_decimal_point() const
PUBLIC 27eec 0 std::__1::moneypunct<wchar_t, false>::do_thousands_sep() const
PUBLIC 27ef8 0 std::__1::moneypunct<wchar_t, false>::do_grouping() const
PUBLIC 27f0e 0 std::__1::moneypunct<wchar_t, false>::do_curr_symbol() const
PUBLIC 27f24 0 std::__1::moneypunct<wchar_t, false>::do_positive_sign() const
PUBLIC 27f3a 0 std::__1::moneypunct<wchar_t, false>::do_negative_sign() const
PUBLIC 27f80 0 std::__1::moneypunct<wchar_t, false>::do_frac_digits() const
PUBLIC 27f88 0 std::__1::moneypunct<wchar_t, false>::do_pos_format() const
PUBLIC 27f94 0 std::__1::moneypunct<wchar_t, false>::do_neg_format() const
PUBLIC 27fa0 0 std::__1::moneypunct<wchar_t, true>::moneypunct(unsigned long)
PUBLIC 27fbc 0 std::__1::moneypunct<wchar_t, true>::moneypunct(unsigned long)
PUBLIC 27fd8 0 std::__1::moneypunct<wchar_t, true>::decimal_point() const
PUBLIC 27fe4 0 std::__1::moneypunct<wchar_t, true>::thousands_sep() const
PUBLIC 27ff0 0 std::__1::moneypunct<wchar_t, true>::grouping() const
PUBLIC 2800a 0 std::__1::moneypunct<wchar_t, true>::curr_symbol() const
PUBLIC 28024 0 std::__1::moneypunct<wchar_t, true>::positive_sign() const
PUBLIC 2803e 0 std::__1::moneypunct<wchar_t, true>::negative_sign() const
PUBLIC 28058 0 std::__1::moneypunct<wchar_t, true>::frac_digits() const
PUBLIC 28064 0 std::__1::moneypunct<wchar_t, true>::pos_format() const
PUBLIC 28070 0 std::__1::moneypunct<wchar_t, true>::neg_format() const
PUBLIC 2807c 0 std::__1::moneypunct<wchar_t, true>::~moneypunct()
PUBLIC 28086 0 std::__1::moneypunct<wchar_t, true>::~moneypunct()
PUBLIC 28090 0 std::__1::moneypunct<wchar_t, true>::~moneypunct()
PUBLIC 280ac 0 std::__1::moneypunct<wchar_t, true>::do_decimal_point() const
PUBLIC 280b8 0 std::__1::moneypunct<wchar_t, true>::do_thousands_sep() const
PUBLIC 280c4 0 std::__1::moneypunct<wchar_t, true>::do_grouping() const
PUBLIC 280da 0 std::__1::moneypunct<wchar_t, true>::do_curr_symbol() const
PUBLIC 280f0 0 std::__1::moneypunct<wchar_t, true>::do_positive_sign() const
PUBLIC 28106 0 std::__1::moneypunct<wchar_t, true>::do_negative_sign() const
PUBLIC 2814c 0 std::__1::moneypunct<wchar_t, true>::do_frac_digits() const
PUBLIC 28154 0 std::__1::moneypunct<wchar_t, true>::do_pos_format() const
PUBLIC 28160 0 std::__1::moneypunct<wchar_t, true>::do_neg_format() const
PUBLIC 2816c 0 std::__1::moneypunct_byname<char, false>::moneypunct_byname(char const*, unsigned long)
PUBLIC 28226 0 std::__1::moneypunct_byname<char, false>::init(char const*)
PUBLIC 284a2 0 std::__1::moneypunct_byname<char, false>::moneypunct_byname(char const*, unsigned long)
PUBLIC 2855c 0 std::__1::moneypunct_byname<char, false>::moneypunct_byname(std::__1::basic_string<char, std::__1::char_traits<char>, std::__1::allocator<char> > const&, unsigned long)
PUBLIC 28624 0 std::__1::moneypunct_byname<char, false>::moneypunct_byname(std::__1::basic_string<char, std::__1::char_traits<char>, std::__1::allocator<char> > const&, unsigned long)
PUBLIC 286ec 0 std::__1::moneypunct_byname<char, false>::~moneypunct_byname()
PUBLIC 2874e 0 std::__1::moneypunct_byname<char, false>::~moneypunct_byname()
PUBLIC 287b0 0 std::__1::moneypunct_byname<char, false>::~moneypunct_byname()
PUBLIC 2881a 0 std::__1::moneypunct_byname<char, false>::do_decimal_point() const
PUBLIC 28824 0 std::__1::moneypunct_byname<char, false>::do_thousands_sep() const
PUBLIC 2882e 0 std::__1::moneypunct_byname<char, false>::do_grouping() const
PUBLIC 2884a 0 std::__1::moneypunct_byname<char, false>::do_curr_symbol() const
PUBLIC 28866 0 std::__1::moneypunct_byname<char, false>::do_positive_sign() const
PUBLIC 28882 0 std::__1::moneypunct_byname<char, false>::do_negative_sign() const
PUBLIC 2889e 0 std::__1::moneypunct_byname<char, false>::do_frac_digits() const
PUBLIC 288a8 0 std::__1::moneypunct_byname<char, false>::do_pos_format() const
PUBLIC 288b2 0 std::__1::moneypunct_byname<char, false>::do_neg_format() const
PUBLIC 288be 0 std::__1::moneypunct_byname<char, true>::moneypunct_byname(char const*, unsigned long)
PUBLIC 28978 0 std::__1::moneypunct_byname<char, true>::init(char const*)
PUBLIC 28bfa 0 std::__1::moneypunct_byname<char, true>::moneypunct_byname(char const*, unsigned long)
PUBLIC 28cb4 0 std::__1::moneypunct_byname<char, true>::moneypunct_byname(std::__1::basic_string<char, std::__1::char_traits<char>, std::__1::allocator<char> > const&, unsigned long)
PUBLIC 28d7c 0 std::__1::moneypunct_byname<char, true>::moneypunct_byname(std::__1::basic_string<char, std::__1::char_traits<char>, std::__1::allocator<char> > const&, unsigned long)
PUBLIC 28e44 0 std::__1::moneypunct_byname<char, true>::~moneypunct_byname()
PUBLIC 28ea6 0 std::__1::moneypunct_byname<char, true>::~moneypunct_byname()
PUBLIC 28f08 0 std::__1::moneypunct_byname<char, true>::~moneypunct_byname()
PUBLIC 28f72 0 std::__1::moneypunct_byname<char, true>::do_decimal_point() const
PUBLIC 28f7c 0 std::__1::moneypunct_byname<char, true>::do_thousands_sep() const
PUBLIC 28f86 0 std::__1::moneypunct_byname<char, true>::do_grouping() const
PUBLIC 28fa2 0 std::__1::moneypunct_byname<char, true>::do_curr_symbol() const
PUBLIC 28fbe 0 std::__1::moneypunct_byname<char, true>::do_positive_sign() const
PUBLIC 28fda 0 std::__1::moneypunct_byname<char, true>::do_negative_sign() const
PUBLIC 28ff6 0 std::__1::moneypunct_byname<char, true>::do_frac_digits() const
PUBLIC 29000 0 std::__1::moneypunct_byname<char, true>::do_pos_format() const
PUBLIC 2900a 0 std::__1::moneypunct_byname<char, true>::do_neg_format() const
PUBLIC 29016 0 std::__1::moneypunct_byname<wchar_t, false>::moneypunct_byname(char const*, unsigned long)
PUBLIC 290d0 0 std::__1::moneypunct_byname<wchar_t, false>::init(char const*)
PUBLIC 29510 0 std::__1::moneypunct_byname<wchar_t, false>::moneypunct_byname(char const*, unsigned long)
PUBLIC 295ca 0 std::__1::moneypunct_byname<wchar_t, false>::moneypunct_byname(std::__1::basic_string<char, std::__1::char_traits<char>, std::__1::allocator<char> > const&, unsigned long)
PUBLIC 29692 0 std::__1::moneypunct_byname<wchar_t, false>::moneypunct_byname(std::__1::basic_string<char, std::__1::char_traits<char>, std::__1::allocator<char> > const&, unsigned long)
PUBLIC 2975a 0 std::__1::moneypunct_byname<wchar_t, false>::~moneypunct_byname()
PUBLIC 297bc 0 std::__1::moneypunct_byname<wchar_t, false>::~moneypunct_byname()
PUBLIC 2981e 0 std::__1::moneypunct_byname<wchar_t, false>::~moneypunct_byname()
PUBLIC 29888 0 std::__1::moneypunct_byname<wchar_t, false>::do_decimal_point() const
PUBLIC 29892 0 std::__1::moneypunct_byname<wchar_t, false>::do_thousands_sep() const
PUBLIC 2989c 0 std::__1::moneypunct_byname<wchar_t, false>::do_grouping() const
PUBLIC 298b8 0 std::__1::moneypunct_byname<wchar_t, false>::do_curr_symbol() const
PUBLIC 298d4 0 std::__1::moneypunct_byname<wchar_t, false>::do_positive_sign() const
PUBLIC 298f0 0 std::__1::moneypunct_byname<wchar_t, false>::do_negative_sign() const
PUBLIC 2990c 0 std::__1::moneypunct_byname<wchar_t, false>::do_frac_digits() const
PUBLIC 29916 0 std::__1::moneypunct_byname<wchar_t, false>::do_pos_format() const
PUBLIC 29920 0 std::__1::moneypunct_byname<wchar_t, false>::do_neg_format() const
PUBLIC 2992c 0 std::__1::moneypunct_byname<wchar_t, true>::moneypunct_byname(char const*, unsigned long)
PUBLIC 299e6 0 std::__1::moneypunct_byname<wchar_t, true>::init(char const*)
PUBLIC 29e2c 0 std::__1::moneypunct_byname<wchar_t, true>::moneypunct_byname(char const*, unsigned long)
PUBLIC 29ee6 0 std::__1::moneypunct_byname<wchar_t, true>::moneypunct_byname(std::__1::basic_string<char, std::__1::char_traits<char>, std::__1::allocator<char> > const&, unsigned long)
PUBLIC 29fae 0 std::__1::moneypunct_byname<wchar_t, true>::moneypunct_byname(std::__1::basic_string<char, std::__1::char_traits<char>, std::__1::allocator<char> > const&, unsigned long)
PUBLIC 2a076 0 std::__1::moneypunct_byname<wchar_t, true>::~moneypunct_byname()
PUBLIC 2a0d8 0 std::__1::moneypunct_byname<wchar_t, true>::~moneypunct_byname()
PUBLIC 2a13a 0 std::__1::moneypunct_byname<wchar_t, true>::~moneypunct_byname()
PUBLIC 2a1a4 0 std::__1::moneypunct_byname<wchar_t, true>::do_decimal_point() const
PUBLIC 2a1ae 0 std::__1::moneypunct_byname<wchar_t, true>::do_thousands_sep() const
PUBLIC 2a1b8 0 std::__1::moneypunct_byname<wchar_t, true>::do_grouping() const
PUBLIC 2a1d4 0 std::__1::moneypunct_byname<wchar_t, true>::do_curr_symbol() const
PUBLIC 2a1f0 0 std::__1::moneypunct_byname<wchar_t, true>::do_positive_sign() const
PUBLIC 2a20c 0 std::__1::moneypunct_byname<wchar_t, true>::do_negative_sign() const
PUBLIC 2a228 0 std::__1::moneypunct_byname<wchar_t, true>::do_frac_digits() const
PUBLIC 2a232 0 std::__1::moneypunct_byname<wchar_t, true>::do_pos_format() const
PUBLIC 2a23c 0 std::__1::moneypunct_byname<wchar_t, true>::do_neg_format() const
PUBLIC 2a248 0 std::__1::money_get<char, std::__1::istreambuf_iterator<char, std::__1::char_traits<char> > >::money_get(unsigned long)
PUBLIC 2a264 0 std::__1::__money_get<char>::__money_get()
PUBLIC 2a26a 0 std::__1::money_get<char, std::__1::istreambuf_iterator<char, std::__1::char_traits<char> > >::money_get(unsigned long)
PUBLIC 2a286 0 std::__1::money_get<char, std::__1::istreambuf_iterator<char, std::__1::char_traits<char> > >::get(std::__1::istreambuf_iterator<char, std::__1::char_traits<char> >, std::__1::istreambuf_iterator<char, std::__1::char_traits<char> >, bool, std::__1::ios_base&, unsigned int&, long double&) const
PUBLIC 2a294 0 std::__1::money_get<char, std::__1::istreambuf_iterator<char, std::__1::char_traits<char> > >::get(std::__1::istreambuf_iterator<char, std::__1::char_traits<char> >, std::__1::istreambuf_iterator<char, std::__1::char_traits<char> >, bool, std::__1::ios_base&, unsigned int&, std::__1::basic_string<char, std::__1::char_traits<char>, std::__1::allocator<char> >&) const
PUBLIC 2a2a2 0 std::__1::money_get<char, std::__1::istreambuf_iterator<char, std::__1::char_traits<char> > >::~money_get()
PUBLIC 2a2ac 0 std::__1::money_get<char, std::__1::istreambuf_iterator<char, std::__1::char_traits<char> > >::~money_get()
PUBLIC 2a2b6 0 std::__1::money_get<char, std::__1::istreambuf_iterator<char, std::__1::char_traits<char> > >::~money_get()
PUBLIC 2a2d2 0 std::__1::money_get<char, std::__1::istreambuf_iterator<char, std::__1::char_traits<char> > >::do_get(std::__1::istreambuf_iterator<char, std::__1::char_traits<char> >, std::__1::istreambuf_iterator<char, std::__1::char_traits<char> >, bool, std::__1::ios_base&, unsigned int&, long double&) const
PUBLIC 2a609 0 std::__1::__do_nothing(void*)
PUBLIC 2a610 0 std::__1::money_get<char, std::__1::istreambuf_iterator<char, std::__1::char_traits<char> > >::__do_get(std::__1::istreambuf_iterator<char, std::__1::char_traits<char> >&, std::__1::istreambuf_iterator<char, std::__1::char_traits<char> >, bool, std::__1::locale const&, unsigned int, unsigned int&, bool&, std::__1::ctype<char> const&, std::__1::unique_ptr<char, void (*)(void*)>&, char*&, char*)
PUBLIC 2b5a4 0 std::__1::__throw_runtime_error(char const*)
PUBLIC 2b5f2 0 std::__1::money_get<char, std::__1::istreambuf_iterator<char, std::__1::char_traits<char> > >::do_get(std::__1::istreambuf_iterator<char, std::__1::char_traits<char> >, std::__1::istreambuf_iterator<char, std::__1::char_traits<char> >, bool, std::__1::ios_base&, unsigned int&, std::__1::basic_string<char, std::__1::char_traits<char>, std::__1::allocator<char> >&) const
PUBLIC 2b880 0 std::__1::__money_get<char>::__gather_info(bool, std::__1::locale const&, std::__1::money_base::pattern&, char&, char&, std::__1::basic_string<char, std::__1::char_traits<char>, std::__1::allocator<char> >&, std::__1::basic_string<char, std::__1::char_traits<char>, std::__1::allocator<char> >&, std::__1::basic_string<char, std::__1::char_traits<char>, std::__1::allocator<char> >&, std::__1::basic_string<char, std::__1::char_traits<char>, std::__1::allocator<char> >&, int&)
PUBLIC 2bc04 0 void std::__1::__double_or_nothing<char>(std::__1::unique_ptr<char, void (*)(void*)>&, char*&, char*&)
PUBLIC 2bcdc 0 void std::__1::__double_or_nothing<unsigned int>(std::__1::unique_ptr<unsigned int, void (*)(void*)>&, unsigned int*&, unsigned int*&)
PUBLIC 2bdc2 0 std::__1::money_get<wchar_t, std::__1::istreambuf_iterator<wchar_t, std::__1::char_traits<wchar_t> > >::money_get(unsigned long)
PUBLIC 2bdde 0 std::__1::__money_get<wchar_t>::__money_get()
PUBLIC 2bde4 0 std::__1::money_get<wchar_t, std::__1::istreambuf_iterator<wchar_t, std::__1::char_traits<wchar_t> > >::money_get(unsigned long)
PUBLIC 2be00 0 std::__1::money_get<wchar_t, std::__1::istreambuf_iterator<wchar_t, std::__1::char_traits<wchar_t> > >::get(std::__1::istreambuf_iterator<wchar_t, std::__1::char_traits<wchar_t> >, std::__1::istreambuf_iterator<wchar_t, std::__1::char_traits<wchar_t> >, bool, std::__1::ios_base&, unsigned int&, long double&) const
PUBLIC 2be0e 0 std::__1::money_get<wchar_t, std::__1::istreambuf_iterator<wchar_t, std::__1::char_traits<wchar_t> > >::get(std::__1::istreambuf_iterator<wchar_t, std::__1::char_traits<wchar_t> >, std::__1::istreambuf_iterator<wchar_t, std::__1::char_traits<wchar_t> >, bool, std::__1::ios_base&, unsigned int&, std::__1::basic_string<wchar_t, std::__1::char_traits<wchar_t>, std::__1::allocator<wchar_t> >&) const
PUBLIC 2be1c 0 std::__1::money_get<wchar_t, std::__1::istreambuf_iterator<wchar_t, std::__1::char_traits<wchar_t> > >::~money_get()
PUBLIC 2be26 0 std::__1::money_get<wchar_t, std::__1::istreambuf_iterator<wchar_t, std::__1::char_traits<wchar_t> > >::~money_get()
PUBLIC 2be30 0 std::__1::money_get<wchar_t, std::__1::istreambuf_iterator<wchar_t, std::__1::char_traits<wchar_t> > >::~money_get()
PUBLIC 2be4c 0 std::__1::money_get<wchar_t, std::__1::istreambuf_iterator<wchar_t, std::__1::char_traits<wchar_t> > >::do_get(std::__1::istreambuf_iterator<wchar_t, std::__1::char_traits<wchar_t> >, std::__1::istreambuf_iterator<wchar_t, std::__1::char_traits<wchar_t> >, bool, std::__1::ios_base&, unsigned int&, long double&) const
PUBLIC 2c18c 0 std::__1::money_get<wchar_t, std::__1::istreambuf_iterator<wchar_t, std::__1::char_traits<wchar_t> > >::__do_get(std::__1::istreambuf_iterator<wchar_t, std::__1::char_traits<wchar_t> >&, std::__1::istreambuf_iterator<wchar_t, std::__1::char_traits<wchar_t> >, bool, std::__1::locale const&, unsigned int, unsigned int&, bool&, std::__1::ctype<wchar_t> const&, std::__1::unique_ptr<wchar_t, void (*)(void*)>&, wchar_t*&, wchar_t*)
PUBLIC 2d100 0 std::__1::money_get<wchar_t, std::__1::istreambuf_iterator<wchar_t, std::__1::char_traits<wchar_t> > >::do_get(std::__1::istreambuf_iterator<wchar_t, std::__1::char_traits<wchar_t> >, std::__1::istreambuf_iterator<wchar_t, std::__1::char_traits<wchar_t> >, bool, std::__1::ios_base&, unsigned int&, std::__1::basic_string<wchar_t, std::__1::char_traits<wchar_t>, std::__1::allocator<wchar_t> >&) const
PUBLIC 2d3a0 0 std::__1::__money_get<wchar_t>::__gather_info(bool, std::__1::locale const&, std::__1::money_base::pattern&, wchar_t&, wchar_t&, std::__1::basic_string<char, std::__1::char_traits<char>, std::__1::allocator<char> >&, std::__1::basic_string<wchar_t, std::__1::char_traits<wchar_t>, std::__1::allocator<wchar_t> >&, std::__1::basic_string<wchar_t, std::__1::char_traits<wchar_t>, std::__1::allocator<wchar_t> >&, std::__1::basic_string<wchar_t, std::__1::char_traits<wchar_t>, std::__1::allocator<wchar_t> >&, int&)
PUBLIC 2d761 0 void std::__1::__double_or_nothing<wchar_t>(std::__1::unique_ptr<wchar_t, void (*)(void*)>&, wchar_t*&, wchar_t*&)
PUBLIC 2d842 0 std::__1::__money_get<char>::__money_get()
PUBLIC 2d848 0 std::__1::__money_get<wchar_t>::__money_get()
PUBLIC 2d84e 0 std::__1::money_put<char, std::__1::ostreambuf_iterator<char, std::__1::char_traits<char> > >::money_put(unsigned long)
PUBLIC 2d86a 0 std::__1::__money_put<char>::__money_put()
PUBLIC 2d870 0 std::__1::money_put<char, std::__1::ostreambuf_iterator<char, std::__1::char_traits<char> > >::money_put(unsigned long)
PUBLIC 2d88c 0 std::__1::money_put<char, std::__1::ostreambuf_iterator<char, std::__1::char_traits<char> > >::put(std::__1::ostreambuf_iterator<char, std::__1::char_traits<char> >, bool, std::__1::ios_base&, char, long double) const
PUBLIC 2d89a 0 std::__1::money_put<char, std::__1::ostreambuf_iterator<char, std::__1::char_traits<char> > >::put(std::__1::ostreambuf_iterator<char, std::__1::char_traits<char> >, bool, std::__1::ios_base&, char, std::__1::basic_string<char, std::__1::char_traits<char>, std::__1::allocator<char> > const&) const
PUBLIC 2d8a8 0 std::__1::money_put<char, std::__1::ostreambuf_iterator<char, std::__1::char_traits<char> > >::~money_put()
PUBLIC 2d8b2 0 std::__1::money_put<char, std::__1::ostreambuf_iterator<char, std::__1::char_traits<char> > >::~money_put()
PUBLIC 2d8bc 0 std::__1::money_put<char, std::__1::ostreambuf_iterator<char, std::__1::char_traits<char> > >::~money_put()
PUBLIC 2d8d8 0 std::__1::money_put<char, std::__1::ostreambuf_iterator<char, std::__1::char_traits<char> > >::do_put(std::__1::ostreambuf_iterator<char, std::__1::char_traits<char> >, bool, std::__1::ios_base&, char, long double) const
PUBLIC 2dd88 0 std::__1::__money_put<char>::__gather_info(bool, bool, std::__1::locale const&, std::__1::money_base::pattern&, char&, char&, std::__1::basic_string<char, std::__1::char_traits<char>, std::__1::allocator<char> >&, std::__1::basic_string<char, std::__1::char_traits<char>, std::__1::allocator<char> >&, std::__1::basic_string<char, std::__1::char_traits<char>, std::__1::allocator<char> >&, int&)
PUBLIC 2e11a 0 std::__1::__money_put<char>::__format(char*, char*&, char*&, unsigned int, char const*, char const*, std::__1::ctype<char> const&, bool, std::__1::money_base::pattern const&, char, char, std::__1::basic_string<char, std::__1::char_traits<char>, std::__1::allocator<char> > const&, std::__1::basic_string<char, std::__1::char_traits<char>, std::__1::allocator<char> > const&, std::__1::basic_string<char, std::__1::char_traits<char>, std::__1::allocator<char> > const&, int)
PUBLIC 2e5a8 0 std::__1::money_put<char, std::__1::ostreambuf_iterator<char, std::__1::char_traits<char> > >::do_put(std::__1::ostreambuf_iterator<char, std::__1::char_traits<char> >, bool, std::__1::ios_base&, char, std::__1::basic_string<char, std::__1::char_traits<char>, std::__1::allocator<char> > const&) const
PUBLIC 2e986 0 std::__1::money_put<wchar_t, std::__1::ostreambuf_iterator<wchar_t, std::__1::char_traits<wchar_t> > >::money_put(unsigned long)
PUBLIC 2e9a2 0 std::__1::__money_put<wchar_t>::__money_put()
PUBLIC 2e9a8 0 std::__1::money_put<wchar_t, std::__1::ostreambuf_iterator<wchar_t, std::__1::char_traits<wchar_t> > >::money_put(unsigned long)
PUBLIC 2e9c4 0 std::__1::money_put<wchar_t, std::__1::ostreambuf_iterator<wchar_t, std::__1::char_traits<wchar_t> > >::put(std::__1::ostreambuf_iterator<wchar_t, std::__1::char_traits<wchar_t> >, bool, std::__1::ios_base&, wchar_t, long double) const
PUBLIC 2e9d2 0 std::__1::money_put<wchar_t, std::__1::ostreambuf_iterator<wchar_t, std::__1::char_traits<wchar_t> > >::put(std::__1::ostreambuf_iterator<wchar_t, std::__1::char_traits<wchar_t> >, bool, std::__1::ios_base&, wchar_t, std::__1::basic_string<wchar_t, std::__1::char_traits<wchar_t>, std::__1::allocator<wchar_t> > const&) const
PUBLIC 2e9e0 0 std::__1::money_put<wchar_t, std::__1::ostreambuf_iterator<wchar_t, std::__1::char_traits<wchar_t> > >::~money_put()
PUBLIC 2e9ea 0 std::__1::money_put<wchar_t, std::__1::ostreambuf_iterator<wchar_t, std::__1::char_traits<wchar_t> > >::~money_put()
PUBLIC 2e9f4 0 std::__1::money_put<wchar_t, std::__1::ostreambuf_iterator<wchar_t, std::__1::char_traits<wchar_t> > >::~money_put()
PUBLIC 2ea10 0 std::__1::money_put<wchar_t, std::__1::ostreambuf_iterator<wchar_t, std::__1::char_traits<wchar_t> > >::do_put(std::__1::ostreambuf_iterator<wchar_t, std::__1::char_traits<wchar_t> >, bool, std::__1::ios_base&, wchar_t, long double) const
PUBLIC 2eebe 0 std::__1::__money_put<wchar_t>::__gather_info(bool, bool, std::__1::locale const&, std::__1::money_base::pattern&, wchar_t&, wchar_t&, std::__1::basic_string<char, std::__1::char_traits<char>, std::__1::allocator<char> >&, std::__1::basic_string<wchar_t, std::__1::char_traits<wchar_t>, std::__1::allocator<wchar_t> >&, std::__1::basic_string<wchar_t, std::__1::char_traits<wchar_t>, std::__1::allocator<wchar_t> >&, int&)
PUBLIC 2f29c 0 std::__1::__money_put<wchar_t>::__format(wchar_t*, wchar_t*&, wchar_t*&, unsigned int, wchar_t const*, wchar_t const*, std::__1::ctype<wchar_t> const&, bool, std::__1::money_base::pattern const&, wchar_t, wchar_t, std::__1::basic_string<char, std::__1::char_traits<char>, std::__1::allocator<char> > const&, std::__1::basic_string<wchar_t, std::__1::char_traits<wchar_t>, std::__1::allocator<wchar_t> > const&, std::__1::basic_string<wchar_t, std::__1::char_traits<wchar_t>, std::__1::allocator<wchar_t> > const&, int)
PUBLIC 2f6c8 0 std::__1::money_put<wchar_t, std::__1::ostreambuf_iterator<wchar_t, std::__1::char_traits<wchar_t> > >::do_put(std::__1::ostreambuf_iterator<wchar_t, std::__1::char_traits<wchar_t> >, bool, std::__1::ios_base&, wchar_t, std::__1::basic_string<wchar_t, std::__1::char_traits<wchar_t>, std::__1::allocator<wchar_t> > const&) const
PUBLIC 2faac 0 std::__1::__money_put<char>::__money_put()
PUBLIC 2fab2 0 std::__1::__money_put<wchar_t>::__money_put()
PUBLIC 2fab8 0 std::__1::messages<char>::messages(unsigned long)
PUBLIC 2fad4 0 std::__1::messages<char>::messages(unsigned long)
PUBLIC 2faf0 0 std::__1::messages<char>::open(std::__1::basic_string<char, std::__1::char_traits<char>, std::__1::allocator<char> > const&, std::__1::locale const&) const
PUBLIC 2fafe 0 std::__1::messages<char>::get(long, int, int, std::__1::basic_string<char, std::__1::char_traits<char>, std::__1::allocator<char> > const&) const
PUBLIC 2fb18 0 std::__1::messages<char>::close(long) const
PUBLIC 2fb26 0 std::__1::messages<char>::~messages()
PUBLIC 2fb30 0 std::__1::messages<char>::~messages()
PUBLIC 2fb3a 0 std::__1::messages<char>::~messages()
PUBLIC 2fb56 0 std::__1::messages<char>::do_open(std::__1::basic_string<char, std::__1::char_traits<char>, std::__1::allocator<char> > const&, std::__1::locale const&) const
PUBLIC 2fb7c 0 std::__1::messages<char>::do_get(long, int, int, std::__1::basic_string<char, std::__1::char_traits<char>, std::__1::allocator<char> > const&) const
PUBLIC 2fcb0 0 std::__1::messages<char>::do_close(long) const
PUBLIC 2fcc6 0 std::__1::messages<wchar_t>::messages(unsigned long)
PUBLIC 2fce2 0 std::__1::messages<wchar_t>::messages(unsigned long)
PUBLIC 2fcfe 0 std::__1::messages<wchar_t>::open(std::__1::basic_string<char, std::__1::char_traits<char>, std::__1::allocator<char> > const&, std::__1::locale const&) const
PUBLIC 2fd0c 0 std::__1::messages<wchar_t>::get(long, int, int, std::__1::basic_string<wchar_t, std::__1::char_traits<wchar_t>, std::__1::allocator<wchar_t> > const&) const
PUBLIC 2fd26 0 std::__1::messages<wchar_t>::close(long) const
PUBLIC 2fd34 0 std::__1::messages<wchar_t>::~messages()
PUBLIC 2fd3e 0 std::__1::messages<wchar_t>::~messages()
PUBLIC 2fd48 0 std::__1::messages<wchar_t>::~messages()
PUBLIC 2fd64 0 std::__1::messages<wchar_t>::do_open(std::__1::basic_string<char, std::__1::char_traits<char>, std::__1::allocator<char> > const&, std::__1::locale const&) const
PUBLIC 2fd8a 0 std::__1::messages<wchar_t>::do_get(long, int, int, std::__1::basic_string<wchar_t, std::__1::char_traits<wchar_t>, std::__1::allocator<wchar_t> > const&) const
PUBLIC 300ea 0 std::__1::__narrow_to_utf8<32ul>::~__narrow_to_utf8()
PUBLIC 300f4 0 std::__1::__widen_from_utf8<32ul>::~__widen_from_utf8()
PUBLIC 300fe 0 std::__1::messages<wchar_t>::do_close(long) const
PUBLIC 30114 0 std::__1::messages_byname<char>::messages_byname(char const*, unsigned long)
PUBLIC 30130 0 std::__1::messages_byname<char>::messages_byname(char const*, unsigned long)
PUBLIC 3014c 0 std::__1::messages_byname<char>::messages_byname(std::__1::basic_string<char, std::__1::char_traits<char>, std::__1::allocator<char> > const&, unsigned long)
PUBLIC 30168 0 std::__1::messages_byname<char>::messages_byname(std::__1::basic_string<char, std::__1::char_traits<char>, std::__1::allocator<char> > const&, unsigned long)
PUBLIC 30184 0 std::__1::messages_byname<char>::~messages_byname()
PUBLIC 3018e 0 std::__1::messages_byname<char>::~messages_byname()
PUBLIC 30198 0 std::__1::messages_byname<char>::~messages_byname()
PUBLIC 301b4 0 std::__1::messages_byname<wchar_t>::messages_byname(char const*, unsigned long)
PUBLIC 301d0 0 std::__1::messages_byname<wchar_t>::messages_byname(char const*, unsigned long)
PUBLIC 301ec 0 std::__1::messages_byname<wchar_t>::messages_byname(std::__1::basic_string<char, std::__1::char_traits<char>, std::__1::allocator<char> > const&, unsigned long)
PUBLIC 30208 0 std::__1::messages_byname<wchar_t>::messages_byname(std::__1::basic_string<char, std::__1::char_traits<char>, std::__1::allocator<char> > const&, unsigned long)
PUBLIC 30224 0 std::__1::messages_byname<wchar_t>::~messages_byname()
PUBLIC 3022e 0 std::__1::messages_byname<wchar_t>::~messages_byname()
PUBLIC 30238 0 std::__1::messages_byname<wchar_t>::~messages_byname()
PUBLIC 30254 0 std::__1::codecvt_byname<char, char, __mbstate_t>::codecvt_byname(char const*, unsigned long)
PUBLIC 30270 0 std::__1::codecvt_byname<char, char, __mbstate_t>::codecvt_byname(char const*, unsigned long)
PUBLIC 3028c 0 std::__1::codecvt_byname<char, char, __mbstate_t>::codecvt_byname(std::__1::basic_string<char, std::__1::char_traits<char>, std::__1::allocator<char> > const&, unsigned long)
PUBLIC 302a8 0 std::__1::codecvt_byname<char, char, __mbstate_t>::codecvt_byname(std::__1::basic_string<char, std::__1::char_traits<char>, std::__1::allocator<char> > const&, unsigned long)
PUBLIC 302c4 0 std::__1::codecvt_byname<char, char, __mbstate_t>::~codecvt_byname()
PUBLIC 302ce 0 std::__1::codecvt<char, char, __mbstate_t>::~codecvt()
PUBLIC 302d8 0 std::__1::codecvt_byname<char, char, __mbstate_t>::~codecvt_byname()
PUBLIC 302e2 0 std::__1::codecvt_byname<char, char, __mbstate_t>::~codecvt_byname()
PUBLIC 302fe 0 std::__1::codecvt_byname<wchar_t, char, __mbstate_t>::codecvt_byname(char const*, unsigned long)
PUBLIC 30322 0 std::__1::codecvt<wchar_t, char, __mbstate_t>::codecvt(char const*, unsigned long)
PUBLIC 30470 0 std::__1::codecvt_byname<wchar_t, char, __mbstate_t>::codecvt_byname(char const*, unsigned long)
PUBLIC 30494 0 std::__1::codecvt_byname<wchar_t, char, __mbstate_t>::codecvt_byname(std::__1::basic_string<char, std::__1::char_traits<char>, std::__1::allocator<char> > const&, unsigned long)
PUBLIC 304c6 0 std::__1::codecvt_byname<wchar_t, char, __mbstate_t>::codecvt_byname(std::__1::basic_string<char, std::__1::char_traits<char>, std::__1::allocator<char> > const&, unsigned long)
PUBLIC 304f8 0 std::__1::codecvt_byname<wchar_t, char, __mbstate_t>::~codecvt_byname()
PUBLIC 30502 0 std::__1::codecvt<wchar_t, char, __mbstate_t>::~codecvt()
PUBLIC 30544 0 std::__1::codecvt_byname<wchar_t, char, __mbstate_t>::~codecvt_byname()
PUBLIC 3054e 0 std::__1::codecvt_byname<wchar_t, char, __mbstate_t>::~codecvt_byname()
PUBLIC 3056a 0 std::__1::codecvt_byname<char16_t, char, __mbstate_t>::codecvt_byname(char const*, unsigned long)
PUBLIC 30586 0 std::__1::codecvt_byname<char16_t, char, __mbstate_t>::codecvt_byname(char const*, unsigned long)
PUBLIC 305a2 0 std::__1::codecvt_byname<char16_t, char, __mbstate_t>::codecvt_byname(std::__1::basic_string<char, std::__1::char_traits<char>, std::__1::allocator<char> > const&, unsigned long)
PUBLIC 305be 0 std::__1::codecvt_byname<char16_t, char, __mbstate_t>::codecvt_byname(std::__1::basic_string<char, std::__1::char_traits<char>, std::__1::allocator<char> > const&, unsigned long)
PUBLIC 305da 0 std::__1::codecvt_byname<char16_t, char, __mbstate_t>::~codecvt_byname()
PUBLIC 305ee 0 std::__1::codecvt_byname<char16_t, char, __mbstate_t>::~codecvt_byname()
PUBLIC 305f8 0 std::__1::codecvt_byname<char16_t, char, __mbstate_t>::~codecvt_byname()
PUBLIC 30614 0 std::__1::codecvt_byname<char32_t, char, __mbstate_t>::codecvt_byname(char const*, unsigned long)
PUBLIC 30630 0 std::__1::codecvt_byname<char32_t, char, __mbstate_t>::codecvt_byname(char const*, unsigned long)
PUBLIC 3064c 0 std::__1::codecvt_byname<char32_t, char, __mbstate_t>::codecvt_byname(std::__1::basic_string<char, std::__1::char_traits<char>, std::__1::allocator<char> > const&, unsigned long)
PUBLIC 30668 0 std::__1::codecvt_byname<char32_t, char, __mbstate_t>::codecvt_byname(std::__1::basic_string<char, std::__1::char_traits<char>, std::__1::allocator<char> > const&, unsigned long)
PUBLIC 30684 0 std::__1::codecvt_byname<char32_t, char, __mbstate_t>::~codecvt_byname()
PUBLIC 3068e 0 std::__1::codecvt<char32_t, char, __mbstate_t>::~codecvt()
PUBLIC 30698 0 std::__1::codecvt_byname<char32_t, char, __mbstate_t>::~codecvt_byname()
PUBLIC 306a2 0 std::__1::codecvt_byname<char32_t, char, __mbstate_t>::~codecvt_byname()
PUBLIC 306be 0 std::__1::__vector_base_common<true>::__vector_base_common()
PUBLIC 306c4 0 std::__1::__vector_base_common<true>::__vector_base_common()
PUBLIC 306ca 0 std::__1::__vector_base_common<true>::__throw_length_error() const
PUBLIC 30726 0 std::__1::__vector_base_common<true>::__throw_out_of_range() const
PUBLIC 30782 0 std::__1::locale::__imp::__imp(unsigned long)
PUBLIC 3078c 0 std::__1::locale::__imp::__imp(std::__1::basic_string<char, std::__1::char_traits<char>, std::__1::allocator<char> > const&, unsigned long)
PUBLIC 31040 0 std::__1::collate_byname<char>::collate_byname(std::__1::basic_string<char, std::__1::char_traits<char>, std::__1::allocator<char> > const&, unsigned long)
PUBLIC 3104a 0 std::__1::collate_byname<wchar_t>::collate_byname(std::__1::basic_string<char, std::__1::char_traits<char>, std::__1::allocator<char> > const&, unsigned long)
PUBLIC 31054 0 std::__1::ctype_byname<char>::ctype_byname(std::__1::basic_string<char, std::__1::char_traits<char>, std::__1::allocator<char> > const&, unsigned long)
PUBLIC 3105e 0 std::__1::ctype_byname<wchar_t>::ctype_byname(std::__1::basic_string<char, std::__1::char_traits<char>, std::__1::allocator<char> > const&, unsigned long)
PUBLIC 31068 0 std::__1::numpunct_byname<char>::numpunct_byname(std::__1::basic_string<char, std::__1::char_traits<char>, std::__1::allocator<char> > const&, unsigned long)
PUBLIC 31072 0 std::__1::numpunct_byname<wchar_t>::numpunct_byname(std::__1::basic_string<char, std::__1::char_traits<char>, std::__1::allocator<char> > const&, unsigned long)
PUBLIC 3108c 0 std::__1::locale::__imp::__imp(std::__1::basic_string<char, std::__1::char_traits<char>, std::__1::allocator<char> > const&, unsigned long)
PUBLIC 31096 0 std::__1::locale::__imp::__imp(std::__1::locale::__imp const&)
PUBLIC 31192 0 std::__1::locale::__imp::__imp(std::__1::locale::__imp const&)
PUBLIC 3119c 0 std::__1::locale::__imp::__imp(std::__1::locale::__imp const&, std::__1::basic_string<char, std::__1::char_traits<char>, std::__1::allocator<char> > const&, int)
PUBLIC 31a3a 0 std::__1::locale::__imp::__imp(std::__1::locale::__imp const&, std::__1::basic_string<char, std::__1::char_traits<char>, std::__1::allocator<char> > const&, int)
PUBLIC 31a44 0 std::__1::locale::__imp::__imp(std::__1::locale::__imp const&, std::__1::locale::__imp const&, int)
PUBLIC 32044 0 std::__1::locale::__imp::__imp(std::__1::locale::__imp const&, std::__1::locale::__imp const&, int)
PUBLIC 3204e 0 std::__1::locale::__imp::__imp(std::__1::locale::__imp const&, std::__1::locale::facet*, long)
PUBLIC 321b8 0 std::__1::locale::__imp::__imp(std::__1::locale::__imp const&, std::__1::locale::facet*, long)
PUBLIC 321c2 0 std::__1::locale::__imp::~__imp()
PUBLIC 3224a 0 std::__1::locale::__imp::~__imp()
PUBLIC 32254 0 std::__1::locale::__imp::~__imp()
PUBLIC 32276 0 std::__1::locale::__imp::make_classic()
PUBLIC 322a6 0 std::__1::locale::__imp::make_global()
PUBLIC 322e0 0 std::__1::locale::locale(std::__1::locale const&)
PUBLIC 322f4 0 std::__1::locale::~locale()
PUBLIC 3230e 0 std::__1::locale::locale(char const*)
PUBLIC 3246c 0 std::__1::locale::locale(char const*)
PUBLIC 32476 0 std::__1::locale::locale(std::__1::basic_string<char, std::__1::char_traits<char>, std::__1::allocator<char> > const&)
PUBLIC 324ca 0 std::__1::locale::locale(std::__1::basic_string<char, std::__1::char_traits<char>, std::__1::allocator<char> > const&)
PUBLIC 324d4 0 std::__1::locale::locale(std::__1::locale const&, char const*, int)
PUBLIC 32648 0 std::__1::locale::locale(std::__1::locale const&, char const*, int)
PUBLIC 32652 0 std::__1::locale::locale(std::__1::locale const&, std::__1::basic_string<char, std::__1::char_traits<char>, std::__1::allocator<char> > const&, int)
PUBLIC 326ba 0 std::__1::locale::locale(std::__1::locale const&, std::__1::basic_string<char, std::__1::char_traits<char>, std::__1::allocator<char> > const&, int)
PUBLIC 326c4 0 std::__1::locale::locale(std::__1::locale const&, std::__1::locale const&, int)
PUBLIC 3272c 0 std::__1::locale::locale(std::__1::locale const&, std::__1::locale const&, int)
PUBLIC 32736 0 std::__1::locale::name() const
PUBLIC 32758 0 std::__1::locale::__install_ctor(std::__1::locale const&, std::__1::locale::facet*, long)
PUBLIC 327ca 0 std::__1::locale::global(std::__1::locale const&)
PUBLIC 328f8 0 std::__1::locale::operator==(std::__1::locale const&) const
PUBLIC 32a2c 0 std::__1::locale::facet::~facet()
PUBLIC 32a36 0 std::__1::locale::facet::~facet()
PUBLIC 32a52 0 std::__1::locale::facet::__on_zero_shared()
PUBLIC 32a6c 0 std::__1::collate_byname<char>::collate_byname(char const*, unsigned long)
PUBLIC 32bb9 0 std::__1::(anonymous namespace)::__throw_runtime_error(std::__1::basic_string<char, std::__1::char_traits<char>, std::__1::allocator<char> > const&)
PUBLIC 32c06 0 std::__1::collate_byname<char>::collate_byname(char const*, unsigned long)
PUBLIC 32c10 0 std::__1::collate_byname<char>::collate_byname(std::__1::basic_string<char, std::__1::char_traits<char>, std::__1::allocator<char> > const&, unsigned long)
PUBLIC 32cb8 0 std::__1::collate_byname<char>::~collate_byname()
PUBLIC 32cf4 0 std::__1::collate_byname<char>::~collate_byname()
PUBLIC 32cfe 0 std::__1::collate_byname<char>::~collate_byname()
PUBLIC 32d1a 0 std::__1::collate_byname<char>::do_compare(char const*, char const*, char const*, char const*) const
PUBLIC 32ecc 0 std::__1::collate_byname<char>::do_transform(char const*, char const*) const
PUBLIC 33094 0 std::__1::collate_byname<wchar_t>::collate_byname(char const*, unsigned long)
PUBLIC 331e2 0 std::__1::collate_byname<wchar_t>::collate_byname(char const*, unsigned long)
PUBLIC 331ec 0 std::__1::collate_byname<wchar_t>::collate_byname(std::__1::basic_string<char, std::__1::char_traits<char>, std::__1::allocator<char> > const&, unsigned long)
PUBLIC 33286 0 std::__1::collate_byname<wchar_t>::~collate_byname()
PUBLIC 332c2 0 std::__1::collate_byname<wchar_t>::~collate_byname()
PUBLIC 332cc 0 std::__1::collate_byname<wchar_t>::~collate_byname()
PUBLIC 332e8 0 std::__1::collate_byname<wchar_t>::do_compare(wchar_t const*, wchar_t const*, wchar_t const*, wchar_t const*) const
PUBLIC 333c8 0 std::__1::collate_byname<wchar_t>::do_transform(wchar_t const*, wchar_t const*) const
PUBLIC 334b2 0 std::__1::ctype<wchar_t>::~ctype()
PUBLIC 334bc 0 std::__1::ctype<wchar_t>::~ctype()
PUBLIC 334c6 0 std::__1::ctype<wchar_t>::~ctype()
PUBLIC 334e2 0 std::__1::ctype<wchar_t>::do_is(unsigned int, wchar_t) const
PUBLIC 33502 0 std::__1::ctype<char>::classic_table()
PUBLIC 33514 0 std::__1::ctype<wchar_t>::do_is(wchar_t const*, wchar_t const*, unsigned int*) const
PUBLIC 33562 0 std::__1::ctype<wchar_t>::do_scan_is(unsigned int, wchar_t const*, wchar_t const*) const
PUBLIC 33592 0 std::__1::ctype<wchar_t>::do_scan_not(unsigned int, wchar_t const*, wchar_t const*) const
PUBLIC 335c2 0 std::__1::ctype<wchar_t>::do_toupper(wchar_t) const
PUBLIC 335e0 0 std::__1::ctype<wchar_t>::do_toupper(wchar_t*, wchar_t const*) const
PUBLIC 33626 0 std::__1::ctype<wchar_t>::do_tolower(wchar_t) const
PUBLIC 33644 0 std::__1::ctype<wchar_t>::do_tolower(wchar_t*, wchar_t const*) const
PUBLIC 3368a 0 std::__1::ctype<wchar_t>::do_widen(char) const
PUBLIC 33692 0 std::__1::ctype<wchar_t>::do_widen(char const*, char const*, wchar_t*) const
PUBLIC 336ba 0 std::__1::ctype<wchar_t>::do_narrow(wchar_t, char) const
PUBLIC 336ca 0 std::__1::ctype<wchar_t>::do_narrow(wchar_t const*, wchar_t const*, char, char*) const
PUBLIC 3370c 0 std::__1::ctype<char>::ctype(unsigned int const*, bool, unsigned long)
PUBLIC 3373e 0 std::__1::ctype<char>::ctype(unsigned int const*, bool, unsigned long)
PUBLIC 33770 0 std::__1::ctype<char>::~ctype()
PUBLIC 337a6 0 std::__1::ctype<char>::~ctype()
PUBLIC 337b0 0 std::__1::ctype<char>::~ctype()
PUBLIC 337cc 0 std::__1::ctype<char>::do_toupper(char) const
PUBLIC 337ee 0 std::__1::ctype<char>::do_toupper(char*, char const*) const
PUBLIC 33820 0 std::__1::ctype<char>::do_tolower(char) const
PUBLIC 33842 0 std::__1::ctype<char>::do_tolower(char*, char const*) const
PUBLIC 33874 0 std::__1::ctype<char>::do_narrow(char, char) const
PUBLIC 33882 0 std::__1::ctype<char>::do_narrow(char const*, char const*, char, char*) const
PUBLIC 338b6 0 std::__1::ctype_byname<char>::ctype_byname(char const*, unsigned long)
PUBLIC 33a16 0 std::__1::ctype_byname<char>::ctype_byname(char const*, unsigned long)
PUBLIC 33a20 0 std::__1::ctype_byname<char>::ctype_byname(std::__1::basic_string<char, std::__1::char_traits<char>, std::__1::allocator<char> > const&, unsigned long)
PUBLIC 33ace 0 std::__1::ctype_byname<char>::~ctype_byname()
PUBLIC 33b0a 0 std::__1::ctype_byname<char>::~ctype_byname()
PUBLIC 33b14 0 std::__1::ctype_byname<char>::~ctype_byname()
PUBLIC 33b30 0 std::__1::ctype_byname<char>::do_toupper(char) const
PUBLIC 33b62 0 std::__1::ctype_byname<char>::do_toupper(char*, char const*) const
PUBLIC 33bb6 0 std::__1::ctype_byname<char>::do_tolower(char) const
PUBLIC 33be8 0 std::__1::ctype_byname<char>::do_tolower(char*, char const*) const
PUBLIC 33c3c 0 std::__1::ctype_byname<wchar_t>::ctype_byname(char const*, unsigned long)
PUBLIC 33d8a 0 std::__1::ctype_byname<wchar_t>::ctype_byname(char const*, unsigned long)
PUBLIC 33d94 0 std::__1::ctype_byname<wchar_t>::ctype_byname(std::__1::basic_string<char, std::__1::char_traits<char>, std::__1::allocator<char> > const&, unsigned long)
PUBLIC 33e2e 0 std::__1::ctype_byname<wchar_t>::~ctype_byname()
PUBLIC 33e6a 0 std::__1::ctype_byname<wchar_t>::~ctype_byname()
PUBLIC 33e74 0 std::__1::ctype_byname<wchar_t>::~ctype_byname()
PUBLIC 33e90 0 std::__1::ctype_byname<wchar_t>::do_is(unsigned int, wchar_t) const
PUBLIC 33ec4 0 std::__1::ctype_byname<wchar_t>::do_is(wchar_t const*, wchar_t const*, unsigned int*) const
PUBLIC 3404c 0 std::__1::ctype_byname<wchar_t>::do_scan_is(unsigned int, wchar_t const*, wchar_t const*) const
PUBLIC 340ba 0 std::__1::ctype_byname<wchar_t>::do_scan_not(unsigned int, wchar_t const*, wchar_t const*) const
PUBLIC 34128 0 std::__1::ctype_byname<wchar_t>::do_toupper(wchar_t) const
PUBLIC 34154 0 std::__1::ctype_byname<wchar_t>::do_toupper(wchar_t*, wchar_t const*) const
PUBLIC 341aa 0 std::__1::ctype_byname<wchar_t>::do_tolower(wchar_t) const
PUBLIC 341d6 0 std::__1::ctype_byname<wchar_t>::do_tolower(wchar_t*, wchar_t const*) const
PUBLIC 3422c 0 std::__1::ctype_byname<wchar_t>::do_widen(char) const
PUBLIC 34240 0 std::__1::ctype_byname<wchar_t>::do_widen(char const*, char const*, wchar_t*) const
PUBLIC 3429c 0 std::__1::ctype_byname<wchar_t>::do_narrow(wchar_t, char) const
PUBLIC 342c4 0 std::__1::ctype_byname<wchar_t>::do_narrow(wchar_t const*, wchar_t const*, char, char*) const
PUBLIC 34332 0 std::__1::codecvt<char, char, __mbstate_t>::~codecvt()
PUBLIC 3433c 0 std::__1::codecvt<char, char, __mbstate_t>::~codecvt()
PUBLIC 34358 0 std::__1::codecvt<char, char, __mbstate_t>::do_out(__mbstate_t&, char const*, char const*, char const*&, char*, char*, char*&) const
PUBLIC 3436e 0 std::__1::codecvt<char, char, __mbstate_t>::do_in(__mbstate_t&, char const*, char const*, char const*&, char*, char*, char*&) const
PUBLIC 34386 0 std::__1::codecvt<char, char, __mbstate_t>::do_length(__mbstate_t&, char const*, char const*, unsigned long) const
PUBLIC 3439a 0 std::__1::codecvt<char, char, __mbstate_t>::do_max_length() const
PUBLIC 343a6 0 std::__1::codecvt<wchar_t, char, __mbstate_t>::codecvt(unsigned long)
PUBLIC 343c6 0 std::__1::codecvt<wchar_t, char, __mbstate_t>::codecvt(unsigned long)
PUBLIC 343e6 0 std::__1::codecvt<wchar_t, char, __mbstate_t>::codecvt(char const*, unsigned long)
PUBLIC 343f0 0 std::__1::codecvt<wchar_t, char, __mbstate_t>::~codecvt()
PUBLIC 343fa 0 std::__1::codecvt<wchar_t, char, __mbstate_t>::~codecvt()
PUBLIC 34416 0 std::__1::codecvt<wchar_t, char, __mbstate_t>::do_out(__mbstate_t&, wchar_t const*, wchar_t const*, wchar_t const*&, char*, char*, char*&) const
PUBLIC 3469a 0 std::__1::codecvt<wchar_t, char, __mbstate_t>::do_in(__mbstate_t&, char const*, char const*, char const*&, wchar_t*, wchar_t*, wchar_t*&) const
PUBLIC 348e6 0 std::__1::codecvt<wchar_t, char, __mbstate_t>::do_length(__mbstate_t&, char const*, char const*, unsigned long) const
PUBLIC 34980 0 std::__1::codecvt<wchar_t, char, __mbstate_t>::do_max_length() const
PUBLIC 349a4 0 std::__1::codecvt<char16_t, char, __mbstate_t>::~codecvt()
PUBLIC 349ae 0 std::__1::codecvt<char16_t, char, __mbstate_t>::~codecvt()
PUBLIC 349ca 0 std::__1::codecvt<char16_t, char, __mbstate_t>::do_out(__mbstate_t&, char16_t const*, char16_t const*, char16_t const*&, char*, char*, char*&) const
PUBLIC 34a2b 0 std::__1::utf16_to_utf8(unsigned short const*, unsigned short const*, unsigned short const*&, unsigned char*, unsigned char*, unsigned char*&, unsigned long, std::__1::codecvt_mode)
PUBLIC 34ca2 0 std::__1::codecvt<char16_t, char, __mbstate_t>::do_in(__mbstate_t&, char const*, char const*, char const*&, char16_t*, char16_t*, char16_t*&) const
PUBLIC 34d08 0 std::__1::codecvt<char16_t, char, __mbstate_t>::do_unshift(__mbstate_t&, char*, char*, char*&) const
PUBLIC 34d16 0 std::__1::codecvt<char16_t, char, __mbstate_t>::do_encoding() const
PUBLIC 34d1e 0 std::__1::codecvt<char16_t, char, __mbstate_t>::do_always_noconv() const
PUBLIC 34d26 0 std::__1::codecvt<char16_t, char, __mbstate_t>::do_length(__mbstate_t&, char const*, char const*, unsigned long) const
PUBLIC 34d44 0 std::__1::utf8_to_utf16_length(unsigned char const*, unsigned char const*, unsigned long, unsigned long, std::__1::codecvt_mode)
PUBLIC 34f60 0 std::__1::codecvt<char16_t, char, __mbstate_t>::do_max_length() const
PUBLIC 34f6c 0 std::__1::codecvt<char32_t, char, __mbstate_t>::~codecvt()
PUBLIC 34f76 0 std::__1::codecvt<char32_t, char, __mbstate_t>::~codecvt()
PUBLIC 34f92 0 std::__1::codecvt<char32_t, char, __mbstate_t>::do_out(__mbstate_t&, char32_t const*, char32_t const*, char32_t const*&, char*, char*, char*&) const
PUBLIC 34ff3 0 std::__1::ucs4_to_utf8(unsigned int const*, unsigned int const*, unsigned int const*&, unsigned char*, unsigned char*, unsigned char*&, unsigned long, std::__1::codecvt_mode)
PUBLIC 35160 0 std::__1::codecvt<char32_t, char, __mbstate_t>::do_in(__mbstate_t&, char const*, char const*, char const*&, char32_t*, char32_t*, char32_t*&) const
PUBLIC 351c1 0 std::__1::utf8_to_ucs4(unsigned char const*, unsigned char const*, unsigned char const*&, unsigned int*, unsigned int*, unsigned int*&, unsigned long, std::__1::codecvt_mode)
PUBLIC 353f2 0 std::__1::codecvt<char32_t, char, __mbstate_t>::do_unshift(__mbstate_t&, char*, char*, char*&) const
PUBLIC 35400 0 std::__1::codecvt<char32_t, char, __mbstate_t>::do_encoding() const
PUBLIC 35408 0 std::__1::codecvt<char32_t, char, __mbstate_t>::do_always_noconv() const
PUBLIC 35410 0 std::__1::codecvt<char32_t, char, __mbstate_t>::do_length(__mbstate_t&, char const*, char const*, unsigned long) const
PUBLIC 3542e 0 std::__1::utf8_to_ucs4_length(unsigned char const*, unsigned char const*, unsigned long, unsigned long, std::__1::codecvt_mode)
PUBLIC 3563c 0 std::__1::codecvt<char32_t, char, __mbstate_t>::do_max_length() const
PUBLIC 35648 0 std::__1::__codecvt_utf8<wchar_t>::do_out(__mbstate_t&, wchar_t const*, wchar_t const*, wchar_t const*&, char*, char*, char*&) const
PUBLIC 356b2 0 std::__1::__codecvt_utf8<wchar_t>::do_in(__mbstate_t&, char const*, char const*, char const*&, wchar_t*, wchar_t*, wchar_t*&) const
PUBLIC 3571c 0 std::__1::__codecvt_utf8<wchar_t>::do_unshift(__mbstate_t&, char*, char*, char*&) const
PUBLIC 3572a 0 std::__1::__codecvt_utf8<wchar_t>::do_encoding() const
PUBLIC 35732 0 std::__1::__codecvt_utf8<wchar_t>::do_always_noconv() const
PUBLIC 3573a 0 std::__1::__codecvt_utf8<wchar_t>::do_length(__mbstate_t&, char const*, char const*, unsigned long) const
PUBLIC 3575c 0 std::__1::__codecvt_utf8<wchar_t>::do_max_length() const
PUBLIC 35772 0 std::__1::__codecvt_utf8<char16_t>::do_out(__mbstate_t&, char16_t const*, char16_t const*, char16_t const*&, char*, char*, char*&) const
PUBLIC 3587e 0 std::__1::__codecvt_utf8<char16_t>::do_in(__mbstate_t&, char const*, char const*, char const*&, char16_t*, char16_t*, char16_t*&) const
PUBLIC 359e6 0 std::__1::__codecvt_utf8<char16_t>::do_unshift(__mbstate_t&, char*, char*, char*&) const
PUBLIC 359f4 0 std::__1::__codecvt_utf8<char16_t>::do_encoding() const
PUBLIC 359fc 0 std::__1::__codecvt_utf8<char16_t>::do_always_noconv() const
PUBLIC 35a04 0 std::__1::__codecvt_utf8<char16_t>::do_length(__mbstate_t&, char const*, char const*, unsigned long) const
PUBLIC 35b5c 0 std::__1::__codecvt_utf8<char16_t>::do_max_length() const
PUBLIC 35b72 0 std::__1::__codecvt_utf8<char32_t>::do_out(__mbstate_t&, char32_t const*, char32_t const*, char32_t const*&, char*, char*, char*&) const
PUBLIC 35bdc 0 std::__1::__codecvt_utf8<char32_t>::do_in(__mbstate_t&, char const*, char const*, char const*&, char32_t*, char32_t*, char32_t*&) const
PUBLIC 35c46 0 std::__1::__codecvt_utf8<char32_t>::do_unshift(__mbstate_t&, char*, char*, char*&) const
PUBLIC 35c54 0 std::__1::__codecvt_utf8<char32_t>::do_encoding() const
PUBLIC 35c5c 0 std::__1::__codecvt_utf8<char32_t>::do_always_noconv() const
PUBLIC 35c64 0 std::__1::__codecvt_utf8<char32_t>::do_length(__mbstate_t&, char const*, char const*, unsigned long) const
PUBLIC 35c86 0 std::__1::__codecvt_utf8<char32_t>::do_max_length() const
PUBLIC 35c9c 0 std::__1::__codecvt_utf16<wchar_t, false>::do_out(__mbstate_t&, wchar_t const*, wchar_t const*, wchar_t const*&, char*, char*, char*&) const
PUBLIC 35d06 0 std::__1::ucs4_to_utf16be(unsigned int const*, unsigned int const*, unsigned int const*&, unsigned char*, unsigned char*, unsigned char*&, unsigned long, std::__1::codecvt_mode)
PUBLIC 35e1e 0 std::__1::__codecvt_utf16<wchar_t, false>::do_in(__mbstate_t&, char const*, char const*, char const*&, wchar_t*, wchar_t*, wchar_t*&) const
PUBLIC 35e88 0 std::__1::utf16be_to_ucs4(unsigned char const*, unsigned char const*, unsigned char const*&, unsigned int*, unsigned int*, unsigned int*&, unsigned long, std::__1::codecvt_mode)
PUBLIC 35fa8 0 std::__1::__codecvt_utf16<wchar_t, false>::do_unshift(__mbstate_t&, char*, char*, char*&) const
PUBLIC 35fb6 0 std::__1::__codecvt_utf16<wchar_t, false>::do_encoding() const
PUBLIC 35fbe 0 std::__1::__codecvt_utf16<wchar_t, false>::do_always_noconv() const
PUBLIC 35fc6 0 std::__1::__codecvt_utf16<wchar_t, false>::do_length(__mbstate_t&, char const*, char const*, unsigned long) const
PUBLIC 35fe7 0 std::__1::utf16be_to_ucs4_length(unsigned char const*, unsigned char const*, unsigned long, unsigned long, std::__1::codecvt_mode)
PUBLIC 360e4 0 std::__1::__codecvt_utf16<wchar_t, false>::do_max_length() const
PUBLIC 360f6 0 std::__1::__codecvt_utf16<wchar_t, true>::do_out(__mbstate_t&, wchar_t const*, wchar_t const*, wchar_t const*&, char*, char*, char*&) const
PUBLIC 36160 0 std::__1::ucs4_to_utf16le(unsigned int const*, unsigned int const*, unsigned int const*&, unsigned char*, unsigned char*, unsigned char*&, unsigned long, std::__1::codecvt_mode)
PUBLIC 36286 0 std::__1::__codecvt_utf16<wchar_t, true>::do_in(__mbstate_t&, char const*, char const*, char const*&, wchar_t*, wchar_t*, wchar_t*&) const
PUBLIC 362f0 0 std::__1::utf16le_to_ucs4(unsigned char const*, unsigned char const*, unsigned char const*&, unsigned int*, unsigned int*, unsigned int*&, unsigned long, std::__1::codecvt_mode)
PUBLIC 36410 0 std::__1::__codecvt_utf16<wchar_t, true>::do_unshift(__mbstate_t&, char*, char*, char*&) const
PUBLIC 3641e 0 std::__1::__codecvt_utf16<wchar_t, true>::do_encoding() const
PUBLIC 36426 0 std::__1::__codecvt_utf16<wchar_t, true>::do_always_noconv() const
PUBLIC 3642e 0 std::__1::__codecvt_utf16<wchar_t, true>::do_length(__mbstate_t&, char const*, char const*, unsigned long) const
PUBLIC 3644f 0 std::__1::utf16le_to_ucs4_length(unsigned char const*, unsigned char const*, unsigned long, unsigned long, std::__1::codecvt_mode)
PUBLIC 3654c 0 std::__1::__codecvt_utf16<wchar_t, true>::do_max_length() const
PUBLIC 3655e 0 std::__1::__codecvt_utf16<char16_t, false>::do_out(__mbstate_t&, char16_t const*, char16_t const*, char16_t const*&, char*, char*, char*&) const
PUBLIC 365de 0 std::__1::__codecvt_utf16<char16_t, false>::do_in(__mbstate_t&, char const*, char const*, char const*&, char16_t*, char16_t*, char16_t*&) const
PUBLIC 3666e 0 std::__1::__codecvt_utf16<char16_t, false>::do_unshift(__mbstate_t&, char*, char*, char*&) const
PUBLIC 3667c 0 std::__1::__codecvt_utf16<char16_t, false>::do_encoding() const
PUBLIC 36684 0 std::__1::__codecvt_utf16<char16_t, false>::do_always_noconv() const
PUBLIC 3668c 0 std::__1::__codecvt_utf16<char16_t, false>::do_length(__mbstate_t&, char const*, char const*, unsigned long) const
PUBLIC 36710 0 std::__1::__codecvt_utf16<char16_t, false>::do_max_length() const
PUBLIC 36722 0 std::__1::__codecvt_utf16<char16_t, true>::do_out(__mbstate_t&, char16_t const*, char16_t const*, char16_t const*&, char*, char*, char*&) const
PUBLIC 367a2 0 std::__1::__codecvt_utf16<char16_t, true>::do_in(__mbstate_t&, char const*, char const*, char const*&, char16_t*, char16_t*, char16_t*&) const
PUBLIC 36832 0 std::__1::__codecvt_utf16<char16_t, true>::do_unshift(__mbstate_t&, char*, char*, char*&) const
PUBLIC 36840 0 std::__1::__codecvt_utf16<char16_t, true>::do_encoding() const
PUBLIC 36848 0 std::__1::__codecvt_utf16<char16_t, true>::do_always_noconv() const
PUBLIC 36850 0 std::__1::__codecvt_utf16<char16_t, true>::do_length(__mbstate_t&, char const*, char const*, unsigned long) const
PUBLIC 368d4 0 std::__1::__codecvt_utf16<char16_t, true>::do_max_length() const
PUBLIC 368e6 0 std::__1::__codecvt_utf16<char32_t, false>::do_out(__mbstate_t&, char32_t const*, char32_t const*, char32_t const*&, char*, char*, char*&) const
PUBLIC 36950 0 std::__1::__codecvt_utf16<char32_t, false>::do_in(__mbstate_t&, char const*, char const*, char const*&, char32_t*, char32_t*, char32_t*&) const
PUBLIC 369ba 0 std::__1::__codecvt_utf16<char32_t, false>::do_unshift(__mbstate_t&, char*, char*, char*&) const
PUBLIC 369c8 0 std::__1::__codecvt_utf16<char32_t, false>::do_encoding() const
PUBLIC 369d0 0 std::__1::__codecvt_utf16<char32_t, false>::do_always_noconv() const
PUBLIC 369d8 0 std::__1::__codecvt_utf16<char32_t, false>::do_length(__mbstate_t&, char const*, char const*, unsigned long) const
PUBLIC 369fa 0 std::__1::__codecvt_utf16<char32_t, false>::do_max_length() const
PUBLIC 36a0c 0 std::__1::__codecvt_utf16<char32_t, true>::do_out(__mbstate_t&, char32_t const*, char32_t const*, char32_t const*&, char*, char*, char*&) const
PUBLIC 36a76 0 std::__1::__codecvt_utf16<char32_t, true>::do_in(__mbstate_t&, char const*, char const*, char const*&, char32_t*, char32_t*, char32_t*&) const
PUBLIC 36ae0 0 std::__1::__codecvt_utf16<char32_t, true>::do_unshift(__mbstate_t&, char*, char*, char*&) const
PUBLIC 36aee 0 std::__1::__codecvt_utf16<char32_t, true>::do_encoding() const
PUBLIC 36af6 0 std::__1::__codecvt_utf16<char32_t, true>::do_always_noconv() const
PUBLIC 36afe 0 std::__1::__codecvt_utf16<char32_t, true>::do_length(__mbstate_t&, char const*, char const*, unsigned long) const
PUBLIC 36b20 0 std::__1::__codecvt_utf16<char32_t, true>::do_max_length() const
PUBLIC 36b32 0 std::__1::__codecvt_utf8_utf16<wchar_t>::do_out(__mbstate_t&, wchar_t const*, wchar_t const*, wchar_t const*&, char*, char*, char*&) const
PUBLIC 36b9c 0 std::__1::utf16_to_utf8(unsigned int const*, unsigned int const*, unsigned int const*&, unsigned char*, unsigned char*, unsigned char*&, unsigned long, std::__1::codecvt_mode)
PUBLIC 36dce 0 std::__1::__codecvt_utf8_utf16<wchar_t>::do_in(__mbstate_t&, char const*, char const*, char const*&, wchar_t*, wchar_t*, wchar_t*&) const
PUBLIC 36e38 0 std::__1::utf8_to_utf16(unsigned char const*, unsigned char const*, unsigned char const*&, unsigned int*, unsigned int*, unsigned int*&, unsigned long, std::__1::codecvt_mode)
PUBLIC 370d8 0 std::__1::__codecvt_utf8_utf16<wchar_t>::do_unshift(__mbstate_t&, char*, char*, char*&) const
PUBLIC 370e6 0 std::__1::__codecvt_utf8_utf16<wchar_t>::do_encoding() const
PUBLIC 370ee 0 std::__1::__codecvt_utf8_utf16<wchar_t>::do_always_noconv() const
PUBLIC 370f6 0 std::__1::__codecvt_utf8_utf16<wchar_t>::do_length(__mbstate_t&, char const*, char const*, unsigned long) const
PUBLIC 37118 0 std::__1::__codecvt_utf8_utf16<wchar_t>::do_max_length() const
PUBLIC 3712e 0 std::__1::__codecvt_utf8_utf16<char16_t>::do_out(__mbstate_t&, char16_t const*, char16_t const*, char16_t const*&, char*, char*, char*&) const
PUBLIC 371a2 0 std::__1::__codecvt_utf8_utf16<char16_t>::do_unshift(__mbstate_t&, char*, char*, char*&) const
PUBLIC 371b0 0 std::__1::__codecvt_utf8_utf16<char16_t>::do_encoding() const
PUBLIC 371b8 0 std::__1::__codecvt_utf8_utf16<char16_t>::do_always_noconv() const
PUBLIC 371c0 0 std::__1::__codecvt_utf8_utf16<char16_t>::do_length(__mbstate_t&, char const*, char const*, unsigned long) const
PUBLIC 371e2 0 std::__1::__codecvt_utf8_utf16<char16_t>::do_max_length() const
PUBLIC 371f8 0 std::__1::__codecvt_utf8_utf16<char32_t>::do_out(__mbstate_t&, char32_t const*, char32_t const*, char32_t const*&, char*, char*, char*&) const
PUBLIC 37262 0 std::__1::__codecvt_utf8_utf16<char32_t>::do_in(__mbstate_t&, char const*, char const*, char const*&, char32_t*, char32_t*, char32_t*&) const
PUBLIC 372cc 0 std::__1::__codecvt_utf8_utf16<char32_t>::do_unshift(__mbstate_t&, char*, char*, char*&) const
PUBLIC 372da 0 std::__1::__codecvt_utf8_utf16<char32_t>::do_encoding() const
PUBLIC 372e2 0 std::__1::__codecvt_utf8_utf16<char32_t>::do_always_noconv() const
PUBLIC 372ea 0 std::__1::__codecvt_utf8_utf16<char32_t>::do_length(__mbstate_t&, char const*, char const*, unsigned long) const
PUBLIC 3730c 0 std::__1::__codecvt_utf8_utf16<char32_t>::do_max_length() const
PUBLIC 37322 0 std::__1::__narrow_to_utf8<16ul>::~__narrow_to_utf8()
PUBLIC 3732c 0 std::__1::__narrow_to_utf8<16ul>::~__narrow_to_utf8()
PUBLIC 37336 0 std::__1::__narrow_to_utf8<16ul>::~__narrow_to_utf8()
PUBLIC 37352 0 std::__1::__narrow_to_utf8<32ul>::~__narrow_to_utf8()
PUBLIC 3735c 0 std::__1::__narrow_to_utf8<32ul>::~__narrow_to_utf8()
PUBLIC 37378 0 std::__1::__widen_from_utf8<16ul>::~__widen_from_utf8()
PUBLIC 37382 0 std::__1::__widen_from_utf8<16ul>::~__widen_from_utf8()
PUBLIC 3738c 0 std::__1::__widen_from_utf8<16ul>::~__widen_from_utf8()
PUBLIC 373a8 0 std::__1::__widen_from_utf8<32ul>::~__widen_from_utf8()
PUBLIC 373b2 0 std::__1::__widen_from_utf8<32ul>::~__widen_from_utf8()
PUBLIC 373ce 0 std::__1::numpunct<char>::numpunct(unsigned long)
PUBLIC 373fa 0 std::__1::numpunct<char>::numpunct(unsigned long)
PUBLIC 37426 0 std::__1::numpunct<wchar_t>::numpunct(unsigned long)
PUBLIC 3745a 0 std::__1::numpunct<wchar_t>::numpunct(unsigned long)
PUBLIC 3748e 0 std::__1::numpunct<char>::~numpunct()
PUBLIC 374be 0 std::__1::numpunct<char>::~numpunct()
PUBLIC 374c8 0 std::__1::numpunct<char>::~numpunct()
PUBLIC 374e4 0 std::__1::numpunct<wchar_t>::~numpunct()
PUBLIC 37514 0 std::__1::numpunct<wchar_t>::~numpunct()
PUBLIC 3751e 0 std::__1::numpunct<wchar_t>::~numpunct()
PUBLIC 37544 0 std::__1::numpunct<wchar_t>::do_decimal_point() const
PUBLIC 37558 0 std::__1::numpunct<wchar_t>::do_thousands_sep() const
PUBLIC 3756e 0 std::__1::numpunct<wchar_t>::do_grouping() const
PUBLIC 3758a 0 std::__1::numpunct<char>::do_truename() const
PUBLIC 375ae 0 std::__1::numpunct<wchar_t>::do_truename() const
PUBLIC 375e0 0 std::__1::numpunct<char>::do_falsename() const
PUBLIC 37606 0 std::__1::numpunct<wchar_t>::do_falsename() const
PUBLIC 37638 0 std::__1::numpunct_byname<char>::numpunct_byname(char const*, unsigned long)
PUBLIC 37686 0 std::__1::numpunct_byname<char>::__init(char const*)
PUBLIC 37828 0 std::__1::numpunct_byname<char>::numpunct_byname(char const*, unsigned long)
PUBLIC 37832 0 std::__1::numpunct_byname<char>::numpunct_byname(std::__1::basic_string<char, std::__1::char_traits<char>, std::__1::allocator<char> > const&, unsigned long)
PUBLIC 37890 0 std::__1::numpunct_byname<char>::~numpunct_byname()
PUBLIC 3789a 0 std::__1::numpunct_byname<char>::~numpunct_byname()
PUBLIC 378a4 0 std::__1::numpunct_byname<char>::~numpunct_byname()
PUBLIC 378c0 0 std::__1::checked_string_to_char_convert(char&, char const*, _xlocale*)
PUBLIC 37928 0 std::__1::numpunct_byname<wchar_t>::numpunct_byname(char const*, unsigned long)
PUBLIC 3797e 0 std::__1::numpunct_byname<wchar_t>::__init(char const*)
PUBLIC 37b20 0 std::__1::numpunct_byname<wchar_t>::numpunct_byname(char const*, unsigned long)
PUBLIC 37b2a 0 std::__1::numpunct_byname<wchar_t>::numpunct_byname(std::__1::basic_string<char, std::__1::char_traits<char>, std::__1::allocator<char> > const&, unsigned long)
PUBLIC 37b90 0 std::__1::numpunct_byname<wchar_t>::~numpunct_byname()
PUBLIC 37b9a 0 std::__1::numpunct_byname<wchar_t>::~numpunct_byname()
PUBLIC 37ba4 0 std::__1::numpunct_byname<wchar_t>::~numpunct_byname()
PUBLIC 37bc0 0 std::__1::checked_string_to_wchar_convert(wchar_t&, char const*, _xlocale*)
PUBLIC 37c74 0 std::__1::__num_get_base::__get_base(std::__1::ios_base&)
PUBLIC 37ca4 0 std::__1::__time_get_c_storage<char>::__weeks() const
PUBLIC 37e6a 0 std::__1::__time_get_c_storage<wchar_t>::__weeks() const
PUBLIC 38030 0 std::__1::__time_get_c_storage<char>::__months() const
PUBLIC 382b4 0 std::__1::__time_get_c_storage<wchar_t>::__months() const
PUBLIC 38538 0 std::__1::__time_get_c_storage<char>::__am_pm() const
PUBLIC 3860e 0 std::__1::__time_get_c_storage<wchar_t>::__am_pm() const
PUBLIC 386e4 0 std::__1::__time_get_c_storage<char>::__x() const
PUBLIC 3876a 0 std::__1::__time_get_c_storage<wchar_t>::__x() const
PUBLIC 38808 0 std::__1::__time_get_c_storage<char>::__X() const
PUBLIC 3888e 0 std::__1::__time_get_c_storage<wchar_t>::__X() const
PUBLIC 3892c 0 std::__1::__time_get_c_storage<char>::__c() const
PUBLIC 389d0 0 std::__1::__time_get_c_storage<wchar_t>::__c() const
PUBLIC 38a6e 0 std::__1::__time_get_c_storage<char>::__r() const
PUBLIC 38af6 0 std::__1::__time_get_c_storage<wchar_t>::__r() const
PUBLIC 38b94 0 std::__1::__time_get::__time_get(char const*)
PUBLIC 38cb6 0 std::__1::__time_get::__time_get(char const*)
PUBLIC 38cc0 0 std::__1::__time_get::__time_get(std::__1::basic_string<char, std::__1::char_traits<char>, std::__1::allocator<char> > const&)
PUBLIC 38d36 0 std::__1::__time_get::__time_get(std::__1::basic_string<char, std::__1::char_traits<char>, std::__1::allocator<char> > const&)
PUBLIC 38d40 0 std::__1::__time_get::~__time_get()
PUBLIC 38d56 0 std::__1::__time_get::~__time_get()
PUBLIC 38d60 0 std::__1::__time_get_storage<char>::__analyze(char, std::__1::ctype<char> const&)
PUBLIC 39404 0 std::__1::basic_string<char, std::__1::char_traits<char>, std::__1::allocator<char> >* std::__1::__scan_keyword<char*, std::__1::basic_string<char, std::__1::char_traits<char>, std::__1::allocator<char> >*, std::__1::ctype<char> >(char*&, char*, std::__1::basic_string<char, std::__1::char_traits<char>, std::__1::allocator<char> >*, std::__1::basic_string<char, std::__1::char_traits<char>, std::__1::allocator<char> >*, std::__1::ctype<char> const&, unsigned int&, bool)
PUBLIC 39743 0 int std::__1::__get_up_to_n_digits<char, char*>(char*&, char*, unsigned int&, std::__1::ctype<char> const&, int)
PUBLIC 39812 0 std::__1::__time_get_storage<wchar_t>::__analyze(char, std::__1::ctype<wchar_t> const&)
PUBLIC 39f34 0 std::__1::basic_string<wchar_t, std::__1::char_traits<wchar_t>, std::__1::allocator<wchar_t> >* std::__1::__scan_keyword<wchar_t*, std::__1::basic_string<wchar_t, std::__1::char_traits<wchar_t>, std::__1::allocator<wchar_t> >*, std::__1::ctype<wchar_t> >(wchar_t*&, wchar_t*, std::__1::basic_string<wchar_t, std::__1::char_traits<wchar_t>, std::__1::allocator<wchar_t> >*, std::__1::basic_string<wchar_t, std::__1::char_traits<wchar_t>, std::__1::allocator<wchar_t> >*, std::__1::ctype<wchar_t> const&, unsigned int&, bool)
PUBLIC 3a272 0 int std::__1::__get_up_to_n_digits<wchar_t, wchar_t*>(wchar_t*&, wchar_t*, unsigned int&, std::__1::ctype<wchar_t> const&, int)
PUBLIC 3a366 0 std::__1::__time_get_storage<char>::init(std::__1::ctype<char> const&)
PUBLIC 3a70e 0 std::__1::__time_get_storage<wchar_t>::init(std::__1::ctype<wchar_t> const&)
PUBLIC 3ae0e 0 std::__1::enable_if<(__is_forward_iterator<wchar_t*>::value) && (__libcpp_string_gets_noexcept_iterator<wchar_t*>::value), std::__1::basic_string<wchar_t, std::__1::char_traits<wchar_t>, std::__1::allocator<wchar_t> >&>::type std::__1::basic_string<wchar_t, std::__1::char_traits<wchar_t>, std::__1::allocator<wchar_t> >::assign<wchar_t*>(wchar_t*, wchar_t*)
PUBLIC 3aee0 0 std::__1::__time_get_temp<char>::~__time_get_temp()
PUBLIC 3aeea 0 std::__1::__time_get_storage<char>::__time_get_storage(char const*)
PUBLIC 3aef4 0 std::__1::__time_get_storage<char>::__time_get_storage(std::__1::basic_string<char, std::__1::char_traits<char>, std::__1::allocator<char> > const&)
PUBLIC 3aefe 0 std::__1::__time_get_temp<wchar_t>::~__time_get_temp()
PUBLIC 3af08 0 std::__1::__time_get_storage<wchar_t>::__time_get_storage(char const*)
PUBLIC 3af12 0 std::__1::__time_get_storage<wchar_t>::__time_get_storage(std::__1::basic_string<char, std::__1::char_traits<char>, std::__1::allocator<char> > const&)
PUBLIC 3af1c 0 std::__1::__time_put::__time_put(char const*)
PUBLIC 3af26 0 std::__1::__time_put::__time_put(std::__1::basic_string<char, std::__1::char_traits<char>, std::__1::allocator<char> > const&)
PUBLIC 3af30 0 std::__1::__time_put::~__time_put()
PUBLIC 3af3a 0 void std::__1::__init_pat<char>(std::__1::money_base::pattern&, std::__1::basic_string<char, std::__1::char_traits<char>, std::__1::allocator<char> >&, bool, char, char, char, char)
PUBLIC 3b324 0 void std::__1::__init_pat<wchar_t>(std::__1::money_base::pattern&, std::__1::basic_string<wchar_t, std::__1::char_traits<wchar_t>, std::__1::allocator<wchar_t> >&, bool, char, char, char, wchar_t)
PUBLIC 3b71a 0 std::__1::__codecvt_utf16<wchar_t, false>::~__codecvt_utf16()
PUBLIC 3b720 0 std::__1::__codecvt_utf16<wchar_t, true>::~__codecvt_utf16()
PUBLIC 3b72e 0 std::__1::__codecvt_utf8_utf16<wchar_t>::~__codecvt_utf8_utf16()
PUBLIC 3b738 0 std::__1::__codecvt_utf8<wchar_t>::~__codecvt_utf8()
PUBLIC 3b744 0 std::__1::__codecvt_utf16<wchar_t, false>::~__codecvt_utf16()
PUBLIC 3b74a 0 std::__1::__codecvt_utf16<wchar_t, true>::~__codecvt_utf16()
PUBLIC 3b758 0 std::__1::__codecvt_utf8_utf16<wchar_t>::~__codecvt_utf8_utf16()
PUBLIC 3b762 0 std::__1::__codecvt_utf8<wchar_t>::~__codecvt_utf8()
PUBLIC 3b784 0 std::__1::__codecvt_utf8<char32_t>::~__codecvt_utf8()
PUBLIC 3b786 0 std::__1::__codecvt_utf16<char16_t, false>::~__codecvt_utf16()
PUBLIC 3b78c 0 std::__1::__codecvt_utf16<char16_t, true>::~__codecvt_utf16()
PUBLIC 3b792 0 std::__1::__codecvt_utf16<char32_t, false>::~__codecvt_utf16()
PUBLIC 3b798 0 std::__1::__codecvt_utf16<char32_t, true>::~__codecvt_utf16()
PUBLIC 3b7a4 0 std::__1::__codecvt_utf8_utf16<char32_t>::~__codecvt_utf8_utf16()
PUBLIC 3b7aa 0 std::__1::__codecvt_utf8_utf16<char16_t>::~__codecvt_utf8_utf16()
PUBLIC 3b7ae 0 std::__1::__codecvt_utf8<char16_t>::~__codecvt_utf8()
PUBLIC 3b7be 0 std::__1::__codecvt_utf8<char32_t>::~__codecvt_utf8()
PUBLIC 3b7c0 0 std::__1::__codecvt_utf16<char16_t, false>::~__codecvt_utf16()
PUBLIC 3b7c6 0 std::__1::__codecvt_utf16<char16_t, true>::~__codecvt_utf16()
PUBLIC 3b7cc 0 std::__1::__codecvt_utf16<char32_t, false>::~__codecvt_utf16()
PUBLIC 3b7d2 0 std::__1::__codecvt_utf16<char32_t, true>::~__codecvt_utf16()
PUBLIC 3b7de 0 std::__1::__codecvt_utf8_utf16<char32_t>::~__codecvt_utf8_utf16()
PUBLIC 3b7e4 0 std::__1::__codecvt_utf8_utf16<char16_t>::~__codecvt_utf8_utf16()
PUBLIC 3b7e8 0 std::__1::__codecvt_utf8<char16_t>::~__codecvt_utf8()
PUBLIC 3b810 0 std::__1::__vector_base<std::__1::locale::facet*, std::__1::__sso_allocator<std::__1::locale::facet*, 28ul> >::~__vector_base()
PUBLIC 3b85a 0 std::__1::enable_if<(__is_forward_iterator<std::__1::locale::facet**>::value) && (is_constructible<std::__1::locale::facet*, std::__1::iterator_traits<std::__1::locale::facet**>::reference>::value), void>::type std::__1::vector<std::__1::locale::facet*, std::__1::__sso_allocator<std::__1::locale::facet*, 28ul> >::assign<std::__1::locale::facet**>(std::__1::locale::facet**, std::__1::locale::facet**)
PUBLIC 3b99c 0 std::__1::vector<std::__1::locale::facet*, std::__1::__sso_allocator<std::__1::locale::facet*, 28ul> >::deallocate()
PUBLIC 3ba06 0 std::__1::__split_buffer<std::__1::locale::facet*, std::__1::__sso_allocator<std::__1::locale::facet*, 28ul>&>::~__split_buffer()
PUBLIC 3ba54 0 std::__1::enable_if<__is_forward_iterator<wchar_t const*>::value, void>::type std::__1::basic_string<wchar_t, std::__1::char_traits<wchar_t>, std::__1::allocator<wchar_t> >::__init<wchar_t const*>(wchar_t const*, wchar_t const*)
PUBLIC 3bb78 0 std::__1::__time_get_temp<char>::~__time_get_temp()
PUBLIC 3bb94 0 std::__1::__time_get_temp<wchar_t>::~__time_get_temp()
PUBLIC 3bbb0 0 std::__1::__wrap_iter<char*> std::__1::__rotate_gcd<std::__1::__wrap_iter<char*> >(std::__1::__wrap_iter<char*>, std::__1::__wrap_iter<char*>, std::__1::__wrap_iter<char*>)
PUBLIC 3bc62 0 std::__1::__wrap_iter<wchar_t*> std::__1::__rotate_gcd<std::__1::__wrap_iter<wchar_t*> >(std::__1::__wrap_iter<wchar_t*>, std::__1::__wrap_iter<wchar_t*>, std::__1::__wrap_iter<wchar_t*>)
PUBLIC 3bd21 0 unsigned short std::__1::__num_get_unsigned_integral<unsigned short>(char const*, char const*, unsigned int&, int)
PUBLIC 3bdbe 0 unsigned int std::__1::__num_get_unsigned_integral<unsigned int>(char const*, char const*, unsigned int&, int)
PUBLIC 3be65 0 long double std::__1::__num_get_float<long double>(char const*, char const*, unsigned int&)
PUBLIC 3bef6 0 std::__1::basic_string<char, std::__1::char_traits<char>, std::__1::allocator<char> >& std::__1::basic_string<char, std::__1::char_traits<char>, std::__1::allocator<char> >::__append_forward_unsafe<char*>(char*, char*)
PUBLIC 3c0c8 0 std::__1::basic_string<wchar_t, std::__1::char_traits<wchar_t>, std::__1::allocator<wchar_t> >& std::__1::basic_string<wchar_t, std::__1::char_traits<wchar_t>, std::__1::allocator<wchar_t> >::__append_forward_unsafe<wchar_t*>(wchar_t*, wchar_t*)
PUBLIC 3c262 0 std::__1::enable_if<__is_forward_iterator<wchar_t*>::value, void>::type std::__1::basic_string<wchar_t, std::__1::char_traits<wchar_t>, std::__1::allocator<wchar_t> >::__init<wchar_t*>(wchar_t*, wchar_t*)
PUBLIC 3c385 0 __cxx_global_array_dtor
PUBLIC 3c3b5 0 __cxx_global_array_dtor.75
PUBLIC 3c3e5 0 __cxx_global_array_dtor.90
PUBLIC 3c415 0 __cxx_global_array_dtor.114
PUBLIC 3c445 0 __cxx_global_array_dtor.138
PUBLIC 3c475 0 __cxx_global_array_dtor.141
PUBLIC 3c4b0 0 std::__1::bad_weak_ptr::~bad_weak_ptr()
PUBLIC 3c4ba 0 std::__1::bad_weak_ptr::~bad_weak_ptr()
PUBLIC 3c4c4 0 std::__1::bad_weak_ptr::~bad_weak_ptr()
PUBLIC 3c4e0 0 std::__1::bad_weak_ptr::what() const
PUBLIC 3c4f4 0 std::__1::__shared_count::~__shared_count()
PUBLIC 3c4fa 0 std::__1::__shared_count::~__shared_count()
PUBLIC 3c500 0 std::__1::__shared_weak_count::~__shared_weak_count()
PUBLIC 3c506 0 std::__1::__shared_weak_count::~__shared_weak_count()
PUBLIC 3c50c 0 std::__1::__shared_weak_count::~__shared_weak_count()
PUBLIC 3c520 0 std::__1::__shared_weak_count::__get_deleter(std::type_info const&) const
PUBLIC 3c52f 0 std::__1::declare_reachable(void*)
PUBLIC 3c535 0 std::__1::declare_no_pointers(char*, unsigned long)
PUBLIC 3c53b 0 std::__1::undeclare_no_pointers(char*, unsigned long)
PUBLIC 3c541 0 std::__1::get_pointer_safety()
PUBLIC 3c549 0 std::__1::__undeclare_reachable(void*)
PUBLIC 3c552 0 std::__1::recursive_mutex::~recursive_mutex()
PUBLIC 3c58a 0 std::__1::recursive_mutex::~recursive_mutex()
PUBLIC 3c59a 0 std::__1::recursive_mutex::try_lock()
PUBLIC 3c5b2 0 std::__1::timed_mutex::timed_mutex()
PUBLIC 3c5fe 0 std::__1::timed_mutex::timed_mutex()
PUBLIC 3c64a 0 std::__1::timed_mutex::~timed_mutex()
PUBLIC 3c69c 0 std::__1::timed_mutex::~timed_mutex()
PUBLIC 3c6a6 0 std::__1::timed_mutex::lock()
PUBLIC 3c70a 0 std::__1::timed_mutex::try_lock()
PUBLIC 3c744 0 std::__1::timed_mutex::unlock()
PUBLIC 3c776 0 std::__1::recursive_timed_mutex::recursive_timed_mutex()
PUBLIC 3c7c6 0 std::__1::recursive_timed_mutex::recursive_timed_mutex()
PUBLIC 3c816 0 std::__1::recursive_timed_mutex::~recursive_timed_mutex()
PUBLIC 3c868 0 std::__1::recursive_timed_mutex::~recursive_timed_mutex()
PUBLIC 3c872 0 std::__1::recursive_timed_mutex::lock()
PUBLIC 3c944 0 std::__1::recursive_timed_mutex::try_lock()
PUBLIC 3c9c6 0 std::__1::recursive_timed_mutex::unlock()
PUBLIC 3ca38 0 std::__throw_bad_alloc()
PUBLIC 3ca6c 0 std::__1::random_device::entropy() const
PUBLIC 3ca76 0 std::bad_any_cast::what() const
PUBLIC 3ca84 0 std::experimental::fundamentals_v1::bad_any_cast::what() const
PUBLIC 3ca92 0 std::experimental::fundamentals_v1::bad_any_cast::~bad_any_cast()
PUBLIC 3ca9c 0 std::experimental::fundamentals_v1::bad_any_cast::~bad_any_cast()
PUBLIC 3cab8 0 std::__1::regex_error::regex_error(std::__1::regex_constants::error_type)
PUBLIC 3cb00 0 std::__1::regex_error::regex_error(std::__1::regex_constants::error_type)
PUBLIC 3cb0a 0 std::__1::regex_error::~regex_error()
PUBLIC 3cb14 0 std::__1::regex_error::~regex_error()
PUBLIC 3cb1e 0 std::__1::regex_error::~regex_error()
PUBLIC 3cb3a 0 std::__1::__get_collation_name(char const*)
PUBLIC 3cc04 0 std::__1::__get_classname(char const*, bool)
PUBLIC 3ccbc 0 std::__1::__match_any_but_newline<char>::__exec(std::__1::__state<char>&) const
PUBLIC 3ccfe 0 std::__1::__match_any_but_newline<wchar_t>::__exec(std::__1::__state<wchar_t>&) const
PUBLIC 3cd50 0 std::logic_error::logic_error(std::__1::basic_string<char, std::__1::char_traits<char>, std::__1::allocator<char> > const&)
PUBLIC 3cdd6 0 std::logic_error::logic_error(std::__1::basic_string<char, std::__1::char_traits<char>, std::__1::allocator<char> > const&)
PUBLIC 3cde0 0 std::logic_error::logic_error(char const*)
PUBLIC 3ce5c 0 std::logic_error::logic_error(char const*)
PUBLIC 3ce66 0 std::logic_error::logic_error(std::logic_error const&)
PUBLIC 3cf0a 0 std::logic_error::logic_error(std::logic_error const&)
PUBLIC 3cf14 0 std::logic_error::operator=(std::logic_error const&)
PUBLIC 3cf34 0 std::__1::__libcpp_refstring::operator=(std::__1::__libcpp_refstring const&)
PUBLIC 3d096 0 std::runtime_error::runtime_error(std::__1::basic_string<char, std::__1::char_traits<char>, std::__1::allocator<char> > const&)
PUBLIC 3d11c 0 std::runtime_error::runtime_error(std::__1::basic_string<char, std::__1::char_traits<char>, std::__1::allocator<char> > const&)
PUBLIC 3d12c 0 std::runtime_error::runtime_error(std::runtime_error const&)
PUBLIC 3d1d0 0 std::runtime_error::runtime_error(std::runtime_error const&)
PUBLIC 3d1da 0 std::runtime_error::operator=(std::runtime_error const&)
PUBLIC 3d200 0 std::__1::__basic_string_common<true>::__throw_length_error() const
PUBLIC 3d25c 0 std::__1::__basic_string_common<true>::__throw_out_of_range() const
PUBLIC 3d2b8 0 std::__1::basic_string<char, std::__1::char_traits<char>, std::__1::allocator<char> >::basic_string()
PUBLIC 3d2dc 0 std::__1::basic_string<char, std::__1::char_traits<char>, std::__1::allocator<char> >::__zero()
PUBLIC 3d2f0 0 std::__1::basic_string<char, std::__1::char_traits<char>, std::__1::allocator<char> >::basic_string()
PUBLIC 3d304 0 std::__1::basic_string<char, std::__1::char_traits<char>, std::__1::allocator<char> >::basic_string(std::__1::allocator<char> const&)
PUBLIC 3d318 0 std::__1::basic_string<char, std::__1::char_traits<char>, std::__1::allocator<char> >::basic_string(std::__1::allocator<char> const&)
PUBLIC 3d330 0 std::__1::basic_string<char, std::__1::char_traits<char>, std::__1::allocator<char> >::__alloc() const
PUBLIC 3d33a 0 std::__1::basic_string<char, std::__1::char_traits<char>, std::__1::allocator<char> >::__is_long() const
PUBLIC 3d34e 0 std::__1::basic_string<char, std::__1::char_traits<char>, std::__1::allocator<char> >::__get_long_pointer() const
PUBLIC 3d358 0 std::__1::basic_string<char, std::__1::char_traits<char>, std::__1::allocator<char> >::__get_long_size() const
PUBLIC 3d36c 0 std::__1::basic_string<char, std::__1::char_traits<char>, std::__1::allocator<char> >::basic_string(std::__1::basic_string<char, std::__1::char_traits<char>, std::__1::allocator<char> > const&, std::__1::allocator<char> const&)
PUBLIC 3d410 0 std::__1::basic_string<char, std::__1::char_traits<char>, std::__1::allocator<char> >::basic_string(std::__1::basic_string<char, std::__1::char_traits<char>, std::__1::allocator<char> > const&, std::__1::allocator<char> const&)
PUBLIC 3d41a 0 std::__1::basic_string<char, std::__1::char_traits<char>, std::__1::allocator<char> >::basic_string(std::__1::basic_string<char, std::__1::char_traits<char>, std::__1::allocator<char> >&&)
PUBLIC 3d444 0 std::__1::basic_string<char, std::__1::char_traits<char>, std::__1::allocator<char> >::basic_string(std::__1::basic_string<char, std::__1::char_traits<char>, std::__1::allocator<char> >&&)
PUBLIC 3d46e 0 std::__1::basic_string<char, std::__1::char_traits<char>, std::__1::allocator<char> >::basic_string(std::__1::basic_string<char, std::__1::char_traits<char>, std::__1::allocator<char> >&&, std::__1::allocator<char> const&)
PUBLIC 3d498 0 std::__1::basic_string<char, std::__1::char_traits<char>, std::__1::allocator<char> >::__alloc()
PUBLIC 3d4a2 0 std::__1::basic_string<char, std::__1::char_traits<char>, std::__1::allocator<char> >::__get_long_pointer()
PUBLIC 3d4ac 0 std::__1::basic_string<char, std::__1::char_traits<char>, std::__1::allocator<char> >::basic_string(std::__1::basic_string<char, std::__1::char_traits<char>, std::__1::allocator<char> >&&, std::__1::allocator<char> const&)
PUBLIC 3d4d6 0 std::__1::basic_string<char, std::__1::char_traits<char>, std::__1::allocator<char> >::basic_string(char const*)
PUBLIC 3d56e 0 std::__1::basic_string<char, std::__1::char_traits<char>, std::__1::allocator<char> >::basic_string(char const*)
PUBLIC 3d606 0 std::__1::basic_string<char, std::__1::char_traits<char>, std::__1::allocator<char> >::basic_string(char const*, std::__1::allocator<char> const&)
PUBLIC 3d69e 0 std::__1::basic_string<char, std::__1::char_traits<char>, std::__1::allocator<char> >::basic_string(char const*, std::__1::allocator<char> const&)
PUBLIC 3d736 0 std::__1::basic_string<char, std::__1::char_traits<char>, std::__1::allocator<char> >::basic_string(char const*, unsigned long)
PUBLIC 3d7ba 0 std::__1::basic_string<char, std::__1::char_traits<char>, std::__1::allocator<char> >::basic_string(char const*, unsigned long)
PUBLIC 3d83e 0 std::__1::basic_string<char, std::__1::char_traits<char>, std::__1::allocator<char> >::basic_string(char const*, unsigned long, std::__1::allocator<char> const&)
PUBLIC 3d8c2 0 std::__1::basic_string<char, std::__1::char_traits<char>, std::__1::allocator<char> >::basic_string(char const*, unsigned long, std::__1::allocator<char> const&)
PUBLIC 3d946 0 std::__1::basic_string<char, std::__1::char_traits<char>, std::__1::allocator<char> >::basic_string(unsigned long, char)
PUBLIC 3d9d6 0 std::__1::basic_string<char, std::__1::char_traits<char>, std::__1::allocator<char> >::basic_string(unsigned long, char)
PUBLIC 3da5c 0 std::__1::basic_string<char, std::__1::char_traits<char>, std::__1::allocator<char> >::basic_string(unsigned long, char, std::__1::allocator<char> const&)
PUBLIC 3dae2 0 std::__1::basic_string<char, std::__1::char_traits<char>, std::__1::allocator<char> >::basic_string(unsigned long, char, std::__1::allocator<char> const&)
PUBLIC 3db74 0 std::__1::basic_string<char, std::__1::char_traits<char>, std::__1::allocator<char> >::size() const
PUBLIC 3db8c 0 std::__1::basic_string<char, std::__1::char_traits<char>, std::__1::allocator<char> >::data() const
PUBLIC 3dbae 0 std::__1::basic_string<char, std::__1::char_traits<char>, std::__1::allocator<char> >::basic_string(std::__1::basic_string<char, std::__1::char_traits<char>, std::__1::allocator<char> > const&, unsigned long, std::__1::allocator<char> const&)
PUBLIC 3dc70 0 std::__1::basic_string<char, std::__1::char_traits<char>, std::__1::allocator<char> >::basic_string(std::__1::basic_string<char, std::__1::char_traits<char>, std::__1::allocator<char> > const&, unsigned long, std::__1::allocator<char> const&)
PUBLIC 3dd32 0 std::__1::basic_string<char, std::__1::char_traits<char>, std::__1::allocator<char> >::basic_string(std::__1::basic_string_view<char, std::__1::char_traits<char> >)
PUBLIC 3ddb6 0 std::__1::basic_string<char, std::__1::char_traits<char>, std::__1::allocator<char> >::basic_string(std::__1::basic_string_view<char, std::__1::char_traits<char> >)
PUBLIC 3de3a 0 std::__1::basic_string<char, std::__1::char_traits<char>, std::__1::allocator<char> >::basic_string(std::__1::basic_string_view<char, std::__1::char_traits<char> >, std::__1::allocator<char> const&)
PUBLIC 3debe 0 std::__1::basic_string<char, std::__1::char_traits<char>, std::__1::allocator<char> >::basic_string(std::__1::basic_string_view<char, std::__1::char_traits<char> >, std::__1::allocator<char> const&)
PUBLIC 3df42 0 std::__1::basic_string<char, std::__1::char_traits<char>, std::__1::allocator<char> >::basic_string(std::initializer_list<char>)
PUBLIC 3dfca 0 std::__1::basic_string<char, std::__1::char_traits<char>, std::__1::allocator<char> >::basic_string(std::initializer_list<char>)
PUBLIC 3e052 0 std::__1::basic_string<char, std::__1::char_traits<char>, std::__1::allocator<char> >::basic_string(std::initializer_list<char>, std::__1::allocator<char> const&)
PUBLIC 3e0da 0 std::__1::basic_string<char, std::__1::char_traits<char>, std::__1::allocator<char> >::basic_string(std::initializer_list<char>, std::__1::allocator<char> const&)
PUBLIC 3e168 0 std::__1::basic_string<char, std::__1::char_traits<char>, std::__1::allocator<char> >::__get_long_cap() const
PUBLIC 3e17c 0 std::__1::basic_string<char, std::__1::char_traits<char>, std::__1::allocator<char> >::operator std::__1::basic_string_view<char, std::__1::char_traits<char> >() const
PUBLIC 3e19e 0 std::__1::basic_string<char, std::__1::char_traits<char>, std::__1::allocator<char> >::__copy_assign_alloc(std::__1::basic_string<char, std::__1::char_traits<char>, std::__1::allocator<char> > const&)
PUBLIC 3e1a8 0 std::__1::basic_string<char, std::__1::char_traits<char>, std::__1::allocator<char> >::operator=(std::__1::basic_string<char, std::__1::char_traits<char>, std::__1::allocator<char> >&&)
PUBLIC 3e20e 0 std::__1::basic_string<char, std::__1::char_traits<char>, std::__1::allocator<char> >::__move_assign(std::__1::basic_string<char, std::__1::char_traits<char>, std::__1::allocator<char> >&, std::__1::integral_constant<bool, true>)
PUBLIC 3e270 0 std::__1::basic_string<char, std::__1::char_traits<char>, std::__1::allocator<char> >::operator=(char const*)
PUBLIC 3e2a0 0 std::__1::basic_string<char, std::__1::char_traits<char>, std::__1::allocator<char> >::operator=(char)
PUBLIC 3e2ca 0 std::__1::basic_string<char, std::__1::char_traits<char>, std::__1::allocator<char> >::__set_long_size(unsigned long)
PUBLIC 3e2d4 0 std::__1::basic_string<char, std::__1::char_traits<char>, std::__1::allocator<char> >::__get_short_pointer()
PUBLIC 3e2de 0 std::__1::basic_string<char, std::__1::char_traits<char>, std::__1::allocator<char> >::__set_short_size(unsigned long)
PUBLIC 3e2ea 0 std::__1::basic_string<char, std::__1::char_traits<char>, std::__1::allocator<char> >::__invalidate_iterators_past(unsigned long)
PUBLIC 3e2f0 0 std::__1::basic_string<char, std::__1::char_traits<char>, std::__1::allocator<char> >::operator=(std::initializer_list<char>)
PUBLIC 3e2fa 0 std::__1::basic_string<char, std::__1::char_traits<char>, std::__1::allocator<char> >::begin()
PUBLIC 3e312 0 std::__1::basic_string<char, std::__1::char_traits<char>, std::__1::allocator<char> >::__get_pointer()
PUBLIC 3e32a 0 std::__1::basic_string<char, std::__1::char_traits<char>, std::__1::allocator<char> >::begin() const
PUBLIC 3e342 0 std::__1::basic_string<char, std::__1::char_traits<char>, std::__1::allocator<char> >::__get_pointer() const
PUBLIC 3e35a 0 std::__1::basic_string<char, std::__1::char_traits<char>, std::__1::allocator<char> >::end()
PUBLIC 3e37e 0 std::__1::basic_string<char, std::__1::char_traits<char>, std::__1::allocator<char> >::end() const
PUBLIC 3e3a2 0 std::__1::basic_string<char, std::__1::char_traits<char>, std::__1::allocator<char> >::rbegin()
PUBLIC 3e3ca 0 std::__1::basic_string<char, std::__1::char_traits<char>, std::__1::allocator<char> >::rbegin() const
PUBLIC 3e3f2 0 std::__1::basic_string<char, std::__1::char_traits<char>, std::__1::allocator<char> >::rend()
PUBLIC 3e40c 0 std::__1::basic_string<char, std::__1::char_traits<char>, std::__1::allocator<char> >::rend() const
PUBLIC 3e426 0 std::__1::basic_string<char, std::__1::char_traits<char>, std::__1::allocator<char> >::cbegin() const
PUBLIC 3e43e 0 std::__1::basic_string<char, std::__1::char_traits<char>, std::__1::allocator<char> >::cend() const
PUBLIC 3e462 0 std::__1::basic_string<char, std::__1::char_traits<char>, std::__1::allocator<char> >::crbegin() const
PUBLIC 3e48a 0 std::__1::basic_string<char, std::__1::char_traits<char>, std::__1::allocator<char> >::crend() const
PUBLIC 3e4a4 0 std::__1::basic_string<char, std::__1::char_traits<char>, std::__1::allocator<char> >::__get_short_size() const
PUBLIC 3e4b2 0 std::__1::basic_string<char, std::__1::char_traits<char>, std::__1::allocator<char> >::length() const
PUBLIC 3e4ca 0 std::__1::basic_string<char, std::__1::char_traits<char>, std::__1::allocator<char> >::max_size() const
PUBLIC 3e4d8 0 std::__1::basic_string<char, std::__1::char_traits<char>, std::__1::allocator<char> >::capacity() const
PUBLIC 3e4fc 0 std::__1::basic_string<char, std::__1::char_traits<char>, std::__1::allocator<char> >::__erase_to_end(unsigned long)
PUBLIC 3e520 0 std::__1::basic_string<char, std::__1::char_traits<char>, std::__1::allocator<char> >::resize(unsigned long)
PUBLIC 3e52e 0 std::__1::basic_string<char, std::__1::char_traits<char>, std::__1::allocator<char> >::__recommend(unsigned long)
PUBLIC 3e550 0 std::__1::basic_string<char, std::__1::char_traits<char>, std::__1::allocator<char> >::__set_long_cap(unsigned long)
PUBLIC 3e55e 0 std::__1::basic_string<char, std::__1::char_traits<char>, std::__1::allocator<char> >::__set_long_pointer(char*)
PUBLIC 3e568 0 std::__1::basic_string<char, std::__1::char_traits<char>, std::__1::allocator<char> >::__invalidate_all_iterators()
PUBLIC 3e56e 0 std::__1::basic_string<char, std::__1::char_traits<char>, std::__1::allocator<char> >::shrink_to_fit()
PUBLIC 3e584 0 std::__1::basic_string<char, std::__1::char_traits<char>, std::__1::allocator<char> >::clear()
PUBLIC 3e5a6 0 std::__1::basic_string<char, std::__1::char_traits<char>, std::__1::allocator<char> >::empty() const
PUBLIC 3e5c4 0 std::__1::basic_string<char, std::__1::char_traits<char>, std::__1::allocator<char> >::operator[](unsigned long) const
PUBLIC 3e5de 0 std::__1::basic_string<char, std::__1::char_traits<char>, std::__1::allocator<char> >::operator[](unsigned long)
PUBLIC 3e5f8 0 std::__1::basic_string<char, std::__1::char_traits<char>, std::__1::allocator<char> >::at(unsigned long) const
PUBLIC 3e62e 0 std::__1::basic_string<char, std::__1::char_traits<char>, std::__1::allocator<char> >::at(unsigned long)
PUBLIC 3e664 0 std::__1::basic_string<char, std::__1::char_traits<char>, std::__1::allocator<char> >::operator+=(std::__1::basic_string<char, std::__1::char_traits<char>, std::__1::allocator<char> > const&)
PUBLIC 3e690 0 std::__1::basic_string<char, std::__1::char_traits<char>, std::__1::allocator<char> >::append(std::__1::basic_string<char, std::__1::char_traits<char>, std::__1::allocator<char> > const&)
PUBLIC 3e6bc 0 std::__1::basic_string<char, std::__1::char_traits<char>, std::__1::allocator<char> >::operator+=(std::__1::basic_string_view<char, std::__1::char_traits<char> >)
PUBLIC 3e6c6 0 std::__1::basic_string<char, std::__1::char_traits<char>, std::__1::allocator<char> >::append(std::__1::basic_string_view<char, std::__1::char_traits<char> >)
PUBLIC 3e6d0 0 std::__1::basic_string<char, std::__1::char_traits<char>, std::__1::allocator<char> >::operator+=(char const*)
PUBLIC 3e700 0 std::__1::basic_string<char, std::__1::char_traits<char>, std::__1::allocator<char> >::operator+=(char)
PUBLIC 3e71a 0 std::__1::basic_string<char, std::__1::char_traits<char>, std::__1::allocator<char> >::operator+=(std::initializer_list<char>)
PUBLIC 3e724 0 std::__1::basic_string<char, std::__1::char_traits<char>, std::__1::allocator<char> >::append(std::initializer_list<char>)
PUBLIC 3e73c 0 std::__1::basic_string<char, std::__1::char_traits<char>, std::__1::allocator<char> >::append(std::__1::basic_string<char, std::__1::char_traits<char>, std::__1::allocator<char> > const&, unsigned long, unsigned long)
PUBLIC 3e784 0 std::__1::basic_string<char, std::__1::char_traits<char>, std::__1::allocator<char> >::__set_size(unsigned long)
PUBLIC 3e7aa 0 std::__1::basic_string<char, std::__1::char_traits<char>, std::__1::allocator<char> >::pop_back()
PUBLIC 3e7e0 0 std::__1::basic_string<char, std::__1::char_traits<char>, std::__1::allocator<char> >::front()
PUBLIC 3e7f8 0 std::__1::basic_string<char, std::__1::char_traits<char>, std::__1::allocator<char> >::front() const
PUBLIC 3e810 0 std::__1::basic_string<char, std::__1::char_traits<char>, std::__1::allocator<char> >::back()
PUBLIC 3e834 0 std::__1::basic_string<char, std::__1::char_traits<char>, std::__1::allocator<char> >::back() const
PUBLIC 3e858 0 std::__1::basic_string<char, std::__1::char_traits<char>, std::__1::allocator<char> >::assign(std::__1::basic_string_view<char, std::__1::char_traits<char> >)
PUBLIC 3e862 0 std::__1::basic_string<char, std::__1::char_traits<char>, std::__1::allocator<char> >::assign(std::__1::basic_string<char, std::__1::char_traits<char>, std::__1::allocator<char> > const&)
PUBLIC 3e86c 0 std::__1::basic_string<char, std::__1::char_traits<char>, std::__1::allocator<char> >::assign(std::__1::basic_string<char, std::__1::char_traits<char>, std::__1::allocator<char> >&&)
PUBLIC 3e8d2 0 std::__1::basic_string<char, std::__1::char_traits<char>, std::__1::allocator<char> >::assign(std::__1::basic_string<char, std::__1::char_traits<char>, std::__1::allocator<char> > const&, unsigned long, unsigned long)
PUBLIC 3e91a 0 std::__1::basic_string<char, std::__1::char_traits<char>, std::__1::allocator<char> >::assign(unsigned long, char)
PUBLIC 3e9ca 0 std::__1::basic_string<char, std::__1::char_traits<char>, std::__1::allocator<char> >::assign(std::initializer_list<char>)
PUBLIC 3e9d4 0 std::__1::basic_string<char, std::__1::char_traits<char>, std::__1::allocator<char> >::insert(unsigned long, std::__1::basic_string<char, std::__1::char_traits<char>, std::__1::allocator<char> > const&)
PUBLIC 3ea08 0 std::__1::basic_string<char, std::__1::char_traits<char>, std::__1::allocator<char> >::insert(unsigned long, std::__1::basic_string_view<char, std::__1::char_traits<char> >)
PUBLIC 3ea12 0 std::__1::basic_string<char, std::__1::char_traits<char>, std::__1::allocator<char> >::insert(unsigned long, std::__1::basic_string<char, std::__1::char_traits<char>, std::__1::allocator<char> > const&, unsigned long, unsigned long)
PUBLIC 3ea60 0 std::__1::basic_string<char, std::__1::char_traits<char>, std::__1::allocator<char> >::insert(unsigned long, unsigned long, char)
PUBLIC 3eb5e 0 std::__1::basic_string<char, std::__1::char_traits<char>, std::__1::allocator<char> >::insert(std::__1::__wrap_iter<char const*>, char)
PUBLIC 3ec3a 0 std::__1::basic_string<char, std::__1::char_traits<char>, std::__1::allocator<char> >::insert(std::__1::__wrap_iter<char const*>, unsigned long, char)
PUBLIC 3ec80 0 std::__1::basic_string<char, std::__1::char_traits<char>, std::__1::allocator<char> >::insert(std::__1::__wrap_iter<char const*>, std::initializer_list<char>)
PUBLIC 3ec8e 0 std::__1::enable_if<(__is_forward_iterator<char const*>::value) && (__libcpp_string_gets_noexcept_iterator<char const*>::value), std::__1::__wrap_iter<char*> >::type std::__1::basic_string<char, std::__1::char_traits<char>, std::__1::allocator<char> >::insert<char const*>(std::__1::__wrap_iter<char const*>, char const*, char const*)
PUBLIC 3eebe 0 std::__1::basic_string<char, std::__1::char_traits<char>, std::__1::allocator<char> >::erase(std::__1::__wrap_iter<char const*>)
PUBLIC 3eef0 0 std::__1::basic_string<char, std::__1::char_traits<char>, std::__1::allocator<char> >::erase(std::__1::__wrap_iter<char const*>, std::__1::__wrap_iter<char const*>)
PUBLIC 3ef20 0 std::__1::basic_string<char, std::__1::char_traits<char>, std::__1::allocator<char> >::replace(unsigned long, unsigned long, std::__1::basic_string<char, std::__1::char_traits<char>, std::__1::allocator<char> > const&)
PUBLIC 3ef50 0 std::__1::basic_string<char, std::__1::char_traits<char>, std::__1::allocator<char> >::replace(unsigned long, unsigned long, std::__1::basic_string_view<char, std::__1::char_traits<char> >)
PUBLIC 3ef5a 0 std::__1::basic_string<char, std::__1::char_traits<char>, std::__1::allocator<char> >::replace(unsigned long, unsigned long, std::__1::basic_string<char, std::__1::char_traits<char>, std::__1::allocator<char> > const&, unsigned long, unsigned long)
PUBLIC 3efae 0 std::__1::basic_string<char, std::__1::char_traits<char>, std::__1::allocator<char> >::replace(unsigned long, unsigned long, unsigned long, char)
PUBLIC 3f0dc 0 std::__1::basic_string<char, std::__1::char_traits<char>, std::__1::allocator<char> >::replace(std::__1::__wrap_iter<char const*>, std::__1::__wrap_iter<char const*>, std::__1::basic_string<char, std::__1::char_traits<char>, std::__1::allocator<char> > const&)
PUBLIC 3f11e 0 std::__1::basic_string<char, std::__1::char_traits<char>, std::__1::allocator<char> >::replace(std::__1::__wrap_iter<char const*>, std::__1::__wrap_iter<char const*>, std::__1::basic_string_view<char, std::__1::char_traits<char> >)
PUBLIC 3f13e 0 std::__1::basic_string<char, std::__1::char_traits<char>, std::__1::allocator<char> >::replace(std::__1::__wrap_iter<char const*>, std::__1::__wrap_iter<char const*>, char const*, unsigned long)
PUBLIC 3f15e 0 std::__1::basic_string<char, std::__1::char_traits<char>, std::__1::allocator<char> >::replace(std::__1::__wrap_iter<char const*>, std::__1::__wrap_iter<char const*>, char const*)
PUBLIC 3f1b2 0 std::__1::basic_string<char, std::__1::char_traits<char>, std::__1::allocator<char> >::replace(std::__1::__wrap_iter<char const*>, std::__1::__wrap_iter<char const*>, unsigned long, char)
PUBLIC 3f1d6 0 std::__1::basic_string<char, std::__1::char_traits<char>, std::__1::allocator<char> >::replace(std::__1::__wrap_iter<char const*>, std::__1::__wrap_iter<char const*>, std::initializer_list<char>)
PUBLIC 3f1e4 0 std::__1::enable_if<__is_input_iterator<char const*>::value, std::__1::basic_string<char, std::__1::char_traits<char>, std::__1::allocator<char> >&>::type std::__1::basic_string<char, std::__1::char_traits<char>, std::__1::allocator<char> >::replace<char const*>(std::__1::__wrap_iter<char const*>, std::__1::__wrap_iter<char const*>, char const*, char const*)
PUBLIC 3f306 0 std::__1::basic_string<char, std::__1::char_traits<char>, std::__1::allocator<char> >::substr(unsigned long, unsigned long) const
PUBLIC 3f322 0 std::__1::basic_string<char, std::__1::char_traits<char>, std::__1::allocator<char> >::swap(std::__1::basic_string<char, std::__1::char_traits<char>, std::__1::allocator<char> >&)
PUBLIC 3f36c 0 std::__1::basic_string<char, std::__1::char_traits<char>, std::__1::allocator<char> >::c_str() const
PUBLIC 3f384 0 std::__1::basic_string<char, std::__1::char_traits<char>, std::__1::allocator<char> >::get_allocator() const
PUBLIC 3f38a 0 std::__1::basic_string<char, std::__1::char_traits<char>, std::__1::allocator<char> >::find(std::__1::basic_string<char, std::__1::char_traits<char>, std::__1::allocator<char> > const&, unsigned long) const
PUBLIC 3f46c 0 std::__1::basic_string<char, std::__1::char_traits<char>, std::__1::allocator<char> >::find(std::__1::basic_string_view<char, std::__1::char_traits<char> >, unsigned long) const
PUBLIC 3f540 0 std::__1::basic_string<char, std::__1::char_traits<char>, std::__1::allocator<char> >::find(char const*, unsigned long) const
PUBLIC 3f610 0 std::__1::basic_string<char, std::__1::char_traits<char>, std::__1::allocator<char> >::rfind(std::__1::basic_string<char, std::__1::char_traits<char>, std::__1::allocator<char> > const&, unsigned long) const
PUBLIC 3f74a 0 std::__1::basic_string<char, std::__1::char_traits<char>, std::__1::allocator<char> >::rfind(std::__1::basic_string_view<char, std::__1::char_traits<char> >, unsigned long) const
PUBLIC 3f86a 0 std::__1::basic_string<char, std::__1::char_traits<char>, std::__1::allocator<char> >::rfind(char const*, unsigned long) const
PUBLIC 3f9ae 0 std::__1::basic_string<char, std::__1::char_traits<char>, std::__1::allocator<char> >::find_first_of(std::__1::basic_string<char, std::__1::char_traits<char>, std::__1::allocator<char> > const&, unsigned long) const
PUBLIC 3fa34 0 std::__1::basic_string<char, std::__1::char_traits<char>, std::__1::allocator<char> >::find_first_of(std::__1::basic_string_view<char, std::__1::char_traits<char> >, unsigned long) const
PUBLIC 3faa0 0 std::__1::basic_string<char, std::__1::char_traits<char>, std::__1::allocator<char> >::find_first_of(char const*, unsigned long, unsigned long) const
PUBLIC 3fb0c 0 std::__1::basic_string<char, std::__1::char_traits<char>, std::__1::allocator<char> >::find_first_of(char const*, unsigned long) const
PUBLIC 3fb98 0 std::__1::basic_string<char, std::__1::char_traits<char>, std::__1::allocator<char> >::find_first_of(char, unsigned long) const
PUBLIC 3fba2 0 std::__1::basic_string<char, std::__1::char_traits<char>, std::__1::allocator<char> >::find_last_of(std::__1::basic_string<char, std::__1::char_traits<char>, std::__1::allocator<char> > const&, unsigned long) const
PUBLIC 3fc4a 0 std::__1::basic_string<char, std::__1::char_traits<char>, std::__1::allocator<char> >::find_last_of(std::__1::basic_string_view<char, std::__1::char_traits<char> >, unsigned long) const
PUBLIC 3fcd6 0 std::__1::basic_string<char, std::__1::char_traits<char>, std::__1::allocator<char> >::find_last_of(char const*, unsigned long, unsigned long) const
PUBLIC 3fd62 0 std::__1::basic_string<char, std::__1::char_traits<char>, std::__1::allocator<char> >::find_last_of(char const*, unsigned long) const
PUBLIC 3fdf8 0 std::__1::basic_string<char, std::__1::char_traits<char>, std::__1::allocator<char> >::find_last_of(char, unsigned long) const
PUBLIC 3fe02 0 std::__1::basic_string<char, std::__1::char_traits<char>, std::__1::allocator<char> >::find_first_not_of(std::__1::basic_string<char, std::__1::char_traits<char>, std::__1::allocator<char> > const&, unsigned long) const
PUBLIC 3feaa 0 std::__1::basic_string<char, std::__1::char_traits<char>, std::__1::allocator<char> >::find_first_not_of(std::__1::basic_string_view<char, std::__1::char_traits<char> >, unsigned long) const
PUBLIC 3ff36 0 std::__1::basic_string<char, std::__1::char_traits<char>, std::__1::allocator<char> >::find_first_not_of(char const*, unsigned long, unsigned long) const
PUBLIC 3ffc2 0 std::__1::basic_string<char, std::__1::char_traits<char>, std::__1::allocator<char> >::find_first_not_of(char const*, unsigned long) const
PUBLIC 40050 0 std::__1::basic_string<char, std::__1::char_traits<char>, std::__1::allocator<char> >::find_first_not_of(char, unsigned long) const
PUBLIC 40092 0 std::__1::basic_string<char, std::__1::char_traits<char>, std::__1::allocator<char> >::find_last_not_of(std::__1::basic_string<char, std::__1::char_traits<char>, std::__1::allocator<char> > const&, unsigned long) const
PUBLIC 40138 0 std::__1::basic_string<char, std::__1::char_traits<char>, std::__1::allocator<char> >::find_last_not_of(std::__1::basic_string_view<char, std::__1::char_traits<char> >, unsigned long) const
PUBLIC 401c4 0 std::__1::basic_string<char, std::__1::char_traits<char>, std::__1::allocator<char> >::find_last_not_of(char const*, unsigned long, unsigned long) const
PUBLIC 40250 0 std::__1::basic_string<char, std::__1::char_traits<char>, std::__1::allocator<char> >::find_last_not_of(char const*, unsigned long) const
PUBLIC 402e8 0 std::__1::basic_string<char, std::__1::char_traits<char>, std::__1::allocator<char> >::find_last_not_of(char, unsigned long) const
PUBLIC 40338 0 std::__1::basic_string<char, std::__1::char_traits<char>, std::__1::allocator<char> >::compare(std::__1::basic_string<char, std::__1::char_traits<char>, std::__1::allocator<char> > const&) const
PUBLIC 403a0 0 std::__1::basic_string<char, std::__1::char_traits<char>, std::__1::allocator<char> >::compare(std::__1::basic_string_view<char, std::__1::char_traits<char> >) const
PUBLIC 403f0 0 std::__1::basic_string<char, std::__1::char_traits<char>, std::__1::allocator<char> >::compare(unsigned long, unsigned long, std::__1::basic_string_view<char, std::__1::char_traits<char> >) const
PUBLIC 40402 0 std::__1::basic_string<char, std::__1::char_traits<char>, std::__1::allocator<char> >::compare(unsigned long, unsigned long, std::__1::basic_string<char, std::__1::char_traits<char>, std::__1::allocator<char> > const&) const
PUBLIC 4043a 0 std::__1::basic_string<char, std::__1::char_traits<char>, std::__1::allocator<char> >::__invariants() const
PUBLIC 404a0 0 std::__1::basic_string<char, std::__1::char_traits<char>, std::__1::allocator<char> >::__get_short_pointer() const
PUBLIC 404aa 0 std::__1::basic_string<char, std::__1::char_traits<char>, std::__1::allocator<char> >::__copy_assign_alloc(std::__1::basic_string<char, std::__1::char_traits<char>, std::__1::allocator<char> > const&, std::__1::integral_constant<bool, false>)
PUBLIC 404b0 0 std::__1::basic_string<char, std::__1::char_traits<char>, std::__1::allocator<char> >::__copy_assign_alloc(std::__1::basic_string<char, std::__1::char_traits<char>, std::__1::allocator<char> > const&, std::__1::integral_constant<bool, true>)
PUBLIC 404b6 0 std::__1::basic_string<char, std::__1::char_traits<char>, std::__1::allocator<char> >::__move_assign(std::__1::basic_string<char, std::__1::char_traits<char>, std::__1::allocator<char> >&, std::__1::integral_constant<bool, false>)
PUBLIC 40518 0 std::__1::basic_string<char, std::__1::char_traits<char>, std::__1::allocator<char> >::__move_assign_alloc(std::__1::basic_string<char, std::__1::char_traits<char>, std::__1::allocator<char> >&)
PUBLIC 4051e 0 std::__1::basic_string<char, std::__1::char_traits<char>, std::__1::allocator<char> >::__move_assign_alloc(std::__1::basic_string<char, std::__1::char_traits<char>, std::__1::allocator<char> >&, std::__1::integral_constant<bool, true>)
PUBLIC 40524 0 std::__1::basic_string<char, std::__1::char_traits<char>, std::__1::allocator<char> >::__move_assign_alloc(std::__1::basic_string<char, std::__1::char_traits<char>, std::__1::allocator<char> >&, std::__1::integral_constant<bool, false>)
PUBLIC 4052a 0 std::__1::basic_string<wchar_t, std::__1::char_traits<wchar_t>, std::__1::allocator<wchar_t> >::basic_string()
PUBLIC 4053e 0 std::__1::basic_string<wchar_t, std::__1::char_traits<wchar_t>, std::__1::allocator<wchar_t> >::__zero()
PUBLIC 40552 0 std::__1::basic_string<wchar_t, std::__1::char_traits<wchar_t>, std::__1::allocator<wchar_t> >::basic_string()
PUBLIC 40566 0 std::__1::basic_string<wchar_t, std::__1::char_traits<wchar_t>, std::__1::allocator<wchar_t> >::basic_string(std::__1::allocator<wchar_t> const&)
PUBLIC 4057a 0 std::__1::basic_string<wchar_t, std::__1::char_traits<wchar_t>, std::__1::allocator<wchar_t> >::basic_string(std::__1::allocator<wchar_t> const&)
PUBLIC 4058e 0 std::__1::basic_string<wchar_t, std::__1::char_traits<wchar_t>, std::__1::allocator<wchar_t> >::basic_string(std::__1::basic_string<wchar_t, std::__1::char_traits<wchar_t>, std::__1::allocator<wchar_t> > const&)
PUBLIC 405ca 0 std::__1::basic_string<wchar_t, std::__1::char_traits<wchar_t>, std::__1::allocator<wchar_t> >::__alloc() const
PUBLIC 405d4 0 std::__1::basic_string<wchar_t, std::__1::char_traits<wchar_t>, std::__1::allocator<wchar_t> >::__is_long() const
PUBLIC 405de 0 std::__1::basic_string<wchar_t, std::__1::char_traits<wchar_t>, std::__1::allocator<wchar_t> >::__init(wchar_t const*, unsigned long)
PUBLIC 406d0 0 std::__1::basic_string<wchar_t, std::__1::char_traits<wchar_t>, std::__1::allocator<wchar_t> >::__get_long_pointer() const
PUBLIC 406da 0 std::__1::basic_string<wchar_t, std::__1::char_traits<wchar_t>, std::__1::allocator<wchar_t> >::__get_long_size() const
PUBLIC 406e4 0 std::__1::basic_string<wchar_t, std::__1::char_traits<wchar_t>, std::__1::allocator<wchar_t> >::basic_string(std::__1::basic_string<wchar_t, std::__1::char_traits<wchar_t>, std::__1::allocator<wchar_t> > const&)
PUBLIC 40720 0 std::__1::basic_string<wchar_t, std::__1::char_traits<wchar_t>, std::__1::allocator<wchar_t> >::basic_string(std::__1::basic_string<wchar_t, std::__1::char_traits<wchar_t>, std::__1::allocator<wchar_t> > const&, std::__1::allocator<wchar_t> const&)
PUBLIC 4075c 0 std::__1::basic_string<wchar_t, std::__1::char_traits<wchar_t>, std::__1::allocator<wchar_t> >::basic_string(std::__1::basic_string<wchar_t, std::__1::char_traits<wchar_t>, std::__1::allocator<wchar_t> > const&, std::__1::allocator<wchar_t> const&)
PUBLIC 40798 0 std::__1::basic_string<wchar_t, std::__1::char_traits<wchar_t>, std::__1::allocator<wchar_t> >::basic_string(std::__1::basic_string<wchar_t, std::__1::char_traits<wchar_t>, std::__1::allocator<wchar_t> >&&)
PUBLIC 407c2 0 std::__1::basic_string<wchar_t, std::__1::char_traits<wchar_t>, std::__1::allocator<wchar_t> >::basic_string(std::__1::basic_string<wchar_t, std::__1::char_traits<wchar_t>, std::__1::allocator<wchar_t> >&&)
PUBLIC 407ec 0 std::__1::basic_string<wchar_t, std::__1::char_traits<wchar_t>, std::__1::allocator<wchar_t> >::basic_string(std::__1::basic_string<wchar_t, std::__1::char_traits<wchar_t>, std::__1::allocator<wchar_t> >&&, std::__1::allocator<wchar_t> const&)
PUBLIC 40816 0 std::__1::basic_string<wchar_t, std::__1::char_traits<wchar_t>, std::__1::allocator<wchar_t> >::__alloc()
PUBLIC 40820 0 std::__1::basic_string<wchar_t, std::__1::char_traits<wchar_t>, std::__1::allocator<wchar_t> >::__get_long_pointer()
PUBLIC 4082a 0 std::__1::basic_string<wchar_t, std::__1::char_traits<wchar_t>, std::__1::allocator<wchar_t> >::basic_string(std::__1::basic_string<wchar_t, std::__1::char_traits<wchar_t>, std::__1::allocator<wchar_t> >&&, std::__1::allocator<wchar_t> const&)
PUBLIC 40854 0 std::__1::basic_string<wchar_t, std::__1::char_traits<wchar_t>, std::__1::allocator<wchar_t> >::basic_string(wchar_t const*)
PUBLIC 40888 0 std::__1::basic_string<wchar_t, std::__1::char_traits<wchar_t>, std::__1::allocator<wchar_t> >::basic_string(wchar_t const*)
PUBLIC 408bc 0 std::__1::basic_string<wchar_t, std::__1::char_traits<wchar_t>, std::__1::allocator<wchar_t> >::basic_string(wchar_t const*, std::__1::allocator<wchar_t> const&)
PUBLIC 408f0 0 std::__1::basic_string<wchar_t, std::__1::char_traits<wchar_t>, std::__1::allocator<wchar_t> >::basic_string(wchar_t const*, std::__1::allocator<wchar_t> const&)
PUBLIC 40924 0 std::__1::basic_string<wchar_t, std::__1::char_traits<wchar_t>, std::__1::allocator<wchar_t> >::basic_string(wchar_t const*, unsigned long)
PUBLIC 4093c 0 std::__1::basic_string<wchar_t, std::__1::char_traits<wchar_t>, std::__1::allocator<wchar_t> >::basic_string(wchar_t const*, unsigned long)
PUBLIC 40954 0 std::__1::basic_string<wchar_t, std::__1::char_traits<wchar_t>, std::__1::allocator<wchar_t> >::basic_string(wchar_t const*, unsigned long, std::__1::allocator<wchar_t> const&)
PUBLIC 4096c 0 std::__1::basic_string<wchar_t, std::__1::char_traits<wchar_t>, std::__1::allocator<wchar_t> >::basic_string(wchar_t const*, unsigned long, std::__1::allocator<wchar_t> const&)
PUBLIC 40984 0 std::__1::basic_string<wchar_t, std::__1::char_traits<wchar_t>, std::__1::allocator<wchar_t> >::basic_string(unsigned long, wchar_t)
PUBLIC 4099c 0 std::__1::basic_string<wchar_t, std::__1::char_traits<wchar_t>, std::__1::allocator<wchar_t> >::__init(unsigned long, wchar_t)
PUBLIC 40a8e 0 std::__1::basic_string<wchar_t, std::__1::char_traits<wchar_t>, std::__1::allocator<wchar_t> >::basic_string(unsigned long, wchar_t)
PUBLIC 40aa6 0 std::__1::basic_string<wchar_t, std::__1::char_traits<wchar_t>, std::__1::allocator<wchar_t> >::basic_string(unsigned long, wchar_t, std::__1::allocator<wchar_t> const&)
PUBLIC 40abe 0 std::__1::basic_string<wchar_t, std::__1::char_traits<wchar_t>, std::__1::allocator<wchar_t> >::basic_string(unsigned long, wchar_t, std::__1::allocator<wchar_t> const&)
PUBLIC 40ad6 0 std::__1::basic_string<wchar_t, std::__1::char_traits<wchar_t>, std::__1::allocator<wchar_t> >::basic_string(std::__1::basic_string<wchar_t, std::__1::char_traits<wchar_t>, std::__1::allocator<wchar_t> > const&, unsigned long, unsigned long, std::__1::allocator<wchar_t> const&)
PUBLIC 40b2c 0 std::__1::basic_string<wchar_t, std::__1::char_traits<wchar_t>, std::__1::allocator<wchar_t> >::size() const
PUBLIC 40b44 0 std::__1::basic_string<wchar_t, std::__1::char_traits<wchar_t>, std::__1::allocator<wchar_t> >::data() const
PUBLIC 40b5c 0 std::__1::basic_string<wchar_t, std::__1::char_traits<wchar_t>, std::__1::allocator<wchar_t> >::basic_string(std::__1::basic_string<wchar_t, std::__1::char_traits<wchar_t>, std::__1::allocator<wchar_t> > const&, unsigned long, unsigned long, std::__1::allocator<wchar_t> const&)
PUBLIC 40b66 0 std::__1::basic_string<wchar_t, std::__1::char_traits<wchar_t>, std::__1::allocator<wchar_t> >::basic_string(std::__1::basic_string<wchar_t, std::__1::char_traits<wchar_t>, std::__1::allocator<wchar_t> > const&, unsigned long, std::__1::allocator<wchar_t> const&)
PUBLIC 40bb2 0 std::__1::basic_string<wchar_t, std::__1::char_traits<wchar_t>, std::__1::allocator<wchar_t> >::basic_string(std::__1::basic_string<wchar_t, std::__1::char_traits<wchar_t>, std::__1::allocator<wchar_t> > const&, unsigned long, std::__1::allocator<wchar_t> const&)
PUBLIC 40bfe 0 std::__1::basic_string<wchar_t, std::__1::char_traits<wchar_t>, std::__1::allocator<wchar_t> >::basic_string(std::__1::basic_string_view<wchar_t, std::__1::char_traits<wchar_t> >)
PUBLIC 40c16 0 std::__1::basic_string<wchar_t, std::__1::char_traits<wchar_t>, std::__1::allocator<wchar_t> >::basic_string(std::__1::basic_string_view<wchar_t, std::__1::char_traits<wchar_t> >)
PUBLIC 40c2e 0 std::__1::basic_string<wchar_t, std::__1::char_traits<wchar_t>, std::__1::allocator<wchar_t> >::basic_string(std::__1::basic_string_view<wchar_t, std::__1::char_traits<wchar_t> >, std::__1::allocator<wchar_t> const&)
PUBLIC 40c46 0 std::__1::basic_string<wchar_t, std::__1::char_traits<wchar_t>, std::__1::allocator<wchar_t> >::basic_string(std::__1::basic_string_view<wchar_t, std::__1::char_traits<wchar_t> >, std::__1::allocator<wchar_t> const&)
PUBLIC 40c5e 0 std::__1::basic_string<wchar_t, std::__1::char_traits<wchar_t>, std::__1::allocator<wchar_t> >::basic_string(std::initializer_list<wchar_t>)
PUBLIC 40c7e 0 std::__1::basic_string<wchar_t, std::__1::char_traits<wchar_t>, std::__1::allocator<wchar_t> >::basic_string(std::initializer_list<wchar_t>)
PUBLIC 40c9a 0 std::__1::basic_string<wchar_t, std::__1::char_traits<wchar_t>, std::__1::allocator<wchar_t> >::basic_string(std::initializer_list<wchar_t>, std::__1::allocator<wchar_t> const&)
PUBLIC 40cb6 0 std::__1::basic_string<wchar_t, std::__1::char_traits<wchar_t>, std::__1::allocator<wchar_t> >::basic_string(std::initializer_list<wchar_t>, std::__1::allocator<wchar_t> const&)
PUBLIC 40cd2 0 std::__1::basic_string<wchar_t, std::__1::char_traits<wchar_t>, std::__1::allocator<wchar_t> >::~basic_string()
PUBLIC 40ce8 0 std::__1::basic_string<wchar_t, std::__1::char_traits<wchar_t>, std::__1::allocator<wchar_t> >::__get_long_cap() const
PUBLIC 40cf6 0 std::__1::basic_string<wchar_t, std::__1::char_traits<wchar_t>, std::__1::allocator<wchar_t> >::~basic_string()
PUBLIC 40d0c 0 std::__1::basic_string<wchar_t, std::__1::char_traits<wchar_t>, std::__1::allocator<wchar_t> >::operator std::__1::basic_string_view<wchar_t, std::__1::char_traits<wchar_t> >() const
PUBLIC 40d2e 0 std::__1::basic_string<wchar_t, std::__1::char_traits<wchar_t>, std::__1::allocator<wchar_t> >::operator=(std::__1::basic_string<wchar_t, std::__1::char_traits<wchar_t>, std::__1::allocator<wchar_t> > const&)
PUBLIC 40d6e 0 std::__1::basic_string<wchar_t, std::__1::char_traits<wchar_t>, std::__1::allocator<wchar_t> >::__copy_assign_alloc(std::__1::basic_string<wchar_t, std::__1::char_traits<wchar_t>, std::__1::allocator<wchar_t> > const&)
PUBLIC 40d74 0 std::__1::basic_string<wchar_t, std::__1::char_traits<wchar_t>, std::__1::allocator<wchar_t> >::assign(wchar_t const*, unsigned long)
PUBLIC 40e26 0 std::__1::basic_string<wchar_t, std::__1::char_traits<wchar_t>, std::__1::allocator<wchar_t> >::operator=(std::__1::basic_string<wchar_t, std::__1::char_traits<wchar_t>, std::__1::allocator<wchar_t> >&&)
PUBLIC 40e94 0 std::__1::basic_string<wchar_t, std::__1::char_traits<wchar_t>, std::__1::allocator<wchar_t> >::__move_assign(std::__1::basic_string<wchar_t, std::__1::char_traits<wchar_t>, std::__1::allocator<wchar_t> >&, std::__1::integral_constant<bool, true>)
PUBLIC 40efe 0 std::__1::basic_string<wchar_t, std::__1::char_traits<wchar_t>, std::__1::allocator<wchar_t> >::operator=(wchar_t const*)
PUBLIC 40f26 0 std::__1::basic_string<wchar_t, std::__1::char_traits<wchar_t>, std::__1::allocator<wchar_t> >::assign(wchar_t const*)
PUBLIC 40f4e 0 std::__1::basic_string<wchar_t, std::__1::char_traits<wchar_t>, std::__1::allocator<wchar_t> >::operator=(wchar_t)
PUBLIC 40f7a 0 std::__1::basic_string<wchar_t, std::__1::char_traits<wchar_t>, std::__1::allocator<wchar_t> >::__set_long_size(unsigned long)
PUBLIC 40f84 0 std::__1::basic_string<wchar_t, std::__1::char_traits<wchar_t>, std::__1::allocator<wchar_t> >::__get_short_pointer()
PUBLIC 40f8e 0 std::__1::basic_string<wchar_t, std::__1::char_traits<wchar_t>, std::__1::allocator<wchar_t> >::__set_short_size(unsigned long)
PUBLIC 40f9a 0 std::__1::basic_string<wchar_t, std::__1::char_traits<wchar_t>, std::__1::allocator<wchar_t> >::__invalidate_iterators_past(unsigned long)
PUBLIC 40fa0 0 std::__1::basic_string<wchar_t, std::__1::char_traits<wchar_t>, std::__1::allocator<wchar_t> >::operator=(std::initializer_list<wchar_t>)
PUBLIC 40faa 0 std::__1::basic_string<wchar_t, std::__1::char_traits<wchar_t>, std::__1::allocator<wchar_t> >::begin()
PUBLIC 40fc2 0 std::__1::basic_string<wchar_t, std::__1::char_traits<wchar_t>, std::__1::allocator<wchar_t> >::__get_pointer()
PUBLIC 40fda 0 std::__1::basic_string<wchar_t, std::__1::char_traits<wchar_t>, std::__1::allocator<wchar_t> >::begin() const
PUBLIC 40ff2 0 std::__1::basic_string<wchar_t, std::__1::char_traits<wchar_t>, std::__1::allocator<wchar_t> >::__get_pointer() const
PUBLIC 4100a 0 std::__1::basic_string<wchar_t, std::__1::char_traits<wchar_t>, std::__1::allocator<wchar_t> >::end()
PUBLIC 4102e 0 std::__1::basic_string<wchar_t, std::__1::char_traits<wchar_t>, std::__1::allocator<wchar_t> >::end() const
PUBLIC 41052 0 std::__1::basic_string<wchar_t, std::__1::char_traits<wchar_t>, std::__1::allocator<wchar_t> >::rbegin()
PUBLIC 41078 0 std::__1::basic_string<wchar_t, std::__1::char_traits<wchar_t>, std::__1::allocator<wchar_t> >::rbegin() const
PUBLIC 4109e 0 std::__1::basic_string<wchar_t, std::__1::char_traits<wchar_t>, std::__1::allocator<wchar_t> >::rend()
PUBLIC 410ba 0 std::__1::basic_string<wchar_t, std::__1::char_traits<wchar_t>, std::__1::allocator<wchar_t> >::rend() const
PUBLIC 410d6 0 std::__1::basic_string<wchar_t, std::__1::char_traits<wchar_t>, std::__1::allocator<wchar_t> >::cbegin() const
PUBLIC 410ee 0 std::__1::basic_string<wchar_t, std::__1::char_traits<wchar_t>, std::__1::allocator<wchar_t> >::cend() const
PUBLIC 41112 0 std::__1::basic_string<wchar_t, std::__1::char_traits<wchar_t>, std::__1::allocator<wchar_t> >::crbegin() const
PUBLIC 41138 0 std::__1::basic_string<wchar_t, std::__1::char_traits<wchar_t>, std::__1::allocator<wchar_t> >::crend() const
PUBLIC 41154 0 std::__1::basic_string<wchar_t, std::__1::char_traits<wchar_t>, std::__1::allocator<wchar_t> >::__get_short_size() const
PUBLIC 41162 0 std::__1::basic_string<wchar_t, std::__1::char_traits<wchar_t>, std::__1::allocator<wchar_t> >::length() const
PUBLIC 4117a 0 std::__1::basic_string<wchar_t, std::__1::char_traits<wchar_t>, std::__1::allocator<wchar_t> >::max_size() const
PUBLIC 4118a 0 std::__1::basic_string<wchar_t, std::__1::char_traits<wchar_t>, std::__1::allocator<wchar_t> >::capacity() const
PUBLIC 411a6 0 std::__1::basic_string<wchar_t, std::__1::char_traits<wchar_t>, std::__1::allocator<wchar_t> >::resize(unsigned long, wchar_t)
PUBLIC 411f0 0 std::__1::basic_string<wchar_t, std::__1::char_traits<wchar_t>, std::__1::allocator<wchar_t> >::append(unsigned long, wchar_t)
PUBLIC 412bc 0 std::__1::basic_string<wchar_t, std::__1::char_traits<wchar_t>, std::__1::allocator<wchar_t> >::__erase_to_end(unsigned long)
PUBLIC 412e6 0 std::__1::basic_string<wchar_t, std::__1::char_traits<wchar_t>, std::__1::allocator<wchar_t> >::resize(unsigned long)
PUBLIC 412f2 0 std::__1::basic_string<wchar_t, std::__1::char_traits<wchar_t>, std::__1::allocator<wchar_t> >::reserve(unsigned long)
PUBLIC 41526 0 std::__1::basic_string<wchar_t, std::__1::char_traits<wchar_t>, std::__1::allocator<wchar_t> >::__recommend(unsigned long)
PUBLIC 41548 0 std::__1::basic_string<wchar_t, std::__1::char_traits<wchar_t>, std::__1::allocator<wchar_t> >::__set_long_cap(unsigned long)
PUBLIC 41556 0 std::__1::basic_string<wchar_t, std::__1::char_traits<wchar_t>, std::__1::allocator<wchar_t> >::__set_long_pointer(wchar_t*)
PUBLIC 41560 0 std::__1::basic_string<wchar_t, std::__1::char_traits<wchar_t>, std::__1::allocator<wchar_t> >::__invalidate_all_iterators()
PUBLIC 41566 0 std::__1::basic_string<wchar_t, std::__1::char_traits<wchar_t>, std::__1::allocator<wchar_t> >::shrink_to_fit()
PUBLIC 4157c 0 std::__1::basic_string<wchar_t, std::__1::char_traits<wchar_t>, std::__1::allocator<wchar_t> >::clear()
PUBLIC 415a6 0 std::__1::basic_string<wchar_t, std::__1::char_traits<wchar_t>, std::__1::allocator<wchar_t> >::empty() const
PUBLIC 415c4 0 std::__1::basic_string<wchar_t, std::__1::char_traits<wchar_t>, std::__1::allocator<wchar_t> >::operator[](unsigned long) const
PUBLIC 415de 0 std::__1::basic_string<wchar_t, std::__1::char_traits<wchar_t>, std::__1::allocator<wchar_t> >::operator[](unsigned long)
PUBLIC 415f8 0 std::__1::basic_string<wchar_t, std::__1::char_traits<wchar_t>, std::__1::allocator<wchar_t> >::at(unsigned long) const
PUBLIC 4162c 0 std::__1::basic_string<wchar_t, std::__1::char_traits<wchar_t>, std::__1::allocator<wchar_t> >::at(unsigned long)
PUBLIC 41660 0 std::__1::basic_string<wchar_t, std::__1::char_traits<wchar_t>, std::__1::allocator<wchar_t> >::operator+=(std::__1::basic_string<wchar_t, std::__1::char_traits<wchar_t>, std::__1::allocator<wchar_t> > const&)
PUBLIC 4168c 0 std::__1::basic_string<wchar_t, std::__1::char_traits<wchar_t>, std::__1::allocator<wchar_t> >::append(std::__1::basic_string<wchar_t, std::__1::char_traits<wchar_t>, std::__1::allocator<wchar_t> > const&)
PUBLIC 416b8 0 std::__1::basic_string<wchar_t, std::__1::char_traits<wchar_t>, std::__1::allocator<wchar_t> >::operator+=(std::__1::basic_string_view<wchar_t, std::__1::char_traits<wchar_t> >)
PUBLIC 416c2 0 std::__1::basic_string<wchar_t, std::__1::char_traits<wchar_t>, std::__1::allocator<wchar_t> >::append(std::__1::basic_string_view<wchar_t, std::__1::char_traits<wchar_t> >)
PUBLIC 416cc 0 std::__1::basic_string<wchar_t, std::__1::char_traits<wchar_t>, std::__1::allocator<wchar_t> >::operator+=(wchar_t const*)
PUBLIC 416f4 0 std::__1::basic_string<wchar_t, std::__1::char_traits<wchar_t>, std::__1::allocator<wchar_t> >::append(wchar_t const*)
PUBLIC 4171c 0 std::__1::basic_string<wchar_t, std::__1::char_traits<wchar_t>, std::__1::allocator<wchar_t> >::operator+=(wchar_t)
PUBLIC 41734 0 std::__1::basic_string<wchar_t, std::__1::char_traits<wchar_t>, std::__1::allocator<wchar_t> >::push_back(wchar_t)
PUBLIC 417ca 0 std::__1::basic_string<wchar_t, std::__1::char_traits<wchar_t>, std::__1::allocator<wchar_t> >::operator+=(std::initializer_list<wchar_t>)
PUBLIC 417d4 0 std::__1::basic_string<wchar_t, std::__1::char_traits<wchar_t>, std::__1::allocator<wchar_t> >::append(std::initializer_list<wchar_t>)
PUBLIC 417de 0 std::__1::basic_string<wchar_t, std::__1::char_traits<wchar_t>, std::__1::allocator<wchar_t> >::append(wchar_t const*, unsigned long)
PUBLIC 4189e 0 std::__1::basic_string<wchar_t, std::__1::char_traits<wchar_t>, std::__1::allocator<wchar_t> >::append(std::__1::basic_string<wchar_t, std::__1::char_traits<wchar_t>, std::__1::allocator<wchar_t> > const&, unsigned long, unsigned long)
PUBLIC 418e8 0 std::__1::basic_string<wchar_t, std::__1::char_traits<wchar_t>, std::__1::allocator<wchar_t> >::__set_size(unsigned long)
PUBLIC 41900 0 std::__1::basic_string<wchar_t, std::__1::char_traits<wchar_t>, std::__1::allocator<wchar_t> >::__grow_by_and_replace(unsigned long, unsigned long, unsigned long, unsigned long, unsigned long, unsigned long, wchar_t const*)
PUBLIC 41aba 0 std::__1::basic_string<wchar_t, std::__1::char_traits<wchar_t>, std::__1::allocator<wchar_t> >::__grow_by(unsigned long, unsigned long, unsigned long, unsigned long, unsigned long, unsigned long)
PUBLIC 41c32 0 std::__1::basic_string<wchar_t, std::__1::char_traits<wchar_t>, std::__1::allocator<wchar_t> >::pop_back()
PUBLIC 41c70 0 std::__1::basic_string<wchar_t, std::__1::char_traits<wchar_t>, std::__1::allocator<wchar_t> >::front()
PUBLIC 41c88 0 std::__1::basic_string<wchar_t, std::__1::char_traits<wchar_t>, std::__1::allocator<wchar_t> >::front() const
PUBLIC 41ca0 0 std::__1::basic_string<wchar_t, std::__1::char_traits<wchar_t>, std::__1::allocator<wchar_t> >::back()
PUBLIC 41cc4 0 std::__1::basic_string<wchar_t, std::__1::char_traits<wchar_t>, std::__1::allocator<wchar_t> >::back() const
PUBLIC 41ce8 0 std::__1::basic_string<wchar_t, std::__1::char_traits<wchar_t>, std::__1::allocator<wchar_t> >::assign(std::__1::basic_string_view<wchar_t, std::__1::char_traits<wchar_t> >)
PUBLIC 41cf2 0 std::__1::basic_string<wchar_t, std::__1::char_traits<wchar_t>, std::__1::allocator<wchar_t> >::assign(std::__1::basic_string<wchar_t, std::__1::char_traits<wchar_t>, std::__1::allocator<wchar_t> > const&)
PUBLIC 41cfc 0 std::__1::basic_string<wchar_t, std::__1::char_traits<wchar_t>, std::__1::allocator<wchar_t> >::assign(std::__1::basic_string<wchar_t, std::__1::char_traits<wchar_t>, std::__1::allocator<wchar_t> >&&)
PUBLIC 41d6a 0 std::__1::basic_string<wchar_t, std::__1::char_traits<wchar_t>, std::__1::allocator<wchar_t> >::assign(std::__1::basic_string<wchar_t, std::__1::char_traits<wchar_t>, std::__1::allocator<wchar_t> > const&, unsigned long, unsigned long)
PUBLIC 41db4 0 std::__1::basic_string<wchar_t, std::__1::char_traits<wchar_t>, std::__1::allocator<wchar_t> >::assign(unsigned long, wchar_t)
PUBLIC 41e6e 0 std::__1::basic_string<wchar_t, std::__1::char_traits<wchar_t>, std::__1::allocator<wchar_t> >::assign(std::initializer_list<wchar_t>)
PUBLIC 41e78 0 std::__1::basic_string<wchar_t, std::__1::char_traits<wchar_t>, std::__1::allocator<wchar_t> >::insert(unsigned long, std::__1::basic_string<wchar_t, std::__1::char_traits<wchar_t>, std::__1::allocator<wchar_t> > const&)
PUBLIC 41ea4 0 std::__1::basic_string<wchar_t, std::__1::char_traits<wchar_t>, std::__1::allocator<wchar_t> >::insert(unsigned long, wchar_t const*, unsigned long)
PUBLIC 41fc4 0 std::__1::basic_string<wchar_t, std::__1::char_traits<wchar_t>, std::__1::allocator<wchar_t> >::insert(unsigned long, std::__1::basic_string_view<wchar_t, std::__1::char_traits<wchar_t> >)
PUBLIC 41fce 0 std::__1::basic_string<wchar_t, std::__1::char_traits<wchar_t>, std::__1::allocator<wchar_t> >::insert(unsigned long, std::__1::basic_string<wchar_t, std::__1::char_traits<wchar_t>, std::__1::allocator<wchar_t> > const&, unsigned long, unsigned long)
PUBLIC 42018 0 std::__1::basic_string<wchar_t, std::__1::char_traits<wchar_t>, std::__1::allocator<wchar_t> >::insert(unsigned long, wchar_t const*)
PUBLIC 4204e 0 std::__1::basic_string<wchar_t, std::__1::char_traits<wchar_t>, std::__1::allocator<wchar_t> >::insert(unsigned long, unsigned long, wchar_t)
PUBLIC 4215c 0 std::__1::basic_string<wchar_t, std::__1::char_traits<wchar_t>, std::__1::allocator<wchar_t> >::insert(std::__1::__wrap_iter<wchar_t const*>, wchar_t)
PUBLIC 42244 0 std::__1::basic_string<wchar_t, std::__1::char_traits<wchar_t>, std::__1::allocator<wchar_t> >::insert(std::__1::__wrap_iter<wchar_t const*>, unsigned long, wchar_t)
PUBLIC 4228a 0 std::__1::basic_string<wchar_t, std::__1::char_traits<wchar_t>, std::__1::allocator<wchar_t> >::insert(std::__1::__wrap_iter<wchar_t const*>, std::initializer_list<wchar_t>)
PUBLIC 42298 0 std::__1::enable_if<(__is_forward_iterator<wchar_t const*>::value) && (__libcpp_string_gets_noexcept_iterator<wchar_t const*>::value), std::__1::__wrap_iter<wchar_t*> >::type std::__1::basic_string<wchar_t, std::__1::char_traits<wchar_t>, std::__1::allocator<wchar_t> >::insert<wchar_t const*>(std::__1::__wrap_iter<wchar_t const*>, wchar_t const*, wchar_t const*)
PUBLIC 42496 0 std::__1::basic_string<wchar_t, std::__1::char_traits<wchar_t>, std::__1::allocator<wchar_t> >::erase(unsigned long, unsigned long)
PUBLIC 4252c 0 std::__1::basic_string<wchar_t, std::__1::char_traits<wchar_t>, std::__1::allocator<wchar_t> >::erase(std::__1::__wrap_iter<wchar_t const*>)
PUBLIC 42562 0 std::__1::basic_string<wchar_t, std::__1::char_traits<wchar_t>, std::__1::allocator<wchar_t> >::erase(std::__1::__wrap_iter<wchar_t const*>, std::__1::__wrap_iter<wchar_t const*>)
PUBLIC 4259a 0 std::__1::basic_string<wchar_t, std::__1::char_traits<wchar_t>, std::__1::allocator<wchar_t> >::replace(unsigned long, unsigned long, std::__1::basic_string<wchar_t, std::__1::char_traits<wchar_t>, std::__1::allocator<wchar_t> > const&)
PUBLIC 425c8 0 std::__1::basic_string<wchar_t, std::__1::char_traits<wchar_t>, std::__1::allocator<wchar_t> >::replace(unsigned long, unsigned long, wchar_t const*, unsigned long)
PUBLIC 427ba 0 std::__1::basic_string<wchar_t, std::__1::char_traits<wchar_t>, std::__1::allocator<wchar_t> >::replace(unsigned long, unsigned long, std::__1::basic_string_view<wchar_t, std::__1::char_traits<wchar_t> >)
PUBLIC 427c4 0 std::__1::basic_string<wchar_t, std::__1::char_traits<wchar_t>, std::__1::allocator<wchar_t> >::replace(unsigned long, unsigned long, std::__1::basic_string<wchar_t, std::__1::char_traits<wchar_t>, std::__1::allocator<wchar_t> > const&, unsigned long, unsigned long)
PUBLIC 4280e 0 std::__1::basic_string<wchar_t, std::__1::char_traits<wchar_t>, std::__1::allocator<wchar_t> >::replace(unsigned long, unsigned long, wchar_t const*)
PUBLIC 4284a 0 std::__1::basic_string<wchar_t, std::__1::char_traits<wchar_t>, std::__1::allocator<wchar_t> >::replace(unsigned long, unsigned long, unsigned long, wchar_t)
PUBLIC 4298a 0 std::__1::basic_string<wchar_t, std::__1::char_traits<wchar_t>, std::__1::allocator<wchar_t> >::replace(std::__1::__wrap_iter<wchar_t const*>, std::__1::__wrap_iter<wchar_t const*>, std::__1::basic_string<wchar_t, std::__1::char_traits<wchar_t>, std::__1::allocator<wchar_t> > const&)
PUBLIC 429d4 0 std::__1::basic_string<wchar_t, std::__1::char_traits<wchar_t>, std::__1::allocator<wchar_t> >::replace(std::__1::__wrap_iter<wchar_t const*>, std::__1::__wrap_iter<wchar_t const*>, std::__1::basic_string_view<wchar_t, std::__1::char_traits<wchar_t> >)
PUBLIC 429fc 0 std::__1::basic_string<wchar_t, std::__1::char_traits<wchar_t>, std::__1::allocator<wchar_t> >::replace(std::__1::__wrap_iter<wchar_t const*>, std::__1::__wrap_iter<wchar_t const*>, wchar_t const*, unsigned long)
PUBLIC 42a24 0 std::__1::basic_string<wchar_t, std::__1::char_traits<wchar_t>, std::__1::allocator<wchar_t> >::replace(std::__1::__wrap_iter<wchar_t const*>, std::__1::__wrap_iter<wchar_t const*>, wchar_t const*)
PUBLIC 42a80 0 std::__1::basic_string<wchar_t, std::__1::char_traits<wchar_t>, std::__1::allocator<wchar_t> >::replace(std::__1::__wrap_iter<wchar_t const*>, std::__1::__wrap_iter<wchar_t const*>, unsigned long, wchar_t)
PUBLIC 42aa8 0 std::__1::basic_string<wchar_t, std::__1::char_traits<wchar_t>, std::__1::allocator<wchar_t> >::replace(std::__1::__wrap_iter<wchar_t const*>, std::__1::__wrap_iter<wchar_t const*>, std::initializer_list<wchar_t>)
PUBLIC 42ab6 0 std::__1::enable_if<__is_input_iterator<wchar_t const*>::value, std::__1::basic_string<wchar_t, std::__1::char_traits<wchar_t>, std::__1::allocator<wchar_t> >&>::type std::__1::basic_string<wchar_t, std::__1::char_traits<wchar_t>, std::__1::allocator<wchar_t> >::replace<wchar_t const*>(std::__1::__wrap_iter<wchar_t const*>, std::__1::__wrap_iter<wchar_t const*>, wchar_t const*, wchar_t const*)
PUBLIC 42b6e 0 std::__1::basic_string<wchar_t, std::__1::char_traits<wchar_t>, std::__1::allocator<wchar_t> >::copy(wchar_t*, unsigned long, unsigned long) const
PUBLIC 42bd2 0 std::__1::basic_string<wchar_t, std::__1::char_traits<wchar_t>, std::__1::allocator<wchar_t> >::substr(unsigned long, unsigned long) const
PUBLIC 42bee 0 std::__1::basic_string<wchar_t, std::__1::char_traits<wchar_t>, std::__1::allocator<wchar_t> >::swap(std::__1::basic_string<wchar_t, std::__1::char_traits<wchar_t>, std::__1::allocator<wchar_t> >&)
PUBLIC 42c38 0 std::__1::basic_string<wchar_t, std::__1::char_traits<wchar_t>, std::__1::allocator<wchar_t> >::c_str() const
PUBLIC 42c50 0 std::__1::basic_string<wchar_t, std::__1::char_traits<wchar_t>, std::__1::allocator<wchar_t> >::get_allocator() const
PUBLIC 42c56 0 std::__1::basic_string<wchar_t, std::__1::char_traits<wchar_t>, std::__1::allocator<wchar_t> >::find(std::__1::basic_string<wchar_t, std::__1::char_traits<wchar_t>, std::__1::allocator<wchar_t> > const&, unsigned long) const
PUBLIC 42d54 0 std::__1::basic_string<wchar_t, std::__1::char_traits<wchar_t>, std::__1::allocator<wchar_t> >::find(std::__1::basic_string_view<wchar_t, std::__1::char_traits<wchar_t> >, unsigned long) const
PUBLIC 42e3a 0 std::__1::basic_string<wchar_t, std::__1::char_traits<wchar_t>, std::__1::allocator<wchar_t> >::find(wchar_t const*, unsigned long, unsigned long) const
PUBLIC 42f20 0 std::__1::basic_string<wchar_t, std::__1::char_traits<wchar_t>, std::__1::allocator<wchar_t> >::find(wchar_t const*, unsigned long) const
PUBLIC 43010 0 std::__1::basic_string<wchar_t, std::__1::char_traits<wchar_t>, std::__1::allocator<wchar_t> >::find(wchar_t, unsigned long) const
PUBLIC 4306e 0 std::__1::basic_string<wchar_t, std::__1::char_traits<wchar_t>, std::__1::allocator<wchar_t> >::rfind(std::__1::basic_string<wchar_t, std::__1::char_traits<wchar_t>, std::__1::allocator<wchar_t> > const&, unsigned long) const
PUBLIC 431dc 0 std::__1::basic_string<wchar_t, std::__1::char_traits<wchar_t>, std::__1::allocator<wchar_t> >::rfind(std::__1::basic_string_view<wchar_t, std::__1::char_traits<wchar_t> >, unsigned long) const
PUBLIC 43330 0 std::__1::basic_string<wchar_t, std::__1::char_traits<wchar_t>, std::__1::allocator<wchar_t> >::rfind(wchar_t const*, unsigned long, unsigned long) const
PUBLIC 43484 0 std::__1::basic_string<wchar_t, std::__1::char_traits<wchar_t>, std::__1::allocator<wchar_t> >::rfind(wchar_t const*, unsigned long) const
PUBLIC 435fc 0 std::__1::basic_string<wchar_t, std::__1::char_traits<wchar_t>, std::__1::allocator<wchar_t> >::rfind(wchar_t, unsigned long) const
PUBLIC 4365e 0 std::__1::basic_string<wchar_t, std::__1::char_traits<wchar_t>, std::__1::allocator<wchar_t> >::find_first_of(std::__1::basic_string<wchar_t, std::__1::char_traits<wchar_t>, std::__1::allocator<wchar_t> > const&, unsigned long) const
PUBLIC 436f2 0 std::__1::basic_string<wchar_t, std::__1::char_traits<wchar_t>, std::__1::allocator<wchar_t> >::find_first_of(std::__1::basic_string_view<wchar_t, std::__1::char_traits<wchar_t> >, unsigned long) const
PUBLIC 4376c 0 std::__1::basic_string<wchar_t, std::__1::char_traits<wchar_t>, std::__1::allocator<wchar_t> >::find_first_of(wchar_t const*, unsigned long, unsigned long) const
PUBLIC 437e6 0 std::__1::basic_string<wchar_t, std::__1::char_traits<wchar_t>, std::__1::allocator<wchar_t> >::find_first_of(wchar_t const*, unsigned long) const
PUBLIC 43880 0 std::__1::basic_string<wchar_t, std::__1::char_traits<wchar_t>, std::__1::allocator<wchar_t> >::find_first_of(wchar_t, unsigned long) const
PUBLIC 4388a 0 std::__1::basic_string<wchar_t, std::__1::char_traits<wchar_t>, std::__1::allocator<wchar_t> >::find_last_of(std::__1::basic_string<wchar_t, std::__1::char_traits<wchar_t>, std::__1::allocator<wchar_t> > const&, unsigned long) const
PUBLIC 43940 0 std::__1::basic_string<wchar_t, std::__1::char_traits<wchar_t>, std::__1::allocator<wchar_t> >::find_last_of(std::__1::basic_string_view<wchar_t, std::__1::char_traits<wchar_t> >, unsigned long) const
PUBLIC 439da 0 std::__1::basic_string<wchar_t, std::__1::char_traits<wchar_t>, std::__1::allocator<wchar_t> >::find_last_of(wchar_t const*, unsigned long, unsigned long) const
PUBLIC 43a74 0 std::__1::basic_string<wchar_t, std::__1::char_traits<wchar_t>, std::__1::allocator<wchar_t> >::find_last_of(wchar_t const*, unsigned long) const
PUBLIC 43b16 0 std::__1::basic_string<wchar_t, std::__1::char_traits<wchar_t>, std::__1::allocator<wchar_t> >::find_last_of(wchar_t, unsigned long) const
PUBLIC 43b20 0 std::__1::basic_string<wchar_t, std::__1::char_traits<wchar_t>, std::__1::allocator<wchar_t> >::find_first_not_of(std::__1::basic_string<wchar_t, std::__1::char_traits<wchar_t>, std::__1::allocator<wchar_t> > const&, unsigned long) const
PUBLIC 43bd6 0 std::__1::basic_string<wchar_t, std::__1::char_traits<wchar_t>, std::__1::allocator<wchar_t> >::find_first_not_of(std::__1::basic_string_view<wchar_t, std::__1::char_traits<wchar_t> >, unsigned long) const
PUBLIC 43c72 0 std::__1::basic_string<wchar_t, std::__1::char_traits<wchar_t>, std::__1::allocator<wchar_t> >::find_first_not_of(wchar_t const*, unsigned long, unsigned long) const
PUBLIC 43d0e 0 std::__1::basic_string<wchar_t, std::__1::char_traits<wchar_t>, std::__1::allocator<wchar_t> >::find_first_not_of(wchar_t const*, unsigned long) const
PUBLIC 43db0 0 std::__1::basic_string<wchar_t, std::__1::char_traits<wchar_t>, std::__1::allocator<wchar_t> >::find_first_not_of(wchar_t, unsigned long) const
PUBLIC 43e06 0 std::__1::basic_string<wchar_t, std::__1::char_traits<wchar_t>, std::__1::allocator<wchar_t> >::find_last_not_of(std::__1::basic_string<wchar_t, std::__1::char_traits<wchar_t>, std::__1::allocator<wchar_t> > const&, unsigned long) const
PUBLIC 43eba 0 std::__1::basic_string<wchar_t, std::__1::char_traits<wchar_t>, std::__1::allocator<wchar_t> >::find_last_not_of(std::__1::basic_string_view<wchar_t, std::__1::char_traits<wchar_t> >, unsigned long) const
PUBLIC 43f54 0 std::__1::basic_string<wchar_t, std::__1::char_traits<wchar_t>, std::__1::allocator<wchar_t> >::find_last_not_of(wchar_t const*, unsigned long, unsigned long) const
PUBLIC 43fee 0 std::__1::basic_string<wchar_t, std::__1::char_traits<wchar_t>, std::__1::allocator<wchar_t> >::find_last_not_of(wchar_t const*, unsigned long) const
PUBLIC 44092 0 std::__1::basic_string<wchar_t, std::__1::char_traits<wchar_t>, std::__1::allocator<wchar_t> >::find_last_not_of(wchar_t, unsigned long) const
PUBLIC 440ee 0 std::__1::basic_string<wchar_t, std::__1::char_traits<wchar_t>, std::__1::allocator<wchar_t> >::compare(std::__1::basic_string<wchar_t, std::__1::char_traits<wchar_t>, std::__1::allocator<wchar_t> > const&) const
PUBLIC 44158 0 std::__1::basic_string<wchar_t, std::__1::char_traits<wchar_t>, std::__1::allocator<wchar_t> >::compare(std::__1::basic_string_view<wchar_t, std::__1::char_traits<wchar_t> >) const
PUBLIC 441a8 0 std::__1::basic_string<wchar_t, std::__1::char_traits<wchar_t>, std::__1::allocator<wchar_t> >::compare(unsigned long, unsigned long, std::__1::basic_string_view<wchar_t, std::__1::char_traits<wchar_t> >) const
PUBLIC 441b2 0 std::__1::basic_string<wchar_t, std::__1::char_traits<wchar_t>, std::__1::allocator<wchar_t> >::compare(unsigned long, unsigned long, wchar_t const*, unsigned long) const
PUBLIC 4422c 0 std::__1::basic_string<wchar_t, std::__1::char_traits<wchar_t>, std::__1::allocator<wchar_t> >::compare(unsigned long, unsigned long, std::__1::basic_string<wchar_t, std::__1::char_traits<wchar_t>, std::__1::allocator<wchar_t> > const&) const
PUBLIC 4425a 0 std::__1::basic_string<wchar_t, std::__1::char_traits<wchar_t>, std::__1::allocator<wchar_t> >::compare(unsigned long, unsigned long, std::__1::basic_string<wchar_t, std::__1::char_traits<wchar_t>, std::__1::allocator<wchar_t> > const&, unsigned long, unsigned long) const
PUBLIC 4434e 0 std::__1::basic_string<wchar_t, std::__1::char_traits<wchar_t>, std::__1::allocator<wchar_t> >::compare(wchar_t const*) const
PUBLIC 44388 0 std::__1::basic_string<wchar_t, std::__1::char_traits<wchar_t>, std::__1::allocator<wchar_t> >::compare(unsigned long, unsigned long, wchar_t const*) const
PUBLIC 443c4 0 std::__1::basic_string<wchar_t, std::__1::char_traits<wchar_t>, std::__1::allocator<wchar_t> >::__invariants() const
PUBLIC 4442c 0 std::__1::basic_string<wchar_t, std::__1::char_traits<wchar_t>, std::__1::allocator<wchar_t> >::__get_short_pointer() const
PUBLIC 44436 0 std::__1::basic_string<wchar_t, std::__1::char_traits<wchar_t>, std::__1::allocator<wchar_t> >::__init(wchar_t const*, unsigned long, unsigned long)
PUBLIC 4452e 0 std::__1::basic_string<wchar_t, std::__1::char_traits<wchar_t>, std::__1::allocator<wchar_t> >::__copy_assign_alloc(std::__1::basic_string<wchar_t, std::__1::char_traits<wchar_t>, std::__1::allocator<wchar_t> > const&, std::__1::integral_constant<bool, false>)
PUBLIC 44534 0 std::__1::basic_string<wchar_t, std::__1::char_traits<wchar_t>, std::__1::allocator<wchar_t> >::__copy_assign_alloc(std::__1::basic_string<wchar_t, std::__1::char_traits<wchar_t>, std::__1::allocator<wchar_t> > const&, std::__1::integral_constant<bool, true>)
PUBLIC 4453a 0 std::__1::basic_string<wchar_t, std::__1::char_traits<wchar_t>, std::__1::allocator<wchar_t> >::__move_assign(std::__1::basic_string<wchar_t, std::__1::char_traits<wchar_t>, std::__1::allocator<wchar_t> >&, std::__1::integral_constant<bool, false>)
PUBLIC 445a4 0 std::__1::basic_string<wchar_t, std::__1::char_traits<wchar_t>, std::__1::allocator<wchar_t> >::__move_assign_alloc(std::__1::basic_string<wchar_t, std::__1::char_traits<wchar_t>, std::__1::allocator<wchar_t> >&)
PUBLIC 445aa 0 std::__1::basic_string<wchar_t, std::__1::char_traits<wchar_t>, std::__1::allocator<wchar_t> >::__move_assign_alloc(std::__1::basic_string<wchar_t, std::__1::char_traits<wchar_t>, std::__1::allocator<wchar_t> >&, std::__1::integral_constant<bool, true>)
PUBLIC 445b0 0 std::__1::basic_string<wchar_t, std::__1::char_traits<wchar_t>, std::__1::allocator<wchar_t> >::__move_assign_alloc(std::__1::basic_string<wchar_t, std::__1::char_traits<wchar_t>, std::__1::allocator<wchar_t> >&, std::__1::integral_constant<bool, false>)
PUBLIC 445c4 0 std::__1::stoi(std::__1::basic_string<char, std::__1::char_traits<char>, std::__1::allocator<char> > const&, unsigned long*, int)
PUBLIC 447c6 0 std::__1::stoi(std::__1::basic_string<wchar_t, std::__1::char_traits<wchar_t>, std::__1::allocator<wchar_t> > const&, unsigned long*, int)
PUBLIC 449cd 0 std::__1::stol(std::__1::basic_string<char, std::__1::char_traits<char>, std::__1::allocator<char> > const&, unsigned long*, int)
PUBLIC 44b5e 0 std::__1::stol(std::__1::basic_string<wchar_t, std::__1::char_traits<wchar_t>, std::__1::allocator<wchar_t> > const&, unsigned long*, int)
PUBLIC 44cf4 0 std::__1::stoul(std::__1::basic_string<char, std::__1::char_traits<char>, std::__1::allocator<char> > const&, unsigned long*, int)
PUBLIC 44e87 0 std::__1::stoul(std::__1::basic_string<wchar_t, std::__1::char_traits<wchar_t>, std::__1::allocator<wchar_t> > const&, unsigned long*, int)
PUBLIC 4501f 0 std::__1::stoll(std::__1::basic_string<char, std::__1::char_traits<char>, std::__1::allocator<char> > const&, unsigned long*, int)
PUBLIC 451b2 0 std::__1::stoll(std::__1::basic_string<wchar_t, std::__1::char_traits<wchar_t>, std::__1::allocator<wchar_t> > const&, unsigned long*, int)
PUBLIC 4534a 0 std::__1::stoull(std::__1::basic_string<char, std::__1::char_traits<char>, std::__1::allocator<char> > const&, unsigned long*, int)
PUBLIC 454de 0 std::__1::stoull(std::__1::basic_string<wchar_t, std::__1::char_traits<wchar_t>, std::__1::allocator<wchar_t> > const&, unsigned long*, int)
PUBLIC 45677 0 std::__1::stof(std::__1::basic_string<char, std::__1::char_traits<char>, std::__1::allocator<char> > const&, unsigned long*)
PUBLIC 45802 0 std::__1::stof(std::__1::basic_string<wchar_t, std::__1::char_traits<wchar_t>, std::__1::allocator<wchar_t> > const&, unsigned long*)
PUBLIC 45992 0 std::__1::stod(std::__1::basic_string<char, std::__1::char_traits<char>, std::__1::allocator<char> > const&, unsigned long*)
PUBLIC 45b1d 0 std::__1::stod(std::__1::basic_string<wchar_t, std::__1::char_traits<wchar_t>, std::__1::allocator<wchar_t> > const&, unsigned long*)
PUBLIC 45cad 0 std::__1::stold(std::__1::basic_string<char, std::__1::char_traits<char>, std::__1::allocator<char> > const&, unsigned long*)
PUBLIC 45e36 0 std::__1::stold(std::__1::basic_string<wchar_t, std::__1::char_traits<wchar_t>, std::__1::allocator<wchar_t> > const&, unsigned long*)
PUBLIC 45fd0 0 std::__1::to_string(long)
PUBLIC 460c6 0 std::__1::to_string(unsigned long)
PUBLIC 461c2 0 std::__1::to_string(unsigned long long)
PUBLIC 462ba 0 std::__1::to_string(double)
PUBLIC 463af 0 std::__1::to_string(long double)
PUBLIC 464a6 0 std::__1::to_wstring(int)
PUBLIC 465c8 0 std::__1::to_wstring(unsigned int)
PUBLIC 466ea 0 std::__1::to_wstring(long)
PUBLIC 4680c 0 std::__1::to_wstring(unsigned long)
PUBLIC 4692e 0 std::__1::to_wstring(long long)
PUBLIC 46a50 0 std::__1::to_wstring(unsigned long long)
PUBLIC 46b72 0 std::__1::to_wstring(float)
PUBLIC 46ca0 0 std::__1::to_wstring(double)
PUBLIC 46dc1 0 std::__1::to_wstring(long double)
PUBLIC 46ee4 0 std::__1::basic_string<char, std::__1::char_traits<char>, std::__1::allocator<char> > std::__1::operator+<char, std::__1::char_traits<char>, std::__1::allocator<char> >(std::__1::basic_string<char, std::__1::char_traits<char>, std::__1::allocator<char> > const&, char const*)
PUBLIC 46fdc 0 std::__1::basic_string_view<wchar_t, std::__1::char_traits<wchar_t> >::compare(std::__1::basic_string_view<wchar_t, std::__1::char_traits<wchar_t> >) const
PUBLIC 47030 0 std::__1::strstreambuf::strstreambuf(long)
PUBLIC 4706c 0 std::__1::strstreambuf::strstreambuf(void* (*)(unsigned long), void (*)(void*))
PUBLIC 470b0 0 std::__1::strstreambuf::strstreambuf(void* (*)(unsigned long), void (*)(void*))
PUBLIC 470f4 0 std::__1::strstreambuf::__init(char*, long, char*)
PUBLIC 47156 0 std::__1::strstreambuf::strstreambuf(char*, long, char*)
PUBLIC 471e2 0 std::__1::strstreambuf::strstreambuf(char*, long, char*)
PUBLIC 471ec 0 std::__1::strstreambuf::strstreambuf(char const*, long)
PUBLIC 4725c 0 std::__1::strstreambuf::strstreambuf(char const*, long)
PUBLIC 47266 0 std::__1::strstreambuf::strstreambuf(signed char*, long, signed char*)
PUBLIC 472f2 0 std::__1::strstreambuf::strstreambuf(signed char*, long, signed char*)
PUBLIC 472fc 0 std::__1::strstreambuf::strstreambuf(signed char const*, long)
PUBLIC 4736c 0 std::__1::strstreambuf::strstreambuf(signed char const*, long)
PUBLIC 47376 0 std::__1::strstreambuf::strstreambuf(unsigned char*, long, unsigned char*)
PUBLIC 47402 0 std::__1::strstreambuf::strstreambuf(unsigned char*, long, unsigned char*)
PUBLIC 4740c 0 std::__1::strstreambuf::strstreambuf(unsigned char const*, long)
PUBLIC 4747c 0 std::__1::strstreambuf::strstreambuf(unsigned char const*, long)
PUBLIC 4748c 0 std::__1::strstreambuf::~strstreambuf()
PUBLIC 47496 0 std::__1::strstreambuf::~strstreambuf()
PUBLIC 474b2 0 std::__1::strstreambuf::swap(std::__1::strstreambuf&)
PUBLIC 474fa 0 std::__1::strstreambuf::freeze(bool)
PUBLIC 47518 0 std::__1::strstreambuf::str()
PUBLIC 47530 0 std::__1::strstreambuf::pcount() const
PUBLIC 47544 0 std::__1::strstreambuf::pbackfail(int)
PUBLIC 47592 0 std::__1::strstreambuf::seekoff(long long, std::__1::ios_base::seekdir, unsigned int)
PUBLIC 476e8 0 std::__1::strstreambuf::seekpos(std::__1::fpos<__mbstate_t>, unsigned int)
PUBLIC 477ca 0 std::__1::istrstream::~istrstream()
PUBLIC 47806 0 std::__1::istrstream::~istrstream()
PUBLIC 4784e 0 virtual thunk to std::__1::istrstream::~istrstream()
PUBLIC 47860 0 std::__1::istrstream::~istrstream()
PUBLIC 4787c 0 virtual thunk to std::__1::istrstream::~istrstream()
PUBLIC 478a2 0 std::__1::ostrstream::~ostrstream()
PUBLIC 478de 0 std::__1::ostrstream::~ostrstream()
PUBLIC 47926 0 virtual thunk to std::__1::ostrstream::~ostrstream()
PUBLIC 47938 0 std::__1::ostrstream::~ostrstream()
PUBLIC 47954 0 virtual thunk to std::__1::ostrstream::~ostrstream()
PUBLIC 4797a 0 std::__1::strstream::~strstream()
PUBLIC 479c0 0 non-virtual thunk to std::__1::strstream::~strstream()
PUBLIC 479ce 0 virtual thunk to std::__1::strstream::~strstream()
PUBLIC 479e0 0 std::__1::strstream::~strstream()
PUBLIC 479fc 0 non-virtual thunk to std::__1::strstream::~strstream()
PUBLIC 47a20 0 virtual thunk to std::__1::strstream::~strstream()
PUBLIC 47a46 0 std::__1::__shared_mutex_base::__shared_mutex_base()
PUBLIC 47abc 0 std::__1::__shared_mutex_base::__shared_mutex_base()
PUBLIC 47b32 0 std::__1::__shared_mutex_base::lock()
PUBLIC 47bd2 0 std::__1::__shared_mutex_base::try_lock()
PUBLIC 47c0c 0 std::__1::__shared_mutex_base::unlock()
PUBLIC 47c3c 0 std::__1::__shared_mutex_base::lock_shared()
PUBLIC 47cb0 0 std::__1::__shared_mutex_base::try_lock_shared()
PUBLIC 47cf4 0 std::__1::__shared_mutex_base::unlock_shared()
PUBLIC 47d4a 0 std::__1::shared_timed_mutex::shared_timed_mutex()
PUBLIC 47dc0 0 std::__1::shared_timed_mutex::shared_timed_mutex()
PUBLIC 47e36 0 std::__1::shared_timed_mutex::lock()
PUBLIC 47e40 0 std::__1::shared_timed_mutex::try_lock()
PUBLIC 47e4a 0 std::__1::shared_timed_mutex::unlock()
PUBLIC 47e54 0 std::__1::shared_timed_mutex::lock_shared()
PUBLIC 47e5e 0 std::__1::shared_timed_mutex::try_lock_shared()
PUBLIC 47e68 0 std::__1::shared_timed_mutex::unlock_shared()
PUBLIC 47e72 0 std::__1::error_category::error_category()
PUBLIC 47e82 0 std::__1::error_category::~error_category()
PUBLIC 47e88 0 std::__1::error_category::~error_category()
PUBLIC 47e8e 0 std::__1::error_category::~error_category()
PUBLIC 47e94 0 std::__1::error_category::default_error_condition(int) const
PUBLIC 47ea0 0 std::__1::error_category::equivalent(int, std::__1::error_condition const&) const
PUBLIC 47ec4 0 std::__1::error_category::equivalent(std::__1::error_code const&, int) const
PUBLIC 47ed8 0 std::__1::__do_message::message(int) const
PUBLIC 48044 0 std::__1::__generic_error_category::name() const
PUBLIC 48052 0 std::__1::__generic_error_category::message(int) const
PUBLIC 480da 0 std::__1::generic_category()
PUBLIC 4811e 0 std::__1::__generic_error_category::~__generic_error_category()
PUBLIC 48124 0 std::__1::__system_error_category::name() const
PUBLIC 48132 0 std::__1::__system_error_category::message(int) const
PUBLIC 481b6 0 std::__1::__system_error_category::default_error_condition(int) const
PUBLIC 481e6 0 std::__1::__system_error_category::~__system_error_category()
PUBLIC 481ec 0 std::__1::error_condition::message() const
PUBLIC 4820e 0 std::__1::error_code::message() const
PUBLIC 48230 0 std::__1::system_error::__init(std::__1::error_code const&, std::__1::basic_string<char, std::__1::char_traits<char>, std::__1::allocator<char> >)
PUBLIC 4830a 0 std::__1::system_error::system_error(std::__1::error_code, std::__1::basic_string<char, std::__1::char_traits<char>, std::__1::allocator<char> > const&)
PUBLIC 483c2 0 std::__1::system_error::system_error(std::__1::error_code, std::__1::basic_string<char, std::__1::char_traits<char>, std::__1::allocator<char> > const&)
PUBLIC 483cc 0 std::__1::system_error::system_error(std::__1::error_code, char const*)
PUBLIC 48500 0 std::__1::system_error::system_error(std::__1::error_code, char const*)
PUBLIC 4850a 0 std::__1::system_error::system_error(std::__1::error_code)
PUBLIC 485ba 0 std::__1::system_error::system_error(std::__1::error_code)
PUBLIC 485c4 0 std::__1::system_error::system_error(int, std::__1::error_category const&, std::__1::basic_string<char, std::__1::char_traits<char>, std::__1::allocator<char> > const&)
PUBLIC 48684 0 std::__1::system_error::system_error(int, std::__1::error_category const&, std::__1::basic_string<char, std::__1::char_traits<char>, std::__1::allocator<char> > const&)
PUBLIC 4868e 0 std::__1::system_error::system_error(int, std::__1::error_category const&, char const*)
PUBLIC 487ca 0 std::__1::system_error::system_error(int, std::__1::error_category const&, char const*)
PUBLIC 487d4 0 std::__1::system_error::system_error(int, std::__1::error_category const&)
PUBLIC 48888 0 std::__1::system_error::system_error(int, std::__1::error_category const&)
PUBLIC 48892 0 std::__1::system_error::~system_error()
PUBLIC 4889c 0 std::__1::system_error::~system_error()
PUBLIC 488a6 0 std::__1::system_error::~system_error()
PUBLIC 488c2 0 std::__1::__throw_system_error(int, char const*)
PUBLIC 48924 0 std::__1::__do_message::~__do_message()
PUBLIC 4892a 0 std::__1::__do_message::~__do_message()
PUBLIC 48930 0 std::__1::__generic_error_category::~__generic_error_category()
PUBLIC 4893a 0 std::__1::__system_error_category::~__system_error_category()
PUBLIC 48950 0 std::__1::thread::~thread()
PUBLIC 48960 0 std::__1::thread::join()
PUBLIC 4899e 0 std::__1::thread::detach()
PUBLIC 489da 0 std::__1::thread::hardware_concurrency()
PUBLIC 48a3c 0 std::__1::__thread_struct_imp::~__thread_struct_imp()
PUBLIC 48ad2 0 std::__1::vector<std::__1::pair<std::__1::condition_variable*, std::__1::mutex*>, std::__1::__hidden_allocator<std::__1::pair<std::__1::condition_variable*, std::__1::mutex*> > >::~vector()
PUBLIC 48adc 0 std::__1::vector<std::__1::__assoc_sub_state*, std::__1::__hidden_allocator<std::__1::__assoc_sub_state*> >::~vector()
PUBLIC 48ae6 0 std::__1::__thread_struct_imp::~__thread_struct_imp()
PUBLIC 48af0 0 std::__1::__thread_struct_imp::notify_all_at_thread_exit(std::__1::condition_variable*, std::__1::mutex*)
PUBLIC 48b34 0 std::__1::__thread_struct_imp::__make_ready_at_thread_exit(std::__1::__assoc_sub_state*)
PUBLIC 48b70 0 std::__1::__thread_struct::__thread_struct()
PUBLIC 48bac 0 std::__1::__thread_struct::~__thread_struct()
PUBLIC 48bd8 0 std::__1::__thread_struct::~__thread_struct()
PUBLIC 48be2 0 std::__1::__thread_struct::notify_all_at_thread_exit(std::__1::condition_variable*, std::__1::mutex*)
PUBLIC 48c28 0 std::__1::__thread_struct::__make_ready_at_thread_exit(std::__1::__assoc_sub_state*)
PUBLIC 48c36 0 std::__1::__vector_base<std::__1::pair<std::__1::condition_variable*, std::__1::mutex*>, std::__1::__hidden_allocator<std::__1::pair<std::__1::condition_variable*, std::__1::mutex*> > >::~__vector_base()
PUBLIC 48c6c 0 std::__1::__vector_base<std::__1::__assoc_sub_state*, std::__1::__hidden_allocator<std::__1::__assoc_sub_state*> >::~__vector_base()
PUBLIC 48ca6 0 std::__1::__thread_specific_ptr<std::__1::__thread_struct>::__at_thread_exit(void*)
PUBLIC 48cd2 0 void std::__1::vector<std::__1::pair<std::__1::condition_variable*, std::__1::mutex*>, std::__1::__hidden_allocator<std::__1::pair<std::__1::condition_variable*, std::__1::mutex*> > >::__push_back_slow_path<std::__1::pair<std::__1::condition_variable*, std::__1::mutex*> >(std::__1::pair<std::__1::condition_variable*, std::__1::mutex*>&&)
PUBLIC 48dda 0 void std::__1::vector<std::__1::__assoc_sub_state*, std::__1::__hidden_allocator<std::__1::__assoc_sub_state*> >::__push_back_slow_path<std::__1::__assoc_sub_state* const&>(std::__1::__assoc_sub_state* const&&&)
PUBLIC 48ed4 0 std::bad_optional_access::~bad_optional_access()
PUBLIC 48ede 0 std::bad_optional_access::~bad_optional_access()
PUBLIC 48ee8 0 std::bad_optional_access::~bad_optional_access()
PUBLIC 48f04 0 std::bad_optional_access::what() const
PUBLIC 48f12 0 std::experimental::bad_optional_access::~bad_optional_access()
PUBLIC 48f1c 0 std::experimental::bad_optional_access::~bad_optional_access()
PUBLIC 48f26 0 std::experimental::bad_optional_access::~bad_optional_access()
PUBLIC 48f42 0 std::__1::valarray<unsigned long>::valarray(unsigned long)
PUBLIC 48f58 0 std::__1::valarray<unsigned long>::resize(unsigned long, unsigned long)
PUBLIC 48fd8 0 std::__1::valarray<unsigned long>::valarray(unsigned long)
PUBLIC 48fee 0 std::__1::valarray<unsigned long>::~valarray()
PUBLIC 49032 0 std::__1::valarray<unsigned long>::~valarray()
PUBLIC 49076 0 std::__1::gslice::__init(unsigned long)
PUBLIC 49202 0 std::bad_variant_access::what() const
PUBLIC 49210 0 std::bad_variant_access::~bad_variant_access()
PUBLIC 4921a 0 std::bad_variant_access::~bad_variant_access()
PUBLIC 49a60 0 GCC_except_table94
PUBLIC 49a78 0 GCC_except_table0
PUBLIC 49a90 0 GCC_except_table4
PUBLIC 49aa8 0 GCC_except_table0
PUBLIC 49ac0 0 GCC_except_table2
PUBLIC 49ad8 0 GCC_except_table3
PUBLIC 49af0 0 GCC_except_table4
PUBLIC 49b08 0 GCC_except_table5
PUBLIC 49b3c 0 GCC_except_table6
PUBLIC 49b70 0 GCC_except_table7
PUBLIC 49b9c 0 GCC_except_table13
PUBLIC 49bbc 0 GCC_except_table4
PUBLIC 49be8 0 GCC_except_table10
PUBLIC 49c24 0 GCC_except_table11
PUBLIC 49c78 0 GCC_except_table12
PUBLIC 49cb4 0 GCC_except_table13
PUBLIC 49d08 0 GCC_except_table15
PUBLIC 49d44 0 GCC_except_table17
PUBLIC 49d70 0 GCC_except_table19
PUBLIC 49d9c 0 GCC_except_table20
PUBLIC 49dc8 0 GCC_except_table24
PUBLIC 49de8 0 GCC_except_table27
PUBLIC 49e10 0 GCC_except_table29
PUBLIC 49e50 0 GCC_except_table31
PUBLIC 49e7c 0 GCC_except_table32
PUBLIC 49ea8 0 GCC_except_table33
PUBLIC 49ee4 0 GCC_except_table34
PUBLIC 49f10 0 GCC_except_table35
PUBLIC 49f4c 0 GCC_except_table0
PUBLIC 49f78 0 GCC_except_table5
PUBLIC 49fa4 0 GCC_except_table14
PUBLIC 49fbc 0 GCC_except_table25
PUBLIC 4a038 0 GCC_except_table26
PUBLIC 4a058 0 GCC_except_table27
PUBLIC 4a078 0 GCC_except_table29
PUBLIC 4a098 0 GCC_except_table31
PUBLIC 4a0b8 0 GCC_except_table33
PUBLIC 4a0d8 0 GCC_except_table65
PUBLIC 4a0f8 0 GCC_except_table66
PUBLIC 4a118 0 GCC_except_table68
PUBLIC 4a138 0 GCC_except_table70
PUBLIC 4a158 0 GCC_except_table161
PUBLIC 4a180 0 GCC_except_table165
PUBLIC 4a1a8 0 GCC_except_table178
PUBLIC 4a1d4 0 GCC_except_table179
PUBLIC 4a230 0 GCC_except_table185
PUBLIC 4a2dc 0 GCC_except_table189
PUBLIC 4a344 0 GCC_except_table190
PUBLIC 4a3ac 0 GCC_except_table191
PUBLIC 4a414 0 GCC_except_table192
PUBLIC 4a47c 0 GCC_except_table193
PUBLIC 4a4e4 0 GCC_except_table194
PUBLIC 4a54c 0 GCC_except_table195
PUBLIC 4a5b4 0 GCC_except_table196
PUBLIC 4a61c 0 GCC_except_table197
PUBLIC 4a684 0 GCC_except_table198
PUBLIC 4a6ec 0 GCC_except_table199
PUBLIC 4a754 0 GCC_except_table200
PUBLIC 4a7bc 0 GCC_except_table201
PUBLIC 4a824 0 GCC_except_table203
PUBLIC 4a870 0 GCC_except_table205
PUBLIC 4a890 0 GCC_except_table206
PUBLIC 4a910 0 GCC_except_table207
PUBLIC 4a930 0 GCC_except_table208
PUBLIC 4a9b0 0 GCC_except_table209
PUBLIC 4a9d0 0 GCC_except_table210
PUBLIC 4aa50 0 GCC_except_table211
PUBLIC 4aac4 0 GCC_except_table212
PUBLIC 4ab10 0 GCC_except_table213
PUBLIC 4ab5c 0 GCC_except_table214
PUBLIC 4abb8 0 GCC_except_table215
PUBLIC 4ac14 0 GCC_except_table216
PUBLIC 4ac70 0 GCC_except_table217
PUBLIC 4acbc 0 GCC_except_table218
PUBLIC 4ad18 0 GCC_except_table219
PUBLIC 4ad8c 0 GCC_except_table220
PUBLIC 4ae00 0 GCC_except_table232
PUBLIC 4ae2c 0 GCC_except_table233
PUBLIC 4ae88 0 GCC_except_table239
PUBLIC 4af34 0 GCC_except_table240
PUBLIC 4af9c 0 GCC_except_table241
PUBLIC 4b004 0 GCC_except_table242
PUBLIC 4b06c 0 GCC_except_table243
PUBLIC 4b0d4 0 GCC_except_table244
PUBLIC 4b13c 0 GCC_except_table245
PUBLIC 4b1a4 0 GCC_except_table246
PUBLIC 4b20c 0 GCC_except_table247
PUBLIC 4b274 0 GCC_except_table248
PUBLIC 4b2dc 0 GCC_except_table249
PUBLIC 4b344 0 GCC_except_table250
PUBLIC 4b3ac 0 GCC_except_table251
PUBLIC 4b414 0 GCC_except_table252
PUBLIC 4b47c 0 GCC_except_table254
PUBLIC 4b4c8 0 GCC_except_table256
PUBLIC 4b4e8 0 GCC_except_table257
PUBLIC 4b568 0 GCC_except_table258
PUBLIC 4b588 0 GCC_except_table259
PUBLIC 4b608 0 GCC_except_table260
PUBLIC 4b628 0 GCC_except_table261
PUBLIC 4b6a8 0 GCC_except_table262
PUBLIC 4b71c 0 GCC_except_table263
PUBLIC 4b768 0 GCC_except_table264
PUBLIC 4b7b4 0 GCC_except_table265
PUBLIC 4b810 0 GCC_except_table266
PUBLIC 4b86c 0 GCC_except_table267
PUBLIC 4b8c8 0 GCC_except_table268
PUBLIC 4b914 0 GCC_except_table269
PUBLIC 4b970 0 GCC_except_table270
PUBLIC 4b9e4 0 GCC_except_table271
PUBLIC 4ba58 0 GCC_except_table285
PUBLIC 4ba8c 0 GCC_except_table291
PUBLIC 4bb0c 0 GCC_except_table292
PUBLIC 4bb8c 0 GCC_except_table293
PUBLIC 4bc0c 0 GCC_except_table294
PUBLIC 4bc8c 0 GCC_except_table295
PUBLIC 4bd0c 0 GCC_except_table296
PUBLIC 4bd8c 0 GCC_except_table297
PUBLIC 4be0c 0 GCC_except_table298
PUBLIC 4be8c 0 GCC_except_table299
PUBLIC 4bf0c 0 GCC_except_table300
PUBLIC 4bf8c 0 GCC_except_table301
PUBLIC 4c00c 0 GCC_except_table302
PUBLIC 4c08c 0 GCC_except_table303
PUBLIC 4c10c 0 GCC_except_table304
PUBLIC 4c1b8 0 GCC_except_table305
PUBLIC 4c214 0 GCC_except_table306
PUBLIC 4c270 0 GCC_except_table308
PUBLIC 4c2ac 0 GCC_except_table309
PUBLIC 4c2e8 0 GCC_except_table325
PUBLIC 4c31c 0 GCC_except_table331
PUBLIC 4c39c 0 GCC_except_table332
PUBLIC 4c41c 0 GCC_except_table333
PUBLIC 4c49c 0 GCC_except_table334
PUBLIC 4c51c 0 GCC_except_table335
PUBLIC 4c59c 0 GCC_except_table336
PUBLIC 4c61c 0 GCC_except_table337
PUBLIC 4c69c 0 GCC_except_table338
PUBLIC 4c71c 0 GCC_except_table339
PUBLIC 4c79c 0 GCC_except_table340
PUBLIC 4c81c 0 GCC_except_table341
PUBLIC 4c89c 0 GCC_except_table342
PUBLIC 4c91c 0 GCC_except_table343
PUBLIC 4c99c 0 GCC_except_table344
PUBLIC 4ca48 0 GCC_except_table345
PUBLIC 4caa4 0 GCC_except_table346
PUBLIC 4cb00 0 GCC_except_table348
PUBLIC 4cb3c 0 GCC_except_table349
PUBLIC 4cb78 0 GCC_except_table2
PUBLIC 4cc44 0 GCC_except_table3
PUBLIC 4cc6c 0 GCC_except_table5
PUBLIC 4cc98 0 GCC_except_table13
PUBLIC 4ccc4 0 GCC_except_table21
PUBLIC 4ccf0 0 GCC_except_table28
PUBLIC 4cd1c 0 GCC_except_table39
PUBLIC 4cd8c 0 GCC_except_table41
PUBLIC 4cdfc 0 GCC_except_table43
PUBLIC 4ce5c 0 GCC_except_table45
PUBLIC 4cebc 0 GCC_except_table47
PUBLIC 4cf1c 0 GCC_except_table49
PUBLIC 4cf7c 0 GCC_except_table51
PUBLIC 4cfdc 0 GCC_except_table53
PUBLIC 4d03c 0 GCC_except_table55
PUBLIC 4d09c 0 GCC_except_table57
PUBLIC 4d0fc 0 GCC_except_table59
PUBLIC 4d15c 0 GCC_except_table60
PUBLIC 4d1cc 0 GCC_except_table78
PUBLIC 4d23c 0 GCC_except_table79
PUBLIC 4d2ac 0 GCC_except_table81
PUBLIC 4d30c 0 GCC_except_table83
PUBLIC 4d36c 0 GCC_except_table85
PUBLIC 4d3cc 0 GCC_except_table87
PUBLIC 4d42c 0 GCC_except_table89
PUBLIC 4d48c 0 GCC_except_table91
PUBLIC 4d4ec 0 GCC_except_table93
PUBLIC 4d54c 0 GCC_except_table95
PUBLIC 4d5ac 0 GCC_except_table97
PUBLIC 4d60c 0 GCC_except_table98
PUBLIC 4d67c 0 GCC_except_table100
PUBLIC 4d6b8 0 GCC_except_table101
PUBLIC 4d6f4 0 GCC_except_table103
PUBLIC 4d730 0 GCC_except_table104
PUBLIC 4d76c 0 GCC_except_table119
PUBLIC 4d7b4 0 GCC_except_table120
PUBLIC 4d7e0 0 GCC_except_table123
PUBLIC 4d834 0 GCC_except_table124
PUBLIC 4d860 0 GCC_except_table125
PUBLIC 4d88c 0 GCC_except_table126
PUBLIC 4d8b8 0 GCC_except_table127
PUBLIC 4d8e4 0 GCC_except_table128
PUBLIC 4d960 0 GCC_except_table130
PUBLIC 4d9f8 0 GCC_except_table131
PUBLIC 4da74 0 GCC_except_table132
PUBLIC 4daa0 0 GCC_except_table146
PUBLIC 4dae8 0 GCC_except_table147
PUBLIC 4db14 0 GCC_except_table148
PUBLIC 4db68 0 GCC_except_table149
PUBLIC 4db94 0 GCC_except_table150
PUBLIC 4dbc0 0 GCC_except_table151
PUBLIC 4dbec 0 GCC_except_table152
PUBLIC 4dc18 0 GCC_except_table153
PUBLIC 4dc94 0 GCC_except_table154
PUBLIC 4dd2c 0 GCC_except_table155
PUBLIC 4dda8 0 GCC_except_table156
PUBLIC 4ddd4 0 GCC_except_table166
PUBLIC 4de00 0 GCC_except_table173
PUBLIC 4de2c 0 GCC_except_table175
PUBLIC 4de58 0 GCC_except_table177
PUBLIC 4de84 0 GCC_except_table179
PUBLIC 4deb0 0 GCC_except_table202
PUBLIC 4dedc 0 GCC_except_table209
PUBLIC 4df08 0 GCC_except_table211
PUBLIC 4df34 0 GCC_except_table213
PUBLIC 4df60 0 GCC_except_table215
PUBLIC 4df8c 0 GCC_except_table229
PUBLIC 4dfac 0 GCC_except_table230
PUBLIC 4dfe8 0 GCC_except_table231
PUBLIC 4e008 0 GCC_except_table232
PUBLIC 4e028 0 GCC_except_table233
PUBLIC 4e064 0 GCC_except_table234
PUBLIC 4e084 0 GCC_except_table254
PUBLIC 4e0a4 0 GCC_except_table255
PUBLIC 4e0e0 0 GCC_except_table256
PUBLIC 4e100 0 GCC_except_table257
PUBLIC 4e120 0 GCC_except_table258
PUBLIC 4e15c 0 GCC_except_table259
PUBLIC 4e17c 0 GCC_except_table281
PUBLIC 4e1a8 0 GCC_except_table284
PUBLIC 4e1c0 0 GCC_except_table289
PUBLIC 4e1e0 0 GCC_except_table290
PUBLIC 4e21c 0 GCC_except_table291
PUBLIC 4e23c 0 GCC_except_table292
PUBLIC 4e25c 0 GCC_except_table293
PUBLIC 4e288 0 GCC_except_table294
PUBLIC 4e2a8 0 GCC_except_table297
PUBLIC 4e2d4 0 GCC_except_table304
PUBLIC 4e2f4 0 GCC_except_table305
PUBLIC 4e314 0 GCC_except_table306
PUBLIC 4e334 0 GCC_except_table307
PUBLIC 4e354 0 GCC_except_table308
PUBLIC 4e374 0 GCC_except_table309
PUBLIC 4e394 0 GCC_except_table310
PUBLIC 4e3b4 0 GCC_except_table311
PUBLIC 4e3d4 0 GCC_except_table315
PUBLIC 4e3f4 0 GCC_except_table316
PUBLIC 4e414 0 GCC_except_table317
PUBLIC 4e434 0 GCC_except_table318
PUBLIC 4e454 0 GCC_except_table387
PUBLIC 4e46c 0 GCC_except_table410
PUBLIC 4e484 0 GCC_except_table414
PUBLIC 4e4a4 0 GCC_except_table415
PUBLIC 4e540 0 GCC_except_table416
PUBLIC 4e560 0 GCC_except_table417
PUBLIC 4e580 0 GCC_except_table418
PUBLIC 4e5a0 0 GCC_except_table431
PUBLIC 4e5c0 0 GCC_except_table432
PUBLIC 4e65c 0 GCC_except_table433
PUBLIC 4e67c 0 GCC_except_table434
PUBLIC 4e69c 0 GCC_except_table435
PUBLIC 4e6bc 0 GCC_except_table448
PUBLIC 4e6dc 0 GCC_except_table449
PUBLIC 4e7c8 0 GCC_except_table450
PUBLIC 4e7e8 0 GCC_except_table451
PUBLIC 4e808 0 GCC_except_table452
PUBLIC 4e828 0 GCC_except_table465
PUBLIC 4e848 0 GCC_except_table466
PUBLIC 4e934 0 GCC_except_table467
PUBLIC 4e954 0 GCC_except_table468
PUBLIC 4e974 0 GCC_except_table469
PUBLIC 4e994 0 GCC_except_table490
PUBLIC 4ea30 0 GCC_except_table492
PUBLIC 4eb44 0 GCC_except_table493
PUBLIC 4eb70 0 GCC_except_table494
PUBLIC 4ec0c 0 GCC_except_table495
PUBLIC 4ecec 0 GCC_except_table496
PUBLIC 4ed14 0 GCC_except_table497
PUBLIC 4ed3c 0 GCC_except_table507
PUBLIC 4edcc 0 GCC_except_table508
PUBLIC 4eeec 0 GCC_except_table509
PUBLIC 4ef7c 0 GCC_except_table510
PUBLIC 4f05c 0 GCC_except_table511
PUBLIC 4f084 0 GCC_except_table522
PUBLIC 4f100 0 GCC_except_table523
PUBLIC 4f1c4 0 GCC_except_table525
PUBLIC 4f234 0 GCC_except_table534
PUBLIC 4f2b0 0 GCC_except_table535
PUBLIC 4f374 0 GCC_except_table537
PUBLIC 4f3e4 0 GCC_except_table549
PUBLIC 4f420 0 GCC_except_table560
PUBLIC 4f49c 0 GCC_except_table587
PUBLIC 4f4f0 0 GCC_except_table592
PUBLIC 4f508 0 GCC_except_table613
PUBLIC 4f534 0 GCC_except_table614
PUBLIC 4f560 0 GCC_except_table615
PUBLIC 4f58c 0 GCC_except_table617
PUBLIC 4f770 0 GCC_except_table618
PUBLIC 4f790 0 GCC_except_table627
PUBLIC 4f7cc 0 GCC_except_table629
PUBLIC 4f9b0 0 GCC_except_table631
PUBLIC 4fa0c 0 GCC_except_table633
PUBLIC 4fa38 0 GCC_except_table634
PUBLIC 4fa58 0 GCC_except_table644
PUBLIC 4fa78 0 GCC_except_table645
PUBLIC 4fa90 0 GCC_except_table650
PUBLIC 4fb0c 0 GCC_except_table652
PUBLIC 4fb38 0 GCC_except_table654
PUBLIC 4fbb4 0 GCC_except_table656
PUBLIC 4fbe0 0 GCC_except_table658
PUBLIC 4fc0c 0 GCC_except_table661
PUBLIC 4fc38 0 GCC_except_table662
PUBLIC 4fc94 0 GCC_except_table666
PUBLIC 4fcac 0 GCC_except_table671
PUBLIC 4fd00 0 GCC_except_table672
PUBLIC 4fd2c 0 GCC_except_table674
PUBLIC 4fd68 0 GCC_except_table676
PUBLIC 4fd80 0 GCC_except_table679
PUBLIC 4fdd4 0 GCC_except_table680
PUBLIC 4fe34 0 GCC_except_table681
PUBLIC 4fe88 0 GCC_except_table683
PUBLIC 4fec4 0 GCC_except_table684
PUBLIC 4fedc 0 GCC_except_table687
PUBLIC 4ff18 0 GCC_except_table688
PUBLIC 4ff54 0 GCC_except_table718
PUBLIC 4ffa8 0 GCC_except_table720
PUBLIC 4ffe4 0 GCC_except_table721
PUBLIC 4fffc 0 GCC_except_table728
PUBLIC 50050 0 GCC_except_table730
PUBLIC 5008c 0 GCC_except_table731
PUBLIC 500a4 0 GCC_except_table763
PUBLIC 500bc 0 GCC_except_table766
PUBLIC 500d4 0 GCC_except_table913
PUBLIC 500f4 0 GCC_except_table914
PUBLIC 50174 0 GCC_except_table916
PUBLIC 50194 0 GCC_except_table921
PUBLIC 501b4 0 GCC_except_table922
PUBLIC 50234 0 GCC_except_table924
PUBLIC 50254 0 GCC_except_table930
PUBLIC 50274 0 GCC_except_table931
PUBLIC 50294 0 GCC_except_table932
PUBLIC 502b4 0 GCC_except_table933
PUBLIC 502d4 0 GCC_except_table934
PUBLIC 502f4 0 GCC_except_table935
PUBLIC 50314 0 GCC_except_table937
PUBLIC 50334 0 GCC_except_table939
PUBLIC 50354 0 GCC_except_table941
PUBLIC 50374 0 GCC_except_table943
PUBLIC 50394 0 GCC_except_table944
PUBLIC 503d0 0 GCC_except_table946
PUBLIC 503fc 0 GCC_except_table948
PUBLIC 50414 0 GCC_except_table950
PUBLIC 50474 0 GCC_except_table951
PUBLIC 504bc 0 GCC_except_table953
PUBLIC 5051c 0 GCC_except_table954
PUBLIC 50564 0 GCC_except_table956
PUBLIC 505e4 0 GCC_except_table957
PUBLIC 50664 0 GCC_except_table1001
PUBLIC 50684 0 GCC_except_table1008
PUBLIC 506b0 0 GCC_except_table1022
PUBLIC 506dc 0 GCC_except_table1023
PUBLIC 50708 0 GCC_except_table1024
PUBLIC 50734 0 GCC_except_table19
PUBLIC 50768 0 GCC_except_table20
PUBLIC 50780 0 GCC_except_table0
PUBLIC 50798 0 GCC_except_table2
PUBLIC 507b0 0 GCC_except_table4
PUBLIC 507c8 0 GCC_except_table5
PUBLIC 507e0 0 GCC_except_table8
PUBLIC 507f8 0 GCC_except_table11
PUBLIC 50810 0 GCC_except_table12
PUBLIC 50828 0 GCC_except_table15
PUBLIC 50850 0 GCC_except_table19
PUBLIC 50868 0 GCC_except_table22
PUBLIC 50890 0 GCC_except_table24
PUBLIC 508bc 0 GCC_except_table25
PUBLIC 508e4 0 GCC_except_table26
PUBLIC 5090c 0 GCC_except_table28
PUBLIC 50968 0 GCC_except_table0
PUBLIC 50994 0 GCC_except_table3
PUBLIC 509ac 0 GCC_except_table5
PUBLIC 509cc 0 GCC_except_table0
PUBLIC 509ec 0 GCC_except_table2
PUBLIC 50a0c 0 GCC_except_table4
PUBLIC 50a34 0 GCC_except_table7
PUBLIC 50a74 0 GCC_except_table8
PUBLIC 50a94 0 GCC_except_table10
PUBLIC 50ab4 0 GCC_except_table12
PUBLIC 50adc 0 GCC_except_table0
PUBLIC 50b08 0 GCC_except_table1
PUBLIC 50b34 0 GCC_except_table57
PUBLIC 50b4c 0 GCC_except_table58
PUBLIC 50b64 0 GCC_except_table89
PUBLIC 50b98 0 GCC_except_table94
PUBLIC 50bb0 0 GCC_except_table123
PUBLIC 50bc8 0 GCC_except_table136
PUBLIC 50bf4 0 GCC_except_table152
PUBLIC 50c20 0 GCC_except_table193
PUBLIC 50c68 0 GCC_except_table194
PUBLIC 50c80 0 GCC_except_table201
PUBLIC 50c98 0 GCC_except_table213
PUBLIC 50ce4 0 GCC_except_table234
PUBLIC 50d30 0 GCC_except_table259
PUBLIC 50d58 0 GCC_except_table260
PUBLIC 50d70 0 GCC_except_table261
PUBLIC 50d88 0 GCC_except_table289
PUBLIC 50db0 0 GCC_except_table292
PUBLIC 50e30 0 GCC_except_table297
PUBLIC 50e48 0 GCC_except_table314
PUBLIC 50e70 0 GCC_except_table317
PUBLIC 50ed8 0 GCC_except_table318
PUBLIC 50f34 0 GCC_except_table326
PUBLIC 50f4c 0 GCC_except_table328
PUBLIC 50f74 0 GCC_except_table331
PUBLIC 50fb4 0 GCC_except_table335
PUBLIC 50ff4 0 GCC_except_table336
PUBLIC 5101c 0 GCC_except_table339
PUBLIC 51068 0 GCC_except_table340
PUBLIC 51090 0 GCC_except_table344
PUBLIC 510f8 0 GCC_except_table348
PUBLIC 51138 0 GCC_except_table355
PUBLIC 51164 0 GCC_except_table356
PUBLIC 5118c 0 GCC_except_table396
PUBLIC 511d4 0 GCC_except_table397
PUBLIC 511ec 0 GCC_except_table401
PUBLIC 51238 0 GCC_except_table404
PUBLIC 51250 0 GCC_except_table408
PUBLIC 5128c 0 GCC_except_table409
PUBLIC 5133c 0 GCC_except_table410
PUBLIC 513ec 0 GCC_except_table411
PUBLIC 51468 0 GCC_except_table412
PUBLIC 514e4 0 GCC_except_table413
PUBLIC 51560 0 GCC_except_table414
PUBLIC 515dc 0 GCC_except_table415
PUBLIC 51658 0 GCC_except_table416
PUBLIC 516d4 0 GCC_except_table417
PUBLIC 51750 0 GCC_except_table418
PUBLIC 517cc 0 GCC_except_table419
PUBLIC 51848 0 GCC_except_table420
PUBLIC 518c4 0 GCC_except_table421
PUBLIC 51940 0 GCC_except_table422
PUBLIC 519bc 0 GCC_except_table423
PUBLIC 51a38 0 GCC_except_table424
PUBLIC 51ab4 0 GCC_except_table425
PUBLIC 51af0 0 GCC_except_table426
PUBLIC 51b2c 0 GCC_except_table427
PUBLIC 51b68 0 GCC_except_table428
PUBLIC 51ba4 0 GCC_except_table429
PUBLIC 51be0 0 GCC_except_table430
PUBLIC 51c1c 0 GCC_except_table431
PUBLIC 51c58 0 GCC_except_table432
PUBLIC 51c94 0 GCC_except_table433
PUBLIC 51cd0 0 GCC_except_table434
PUBLIC 51d2c 0 GCC_except_table435
PUBLIC 51d88 0 GCC_except_table436
PUBLIC 51de4 0 GCC_except_table437
PUBLIC 51e40 0 GCC_except_table438
PUBLIC 51e9c 0 GCC_except_table439
PUBLIC 51ef8 0 GCC_except_table440
PUBLIC 51f54 0 GCC_except_table441
PUBLIC 51fb0 0 GCC_except_table442
PUBLIC 5200c 0 GCC_except_table443
PUBLIC 52048 0 GCC_except_table17
PUBLIC 52060 0 GCC_except_table19
PUBLIC 5208c 0 GCC_except_table20
PUBLIC 520c8 0 GCC_except_table22
PUBLIC 52104 0 GCC_except_table24
PUBLIC 52130 0 GCC_except_table26
PUBLIC 5216c 0 GCC_except_table28
PUBLIC 521a8 0 GCC_except_table30
PUBLIC 521d4 0 GCC_except_table35
PUBLIC 52200 0 GCC_except_table4
PUBLIC 52218 0 GCC_except_table7
PUBLIC 52238 0 GCC_except_table8
PUBLIC 52250 0 GCC_except_table5
PUBLIC 52280 0 std::__1::placeholders::_1
PUBLIC 52281 0 std::__1::placeholders::_2
PUBLIC 52282 0 std::__1::placeholders::_3
PUBLIC 52283 0 std::__1::placeholders::_4
PUBLIC 52284 0 std::__1::placeholders::_5
PUBLIC 52285 0 std::__1::placeholders::_6
PUBLIC 52286 0 std::__1::placeholders::_7
PUBLIC 52287 0 std::__1::placeholders::_8
PUBLIC 52288 0 std::__1::placeholders::_9
PUBLIC 52289 0 std::__1::placeholders::_10
PUBLIC 5228a 0 std::__1::chrono::system_clock::is_steady
PUBLIC 5228b 0 std::__1::chrono::steady_clock::is_steady
PUBLIC 52290 0 typeinfo name for std::nested_exception
PUBLIC 52300 0 typeinfo name for std::__1::future_error
PUBLIC 52320 0 typeinfo name for std::__1::__assoc_sub_state
PUBLIC 52340 0 typeinfo name for std::__1::__future_error_category
PUBLIC 52370 0 std::__1::(anonymous namespace)::small_primes
PUBLIC 52430 0 std::__1::(anonymous namespace)::indices
PUBLIC 52500 0 std::__1::ios_base::boolalpha
PUBLIC 52504 0 std::__1::ios_base::dec
PUBLIC 52508 0 std::__1::ios_base::fixed
PUBLIC 5250c 0 std::__1::ios_base::hex
PUBLIC 52510 0 std::__1::ios_base::internal
PUBLIC 52514 0 std::__1::ios_base::left
PUBLIC 52518 0 std::__1::ios_base::oct
PUBLIC 5251c 0 std::__1::ios_base::right
PUBLIC 52520 0 std::__1::ios_base::scientific
PUBLIC 52524 0 std::__1::ios_base::showbase
PUBLIC 52528 0 std::__1::ios_base::showpoint
PUBLIC 5252c 0 std::__1::ios_base::showpos
PUBLIC 52530 0 std::__1::ios_base::skipws
PUBLIC 52534 0 std::__1::ios_base::unitbuf
PUBLIC 52538 0 std::__1::ios_base::uppercase
PUBLIC 5253c 0 std::__1::ios_base::adjustfield
PUBLIC 52540 0 std::__1::ios_base::basefield
PUBLIC 52544 0 std::__1::ios_base::floatfield
PUBLIC 52548 0 std::__1::ios_base::badbit
PUBLIC 5254c 0 std::__1::ios_base::eofbit
PUBLIC 52550 0 std::__1::ios_base::failbit
PUBLIC 52554 0 std::__1::ios_base::goodbit
PUBLIC 52558 0 std::__1::ios_base::app
PUBLIC 5255c 0 std::__1::ios_base::ate
PUBLIC 52560 0 std::__1::ios_base::binary
PUBLIC 52564 0 std::__1::ios_base::in
PUBLIC 52568 0 std::__1::ios_base::out
PUBLIC 5256c 0 std::__1::ios_base::trunc
PUBLIC 52570 0 typeinfo name for std::__1::ios_base::failure
PUBLIC 52590 0 typeinfo name for std::__1::ios_base
PUBLIC 525b0 0 typeinfo name for std::__1::basic_ios<char, std::__1::char_traits<char> >
PUBLIC 525e0 0 typeinfo name for std::__1::basic_ios<wchar_t, std::__1::char_traits<wchar_t> >
PUBLIC 52610 0 typeinfo name for std::__1::basic_streambuf<char, std::__1::char_traits<char> >
PUBLIC 52650 0 typeinfo name for std::__1::basic_streambuf<wchar_t, std::__1::char_traits<wchar_t> >
PUBLIC 52690 0 typeinfo name for std::__1::basic_istream<char, std::__1::char_traits<char> >
PUBLIC 526c0 0 typeinfo name for std::__1::basic_istream<wchar_t, std::__1::char_traits<wchar_t> >
PUBLIC 526f0 0 typeinfo name for std::__1::basic_ostream<char, std::__1::char_traits<char> >
PUBLIC 52720 0 typeinfo name for std::__1::basic_ostream<wchar_t, std::__1::char_traits<wchar_t> >
PUBLIC 52750 0 typeinfo name for std::__1::basic_iostream<char, std::__1::char_traits<char> >
PUBLIC 52780 0 typeinfo name for std::__1::__iostream_category
PUBLIC 527a0 0 typeinfo name for std::__1::__stdinbuf<char>
PUBLIC 527c0 0 typeinfo name for std::__1::__stdinbuf<wchar_t>
PUBLIC 527e0 0 typeinfo name for std::__1::__stdoutbuf<char>
PUBLIC 52800 0 typeinfo name for std::__1::__stdoutbuf<wchar_t>
PUBLIC 52850 0 std::__1::__num_get_base::__src
PUBLIC 5287d 0 std::__1::time_get<char, std::__1::istreambuf_iterator<char, std::__1::char_traits<char> > >::do_get_time(std::__1::istreambuf_iterator<char, std::__1::char_traits<char> >, std::__1::istreambuf_iterator<char, std::__1::char_traits<char> >, std::__1::ios_base&, unsigned int&, tm*) const::__fmt
PUBLIC 52885 0 std::__1::time_get<char, std::__1::istreambuf_iterator<char, std::__1::char_traits<char> > >::do_get(std::__1::istreambuf_iterator<char, std::__1::char_traits<char> >, std::__1::istreambuf_iterator<char, std::__1::char_traits<char> >, std::__1::ios_base&, unsigned int&, tm*, char, char) const::__fm
PUBLIC 5288d 0 std::__1::time_get<char, std::__1::istreambuf_iterator<char, std::__1::char_traits<char> > >::do_get(std::__1::istreambuf_iterator<char, std::__1::char_traits<char> >, std::__1::istreambuf_iterator<char, std::__1::char_traits<char> >, std::__1::ios_base&, unsigned int&, tm*, char, char) const::__fm
PUBLIC 52895 0 std::__1::time_get<char, std::__1::istreambuf_iterator<char, std::__1::char_traits<char> > >::do_get(std::__1::istreambuf_iterator<char, std::__1::char_traits<char> >, std::__1::istreambuf_iterator<char, std::__1::char_traits<char> >, std::__1::ios_base&, unsigned int&, tm*, char, char) const::__fm
PUBLIC 528a0 0 std::__1::time_get<char, std::__1::istreambuf_iterator<char, std::__1::char_traits<char> > >::do_get(std::__1::istreambuf_iterator<char, std::__1::char_traits<char> >, std::__1::istreambuf_iterator<char, std::__1::char_traits<char> >, std::__1::ios_base&, unsigned int&, tm*, char, char) const::__fm
PUBLIC 528a5 0 std::__1::time_get<char, std::__1::istreambuf_iterator<char, std::__1::char_traits<char> > >::do_get(std::__1::istreambuf_iterator<char, std::__1::char_traits<char> >, std::__1::istreambuf_iterator<char, std::__1::char_traits<char> >, std::__1::ios_base&, unsigned int&, tm*, char, char) const::__fm
PUBLIC 528b0 0 std::__1::time_get<wchar_t, std::__1::istreambuf_iterator<wchar_t, std::__1::char_traits<wchar_t> > >::do_get_time(std::__1::istreambuf_iterator<wchar_t, std::__1::char_traits<wchar_t> >, std::__1::istreambuf_iterator<wchar_t, std::__1::char_traits<wchar_t> >, std::__1::ios_base&, unsigned int&, tm*) const::__fmt
PUBLIC 528d0 0 std::__1::time_get<wchar_t, std::__1::istreambuf_iterator<wchar_t, std::__1::char_traits<wchar_t> > >::do_get(std::__1::istreambuf_iterator<wchar_t, std::__1::char_traits<wchar_t> >, std::__1::istreambuf_iterator<wchar_t, std::__1::char_traits<wchar_t> >, std::__1::ios_base&, unsigned int&, tm*, char, char) const::__fm
PUBLIC 528f0 0 std::__1::time_get<wchar_t, std::__1::istreambuf_iterator<wchar_t, std::__1::char_traits<wchar_t> > >::do_get(std::__1::istreambuf_iterator<wchar_t, std::__1::char_traits<wchar_t> >, std::__1::istreambuf_iterator<wchar_t, std::__1::char_traits<wchar_t> >, std::__1::ios_base&, unsigned int&, tm*, char, char) const::__fm
PUBLIC 52910 0 std::__1::time_get<wchar_t, std::__1::istreambuf_iterator<wchar_t, std::__1::char_traits<wchar_t> > >::do_get(std::__1::istreambuf_iterator<wchar_t, std::__1::char_traits<wchar_t> >, std::__1::istreambuf_iterator<wchar_t, std::__1::char_traits<wchar_t> >, std::__1::ios_base&, unsigned int&, tm*, char, char) const::__fm
PUBLIC 52940 0 std::__1::time_get<wchar_t, std::__1::istreambuf_iterator<wchar_t, std::__1::char_traits<wchar_t> > >::do_get(std::__1::istreambuf_iterator<wchar_t, std::__1::char_traits<wchar_t> >, std::__1::istreambuf_iterator<wchar_t, std::__1::char_traits<wchar_t> >, std::__1::ios_base&, unsigned int&, tm*, char, char) const::__fm
PUBLIC 52960 0 std::__1::time_get<wchar_t, std::__1::istreambuf_iterator<wchar_t, std::__1::char_traits<wchar_t> > >::do_get(std::__1::istreambuf_iterator<wchar_t, std::__1::char_traits<wchar_t> >, std::__1::istreambuf_iterator<wchar_t, std::__1::char_traits<wchar_t> >, std::__1::ios_base&, unsigned int&, tm*, char, char) const::__fm
PUBLIC 52980 0 std::__1::moneypunct<char, false>::intl
PUBLIC 52981 0 std::__1::moneypunct<char, true>::intl
PUBLIC 52982 0 std::__1::moneypunct<wchar_t, false>::intl
PUBLIC 52983 0 std::__1::moneypunct<wchar_t, true>::intl
PUBLIC 52984 0 std::__1::money_get<char, std::__1::istreambuf_iterator<char, std::__1::char_traits<char> > >::do_get(std::__1::istreambuf_iterator<char, std::__1::char_traits<char> >, std::__1::istreambuf_iterator<char, std::__1::char_traits<char> >, bool, std::__1::ios_base&, unsigned int&, long double&) const::__src
PUBLIC 5298f 0 std::__1::money_get<wchar_t, std::__1::istreambuf_iterator<wchar_t, std::__1::char_traits<wchar_t> > >::do_get(std::__1::istreambuf_iterator<wchar_t, std::__1::char_traits<wchar_t> >, std::__1::istreambuf_iterator<wchar_t, std::__1::char_traits<wchar_t> >, bool, std::__1::ios_base&, unsigned int&, long double&) const::__src
PUBLIC 5299c 0 std::__1::locale::none
PUBLIC 529a0 0 std::__1::locale::collate
PUBLIC 529a4 0 std::__1::locale::ctype
PUBLIC 529a8 0 std::__1::locale::monetary
PUBLIC 529ac 0 std::__1::locale::numeric
PUBLIC 529b0 0 std::__1::locale::time
PUBLIC 529b4 0 std::__1::locale::messages
PUBLIC 529b8 0 std::__1::locale::all
PUBLIC 529bc 0 std::__1::ctype_base::space
PUBLIC 529c0 0 std::__1::ctype_base::print
PUBLIC 529c4 0 std::__1::ctype_base::cntrl
PUBLIC 529c8 0 std::__1::ctype_base::upper
PUBLIC 529cc 0 std::__1::ctype_base::lower
PUBLIC 529d0 0 std::__1::ctype_base::alpha
PUBLIC 529d4 0 std::__1::ctype_base::digit
PUBLIC 529d8 0 std::__1::ctype_base::punct
PUBLIC 529dc 0 std::__1::ctype_base::xdigit
PUBLIC 529e0 0 std::__1::ctype_base::blank
PUBLIC 529e4 0 std::__1::ctype_base::alnum
PUBLIC 529e8 0 std::__1::ctype_base::graph
PUBLIC 52af0 0 typeinfo name for std::__1::locale::facet
PUBLIC 52b10 0 typeinfo name for std::__1::ctype<wchar_t>
PUBLIC 52b30 0 typeinfo name for std::__1::ctype_base
PUBLIC 52b50 0 typeinfo name for std::__1::codecvt<char, char, __mbstate_t>
PUBLIC 52b80 0 typeinfo name for std::__1::codecvt_base
PUBLIC 52ba0 0 typeinfo name for std::__1::codecvt<char16_t, char, __mbstate_t>
PUBLIC 52bd0 0 typeinfo name for std::__1::codecvt<char32_t, char, __mbstate_t>
PUBLIC 52c00 0 typeinfo name for std::__1::__narrow_to_utf8<16ul>
PUBLIC 52c30 0 typeinfo name for std::__1::__narrow_to_utf8<32ul>
PUBLIC 52c60 0 typeinfo name for std::__1::__widen_from_utf8<16ul>
PUBLIC 52c90 0 typeinfo name for std::__1::__widen_from_utf8<32ul>
PUBLIC 52cc0 0 typeinfo name for std::__1::__codecvt_utf8<wchar_t>
PUBLIC 52ce0 0 typeinfo name for std::__1::codecvt<wchar_t, char, __mbstate_t>
PUBLIC 52d10 0 typeinfo name for std::__1::__codecvt_utf8<char16_t>
PUBLIC 52d30 0 typeinfo name for std::__1::__codecvt_utf8<char32_t>
PUBLIC 52d50 0 typeinfo name for std::__1::__codecvt_utf16<wchar_t, false>
PUBLIC 52d80 0 typeinfo name for std::__1::__codecvt_utf16<wchar_t, true>
PUBLIC 52db0 0 typeinfo name for std::__1::__codecvt_utf16<char16_t, false>
PUBLIC 52de0 0 typeinfo name for std::__1::__codecvt_utf16<char16_t, true>
PUBLIC 52e10 0 typeinfo name for std::__1::__codecvt_utf16<char32_t, false>
PUBLIC 52e40 0 typeinfo name for std::__1::__codecvt_utf16<char32_t, true>
PUBLIC 52e70 0 typeinfo name for std::__1::__codecvt_utf8_utf16<wchar_t>
PUBLIC 52ea0 0 typeinfo name for std::__1::__codecvt_utf8_utf16<char32_t>
PUBLIC 52ed0 0 typeinfo name for std::__1::__codecvt_utf8_utf16<char16_t>
PUBLIC 52f00 0 typeinfo name for std::__1::locale::__imp
PUBLIC 52f20 0 typeinfo name for std::__1::collate_byname<char>
PUBLIC 52f40 0 typeinfo name for std::__1::collate<char>
PUBLIC 52f60 0 typeinfo name for std::__1::collate_byname<wchar_t>
PUBLIC 52f80 0 typeinfo name for std::__1::collate<wchar_t>
PUBLIC 52fa0 0 typeinfo name for std::__1::ctype<char>
PUBLIC 52fc0 0 typeinfo name for std::__1::ctype_byname<char>
PUBLIC 52fe0 0 typeinfo name for std::__1::ctype_byname<wchar_t>
PUBLIC 53000 0 typeinfo name for std::__1::numpunct<char>
PUBLIC 53020 0 typeinfo name for std::__1::numpunct<wchar_t>
PUBLIC 53040 0 typeinfo name for std::__1::numpunct_byname<char>
PUBLIC 53060 0 typeinfo name for std::__1::numpunct_byname<wchar_t>
PUBLIC 53080 0 typeinfo name for std::__1::num_get<char, std::__1::istreambuf_iterator<char, std::__1::char_traits<char> > >
PUBLIC 530d0 0 typeinfo name for std::__1::__num_get<char>
PUBLIC 530f0 0 typeinfo name for std::__1::__num_get_base
PUBLIC 53110 0 typeinfo name for std::__1::num_get<wchar_t, std::__1::istreambuf_iterator<wchar_t, std::__1::char_traits<wchar_t> > >
PUBLIC 53160 0 typeinfo name for std::__1::__num_get<wchar_t>
PUBLIC 53180 0 typeinfo name for std::__1::num_put<char, std::__1::ostreambuf_iterator<char, std::__1::char_traits<char> > >
PUBLIC 531d0 0 typeinfo name for std::__1::__num_put<char>
PUBLIC 531f0 0 typeinfo name for std::__1::__num_put_base
PUBLIC 53210 0 typeinfo name for std::__1::num_put<wchar_t, std::__1::ostreambuf_iterator<wchar_t, std::__1::char_traits<wchar_t> > >
PUBLIC 53260 0 typeinfo name for std::__1::__num_put<wchar_t>
PUBLIC 53280 0 typeinfo name for std::__1::time_get<char, std::__1::istreambuf_iterator<char, std::__1::char_traits<char> > >
PUBLIC 532d0 0 typeinfo name for std::__1::time_base
PUBLIC 532f0 0 typeinfo name for std::__1::__time_get_c_storage<char>
PUBLIC 53320 0 typeinfo name for std::__1::time_get<wchar_t, std::__1::istreambuf_iterator<wchar_t, std::__1::char_traits<wchar_t> > >
PUBLIC 53370 0 typeinfo name for std::__1::__time_get_c_storage<wchar_t>
PUBLIC 533a0 0 typeinfo name for std::__1::time_get_byname<char, std::__1::istreambuf_iterator<char, std::__1::char_traits<char> > >
PUBLIC 533f0 0 typeinfo name for std::__1::__time_get_storage<char>
PUBLIC 53410 0 typeinfo name for std::__1::__time_get
PUBLIC 53430 0 typeinfo name for std::__1::time_get_byname<wchar_t, std::__1::istreambuf_iterator<wchar_t, std::__1::char_traits<wchar_t> > >
PUBLIC 53480 0 typeinfo name for std::__1::__time_get_storage<wchar_t>
PUBLIC 534a0 0 typeinfo name for std::__1::time_put<char, std::__1::ostreambuf_iterator<char, std::__1::char_traits<char> > >
PUBLIC 534f0 0 typeinfo name for std::__1::__time_put
PUBLIC 53510 0 typeinfo name for std::__1::time_put<wchar_t, std::__1::ostreambuf_iterator<wchar_t, std::__1::char_traits<wchar_t> > >
PUBLIC 53560 0 typeinfo name for std::__1::time_put_byname<char, std::__1::ostreambuf_iterator<char, std::__1::char_traits<char> > >
PUBLIC 535b0 0 typeinfo name for std::__1::time_put_byname<wchar_t, std::__1::ostreambuf_iterator<wchar_t, std::__1::char_traits<wchar_t> > >
PUBLIC 53600 0 typeinfo name for std::__1::moneypunct<char, false>
PUBLIC 53620 0 typeinfo name for std::__1::money_base
PUBLIC 53640 0 typeinfo name for std::__1::moneypunct<char, true>
PUBLIC 53660 0 typeinfo name for std::__1::moneypunct<wchar_t, false>
PUBLIC 53680 0 typeinfo name for std::__1::moneypunct<wchar_t, true>
PUBLIC 536a0 0 typeinfo name for std::__1::moneypunct_byname<char, false>
PUBLIC 536d0 0 typeinfo name for std::__1::moneypunct_byname<char, true>
PUBLIC 53700 0 typeinfo name for std::__1::moneypunct_byname<wchar_t, false>
PUBLIC 53730 0 typeinfo name for std::__1::moneypunct_byname<wchar_t, true>
PUBLIC 53760 0 typeinfo name for std::__1::money_get<char, std::__1::istreambuf_iterator<char, std::__1::char_traits<char> > >
PUBLIC 537b0 0 typeinfo name for std::__1::__money_get<char>
PUBLIC 537d0 0 typeinfo name for std::__1::money_get<wchar_t, std::__1::istreambuf_iterator<wchar_t, std::__1::char_traits<wchar_t> > >
PUBLIC 53820 0 typeinfo name for std::__1::__money_get<wchar_t>
PUBLIC 53840 0 typeinfo name for std::__1::money_put<char, std::__1::ostreambuf_iterator<char, std::__1::char_traits<char> > >
PUBLIC 53890 0 typeinfo name for std::__1::__money_put<char>
PUBLIC 538b0 0 typeinfo name for std::__1::money_put<wchar_t, std::__1::ostreambuf_iterator<wchar_t, std::__1::char_traits<wchar_t> > >
PUBLIC 53900 0 typeinfo name for std::__1::__money_put<wchar_t>
PUBLIC 53920 0 typeinfo name for std::__1::messages<char>
PUBLIC 53940 0 typeinfo name for std::__1::messages_base
PUBLIC 53960 0 typeinfo name for std::__1::messages<wchar_t>
PUBLIC 53980 0 typeinfo name for std::__1::messages_byname<char>
PUBLIC 539a0 0 typeinfo name for std::__1::messages_byname<wchar_t>
PUBLIC 539c0 0 typeinfo name for std::__1::codecvt_byname<char, char, __mbstate_t>
PUBLIC 539f0 0 typeinfo name for std::__1::codecvt_byname<wchar_t, char, __mbstate_t>
PUBLIC 53a20 0 typeinfo name for std::__1::codecvt_byname<char16_t, char, __mbstate_t>
PUBLIC 53a50 0 typeinfo name for std::__1::codecvt_byname<char32_t, char, __mbstate_t>
PUBLIC 53df0 0 typeinfo name for std::__1::__time_get_temp<char>
PUBLIC 53e10 0 typeinfo name for std::__1::__time_get_temp<wchar_t>
PUBLIC 53e30 0 std::__1::allocator_arg
PUBLIC 53e40 0 typeinfo name for std::__1::bad_weak_ptr
PUBLIC 53e60 0 typeinfo name for std::__1::__shared_count
PUBLIC 53e80 0 typeinfo name for std::__1::__shared_weak_count
PUBLIC 53e9e 0 std::__1::defer_lock
PUBLIC 53e9f 0 std::__1::try_to_lock
PUBLIC 53ea0 0 std::__1::adopt_lock
PUBLIC 53ea1 0 std::nothrow
PUBLIC 53eb0 0 typeinfo name for std::bad_any_cast
PUBLIC 53ed0 0 typeinfo name for std::experimental::fundamentals_v1::bad_any_cast
PUBLIC 53f10 0 typeinfo name for std::__1::regex_error
PUBLIC 53f50 0 std::__1::basic_string<char, std::__1::char_traits<char>, std::__1::allocator<char> >::npos
PUBLIC 53f58 0 std::__1::basic_string<wchar_t, std::__1::char_traits<wchar_t>, std::__1::allocator<wchar_t> >::npos
PUBLIC 53fe0 0 typeinfo name for std::__1::strstreambuf
PUBLIC 54000 0 typeinfo name for std::__1::istrstream
PUBLIC 54020 0 typeinfo name for std::__1::ostrstream
PUBLIC 54040 0 typeinfo name for std::__1::strstream
PUBLIC 54080 0 typeinfo name for std::__1::system_error
PUBLIC 540a0 0 typeinfo name for std::__1::error_category
PUBLIC 540c0 0 typeinfo name for std::__1::__do_message
PUBLIC 540e0 0 typeinfo name for std::__1::__generic_error_category
PUBLIC 54110 0 typeinfo name for std::__1::__system_error_category
PUBLIC 54132 0 std::__1::piecewise_construct
PUBLIC 54140 0 typeinfo name for std::experimental::bad_optional_access
PUBLIC 54170 0 typeinfo name for std::bad_optional_access
PUBLIC 54190 0 typeinfo name for std::bad_variant_access
PUBLIC 58510 0 vtable for std::nested_exception
PUBLIC 58530 0 typeinfo for std::nested_exception
PUBLIC 58540 0 vtable for std::__1::__future_error_category
PUBLIC 58588 0 vtable for std::__1::future_error
PUBLIC 585b0 0 typeinfo for std::__1::future_error
PUBLIC 585c8 0 vtable for std::__1::__assoc_sub_state
PUBLIC 58600 0 typeinfo for std::__1::__assoc_sub_state
PUBLIC 58620 0 typeinfo for std::__1::__future_error_category
PUBLIC 58640 0 vtable for std::__1::basic_ios<char, std::__1::char_traits<char> >
PUBLIC 58660 0 vtable for std::__1::basic_ios<wchar_t, std::__1::char_traits<wchar_t> >
PUBLIC 58680 0 vtable for std::__1::basic_streambuf<char, std::__1::char_traits<char> >
PUBLIC 58700 0 vtable for std::__1::basic_streambuf<wchar_t, std::__1::char_traits<wchar_t> >
PUBLIC 58780 0 vtable for std::__1::basic_istream<char, std::__1::char_traits<char> >
PUBLIC 587d0 0 VTT for std::__1::basic_istream<char, std::__1::char_traits<char> >
PUBLIC 587e0 0 vtable for std::__1::basic_istream<wchar_t, std::__1::char_traits<wchar_t> >
PUBLIC 58830 0 VTT for std::__1::basic_istream<wchar_t, std::__1::char_traits<wchar_t> >
PUBLIC 58840 0 vtable for std::__1::basic_ostream<char, std::__1::char_traits<char> >
PUBLIC 58890 0 VTT for std::__1::basic_ostream<char, std::__1::char_traits<char> >
PUBLIC 588a0 0 vtable for std::__1::basic_ostream<wchar_t, std::__1::char_traits<wchar_t> >
PUBLIC 588f0 0 VTT for std::__1::basic_ostream<wchar_t, std::__1::char_traits<wchar_t> >
PUBLIC 58900 0 vtable for std::__1::basic_iostream<char, std::__1::char_traits<char> >
PUBLIC 58980 0 VTT for std::__1::basic_iostream<char, std::__1::char_traits<char> >
PUBLIC 589b8 0 vtable for std::__1::__iostream_category
PUBLIC 58a00 0 vtable for std::__1::ios_base::failure
PUBLIC 58a28 0 vtable for std::__1::ios_base
PUBLIC 58a50 0 typeinfo for std::__1::ios_base::failure
PUBLIC 58a68 0 typeinfo for std::__1::ios_base
PUBLIC 58a80 0 typeinfo for std::__1::basic_ios<char, std::__1::char_traits<char> >
PUBLIC 58aa0 0 typeinfo for std::__1::basic_ios<wchar_t, std::__1::char_traits<wchar_t> >
PUBLIC 58ab8 0 typeinfo for std::__1::basic_streambuf<char, std::__1::char_traits<char> >
PUBLIC 58ac8 0 typeinfo for std::__1::basic_streambuf<wchar_t, std::__1::char_traits<wchar_t> >
PUBLIC 58ae0 0 typeinfo for std::__1::basic_istream<char, std::__1::char_traits<char> >
PUBLIC 58b10 0 typeinfo for std::__1::basic_istream<wchar_t, std::__1::char_traits<wchar_t> >
PUBLIC 58b40 0 typeinfo for std::__1::basic_ostream<char, std::__1::char_traits<char> >
PUBLIC 58b70 0 typeinfo for std::__1::basic_ostream<wchar_t, std::__1::char_traits<wchar_t> >
PUBLIC 58ba0 0 construction vtable for std::__1::basic_istream<char, std::__1::char_traits<char> >-in-std::__1::basic_iostream<char, std::__1::char_traits<char> >
PUBLIC 58bf0 0 construction vtable for std::__1::basic_ostream<char, std::__1::char_traits<char> >-in-std::__1::basic_iostream<char, std::__1::char_traits<char> >
PUBLIC 58c40 0 typeinfo for std::__1::basic_iostream<char, std::__1::char_traits<char> >
PUBLIC 58c80 0 typeinfo for std::__1::__iostream_category
PUBLIC 58ca0 0 vtable for std::__1::__stdinbuf<char>
PUBLIC 58d20 0 typeinfo for std::__1::__stdinbuf<char>
PUBLIC 58d38 0 vtable for std::__1::__stdinbuf<wchar_t>
PUBLIC 58dc0 0 typeinfo for std::__1::__stdinbuf<wchar_t>
PUBLIC 58dd8 0 vtable for std::__1::__stdoutbuf<char>
PUBLIC 58e60 0 typeinfo for std::__1::__stdoutbuf<char>
PUBLIC 58e78 0 vtable for std::__1::__stdoutbuf<wchar_t>
PUBLIC 58f00 0 typeinfo for std::__1::__stdoutbuf<wchar_t>
PUBLIC 58f20 0 vtable for std::__1::collate<char>
PUBLIC 58f60 0 vtable for std::__1::collate<wchar_t>
PUBLIC 58fa0 0 vtable for std::__1::num_get<char, std::__1::istreambuf_iterator<char, std::__1::char_traits<char> > >
PUBLIC 59020 0 vtable for std::__1::num_get<wchar_t, std::__1::istreambuf_iterator<wchar_t, std::__1::char_traits<wchar_t> > >
PUBLIC 590a0 0 vtable for std::__1::num_put<char, std::__1::ostreambuf_iterator<char, std::__1::char_traits<char> > >
PUBLIC 59108 0 vtable for std::__1::num_put<wchar_t, std::__1::ostreambuf_iterator<wchar_t, std::__1::char_traits<wchar_t> > >
PUBLIC 59170 0 vtable for std::__1::time_get<char, std::__1::istreambuf_iterator<char, std::__1::char_traits<char> > >
PUBLIC 59218 0 vtable for std::__1::time_get<wchar_t, std::__1::istreambuf_iterator<wchar_t, std::__1::char_traits<wchar_t> > >
PUBLIC 592c0 0 vtable for std::__1::time_get_byname<char, std::__1::istreambuf_iterator<char, std::__1::char_traits<char> > >
PUBLIC 593a0 0 vtable for std::__1::time_get_byname<wchar_t, std::__1::istreambuf_iterator<wchar_t, std::__1::char_traits<wchar_t> > >
PUBLIC 59480 0 vtable for std::__1::time_put<char, std::__1::ostreambuf_iterator<char, std::__1::char_traits<char> > >
PUBLIC 594b0 0 vtable for std::__1::time_put<wchar_t, std::__1::ostreambuf_iterator<wchar_t, std::__1::char_traits<wchar_t> > >
PUBLIC 594e0 0 vtable for std::__1::time_put_byname<char, std::__1::ostreambuf_iterator<char, std::__1::char_traits<char> > >
PUBLIC 59510 0 vtable for std::__1::time_put_byname<wchar_t, std::__1::ostreambuf_iterator<wchar_t, std::__1::char_traits<wchar_t> > >
PUBLIC 59540 0 vtable for std::__1::moneypunct<char, false>
PUBLIC 595b0 0 vtable for std::__1::moneypunct<char, true>
PUBLIC 59620 0 vtable for std::__1::moneypunct<wchar_t, false>
PUBLIC 59690 0 vtable for std::__1::moneypunct<wchar_t, true>
PUBLIC 59700 0 vtable for std::__1::moneypunct_byname<char, false>
PUBLIC 59770 0 vtable for std::__1::moneypunct_byname<char, true>
PUBLIC 597e0 0 vtable for std::__1::moneypunct_byname<wchar_t, false>
PUBLIC 59850 0 vtable for std::__1::moneypunct_byname<wchar_t, true>
PUBLIC 598c0 0 vtable for std::__1::money_get<char, std::__1::istreambuf_iterator<char, std::__1::char_traits<char> > >
PUBLIC 598f8 0 vtable for std::__1::money_get<wchar_t, std::__1::istreambuf_iterator<wchar_t, std::__1::char_traits<wchar_t> > >
PUBLIC 59930 0 vtable for std::__1::money_put<char, std::__1::ostreambuf_iterator<char, std::__1::char_traits<char> > >
PUBLIC 59968 0 vtable for std::__1::money_put<wchar_t, std::__1::ostreambuf_iterator<wchar_t, std::__1::char_traits<wchar_t> > >
PUBLIC 599a0 0 vtable for std::__1::messages<char>
PUBLIC 599e0 0 vtable for std::__1::messages<wchar_t>
PUBLIC 59a20 0 vtable for std::__1::messages_byname<char>
PUBLIC 59a60 0 vtable for std::__1::messages_byname<wchar_t>
PUBLIC 59aa0 0 vtable for std::__1::codecvt_byname<char, char, __mbstate_t>
PUBLIC 59b00 0 vtable for std::__1::codecvt_byname<wchar_t, char, __mbstate_t>
PUBLIC 59b60 0 vtable for std::__1::codecvt_byname<char16_t, char, __mbstate_t>
PUBLIC 59bc0 0 vtable for std::__1::codecvt_byname<char32_t, char, __mbstate_t>
PUBLIC 59c20 0 vtable for std::__1::locale::__imp
PUBLIC 59c48 0 vtable for std::__1::collate_byname<char>
PUBLIC 59c88 0 vtable for std::__1::collate_byname<wchar_t>
PUBLIC 59cc8 0 vtable for std::__1::ctype<char>
PUBLIC 59d30 0 vtable for std::__1::ctype_byname<char>
PUBLIC 59d98 0 vtable for std::__1::ctype_byname<wchar_t>
PUBLIC 59e20 0 vtable for std::__1::codecvt<wchar_t, char, __mbstate_t>
PUBLIC 59e80 0 vtable for std::__1::numpunct<char>
PUBLIC 59ed0 0 vtable for std::__1::numpunct<wchar_t>
PUBLIC 59f20 0 vtable for std::__1::numpunct_byname<char>
PUBLIC 59f70 0 vtable for std::__1::numpunct_byname<wchar_t>
PUBLIC 59fc0 0 vtable for std::__1::locale::facet
PUBLIC 59ff0 0 typeinfo for std::__1::locale::facet
PUBLIC 5a008 0 vtable for std::__1::ctype<wchar_t>
PUBLIC 5a090 0 typeinfo for std::__1::ctype_base
PUBLIC 5a0a0 0 typeinfo for std::__1::ctype<wchar_t>
PUBLIC 5a0d8 0 vtable for std::__1::codecvt<char, char, __mbstate_t>
PUBLIC 5a138 0 typeinfo for std::__1::codecvt_base
PUBLIC 5a150 0 typeinfo for std::__1::codecvt<char, char, __mbstate_t>
PUBLIC 5a188 0 vtable for std::__1::codecvt<char16_t, char, __mbstate_t>
PUBLIC 5a1f0 0 typeinfo for std::__1::codecvt<char16_t, char, __mbstate_t>
PUBLIC 5a228 0 vtable for std::__1::codecvt<char32_t, char, __mbstate_t>
PUBLIC 5a290 0 typeinfo for std::__1::codecvt<char32_t, char, __mbstate_t>
PUBLIC 5a2c8 0 vtable for std::__1::__narrow_to_utf8<16ul>
PUBLIC 5a330 0 typeinfo for std::__1::__narrow_to_utf8<16ul>
PUBLIC 5a348 0 vtable for std::__1::__narrow_to_utf8<32ul>
PUBLIC 5a3b0 0 typeinfo for std::__1::__narrow_to_utf8<32ul>
PUBLIC 5a3c8 0 vtable for std::__1::__widen_from_utf8<16ul>
PUBLIC 5a430 0 typeinfo for std::__1::__widen_from_utf8<16ul>
PUBLIC 5a448 0 vtable for std::__1::__widen_from_utf8<32ul>
PUBLIC 5a4b0 0 typeinfo for std::__1::__widen_from_utf8<32ul>
PUBLIC 5a4c8 0 vtable for std::__1::__codecvt_utf8<wchar_t>
PUBLIC 5a530 0 typeinfo for std::__1::codecvt<wchar_t, char, __mbstate_t>
PUBLIC 5a570 0 typeinfo for std::__1::__codecvt_utf8<wchar_t>
PUBLIC 5a588 0 vtable for std::__1::__codecvt_utf8<char16_t>
PUBLIC 5a5f0 0 typeinfo for std::__1::__codecvt_utf8<char16_t>
PUBLIC 5a608 0 vtable for std::__1::__codecvt_utf8<char32_t>
PUBLIC 5a670 0 typeinfo for std::__1::__codecvt_utf8<char32_t>
PUBLIC 5a688 0 vtable for std::__1::__codecvt_utf16<wchar_t, false>
PUBLIC 5a6f0 0 typeinfo for std::__1::__codecvt_utf16<wchar_t, false>
PUBLIC 5a708 0 vtable for std::__1::__codecvt_utf16<wchar_t, true>
PUBLIC 5a770 0 typeinfo for std::__1::__codecvt_utf16<wchar_t, true>
PUBLIC 5a788 0 vtable for std::__1::__codecvt_utf16<char16_t, false>
PUBLIC 5a7f0 0 typeinfo for std::__1::__codecvt_utf16<char16_t, false>
PUBLIC 5a808 0 vtable for std::__1::__codecvt_utf16<char16_t, true>
PUBLIC 5a870 0 typeinfo for std::__1::__codecvt_utf16<char16_t, true>
PUBLIC 5a888 0 vtable for std::__1::__codecvt_utf16<char32_t, false>
PUBLIC 5a8f0 0 typeinfo for std::__1::__codecvt_utf16<char32_t, false>
PUBLIC 5a908 0 vtable for std::__1::__codecvt_utf16<char32_t, true>
PUBLIC 5a970 0 typeinfo for std::__1::__codecvt_utf16<char32_t, true>
PUBLIC 5a988 0 vtable for std::__1::__codecvt_utf8_utf16<wchar_t>
PUBLIC 5a9f0 0 typeinfo for std::__1::__codecvt_utf8_utf16<wchar_t>
PUBLIC 5aa08 0 vtable for std::__1::__codecvt_utf8_utf16<char32_t>
PUBLIC 5aa70 0 typeinfo for std::__1::__codecvt_utf8_utf16<char32_t>
PUBLIC 5aa88 0 vtable for std::__1::__codecvt_utf8_utf16<char16_t>
PUBLIC 5aaf0 0 typeinfo for std::__1::__codecvt_utf8_utf16<char16_t>
PUBLIC 5ab10 0 typeinfo for std::__1::locale::__imp
PUBLIC 5ab30 0 typeinfo for std::__1::collate<char>
PUBLIC 5ab50 0 typeinfo for std::__1::collate_byname<char>
PUBLIC 5ab70 0 typeinfo for std::__1::collate<wchar_t>
PUBLIC 5ab90 0 typeinfo for std::__1::collate_byname<wchar_t>
PUBLIC 5abb0 0 typeinfo for std::__1::ctype<char>
PUBLIC 5abf0 0 typeinfo for std::__1::ctype_byname<char>
PUBLIC 5ac10 0 typeinfo for std::__1::ctype_byname<wchar_t>
PUBLIC 5ac30 0 typeinfo for std::__1::numpunct<char>
PUBLIC 5ac50 0 typeinfo for std::__1::numpunct<wchar_t>
PUBLIC 5ac70 0 typeinfo for std::__1::numpunct_byname<char>
PUBLIC 5ac90 0 typeinfo for std::__1::numpunct_byname<wchar_t>
PUBLIC 5aca8 0 typeinfo for std::__1::__num_get_base
PUBLIC 5acc0 0 typeinfo for std::__1::__num_get<char>
PUBLIC 5acf0 0 typeinfo for std::__1::num_get<char, std::__1::istreambuf_iterator<char, std::__1::char_traits<char> > >
PUBLIC 5ad30 0 typeinfo for std::__1::__num_get<wchar_t>
PUBLIC 5ad60 0 typeinfo for std::__1::num_get<wchar_t, std::__1::istreambuf_iterator<wchar_t, std::__1::char_traits<wchar_t> > >
PUBLIC 5ad98 0 typeinfo for std::__1::__num_put_base
PUBLIC 5adb0 0 typeinfo for std::__1::__num_put<char>
PUBLIC 5ade0 0 typeinfo for std::__1::num_put<char, std::__1::ostreambuf_iterator<char, std::__1::char_traits<char> > >
PUBLIC 5ae20 0 typeinfo for std::__1::__num_put<wchar_t>
PUBLIC 5ae50 0 typeinfo for std::__1::num_put<wchar_t, std::__1::ostreambuf_iterator<wchar_t, std::__1::char_traits<wchar_t> > >
PUBLIC 5ae88 0 typeinfo for std::__1::time_base
PUBLIC 5ae98 0 typeinfo for std::__1::__time_get_c_storage<char>
PUBLIC 5aeb0 0 typeinfo for std::__1::time_get<char, std::__1::istreambuf_iterator<char, std::__1::char_traits<char> > >
PUBLIC 5aef8 0 typeinfo for std::__1::__time_get_c_storage<wchar_t>
PUBLIC 5af10 0 typeinfo for std::__1::time_get<wchar_t, std::__1::istreambuf_iterator<wchar_t, std::__1::char_traits<wchar_t> > >
PUBLIC 5af58 0 typeinfo for std::__1::__time_get
PUBLIC 5af70 0 typeinfo for std::__1::__time_get_storage<char>
PUBLIC 5af90 0 typeinfo for std::__1::time_get_byname<char, std::__1::istreambuf_iterator<char, std::__1::char_traits<char> > >
PUBLIC 5afd0 0 typeinfo for std::__1::__time_get_storage<wchar_t>
PUBLIC 5aff0 0 typeinfo for std::__1::time_get_byname<wchar_t, std::__1::istreambuf_iterator<wchar_t, std::__1::char_traits<wchar_t> > >
PUBLIC 5b028 0 typeinfo for std::__1::__time_put
PUBLIC 5b040 0 typeinfo for std::__1::time_put<char, std::__1::ostreambuf_iterator<char, std::__1::char_traits<char> > >
PUBLIC 5b080 0 typeinfo for std::__1::time_put<wchar_t, std::__1::ostreambuf_iterator<wchar_t, std::__1::char_traits<wchar_t> > >
PUBLIC 5b0c0 0 typeinfo for std::__1::time_put_byname<char, std::__1::ostreambuf_iterator<char, std::__1::char_traits<char> > >
PUBLIC 5b0e0 0 typeinfo for std::__1::time_put_byname<wchar_t, std::__1::ostreambuf_iterator<wchar_t, std::__1::char_traits<wchar_t> > >
PUBLIC 5b0f8 0 typeinfo for std::__1::money_base
PUBLIC 5b110 0 typeinfo for std::__1::moneypunct<char, false>
PUBLIC 5b150 0 typeinfo for std::__1::moneypunct<char, true>
PUBLIC 5b190 0 typeinfo for std::__1::moneypunct<wchar_t, false>
PUBLIC 5b1d0 0 typeinfo for std::__1::moneypunct<wchar_t, true>
PUBLIC 5b210 0 typeinfo for std::__1::moneypunct_byname<char, false>
PUBLIC 5b230 0 typeinfo for std::__1::moneypunct_byname<char, true>
PUBLIC 5b250 0 typeinfo for std::__1::moneypunct_byname<wchar_t, false>
PUBLIC 5b270 0 typeinfo for std::__1::moneypunct_byname<wchar_t, true>
PUBLIC 5b288 0 typeinfo for std::__1::__money_get<char>
PUBLIC 5b2a0 0 typeinfo for std::__1::money_get<char, std::__1::istreambuf_iterator<char, std::__1::char_traits<char> > >
PUBLIC 5b2d8 0 typeinfo for std::__1::__money_get<wchar_t>
PUBLIC 5b2f0 0 typeinfo for std::__1::money_get<wchar_t, std::__1::istreambuf_iterator<wchar_t, std::__1::char_traits<wchar_t> > >
PUBLIC 5b328 0 typeinfo for std::__1::__money_put<char>
PUBLIC 5b340 0 typeinfo for std::__1::money_put<char, std::__1::ostreambuf_iterator<char, std::__1::char_traits<char> > >
PUBLIC 5b378 0 typeinfo for std::__1::__money_put<wchar_t>
PUBLIC 5b390 0 typeinfo for std::__1::money_put<wchar_t, std::__1::ostreambuf_iterator<wchar_t, std::__1::char_traits<wchar_t> > >
PUBLIC 5b3c8 0 typeinfo for std::__1::messages_base
PUBLIC 5b3e0 0 typeinfo for std::__1::messages<char>
PUBLIC 5b420 0 typeinfo for std::__1::messages<wchar_t>
PUBLIC 5b460 0 typeinfo for std::__1::messages_byname<char>
PUBLIC 5b480 0 typeinfo for std::__1::messages_byname<wchar_t>
PUBLIC 5b4a0 0 typeinfo for std::__1::codecvt_byname<char, char, __mbstate_t>
PUBLIC 5b4c0 0 typeinfo for std::__1::codecvt_byname<wchar_t, char, __mbstate_t>
PUBLIC 5b4e0 0 typeinfo for std::__1::codecvt_byname<char16_t, char, __mbstate_t>
PUBLIC 5b500 0 typeinfo for std::__1::codecvt_byname<char32_t, char, __mbstate_t>
PUBLIC 5b518 0 vtable for std::__1::__time_get_temp<char>
PUBLIC 5b580 0 typeinfo for std::__1::__time_get_temp<char>
PUBLIC 5b598 0 vtable for std::__1::__time_get_temp<wchar_t>
PUBLIC 5b620 0 typeinfo for std::__1::__time_get_temp<wchar_t>
PUBLIC 5b640 0 vtable for std::__1::bad_weak_ptr
PUBLIC 5b670 0 typeinfo for std::__1::bad_weak_ptr
PUBLIC 5b688 0 vtable for std::__1::__shared_count
PUBLIC 5b6b0 0 typeinfo for std::__1::__shared_count
PUBLIC 5b6c0 0 vtable for std::__1::__shared_weak_count
PUBLIC 5b700 0 typeinfo for std::__1::__shared_weak_count
PUBLIC 5b730 0 vtable for std::bad_any_cast
PUBLIC 5b760 0 typeinfo for std::bad_any_cast
PUBLIC 5b778 0 vtable for std::experimental::fundamentals_v1::bad_any_cast
PUBLIC 5b7a0 0 typeinfo for std::experimental::fundamentals_v1::bad_any_cast
PUBLIC 5b7c0 0 vtable for std::__1::regex_error
PUBLIC 5b7f0 0 std::__1::(anonymous namespace)::collatenames
PUBLIC 5bee0 0 std::__1::(anonymous namespace)::ClassNames
PUBLIC 5bfd0 0 typeinfo for std::__1::regex_error
PUBLIC 5c070 0 vtable for std::__1::strstreambuf
PUBLIC 5c0f0 0 vtable for std::__1::istrstream
PUBLIC 5c140 0 VTT for std::__1::istrstream
PUBLIC 5c160 0 vtable for std::__1::ostrstream
PUBLIC 5c1b0 0 VTT for std::__1::ostrstream
PUBLIC 5c1d0 0 vtable for std::__1::strstream
PUBLIC 5c250 0 VTT for std::__1::strstream
PUBLIC 5c2a0 0 typeinfo for std::__1::strstreambuf
PUBLIC 5c2c0 0 construction vtable for std::__1::basic_istream<char, std::__1::char_traits<char> >-in-std::__1::istrstream
PUBLIC 5c310 0 typeinfo for std::__1::istrstream
PUBLIC 5c330 0 construction vtable for std::__1::basic_ostream<char, std::__1::char_traits<char> >-in-std::__1::ostrstream
PUBLIC 5c380 0 typeinfo for std::__1::ostrstream
PUBLIC 5c3a0 0 construction vtable for std::__1::basic_iostream<char, std::__1::char_traits<char> >-in-std::__1::strstream
PUBLIC 5c420 0 construction vtable for std::__1::basic_istream<char, std::__1::char_traits<char> >-in-std::__1::strstream
PUBLIC 5c470 0 construction vtable for std::__1::basic_ostream<char, std::__1::char_traits<char> >-in-std::__1::strstream
PUBLIC 5c4c0 0 typeinfo for std::__1::strstream
PUBLIC 5c4e0 0 vtable for std::__1::error_category
PUBLIC 5c528 0 vtable for std::__1::system_error
PUBLIC 5c550 0 typeinfo for std::__1::system_error
PUBLIC 5c568 0 typeinfo for std::__1::error_category
PUBLIC 5c578 0 vtable for std::__1::__do_message
PUBLIC 5c5c0 0 typeinfo for std::__1::__do_message
PUBLIC 5c5d8 0 vtable for std::__1::__generic_error_category
PUBLIC 5c620 0 typeinfo for std::__1::__generic_error_category
PUBLIC 5c638 0 vtable for std::__1::__system_error_category
PUBLIC 5c680 0 typeinfo for std::__1::__system_error_category
PUBLIC 5c6a0 0 vtable for std::experimental::bad_optional_access
PUBLIC 5c6d0 0 typeinfo for std::experimental::bad_optional_access
PUBLIC 5c6e8 0 vtable for std::bad_optional_access
PUBLIC 5c710 0 typeinfo for std::bad_optional_access
PUBLIC 5c730 0 vtable for std::bad_variant_access
PUBLIC 5c760 0 typeinfo for std::bad_variant_access
PUBLIC 5d000 0 std::__1::__rs_mut
PUBLIC 5d040 0 std::__1::future_category()::__f
PUBLIC 5d048 0 std::__1::iostream_category()::s
PUBLIC 5d050 0 std::__1::ios_base::sync_with_stdio(bool)::previous_state
PUBLIC 5d058 0 std::__1::collate<char>::id
PUBLIC 5d068 0 std::__1::collate<wchar_t>::id
PUBLIC 5d078 0 std::__1::num_get<char, std::__1::istreambuf_iterator<char, std::__1::char_traits<char> > >::id
PUBLIC 5d088 0 std::__1::num_get<wchar_t, std::__1::istreambuf_iterator<wchar_t, std::__1::char_traits<wchar_t> > >::id
PUBLIC 5d098 0 std::__1::num_put<char, std::__1::ostreambuf_iterator<char, std::__1::char_traits<char> > >::id
PUBLIC 5d0a8 0 std::__1::num_put<wchar_t, std::__1::ostreambuf_iterator<wchar_t, std::__1::char_traits<wchar_t> > >::id
PUBLIC 5d0b8 0 std::__1::time_get<char, std::__1::istreambuf_iterator<char, std::__1::char_traits<char> > >::id
PUBLIC 5d0c8 0 std::__1::time_get<wchar_t, std::__1::istreambuf_iterator<wchar_t, std::__1::char_traits<wchar_t> > >::id
PUBLIC 5d0d8 0 std::__1::time_put<char, std::__1::ostreambuf_iterator<char, std::__1::char_traits<char> > >::id
PUBLIC 5d0e8 0 std::__1::time_put<wchar_t, std::__1::ostreambuf_iterator<wchar_t, std::__1::char_traits<wchar_t> > >::id
PUBLIC 5d0f8 0 std::__1::moneypunct<char, false>::id
PUBLIC 5d108 0 std::__1::moneypunct<char, true>::id
PUBLIC 5d118 0 std::__1::moneypunct<wchar_t, false>::id
PUBLIC 5d128 0 std::__1::moneypunct<wchar_t, true>::id
PUBLIC 5d138 0 std::__1::money_get<char, std::__1::istreambuf_iterator<char, std::__1::char_traits<char> > >::id
PUBLIC 5d148 0 std::__1::money_get<wchar_t, std::__1::istreambuf_iterator<wchar_t, std::__1::char_traits<wchar_t> > >::id
PUBLIC 5d158 0 std::__1::money_put<char, std::__1::ostreambuf_iterator<char, std::__1::char_traits<char> > >::id
PUBLIC 5d168 0 std::__1::money_put<wchar_t, std::__1::ostreambuf_iterator<wchar_t, std::__1::char_traits<wchar_t> > >::id
PUBLIC 5d178 0 std::__1::messages<char>::id
PUBLIC 5d188 0 std::__1::messages<wchar_t>::id
PUBLIC 5d1a0 0 std::__1::mut_back
PUBLIC 5d5a0 0 std::__1::mut
PUBLIC 5d5e0 0 std::__1::cv
PUBLIC 5d610 0 std::__1::__rs_default::__c_
PUBLIC 5d614 0 std::__1::ios_base::__xindex_
PUBLIC 5d620 0 std::__1::cin
PUBLIC 5d6c8 0 std::__1::wcin
PUBLIC 5d770 0 std::__1::cout
PUBLIC 5d810 0 std::__1::wcout
PUBLIC 5d8b0 0 std::__1::cerr
PUBLIC 5d950 0 std::__1::wcerr
PUBLIC 5d9f0 0 std::__1::clog
PUBLIC 5da90 0 std::__1::wclog
PUBLIC 5db30 0 std::__1::__start_std_streams
PUBLIC 5db38 0 std::__1::locale::id::__next_id
PUBLIC 5db40 0 std::__1::ctype<wchar_t>::id
PUBLIC 5db50 0 std::__1::ctype<char>::id
PUBLIC 5db60 0 std::__1::codecvt<char, char, __mbstate_t>::id
PUBLIC 5db70 0 std::__1::codecvt<wchar_t, char, __mbstate_t>::id
PUBLIC 5db80 0 std::__1::codecvt<char16_t, char, __mbstate_t>::id
PUBLIC 5db90 0 std::__1::codecvt<char32_t, char, __mbstate_t>::id
PUBLIC 5dba0 0 std::__1::numpunct<char>::id
PUBLIC 5dbb0 0 std::__1::numpunct<wchar_t>::id
PUBLIC 5dbc0 0 std::__1::__rs_default::operator()()::__rs_g
PUBLIC 5e588 0 guard variable for std::__1::__rs_default::operator()()::__rs_g
PUBLIC 5e590 0 guard variable for std::__1::future_category()::__f
PUBLIC 5e598 0 guard variable for std::__1::iostream_category()::s
PUBLIC 5e5a0 0 std::__1::ios_base::iword(int)::error
PUBLIC 5e5a8 0 std::__1::ios_base::pword(int)::error
PUBLIC 5e5b0 0 std::__1::__cin
PUBLIC 5e618 0 std::__1::mb_cin
PUBLIC 5e698 0 std::__1::__wcin
PUBLIC 5e700 0 std::__1::mb_wcin
PUBLIC 5e780 0 std::__1::__cout
PUBLIC 5e7e0 0 std::__1::mb_cout
PUBLIC 5e860 0 std::__1::__wcout
PUBLIC 5e8c0 0 std::__1::mb_wcout
PUBLIC 5e940 0 std::__1::__cerr
PUBLIC 5e9a0 0 std::__1::mb_cerr
PUBLIC 5ea20 0 std::__1::__wcerr
PUBLIC 5ea80 0 std::__1::mb_wcerr
PUBLIC 5eb00 0 std::__1::locale::__imp::make_classic()::buf
PUBLIC 5eb08 0 std::__1::locale::classic()::c
PUBLIC 5eb10 0 guard variable for std::__1::locale::classic()::c
PUBLIC 5eb18 0 std::__1::locale::__imp::make_global()::buf
PUBLIC 5eb20 0 std::__1::locale::__global()::g
PUBLIC 5eb28 0 guard variable for std::__1::locale::__global()::g
PUBLIC 5eb30 0 std::__1::__time_get_c_storage<char>::__weeks() const::weeks
PUBLIC 5eb38 0 guard variable for std::__1::__time_get_c_storage<char>::__weeks() const::weeks
PUBLIC 5eb40 0 std::__1::__time_get_c_storage<wchar_t>::__weeks() const::weeks
PUBLIC 5eb48 0 guard variable for std::__1::__time_get_c_storage<wchar_t>::__weeks() const::weeks
PUBLIC 5eb50 0 std::__1::__time_get_c_storage<char>::__months() const::months
PUBLIC 5eb58 0 guard variable for std::__1::__time_get_c_storage<char>::__months() const::months
PUBLIC 5eb60 0 std::__1::__time_get_c_storage<wchar_t>::__months() const::months
PUBLIC 5eb68 0 guard variable for std::__1::__time_get_c_storage<wchar_t>::__months() const::months
PUBLIC 5eb70 0 std::__1::__time_get_c_storage<char>::__am_pm() const::am_pm
PUBLIC 5eb78 0 guard variable for std::__1::__time_get_c_storage<char>::__am_pm() const::am_pm
PUBLIC 5eb80 0 std::__1::__time_get_c_storage<wchar_t>::__am_pm() const::am_pm
PUBLIC 5eb88 0 guard variable for std::__1::__time_get_c_storage<wchar_t>::__am_pm() const::am_pm
PUBLIC 5eb90 0 std::__1::__time_get_c_storage<char>::__x() const::s
PUBLIC 5eba8 0 guard variable for std::__1::__time_get_c_storage<char>::__x() const::s
PUBLIC 5ebb0 0 std::__1::__time_get_c_storage<wchar_t>::__x() const::s
PUBLIC 5ebc8 0 guard variable for std::__1::__time_get_c_storage<wchar_t>::__x() const::s
PUBLIC 5ebd0 0 std::__1::__time_get_c_storage<char>::__X() const::s
PUBLIC 5ebe8 0 guard variable for std::__1::__time_get_c_storage<char>::__X() const::s
PUBLIC 5ebf0 0 std::__1::__time_get_c_storage<wchar_t>::__X() const::s
PUBLIC 5ec08 0 guard variable for std::__1::__time_get_c_storage<wchar_t>::__X() const::s
PUBLIC 5ec10 0 std::__1::__time_get_c_storage<char>::__c() const::s
PUBLIC 5ec28 0 guard variable for std::__1::__time_get_c_storage<char>::__c() const::s
PUBLIC 5ec30 0 std::__1::__time_get_c_storage<wchar_t>::__c() const::s
PUBLIC 5ec48 0 guard variable for std::__1::__time_get_c_storage<wchar_t>::__c() const::s
PUBLIC 5ec50 0 std::__1::__time_get_c_storage<char>::__r() const::s
PUBLIC 5ec68 0 guard variable for std::__1::__time_get_c_storage<char>::__r() const::s
PUBLIC 5ec70 0 std::__1::__time_get_c_storage<wchar_t>::__r() const::s
PUBLIC 5ec88 0 guard variable for std::__1::__time_get_c_storage<wchar_t>::__r() const::s
PUBLIC 5ec90 0 std::__1::init_weeks()::weeks
PUBLIC 5ede0 0 guard variable for std::__1::init_weeks()::weeks
PUBLIC 5edf0 0 std::__1::init_wweeks()::weeks
PUBLIC 5ef40 0 guard variable for std::__1::init_wweeks()::weeks
PUBLIC 5ef50 0 std::__1::init_months()::months
PUBLIC 5f190 0 guard variable for std::__1::init_months()::months
PUBLIC 5f1a0 0 std::__1::init_wmonths()::months
PUBLIC 5f3e0 0 guard variable for std::__1::init_wmonths()::months
PUBLIC 5f3f0 0 std::__1::init_am_pm()::am_pm
PUBLIC 5f630 0 guard variable for std::__1::init_am_pm()::am_pm
PUBLIC 5f640 0 std::__1::init_wam_pm()::am_pm
PUBLIC 5f880 0 guard variable for std::__1::init_wam_pm()::am_pm
PUBLIC 5f890 0 std::__1::collate<char>& std::__1::(anonymous namespace)::make<std::__1::collate<char>, unsigned int>(unsigned int)::buf
PUBLIC 5f8a0 0 std::__1::collate<wchar_t>& std::__1::(anonymous namespace)::make<std::__1::collate<wchar_t>, unsigned int>(unsigned int)::buf
PUBLIC 5f8b0 0 std::__1::ctype<char>& std::__1::(anonymous namespace)::make<std::__1::ctype<char>, std::nullptr_t, bool, unsigned int>(std::nullptr_t, bool, unsigned int)::buf
PUBLIC 5f8d0 0 std::__1::ctype<wchar_t>& std::__1::(anonymous namespace)::make<std::__1::ctype<wchar_t>, unsigned int>(unsigned int)::buf
PUBLIC 5f8e0 0 std::__1::codecvt<char, char, __mbstate_t>& std::__1::(anonymous namespace)::make<std::__1::codecvt<char, char, __mbstate_t>, unsigned int>(unsigned int)::buf
PUBLIC 5f8f0 0 std::__1::codecvt<wchar_t, char, __mbstate_t>& std::__1::(anonymous namespace)::make<std::__1::codecvt<wchar_t, char, __mbstate_t>, unsigned int>(unsigned int)::buf
PUBLIC 5f910 0 std::__1::codecvt<char16_t, char, __mbstate_t>& std::__1::(anonymous namespace)::make<std::__1::codecvt<char16_t, char, __mbstate_t>, unsigned int>(unsigned int)::buf
PUBLIC 5f920 0 std::__1::codecvt<char32_t, char, __mbstate_t>& std::__1::(anonymous namespace)::make<std::__1::codecvt<char32_t, char, __mbstate_t>, unsigned int>(unsigned int)::buf
PUBLIC 5f930 0 std::__1::numpunct<char>& std::__1::(anonymous namespace)::make<std::__1::numpunct<char>, unsigned int>(unsigned int)::buf
PUBLIC 5f960 0 std::__1::numpunct<wchar_t>& std::__1::(anonymous namespace)::make<std::__1::numpunct<wchar_t>, unsigned int>(unsigned int)::buf
PUBLIC 5f990 0 std::__1::num_get<char, std::__1::istreambuf_iterator<char, std::__1::char_traits<char> > >& std::__1::(anonymous namespace)::make<std::__1::num_get<char, std::__1::istreambuf_iterator<char, std::__1::char_traits<char> > >, unsigned int>(unsigned int)::buf
PUBLIC 5f9a0 0 std::__1::num_get<wchar_t, std::__1::istreambuf_iterator<wchar_t, std::__1::char_traits<wchar_t> > >& std::__1::(anonymous namespace)::make<std::__1::num_get<wchar_t, std::__1::istreambuf_iterator<wchar_t, std::__1::char_traits<wchar_t> > >, unsigned int>(unsigned int)::buf
PUBLIC 5f9b0 0 std::__1::num_put<char, std::__1::ostreambuf_iterator<char, std::__1::char_traits<char> > >& std::__1::(anonymous namespace)::make<std::__1::num_put<char, std::__1::ostreambuf_iterator<char, std::__1::char_traits<char> > >, unsigned int>(unsigned int)::buf
PUBLIC 5f9c0 0 std::__1::num_put<wchar_t, std::__1::ostreambuf_iterator<wchar_t, std::__1::char_traits<wchar_t> > >& std::__1::(anonymous namespace)::make<std::__1::num_put<wchar_t, std::__1::ostreambuf_iterator<wchar_t, std::__1::char_traits<wchar_t> > >, unsigned int>(unsigned int)::buf
PUBLIC 5f9d0 0 std::__1::moneypunct<char, false>& std::__1::(anonymous namespace)::make<std::__1::moneypunct<char, false>, unsigned int>(unsigned int)::buf
PUBLIC 5f9e0 0 std::__1::moneypunct<char, true>& std::__1::(anonymous namespace)::make<std::__1::moneypunct<char, true>, unsigned int>(unsigned int)::buf
PUBLIC 5f9f0 0 std::__1::moneypunct<wchar_t, false>& std::__1::(anonymous namespace)::make<std::__1::moneypunct<wchar_t, false>, unsigned int>(unsigned int)::buf
PUBLIC 5fa00 0 std::__1::moneypunct<wchar_t, true>& std::__1::(anonymous namespace)::make<std::__1::moneypunct<wchar_t, true>, unsigned int>(unsigned int)::buf
PUBLIC 5fa10 0 std::__1::money_get<char, std::__1::istreambuf_iterator<char, std::__1::char_traits<char> > >& std::__1::(anonymous namespace)::make<std::__1::money_get<char, std::__1::istreambuf_iterator<char, std::__1::char_traits<char> > >, unsigned int>(unsigned int)::buf
PUBLIC 5fa20 0 std::__1::money_get<wchar_t, std::__1::istreambuf_iterator<wchar_t, std::__1::char_traits<wchar_t> > >& std::__1::(anonymous namespace)::make<std::__1::money_get<wchar_t, std::__1::istreambuf_iterator<wchar_t, std::__1::char_traits<wchar_t> > >, unsigned int>(unsigned int)::buf
PUBLIC 5fa30 0 std::__1::money_put<char, std::__1::ostreambuf_iterator<char, std::__1::char_traits<char> > >& std::__1::(anonymous namespace)::make<std::__1::money_put<char, std::__1::ostreambuf_iterator<char, std::__1::char_traits<char> > >, unsigned int>(unsigned int)::buf
PUBLIC 5fa40 0 std::__1::money_put<wchar_t, std::__1::ostreambuf_iterator<wchar_t, std::__1::char_traits<wchar_t> > >& std::__1::(anonymous namespace)::make<std::__1::money_put<wchar_t, std::__1::ostreambuf_iterator<wchar_t, std::__1::char_traits<wchar_t> > >, unsigned int>(unsigned int)::buf
PUBLIC 5fa50 0 std::__1::time_get<char, std::__1::istreambuf_iterator<char, std::__1::char_traits<char> > >& std::__1::(anonymous namespace)::make<std::__1::time_get<char, std::__1::istreambuf_iterator<char, std::__1::char_traits<char> > >, unsigned int>(unsigned int)::buf
PUBLIC 5fa70 0 std::__1::time_get<wchar_t, std::__1::istreambuf_iterator<wchar_t, std::__1::char_traits<wchar_t> > >& std::__1::(anonymous namespace)::make<std::__1::time_get<wchar_t, std::__1::istreambuf_iterator<wchar_t, std::__1::char_traits<wchar_t> > >, unsigned int>(unsigned int)::buf
PUBLIC 5fa90 0 std::__1::time_put<char, std::__1::ostreambuf_iterator<char, std::__1::char_traits<char> > >& std::__1::(anonymous namespace)::make<std::__1::time_put<char, std::__1::ostreambuf_iterator<char, std::__1::char_traits<char> > >, unsigned int>(unsigned int)::buf
PUBLIC 5fab0 0 std::__1::time_put<wchar_t, std::__1::ostreambuf_iterator<wchar_t, std::__1::char_traits<wchar_t> > >& std::__1::(anonymous namespace)::make<std::__1::time_put<wchar_t, std::__1::ostreambuf_iterator<wchar_t, std::__1::char_traits<wchar_t> > >, unsigned int>(unsigned int)::buf
PUBLIC 5fad0 0 std::__1::messages<char>& std::__1::(anonymous namespace)::make<std::__1::messages<char>, unsigned int>(unsigned int)::buf
PUBLIC 5fae0 0 std::__1::messages<wchar_t>& std::__1::(anonymous namespace)::make<std::__1::messages<wchar_t>, unsigned int>(unsigned int)::buf
PUBLIC 5faf0 0 std::__1::locale::__imp& std::__1::(anonymous namespace)::make<std::__1::locale::__imp, unsigned int>(unsigned int)::buf
PUBLIC 5fc30 0 std::__1::__get_sp_mut(void const*)::muts
PUBLIC 5fcb0 0 guard variable for std::__1::__get_sp_mut(void const*)::muts
PUBLIC 5fcb8 0 std::__1::__refstring_imp::(anonymous namespace)::get_gcc_empty_string_storage()::p
PUBLIC 5fcc0 0 guard variable for std::__1::__refstring_imp::(anonymous namespace)::get_gcc_empty_string_storage()::p
PUBLIC 5fcc8 0 std::__1::generic_category()::s
PUBLIC 5fcd0 0 guard variable for std::__1::generic_category()::s
PUBLIC 5fcd8 0 std::__1::system_category()::s
PUBLIC 5fce0 0 guard variable for std::__1::system_category()::s
PUBLIC 5fce8 0 std::__1::__thread_local_data()::__p
PUBLIC 5fcf0 0 guard variable for std::__1::__thread_local_data()::__p
STACK CFI INIT 102f0 b .cfa: $rsp 8 + .ra: .cfa -8 + ^
STACK CFI 102f1 .cfa: $rsp 16 +
