MODULE mac x86_64 BF7F9C0EC7323FB29BBC362888BDA57B0 HIToolbox
PUBLIC 227a 0 IsMenuBarVisible
PUBLIC 2296 0 MenuBarInstance::GetActiveInstance()
PUBLIC 22ff 0 GetUserSpaceMenuBar()
PUBLIC 2352 0 MenuBarInstance::MenuBarInstance(unsigned char)
PUBLIC 23db 0 GetThemeMenuBarHeight
PUBLIC 2402 0 MenuBarInstance::IsVisible()
PUBLIC 246c 0 MenuBarInstance::GetAggregateUIMode(unsigned int*, unsigned int*)
PUBLIC 2520 0 GetModeAndOptionsForProcess(__LSASN const*, unsigned int*, unsigned int*)
PUBLIC 25c9 0 _SystemUIModeFromProcessAttributes
PUBLIC 26ac 0 _SystemUIOptionsFromProcessAttributes
PUBLIC 270d 0 AutoHideEnabled()
PUBLIC 2752 0 TBGetBooleanPref
PUBLIC 2772 0 TBGetAppBooleanPref_Internal(__CFString const*, __CFString const*, unsigned char, unsigned char)
PUBLIC 28ae 0 RegisterSystemToolboxListener
PUBLIC 28d0 0 RegisterCallbackInternal(unsigned int, void (*)(unsigned int, void*, void*), unsigned int, void*, unsigned int)
PUBLIC 2a6d 0 GetNotificationNameOrType(long, unsigned long*, unsigned int*, unsigned char*, long*)
PUBLIC 2b36 0 _HLTBAddEventSourceToMode
PUBLIC 2b9a 0 GetEventLoopSource()
PUBLIC 2bc7 0 CreateEventLoopSource
PUBLIC 2c89 0 GetCurrentRunLoop
PUBLIC 2c97 0 GetCurrentEventLoop
PUBLIC 2d46 0 GetMainEventLoop
PUBLIC 2d6c 0 CreateEventLoop
PUBLIC 2def 0 GetDummySource
PUBLIC 2e33 0 GetApplicationEventTarget
PUBLIC 2e50 0 HIApplication::GetApplication()
PUBLIC 2e82 0 HIApplication::GetClassID()
PUBLIC 2ec0 0 _HIObjectRegisterDirectSubclass
PUBLIC 2f0e 0 HIObjectClass::Register(__CFString const*, __CFString const*, unsigned int, int (*)(OpaqueEventHandlerCallRef*, OpaqueEventRef*, void*), unsigned long, EventTypeSpec const*, void*, HIObjectClass**)
PUBLIC 30fa 0 HIObjectClass::GetIDDictionary()
PUBLIC 312e 0 HIObjectClass::HIObjectClass(__CFString const*, HIObjectClass*, unsigned int, int (*)(OpaqueEventHandlerCallRef*, OpaqueEventRef*, void*), unsigned long, EventTypeSpec const*, void*)
PUBLIC 31dd 0 HIObjectCreate
PUBLIC 3264 0 HIObject::Create(__CFString const*, OpaqueEventRef*, HIObject**)
PUBLIC 33c0 0 HIObjectClass::Lookup(__CFString const*, unsigned char)
PUBLIC 340a 0 CreateEvent
PUBLIC 3533 0 _EventThreadLock
PUBLIC 3575 0 _EventThreadUnlock
PUBLIC 3590 0 HIObject::Construct(HIObjectClass*, HIObject**, OpaqueHIObjectRef*)
PUBLIC 3840 0 HIApplication::EventHandler(OpaqueEventHandlerCallRef*, OpaqueEventRef*, void*)
PUBLIC 580a 0 GetEventKind
PUBLIC 581e 0 GetEventClass
PUBLIC 5837 0 GetEventParameter
PUBLIC 5c4e 0 HIObject::HIObject(OpaqueHIObjectRef*)
PUBLIC 5cce 0 HIObject::GetCFTypeID()
PUBLIC 5d09 0 GetHIObjectRefTable()
PUBLIC 5db2 0 HLTBCreateRefTable
PUBLIC 5e10 0 HLTBGetEnvironmentVariable
PUBLIC 5efe 0 RegisterEventClass
PUBLIC 6028 0 LockRegistry
PUBLIC 6092 0 HLTBAddRefToTable
PUBLIC 60e4 0 SetEventParameter
PUBLIC 61f9 0 _HITypeRetain
PUBLIC 6204 0 TypeManager::Retain(unsigned int, unsigned int, unsigned long, void const*)
PUBLIC 6286 0 TypeManager::FindCallbacks(unsigned int, unsigned char, HITypeCompressedCallBacks*)
PUBLIC 6316 0 TypeManager::InstallStandardProcs()
PUBLIC 6368 0 TypeManager::Register(unsigned long, unsigned int const*, HITypeCallBacks const*)
PUBLIC 63ca 0 TypeManager::SetCallbacks(unsigned int, HITypeCallBacks const*)
PUBLIC 6481 0 ReleaseEvent
PUBLIC 6636 0 HIObject::GetEventTarget()
PUBLIC 668d 0 CreateEventTarget
PUBLIC 6720 0 GetTargetRefTable()
PUBLIC 674a 0 InstallToolboxEventHandler
PUBLIC 678c 0 GetHandlerExternalRefFromInternalRef(HandlerRec*)
PUBLIC 6836 0 GetHandlerRefTable()
PUBLIC 6860 0 AddHandlersToIndex(EventTargetRec*, HandlerRec*, unsigned long, EventTypeSpec const*)
PUBLIC 6bc6 0 TEventTypeIndex::AddTypes(unsigned long, EventTypeSpec const*)
PUBLIC 6cde 0 TEventTypeIndex::MergeSort(EventTypeSpec*, EventTypeSpec*, unsigned long, unsigned long)
PUBLIC 6d6a 0 TEventTypeIndex::Merge(EventTypeSpec*, EventTypeSpec*, unsigned long, unsigned long, unsigned long)
PUBLIC 6e4b 0 GlobalRegistryEventRegistered(unsigned int, unsigned int)
PUBLIC 6fa7 0 _RegisterStandardEventClasses
PUBLIC 6ffa 0 InitializeTargetEvents
PUBLIC 704f 0 InitializeMouseEvents
PUBLIC 70b8 0 InitializeKeyboardEvents
PUBLIC 7116 0 InitializeTextInputEvents
PUBLIC 716b 0 InitializeControlEvents
PUBLIC 71c9 0 InitializeWindowEvents
PUBLIC 7230 0 InitializeApplicationEvents
PUBLIC 7293 0 RegisterEventsWithEventRegistry
PUBLIC 739c 0 GetGlobalRegistry()
PUBLIC 73db 0 FPListInsertEntryInList(FastPointerList*, void const*, long, unsigned long, FPListGrowShrinkType, unsigned short)
PUBLIC 74da 0 InitializeMenuEvents
PUBLIC 7549 0 InitializeCommandEvents
PUBLIC 75a4 0 InitializeSystemEvents
PUBLIC 7612 0 InitializeServicesEvents
PUBLIC 7680 0 RegisterVolumeClass
PUBLIC 76e0 0 InitializeGestureEvents
PUBLIC 7756 0 SendTargetNotification(OpaqueEventTargetRef*, unsigned int)
PUBLIC 77d4 0 IsTargetInterestedInEventType
PUBLIC 790e 0 IsSpecificEventBeingTraced
PUBLIC 7974 0 TEventTypeIndex::ContainsType(unsigned int, unsigned int)
PUBLIC 7a18 0 IsTargetDelegateInterestedInEventType(__CFArray const*, unsigned int, unsigned int)
PUBLIC 7a96 0 SendEventToEventTargetWithOptions
PUBLIC 7ad7 0 SendEventToEventTargetInternal(OpaqueEventRef*, OpaqueEventTargetRef*, HandlerCallRec*)
PUBLIC 7e26 0 HLTBSearchRefTable
PUBLIC 7f06 0 _NotifyEventLoopObservers
PUBLIC 7fe5 0 IsEventBeingTraced
PUBLIC 801b 0 GetFirstDelegate(EventTargetRec*, __CFArray const*, DelegateInfo*)
PUBLIC 807e 0 ChangeEventAttributes
PUBLIC 80a2 0 GetAppropriateNextTarget(EventTargetRec*, HandlerCallRec*, OpaqueEventRef*, unsigned char, DelegateInfo*)
PUBLIC 82ff 0 DispatchEventToHandlers(EventTargetRec*, OpaqueEventRef*, HandlerCallRec*)
PUBLIC 8e7a 0 HIObject::EventHook(OpaqueEventHandlerCallRef*, OpaqueEventRef*, void*)
PUBLIC 8f34 0 HIObject::HandleClassHIObjectEvent(OpaqueEventHandlerCallRef*, OpaqueEventRef*, void*)
PUBLIC 9154 0 HIApplication::Initialize(OpaqueEventRef*)
PUBLIC 918a 0 HIObject::Initialize(OpaqueEventRef*)
PUBLIC 9266 0 HIObject::InitializeDelegates()
PUBLIC 932a 0 HIApplication::InitializeCommon(OpaqueEventRef*)
PUBLIC 942b 0 SetEventTargetDebugName
PUBLIC 9486 0 HIObject::GetEncodedRef() const
PUBLIC 9494 0 HIObjectSetArchivingIgnored
PUBLIC 94c7 0 InstallEventHandler
PUBLIC 950f 0 _InstallEventLoopObserver
PUBLIC 95bb 0 ReleaseEventTarget
PUBLIC 972e 0 HIObjectGetEventTarget
PUBLIC 9752 0 _RegisterSharedDockClientWithRunLoop
PUBLIC 97a8 0 RegisterAsDockClientPriv()
PUBLIC 9813 0 GetMainRunLoop
PUBLIC 9822 0 GetEventClassRef
PUBLIC 9871 0 HandlerStatusChanged
PUBLIC 9966 0 getHIToolboxAnyASNNotificationFunc
PUBLIC 99aa 0 GestureHandlerStatusChanged
PUBLIC 9a18 0 _HIMagnifiedMode
PUBLIC 9ab3 0 GetAppleMagnifiedModeDefault()
PUBLIC 9b02 0 HIStandardUserDefaultsGetBooleanForKey
PUBLIC 9ba1 0 _HIMenuGetMenuBarHeight
PUBLIC 9bc1 0 GetMBarHeightInPixels
PUBLIC 9bd4 0 GetMBarHeightForActiveSpace
PUBLIC 9c0e 0 HIGetScaleFactor
PUBLIC 9c1c 0 HLTBGetBundle
PUBLIC 9c42 0 _GetAggregateUIMode
PUBLIC 9c6b 0 _HIMenuSetNSImageInterface
PUBLIC 9c82 0 SetSystemAppMenuSectionAllowed
PUBLIC 9c9c 0 CreateNewMenu
PUBLIC 9cf5 0 CreateMenuData(MenuDefSpec const*, short, unsigned char const*, unsigned int, unsigned char, MenuData**)
PUBLIC 9dfa 0 MenuData::CreateInitEvent(short, unsigned char const*, unsigned int, OpaqueEventRef**)
PUBLIC 9eba 0 MenuData::GetClassID()
PUBLIC 9ef8 0 MenuData::EventHandler(OpaqueEventHandlerCallRef*, OpaqueEventRef*, void*)
PUBLIC a0a0 0 MenuData::MenuData(OpaqueHIObjectRef*)
PUBLIC a223 0 SetEventTargetHandlerHooks
PUBLIC a252 0 MenuData::Initialize(OpaqueEventRef*)
PUBLIC a440 0 MenuData::InitializeCommon()
PUBLIC a541 0 _HITypeRegister
PUBLIC a54c 0 _MenuElementCreate
PUBLIC a5b6 0 MenuElement::GetInitEvent(__CFAllocator const*, __CFString const*, MenuElementCallBacks const*)
PUBLIC a650 0 MenuElement::GetClassID()
PUBLIC a68e 0 MenuElement::EventHandler(OpaqueEventHandlerCallRef*, OpaqueEventRef*, void*)
PUBLIC a730 0 MenuElement::MenuElement(OpaqueHIObjectRef*)
PUBLIC a87c 0 HIArray::HIArray(long, unsigned int, unsigned int, unsigned int)
PUBLIC a8d0 0 MenuElement::Initialize(OpaqueEventRef*)
PUBLIC a9f6 0 RowStore::Initialize(OpaqueHIObjectRef*, __CFAllocator const*, MenuElementCallBacks const*)
PUBLIC aa90 0 RowStore::InsertRows(long, unsigned long)
PUBLIC acd4 0 MenuData::UpdateEventTargetName()
PUBLIC adc7 0 _CopyMenuTitleAsCFString(MenuData*, __CFString const**)
PUBLIC ae36 0 _MenuElementGetData
PUBLIC ae72 0 MenuElement::ResolveAndGetData(long, __CFString const*, unsigned int, unsigned int*, unsigned long, unsigned long*, void*)
PUBLIC af02 0 MenuElement::ResolveStore(long*, __CFString const*)
PUBLIC afea 0 RowStore::GetData(long, __CFString const*, unsigned int, unsigned int*, unsigned long, unsigned long*, void*)
PUBLIC b1c0 0 MenuElementRow::GetData(__CFString const*, unsigned int, unsigned int*, unsigned long, unsigned long*, void*)
PUBLIC b57a 0 _ChangeMenuAttributes(MenuData*, unsigned int, unsigned int)
PUBLIC b58d 0 ChangeMenuSystemAttributes(MenuData*, unsigned int, unsigned int)
PUBLIC b6b6 0 _MenuElementGetCount
PUBLIC b6f1 0 _InvalidateMenuItems(MenuData*, unsigned short, unsigned long)
PUBLIC b732 0 _InvalidateMenuSize(MenuData*)
PUBLIC b75e 0 Invalidate1MenuSize(MenuData*)
PUBLIC b7aa 0 TestMenuSystemAttributes(MenuData*, unsigned int)
PUBLIC b7c2 0 GetFirstData
PUBLIC b7dd 0 _HIMenuSetNeedsDisplay(MenuData*, unsigned short, unsigned long)
PUBLIC b8e2 0 UnresolveLinkedMenuItem(MenuData**, unsigned short*, unsigned char)
PUBLIC b94d 0 _InvalidateCachedMenuPixels(MenuData*)
PUBLIC b97d 0 DisposeCachedPixels(MenuData*)
PUBLIC b9c1 0 SendMenuInit(MenuData*)
PUBLIC b9d9 0 GetMenuData(OpaqueMenuRef*)
PUBLIC ba1d 0 _HITypeRelease
PUBLIC ba28 0 TypeManager::Release(unsigned int, unsigned int, unsigned long, void const*)
PUBLIC bab2 0 SetMenuTitleWithCFString
PUBLIC baf3 0 _SetMenuTitleWithCFString(MenuData*, __CFString const*, unsigned char)
PUBLIC bc16 0 MenuData::RemoveTitleIcon()
PUBLIC bc9e 0 MenuData::SetTitleString(__CFString const*)
PUBLIC bce7 0 _MenuElementSetData
PUBLIC bd1e 0 MenuElement::ResolveAndSetData(long, __CFString const*, unsigned int, unsigned long, void const*)
PUBLIC bdaa 0 RowStore::SetData(long, __CFString const*, unsigned int, unsigned long, void const*, unsigned int)
PUBLIC bee6 0 RowStore::GetRow(long, MenuElementRow**, unsigned char)
PUBLIC bfb8 0 MenuElementRow::SetData(__CFAllocator const*, __CFString const*, unsigned int, unsigned long, void const*, unsigned int)
PUBLIC c1da 0 SetPtrData(void const*, void const**, unsigned int, unsigned int, unsigned long, unsigned int, int*)
PUBLIC c27a 0 TypeManager::StdRetainProc(unsigned int, unsigned int, unsigned long, void const*, void const*)
PUBLIC c28c 0 TypeManager::StdRefcountProc(unsigned char, unsigned int, void const*)
PUBLIC c3be 0 VisibleMenuTitle(MenuData*)
PUBLIC c40c 0 MenuData::SendTitleChanged()
PUBLIC c4a1 0 _HIMenuSetContentDirectionality
PUBLIC c4cf 0 _HIMenuSetContentDirectionality(MenuData*, int)
PUBLIC c50c 0 MenuData::SetDirectionality(int)
PUBLIC c55a 0 MenuElementRow::UpdateData(__CFAllocator const*, __CFString const*, unsigned char, unsigned int, unsigned long, void const*, unsigned int)
PUBLIC c6a6 0 TagStoreBase::Update(unsigned char*, MenuElementData*, unsigned long, unsigned char, unsigned int, unsigned long, void const*, unsigned int, int*)
PUBLIC c736 0 MenuElementData::Set(unsigned int, unsigned long, void const*, unsigned int)
PUBLIC c818 0 InvalidateSubmenus(MenuData*)
PUBLIC c8a8 0 MenuHasSubmenus(MenuData*, int*)
PUBLIC c8c7 0 SetMenuItemProperty
PUBLIC c987 0 _CountLinkedMenuItemsWithOptions(MenuData*, unsigned char)
PUBLIC c9e0 0 SetMenuItemPropertyCore(MenuData*, unsigned long, unsigned int, unsigned int, unsigned long, void const*)
PUBLIC ca79 0 GetPropertyCollection(MenuData*, short, unsigned char, OpaqueCollection**)
PUBLIC cbad 0 InsertMenuItemTextWithCFString
PUBLIC cbf7 0 _InsertMenuItemTextWithCFString(MenuData*, __CFString const*, unsigned short, unsigned int, unsigned int)
PUBLIC cd0e 0 NormalizeInsertionItem(MenuData*, unsigned short)
PUBLIC cd3f 0 Insert1MenuItem(MenuData*, unsigned short, unsigned char const*, unsigned short*)
PUBLIC cd6a 0 MenuData::InsertItem(unsigned short, unsigned char const*, MenuItemRec*, bool)
PUBLIC ce7b 0 _MenuElementInsert
PUBLIC cea6 0 MenuElement::ResolveAndInsertRows(long, unsigned long)
PUBLIC cf06 0 GetMenuItemData(MenuData*, unsigned short, MenuItemDataRef*, unsigned char)
PUBLIC cf24 0 MenuItemData::SetItemString(__CFString const*)
PUBLIC cf7b 0 _MenuElementSetDataAtIndex
PUBLIC cf9a 0 HIArray::InsertValueByPtr(unsigned int, void const*)
PUBLIC d0b2 0 SetMenuItemInitialAttributes(MenuData*, unsigned short, unsigned int)
PUBLIC d110 0 MenuItemData::SetAttributes(unsigned int)
PUBLIC d15c 0 CleanupAfter1ItemInsertion(MenuData*, unsigned short, unsigned char const*, __CFString const*, unsigned int)
PUBLIC d19e 0 CheckForDash(MenuData*, unsigned short, unsigned char, unsigned char const*, __CFString const*)
PUBLIC d2bc 0 IsDash(unsigned char const*, __CFString const*, MenuItemDataRef&)
PUBLIC d444 0 CommonCleanupAfterItemInsertion(MenuData*, unsigned short, unsigned long, unsigned int)
PUBLIC d5c9 0 _InvalidateMenuKeyCache(MenuData*, unsigned short, unsigned long, unsigned int)
PUBLIC d822 0 InvalidateMenuCommandCache(MenuData*)
PUBLIC d85c 0 CheckAutoDisable
PUBLIC d86f 0 TestMenuItemSystemAttributes(MenuData*, unsigned short, unsigned int)
PUBLIC d89f 0 GetMenuItemSystemAttributes(MenuData*, unsigned short, unsigned int, unsigned int*)
PUBLIC d91a 0 _MenuElementGetDataAtIndex
PUBLIC d93b 0 FabricateItemAttributes(MenuData*, unsigned short, unsigned char, unsigned int, unsigned int*)
PUBLIC da9d 0 GetMenuEventTarget
PUBLIC dac0 0 SetMenuItemHierarchicalMenu
PUBLIC db45 0 ResolveLinkedMenuItem(MenuData**, unsigned short*, unsigned char)
PUBLIC dbed 0 AddUncountedItems(MenuData*, unsigned short*)
PUBLIC dc82 0 _SetMenuItemHierarchicalMenu(MenuData*, unsigned short, MenuData*)
PUBLIC df2a 0 MenuItemData::SetHierData(MenuData*)
PUBLIC df78 0 MenuRetainProc(unsigned int, unsigned int, unsigned long, void const*, void const*)
PUBLIC df94 0 HIObject::Retain()
PUBLIC dfb6 0 MenuItemData::SetHierID(short)
PUBLIC e008 0 _MenuElementRemoveDataAtIndex
PUBLIC e02e 0 MenuElement::ResolveAndRemoveData(long, __CFString const*)
PUBLIC e09a 0 RowStore::RemoveData(long, __CFString const*)
PUBLIC e172 0 MenuElementRow::RemoveData(__CFString const*)
PUBLIC e386 0 TagStoreBase::Remove(unsigned char*, MenuElementData*, unsigned long, unsigned char)
PUBLIC e3ea 0 RecalcBarIfRoot
PUBLIC e46a 0 _CreateNewMenu(short, unsigned int, MenuData**)
PUBLIC e48c 0 _RemoveMenuItemSystemProperty(MenuData*, unsigned short, unsigned int)
PUBLIC e4a8 0 RemoveMenuItemPropertyCore(MenuData*, unsigned long, unsigned int, unsigned int)
PUBLIC e505 0 EnsureParentMenu(MenuData*, OpaqueMenuRef*, MenuItemDataRef)
PUBLIC e5df 0 AddParentMenu(MenuData*, OpaqueMenuRef*)
PUBLIC e66a 0 MenuElementData::Get(unsigned int, unsigned int*, unsigned long, unsigned long*, void*)
PUBLIC e7dd 0 SetNextMenu
PUBLIC e82b 0 _SetNextMenu(MenuData*, MenuData*)
PUBLIC e8e3 0 _RetainMenu(MenuData*)
PUBLIC e8f0 0 TypeManager::StdReleaseProc(unsigned int, unsigned int, unsigned long, void const*, void const*)
PUBLIC e906 0 GetIndex(MenuData*, MenuData*, unsigned int)
PUBLIC e998 0 _MenuIterCreateWithOptions(MenuData*, unsigned int, OpaqueMenuIteratorRef**)
PUBLIC ea9c 0 AcquireRootMenus(RootMenus*)
PUBLIC eb3c 0 _GetAppleMenu
PUBLIC ec08 0 GetDefaultAppMenu(unsigned char)
PUBLIC ecac 0 HLTBIsCurrentProcessBackgroundOnly
PUBLIC ecc2 0 GetProcessState()
PUBLIC ed41 0 ProcessStateFromTypeString(__CFString const*)
PUBLIC edaa 0 _SetMenuTitle(MenuData*, unsigned char const*, unsigned char)
PUBLIC ee33 0 GetSystemAppMenuSection()
PUBLIC ef05 0 _AcquireRootMenu()
PUBLIC ef5b 0 GetRootSystemMenu
PUBLIC ef96 0 _CountLinkedMenuItems(MenuData*)
PUBLIC efd2 0 _MenuIterNextData(OpaqueMenuIteratorRef*)
PUBLIC f017 0 FindNextMenu(IterPosition*, RootMenus*)
PUBLIC f1d9 0 IgnoreHiddenMenu(IterPosition*, MenuData*)
PUBLIC f21a 0 GetCurrentMenu(IterPosition*, RootMenus*)
PUBLIC f2bd 0 FindNextMenuInRoot(IterPosition*, MenuData*, unsigned long)
PUBLIC f361 0 _MenuIterRelease
PUBLIC f389 0 ReleaseRootMenus(RootMenus*)
PUBLIC f3ea 0 _ReleaseMenu(MenuData*)
PUBLIC f400 0 HIObject::Release()
PUBLIC f418 0 SetRootMenu
PUBLIC f49b 0 RemoveCustomAppMenu()
PUBLIC f4ee 0 InternalSetRootMenu
PUBLIC f55a 0 GetHierMenusCollection(MenuData*)
PUBLIC f584 0 HIObject::__Deallocate(void const*)
PUBLIC f5a6 0 MenuData::Destruct()
PUBLIC f5c5 0 SendMenuDispose(MenuData*)
PUBLIC f678 0 _GetMenuEventTarget(MenuData*)
PUBLIC f68e 0 HIObject::Destruct()
PUBLIC f727 0 AXNotificationHIObjectDied
PUBLIC f7a2 0 MenuData::~MenuData()
PUBLIC f7d2 0 MenuData::~MenuData()
PUBLIC f9ad 0 _RemoveFromMenuKeyCache(MenuData*)
PUBLIC fa6c 0 DisposeMenuWindow
PUBLIC fac4 0 MenuData::DisposeViewData()
PUBLIC fb63 0 DisposePixelsAndDequeueMenu(MenuData*)
PUBLIC fb6f 0 ReleaseMenuCommandCache(MenuData*, unsigned char)
PUBLIC fbb2 0 MenuElement::~MenuElement()
PUBLIC fbe6 0 MenuElement::~MenuElement()
PUBLIC fc60 0 RowStore::DeleteRows(long, unsigned long)
PUBLIC feee 0 RowStore::RemoveRowData(long)
PUBLIC ffa4 0 MenuElementRow::RemoveRowData()
PUBLIC 1004e 0 TagStoreBase::RemoveAll(unsigned char*, MenuElementData*, unsigned long)
PUBLIC 100ac 0 RowStore::~RowStore()
PUBLIC 10124 0 HIArray::~HIArray()
PUBLIC 1013c 0 HIObject::~HIObject()
PUBLIC 101be 0 HIObject::RemoveAssociatedAccessibilityData()
PUBLIC 1029a 0 HIObject::GetAccessibilityContainmentOverride(__AXUIElement const**, HIObject**, __AXUIElement const**, __AXUIElement const**)
PUBLIC 1039e 0 HLTBRemoveRefFromTable
PUBLIC 103f8 0 FindAndAddAppMenuItems(MenuData*)
PUBLIC 10454 0 GetCurrentMenuInRoot(IterPosition*, MenuData*, unsigned long)
PUBLIC 104aa 0 GetSubmenu(MenuData*, unsigned short, unsigned char)
PUBLIC 10526 0 _GetMenuItemHierarchicalMenu(MenuData*, unsigned short, MenuData**)
PUBLIC 10671 0 CheckForAppMenu(MenuData*)
PUBLIC 106ae 0 _IsAppleMenu(MenuData*)
PUBLIC 106f9 0 _IsAppleMenuTitle
PUBLIC 10739 0 InstallCustomAppMenu(MenuData*)
PUBLIC 10783 0 RecalcBar
PUBLIC 107c1 0 CalcMenuBar
PUBLIC 107ed 0 InvalMenuBarLayout
PUBLIC 10876 0 MBWindows::ForEachDisplayWindowDo(void (OpaqueWindowPtr*, unsigned int, unsigned char) block_pointer)
PUBLIC 10956 0 InvalMenuBar
PUBLIC 10982 0 ShouldIgnoreMenuTitleIconChangesDuringPopupTracking
PUBLIC 10992 0 ForEachMenuBarViewDo
PUBLIC 10a11 0 InsertMenu
PUBLIC 10a3b 0 _InsertMenu(MenuData*, short)
PUBLIC 10ac0 0 IsSystemMenu
PUBLIC 10aed 0 GetCurrentMenuList_()
PUBLIC 10afc 0 GetRootMenu
PUBLIC 10b2d 0 InsertMenuPriv(MenuData*, MenuData*, short, bool)
PUBLIC 10bde 0 InsertMenuIntoHierMenuList(MenuData*, MenuData*)
PUBLIC 10c40 0 ShowMenuBar
PUBLIC 10ca7 0 SetSystemUIMode
PUBLIC 10d62 0 ShouldSuppressUIModeChanges
PUBLIC 10d76 0 UpdateAllAggregateUIModes(MenuBarAnimationStyle, unsigned char)
PUBLIC 10e34 0 MenuBarInstance::ForEachMenuBarDo(void (MenuBarInstance*) block_pointer)
PUBLIC 10f05 0 ___ZL25UpdateAllAggregateUIModes21MenuBarAnimationStyleh_block_invoke
PUBLIC 10f28 0 MenuBarInstance::UpdateAggregateUIMode(MenuBarAnimationStyle, unsigned char, unsigned char, unsigned char)
PUBLIC 1146f 0 GetMenuTrackingMode
PUBLIC 114ab 0 IsCurrentProcessMenuBarOwner
PUBLIC 11502 0 MenuBarInstance::UpdateWindowBoundsAndResolution()
PUBLIC 115b6 0 MenuBarInstance::GetBoundsOnSpace()
PUBLIC 1171a 0 MenuBarInstance::CalcResolution()
PUBLIC 1176a 0 GetResolutionOnDisplay(unsigned int)
PUBLIC 117ec 0 MenuBarInstance::ForEachWindowDo(unsigned char, bool (OpaqueWindowPtr*, unsigned int) block_pointer)
PUBLIC 1194a 0 HasMenuBarPerDisplay
PUBLIC 11990 0 HasSpacePerDisplay
PUBLIC 119ce 0 MBWindows::GetWindowOnDisplay(unsigned int, unsigned char)
PUBLIC 11b39 0 HLTBGetDisplayBounds
PUBLIC 11b84 0 MBWindows::CreateWindow(CGRect, unsigned int)
PUBLIC 11cf2 0 HIWindowCreate
PUBLIC 11d40 0 AttrFromList(int const*)
PUBLIC 11d7b 0 HIWindowCreateCommon(unsigned int, unsigned long long, WindowDefSpec const*, CGRect const*, unsigned int, OpaqueWindowPtr**)
PUBLIC 11e70 0 HIRectConvert
PUBLIC 11e8c 0 _HIDataConvert(void*, unsigned int, unsigned int, void*, unsigned int, void*)
PUBLIC 12297 0 HIRectToQDRect
PUBLIC 122d3 0 _QDRectFloorFromHIRect
PUBLIC 12414 0 HIRectFloor
PUBLIC 12518 0 CreateNewWindowInternal(WindowDefSpec const*, unsigned int, unsigned long long, Rect const*, OpaqueWindowPtr**)
PUBLIC 12640 0 MapClassAndAttributesToDefProc(unsigned int, unsigned long long, short, short*)
PUBLIC 126cb 0 NewWindowCommon(WindowData**, unsigned int, unsigned long long, WindowDefSpec const*, Rect const*, unsigned char const*, unsigned char, OpaqueWindowPtr*, void*, unsigned int, unsigned short*, bool)
PUBLIC 12d3c 0 HIViewWrapperDef::GetClassID()
PUBLIC 12d7e 0 WindowData::RegisterSubclass(__CFString const*, HIObject* (*)(OpaqueHIObjectRef*))
PUBLIC 12dc4 0 WindowData::GetClassID()
PUBLIC 12e10 0 HIMenuBarFrameView::Create(OpaqueControlRef**)
PUBLIC 12e62 0 HIView::RegisterSubclass(__CFString const*, HIObject* (*)(OpaqueHIObjectRef*))
PUBLIC 12e8a 0 HIView::GetClassID()
PUBLIC 12ee6 0 HIView::RegisterSubclassOfClass(__CFString const*, __CFString const*, HIObject* (*)(OpaqueHIObjectRef*))
PUBLIC 12f38 0 HIView::EventHandler(OpaqueEventHandlerCallRef*, OpaqueEventRef*, void*)
PUBLIC 148a6 0 HIMenuBarFrameView::Construct(OpaqueHIObjectRef*)
PUBLIC 148ee 0 HIMenuBarFrameView::HIMenuBarFrameView(OpaqueHIObjectRef*)
PUBLIC 1495c 0 HIView::HIView(OpaqueHIObjectRef*)
PUBLIC 14ba4 0 HIObject::SetAccessibilityIgnored(bool)
PUBLIC 14bc2 0 HIView::ChangeFeatures(unsigned int, unsigned int)
PUBLIC 14c6e 0 HIMenuBarFrameView::Initialize(OpaqueEventRef*)
PUBLIC 14cf0 0 HIView::Initialize(OpaqueEventRef*)
PUBLIC 14e52 0 HIView::ReadBasicDataFromEvent(OpaqueEventRef*)
PUBLIC 1500c 0 TTableView::CopyAXUIElementRef()
PUBLIC 15010 0 TTableView::IsFocusedColumn() const
PUBLIC 1502a 0 HIView::InitializeCommon(HIView*, OpaqueCollection*)
PUBLIC 150be 0 SendControlDefInitialize(HIView*, OpaqueCollection*, int*, unsigned int*)
PUBLIC 15182 0 HIView::CreateControlEvent(unsigned int, double, HIView*, OpaqueEventRef**)
PUBLIC 15204 0 HIView::GetBehaviors()
PUBLIC 1521c 0 HIView::SetClassicFeatures(unsigned int)
PUBLIC 152a2 0 HIView::UpdateEventTargetName()
PUBLIC 1532e 0 HIMenuBarView::Create(CGRect const*, OpaqueMenuRef*, OpaqueControlRef**)
PUBLIC 153a2 0 HIMenuBarView::CreateInitEvent(CGRect const*, OpaqueMenuRef*, OpaqueEventRef**)
PUBLIC 15420 0 CreateControlConstructEvent(OpaqueControlRef*, Rect const*, OpaqueCollection*, OpaqueEventRef**)
PUBLIC 15468 0 HIRectFromQDRect
PUBLIC 154c8 0 CreateHIViewConstructEvent(OpaqueControlRef*, CGRect const*, OpaqueCollection*, OpaqueEventRef**)
PUBLIC 155bc 0 HIMenuBarView::Construct(OpaqueHIObjectRef*)
PUBLIC 15606 0 HIMenuBarView::HIMenuBarView(OpaqueHIObjectRef*)
PUBLIC 15702 0 HIBaseMenuView::HIBaseMenuView(OpaqueHIObjectRef*)
PUBLIC 157fe 0 HIView::ActivateInterface(HIView::Interface)
PUBLIC 1593b 0 AddEventTypesToHandler
PUBLIC 159be 0 HIObject::RegisterForEvents(unsigned int, EventTypeSpec const*)
PUBLIC 15a0e 0 HIMenuBarView::GetDrawingDelegate()
PUBLIC 15a6a 0 HLTBRegisterLazyHIObjectClass
PUBLIC 15b2f 0 _HIRawObjectRegisterClass
PUBLIC 15b44 0 HIRawObject::GetClassID()
PUBLIC 15b82 0 HIRawObject::ConstructHandler(OpaqueEventHandlerCallRef*, OpaqueEventRef*, void*)
PUBLIC 15c46 0 HIObjectAddDelegate
PUBLIC 15c86 0 HIObject::AddDelegate(HIObject*, unsigned int)
PUBLIC 15d84 0 SetEventTargetDelegates
PUBLIC 15dbb 0 SendEventTargetNotification
PUBLIC 15de4 0 HIObject::SendDelegateNotification(HIObject*, unsigned int)
PUBLIC 15e86 0 HIView::AddSubView(HIView*)
PUBLIC 15f70 0 HIView::GetWindowRef()
PUBLIC 15f92 0 HIView::LinkIntoContainer(HIView*)
PUBLIC 1613c 0 HIView::IsDrawingEnabled()
PUBLIC 16158 0 HIView::AncestorDrawingModeChanged(short, short)
PUBLIC 161d8 0 HIView::AncestorBecomingActive()
PUBLIC 16230 0 HIView::AncestorBecomingEnabled()
PUBLIC 16286 0 HIView::AncestorLayoutBecomingActive()
PUBLIC 162fe 0 CalculateControlAggregateClipRegion(HIView*, unsigned char)
PUBLIC 16338 0 ApplyAggregateClipRegionToControl(HIView*, OpaqueRgnHandle*, unsigned char)
PUBLIC 163b8 0 HIView::AdjustLayoutHandlersForNewParent()
PUBLIC 1652e 0 SendControlDefAddedSubControl(HIView*, OpaqueControlRef*)
PUBLIC 165b6 0 HIView::InvalidateVisRgn()
PUBLIC 165e8 0 HIView::Show(unsigned char)
PUBLIC 16740 0 HIView::SetVisibleState(short)
PUBLIC 1678a 0 WindowData::ConstructHandler(OpaqueEventHandlerCallRef*, OpaqueEventRef*, void*)
PUBLIC 16810 0 HIViewWrapperDef::Construct(OpaqueHIObjectRef*)
PUBLIC 16858 0 HIViewWrapperDef::HIViewWrapperDef(OpaqueHIObjectRef*)
PUBLIC 168d0 0 AppleWindowDef::AppleWindowDef(OpaqueHIObjectRef*)
PUBLIC 16950 0 WindowData::WindowData(OpaqueHIObjectRef*)
PUBLIC 16bda 0 AppleWindowDef::Initialize(OpaqueEventRef*)
PUBLIC 16c36 0 WindowData::Initialize(OpaqueEventRef*)
PUBLIC 16dd8 0 AvailabilityFromClass(unsigned int)
PUBLIC 16df2 0 WindowData::FinishConstruction(unsigned int, unsigned long long, unsigned int, Rect const*, unsigned char*, unsigned int, OpaqueWindowPtr*, OpaqueControlRef*)
PUBLIC 17623 0 _HIObjectStoreWeakRef
PUBLIC 17650 0 HIObject::StoreWeakRefInternal(OpaqueHIObjectRef**, void (*)(OpaqueHIObjectRef*, void*), unsigned char, void*)
PUBLIC 17728 0 HIObject::GetRefInfo(OpaqueHIObjectRef**, void (*)(OpaqueHIObjectRef*, void*), long*)
PUBLIC 1778a 0 AdjustAttributes(unsigned int, unsigned long long*)
PUBLIC 1788c 0 ShouldApplyGenericRGBColorspace
PUBLIC 1789c 0 GetCurrentWindowContext()
PUBLIC 178ba 0 CreateWindowContext(WindowContext**)
PUBLIC 17929 0 ToolboxMemAllocate
PUBLIC 1795a 0 GetMainEventQueue
PUBLIC 179bf 0 CreateEventQueue
PUBLIC 17a01 0 RegisterTBObjectClass
PUBLIC 17a69 0 TBObjectAllocate
PUBLIC 17b0c 0 __EventQueueInitialize
PUBLIC 17b5b 0 EventQueueStaticInit
PUBLIC 17c51 0 SetEventQueueRunLoop
PUBLIC 17cb4 0 ReleaseSourceForQueue
PUBLIC 17d3c 0 CreateRunLoopSourceForQueue
PUBLIC 17e2c 0 ScopeFromClass(unsigned int)
PUBLIC 17e3e 0 ShadowFromClass(unsigned int, unsigned char*, unsigned char*)
PUBLIC 17e5f 0 InsertWindow(WindowData*, WindowData*, WindowContext*)
PUBLIC 17f9b 0 UpdateRootGroupSectionHead
PUBLIC 17fb1 0 UpdateRootGroupWindowCount
PUBLIC 17fd0 0 ReorderPlatformWindow
PUBLIC 17ffa 0 ShowHidePlatformWindows
PUBLIC 183b5 0 WindowStateTrackWindowList(WindowData*)
PUBLIC 183f9 0 GetWindowPropertySizeCore(WindowData*, unsigned int, unsigned int, unsigned long*)
PUBLIC 1843c 0 WindowData::UpdateEventTargetName()
PUBLIC 184ce 0 HIView::FindHIView(OpaqueControlRef*)
PUBLIC 1851a 0 HIObject::IsRefValid(void*)
PUBLIC 1854a 0 HIObject::GetClass()
PUBLIC 18562 0 HIObject::IsOfClassRef(OpaqueHIObjectClassRef*)
PUBLIC 18594 0 HIObjectClass::GetHIObjectClassFromRef(OpaqueHIObjectClassRef*)
PUBLIC 185a2 0 SetControlData
PUBLIC 185ee 0 HIView::SetData(unsigned int, short, long, void const*)
PUBLIC 18605 0 SendControlDefSetData(HIView*, unsigned int, short, void*, long)
PUBLIC 18702 0 HIView::SetDataSelf(unsigned int, short, long, void const*)
PUBLIC 1893a 0 WindowData::GetFrameMetricsFromView()
PUBLIC 189ca 0 HIView::GetFrameMetrics(HIViewFrameMetrics*)
PUBLIC 18a54 0 HIView::GetFrameMetricsSelf(HIViewFrameMetrics*)
PUBLIC 18a61 0 CreatePlatformWindow
PUBLIC 18b9c 0 WindowData::GetBackingStoreScale()
PUBLIC 18bb6 0 CreatePlatformWindowPriv(WindowData*, unsigned int, CGSRegionObject*, unsigned char, double, double, unsigned int, unsigned int*)
PUBLIC 190c4 0 ___ZL15FirstWindowTimev_block_invoke
PUBLIC 19105 0 SetWindowMovedHook
PUBLIC 19112 0 ShouldFlushImmediately
PUBLIC 19163 0 GetWorkaroundStateFromKey(__CFString const*, WorkaroundState*)
PUBLIC 191d5 0 ShouldInstallFlushObserver
PUBLIC 1920f 0 RegisterForDisplayConfigChangeNotificationsIfNecessary
PUBLIC 1924b 0 HLTBRegisterDisplayNotificationCallback
PUBLIC 1927c 0 RegisterAsDockClient
PUBLIC 1929a 0 WindowData::SetPlatformWindow(unsigned int)
PUBLIC 192d3 0 SetWindowShadowEnabled
PUBLIC 19343 0 SetWindowUtilityBehavior
PUBLIC 193ce 0 SetWindowOpaqueForEvents
PUBLIC 1945b 0 SetWindowIgnoredForFrontWindow
PUBLIC 194e5 0 UpdateWindowAvailability(WindowData*, unsigned int, unsigned int)
PUBLIC 19748 0 HIView::SetFrame(CGRect const&)
PUBLIC 19a9c 0 HIRectEqualToRect
PUBLIC 19af0 0 HIView::AffectsOpaqueShape()
PUBLIC 19c0c 0 HIView::IsHidden()
PUBLIC 19c48 0 HIView::InvalidateStructure()
PUBLIC 19c80 0 HIView::InvalidateTrackingAreas(bool, OpaqueWindowPtr*, bool)
PUBLIC 19db0 0 HIView::SendBoundsChanged(CGRect const&, CGRect const&)
PUBLIC 19f4e 0 HIPointEqualToPoint
PUBLIC 19f7a 0 HISizeEqualToSize
PUBLIC 19fa6 0 HIView::IsOurHandlerOverridden(unsigned int, unsigned int, unsigned int, bool)
PUBLIC 1a062 0 GetEventTargetModificationCount
PUBLIC 1a07c 0 IsHandlerOverridden
PUBLIC 1a2a8 0 HIMenuBarFrameView::BoundsChangedSelf(unsigned int, CGRect const&, CGRect const&)
PUBLIC 1a2c4 0 HIView::LayoutChildren()
PUBLIC 1a360 0 HIMenuBarFrameView::LayoutChildrenSelf()
PUBLIC 1a3c4 0 HIMenuBarView::BoundsChangedSelf(unsigned int, CGRect const&, CGRect const&)
PUBLIC 1a3de 0 HIView::RegionChanged(short)
PUBLIC 1a45e 0 HIView::InvalidateForSizeChange(CGRect const&, CGRect const&)
PUBLIC 1a56a 0 HIView::IsOrIsParentOfOpenGLView()
PUBLIC 1a5ae 0 HIView::SendParentBoundsChangedToChildren(CGRect const&, CGRect const&)
PUBLIC 1a74e 0 HIView::ParentBoundsChangedSelf(unsigned int, CGRect const&, CGRect const&)
PUBLIC 1a7e2 0 HIView::SetWindowRef(OpaqueWindowPtr*)
PUBLIC 1a820 0 HIView::NotifyOwningWindowChanged(OpaqueWindowPtr*, OpaqueWindowPtr*, unsigned char)
PUBLIC 1a898 0 HIView::UpdateTrackingAreas()
PUBLIC 1a948 0 HIView::NotifySubtreeWindowChanged(OpaqueWindowPtr*, OpaqueWindowPtr*, unsigned char)
PUBLIC 1a9e4 0 HIView::SendOwningWindowChanged(unsigned int, OpaqueWindowPtr*, OpaqueWindowPtr*)
PUBLIC 1ab02 0 HIView::OwningWindowChangedSelf(OpaqueWindowPtr*, OpaqueWindowPtr*)
PUBLIC 1ab0e 0 HIBaseMenuView::OwningWindowChangedSelf(OpaqueWindowPtr*, OpaqueWindowPtr*)
PUBLIC 1ab76 0 HIView::SetPendingVisible()
PUBLIC 1abcb 0 InitWindowDefinition(WindowData*)
PUBLIC 1ac9d 0 CreateWindowEvent
PUBLIC 1ad29 0 IsValidWindowPtr
PUBLIC 1ad3e 0 GetWindowDataQuietly(OpaqueWindowPtr*)
PUBLIC 1ad88 0 AppleWindowDef::ClassHandler(OpaqueEventHandlerCallRef*, OpaqueEventRef*, void*)
PUBLIC 1adc8 0 HIViewWrapperDef::HandleEvent(OpaqueEventHandlerCallRef*, OpaqueEventRef*)
PUBLIC 1ae5c 0 AppleWindowDef::HandleEvent(OpaqueEventHandlerCallRef*, OpaqueEventRef*)
PUBLIC 1b59e 0 HIViewWrapperDef::GetFeatures()
PUBLIC 1b5b0 0 AppleWindowDef::GetFeatures()
PUBLIC 1b5bc 0 AppleWindowDef::InitializeWindowData()
PUBLIC 1b5cf 0 CalculateWindowRegions(WindowData*, bool, bool)
PUBLIC 1b9f4 0 CopyWindowDefinitionShapeMutable(WindowData*, unsigned short, __HIShape**)
PUBLIC 1bc38 0 WindowData::GetGlobalBounds(CGRect*)
PUBLIC 1bd16 0 GetPlatformWindowBoundsAsHIRect
PUBLIC 1bd59 0 GetPlatformWindowBoundsCommon
PUBLIC 1bdf8 0 SetEventParameterWithPromise
PUBLIC 1be42 0 HIViewWrapperDef::CopyShape(unsigned short, __HIShape const**, CGRect const*)
PUBLIC 1c17a 0 HIView::GetRootForWindow(OpaqueWindowPtr*)
PUBLIC 1c1a0 0 _GetWindowStructureControl
PUBLIC 1c1c6 0 GetWindowData(OpaqueWindowPtr*)
PUBLIC 1c210 0 HIView::CopyPartShape(short, __HIShape const**)
PUBLIC 1c2a8 0 HIView::GetStructureRegion()
PUBLIC 1c336 0 HIView::SendGetPartRegionOrShape(short, OpaqueRgnHandle*, __HIShape const**)
PUBLIC 1c50e 0 HIView::GetPartRegionOrShapeSelf(short, OpaqueRgnHandle*, __HIShape const**)
PUBLIC 1c610 0 HIView::FindByID(ControlID const&)
PUBLIC 1c674 0 HIView::CopyPartShapeMutable(short, __HIShape**)
PUBLIC 1c6bc 0 HIMenuBarView::GetPartRegionOrShapeSelf(short, OpaqueRgnHandle*, __HIShape const**)
PUBLIC 1c7a0 0 HIView::ConvertShapeToView(__HIShape*, HIView*)
PUBLIC 1c80a 0 HIView::GetAncestorSharedWithView(HIView*)
PUBLIC 1c8a8 0 HIView::ConvertShapeToSuperView(__HIShape*)
PUBLIC 1c900 0 DrawerWindowDef::GetClassID()
PUBLIC 1c938 0 HIObjectIsOfClass
PUBLIC 1c992 0 WindowData::SetStructureShape(__HIShape const*)
PUBLIC 1c9de 0 WindowData::SetContentShape(__HIShape const*)
PUBLIC 1ca2e 0 ResetPlatformWindowShape
PUBLIC 1cc3d 0 SetPlatformWindowShape
PUBLIC 1cea0 0 HIPointConvert
PUBLIC 1cebc 0 HIPointCeiling
PUBLIC 1ced6 0 GetWindowEventTarget
PUBLIC 1cefa 0 SendEventToEventTarget
PUBLIC 1cf36 0 WindowData::GetNextTarget(OpaqueEventTargetRef*, OpaqueEventRef*, void*)
PUBLIC 1d07c 0 GetEventAttributes
PUBLIC 1d098 0 IsCGOrderingEnabledForWindow
PUBLIC 1d0e1 0 IsWindowOnScreen(WindowData*)
PUBLIC 1d0fe 0 WindowData::SyncControlBounds()
PUBLIC 1d11a 0 WindowData::CalculateVisibleRegion()
PUBLIC 1d129 0 StateChangedWindowDefinition(WindowData*, unsigned int)
PUBLIC 1d1a2 0 HIViewWrapperDef::StateChanged(unsigned int)
PUBLIC 1d1ad 0 SyncPlatformWindowAsyncDragRegion
PUBLIC 1d2ae 0 CopyWindowDragShapes(WindowData*, __HIShape const**, __HIShape const**)
PUBLIC 1d6c8 0 WindowData::GetStructureControl()
PUBLIC 1d6d8 0 HIView::CopyClickableShape()
PUBLIC 1d86a 0 HIView::RecalcVisAndPropagate()
PUBLIC 1d8b2 0 HIView::RecalcVis()
PUBLIC 1da7a 0 HIView::CopyVisAboveForSubView()
PUBLIC 1db68 0 HIView::GetVisAbove()
PUBLIC 1dbf2 0 HIView::ConvertRectToView(CGRect&, HIView*)
PUBLIC 1dc78 0 HIView::ConvertPointToSuperView(CGPoint&)
PUBLIC 1dcbe 0 HIView::ShapeFromSuperViewShape(__HIShape const*, __HIShape*)
PUBLIC 1dcfe 0 HIView::SetVisAbove(__HIShape const*)
PUBLIC 1dd74 0 HIView::SetVisRegion(__HIShape const*)
PUBLIC 1de4e 0 HIView::CreateNextVisAbove()
PUBLIC 1e0f4 0 HIView::CopyOpaqueShape()
PUBLIC 1e156 0 HIView::CalcVisBehind()
PUBLIC 1e206 0 HIView::ConvertShapeFromAncestor(__HIShape*, HIView*)
PUBLIC 1e246 0 HIView::ConvertShapeFromSuperView(__HIShape*)
PUBLIC 1e29c 0 HIView::SubtractClickableShapeRecurse(__HIShape*)
PUBLIC 1e41c 0 InstallBasicWindowHandler
PUBLIC 1e478 0 SetEventHandlerDebugName
PUBLIC 1e4ee 0 SetPlatformWindowHides
PUBLIC 1e56e 0 WindowData::UpdateFullScreenAuxiliaryState()
PUBLIC 1e5cb 0 SetWindowFriendOfFullScreen
PUBLIC 1e656 0 WindowData::UpdateResolutionWithoutRepainting()
PUBLIC 1e74a 0 WindowData::UpdateColorSpace(unsigned char)
PUBLIC 1e918 0 WindowData::GetGreatestAreaDisplay(unsigned short, unsigned int, unsigned int*, CGRect*)
PUBLIC 1e9e9 0 DisplayFromUUIDString
PUBLIC 1ea2c 0 BasicWindowHandler(OpaqueEventHandlerCallRef*, OpaqueEventRef*, void*)
PUBLIC 1edb9 0 HandleWindowEvent(OpaqueEventRef*)
PUBLIC 1fa9b 0 GetWindowClass
PUBLIC 1fae1 0 IsWindowVisible
PUBLIC 1fb0c 0 AppleWindowDef::InitWithEvent(OpaqueEventRef*)
PUBLIC 1fb18 0 WindowData::SetDocumentDefProc(bool)
PUBLIC 1fb42 0 WindowData::ChangeAttributes(unsigned long long, unsigned long long)
PUBLIC 1ff3a 0 SendSimpleWindowEvent
PUBLIC 1ffa1 0 GetWindowGroupOfClass
PUBLIC 20049 0 TierFromClass(unsigned int)
PUBLIC 20065 0 GetWindowGroupOfTier
PUBLIC 20176 0 CreateWindowGroup
PUBLIC 201eb 0 SetWindowGroupName
PUBLIC 20248 0 GetFirstWindow()
PUBLIC 2026b 0 GetNextWindow
PUBLIC 20295 0 SetWindowGroupParent
PUBLIC 203f0 0 UpdateWindowGroupParent(WindowGroupData*, WindowGroupData*, WindowGroupData*)
PUBLIC 204ea 0 GetWindowGroupIndexWithOptions(OpaqueWindowGroupRef*, unsigned char)
PUBLIC 2053c 0 FindWindowGroup(WindowGroupData*, WindowGroupData*, unsigned char, unsigned long*)
PUBLIC 205af 0 AddToGroup(WindowGroupData*, void*, unsigned char)
PUBLIC 206c4 0 PromoteWindowGroups(WindowGroupData*)
PUBLIC 207f2 0 GetWindowGroupContents
PUBLIC 208a8 0 GetSubGroups(WindowGroupData*, unsigned int, unsigned long, unsigned long*, OpaqueWindowGroupRef**)
PUBLIC 2093e 0 SendWindowGroupBehind
PUBLIC 20a98 0 GetWindowGroupRange(OpaqueWindowGroupRef*, unsigned long*, unsigned long*, OpaqueWindowPtr**, OpaqueWindowPtr**)
PUBLIC 20f5e 0 GetIndexedWindow
PUBLIC 20fb9 0 GetWindowsOrIndex(OpaqueWindowGroupRef*, unsigned int, OpaqueWindowPtr**, unsigned long*, unsigned long)
PUBLIC 210a8 0 IsWindowContainedInGroup
PUBLIC 210f5 0 GetWindowIndex
PUBLIC 21164 0 WindowData::SetWindowGroup(OpaqueWindowGroupRef*)
PUBLIC 213d5 0 SyncPlatformWindowLevel
PUBLIC 214d6 0 GetBaseWindowGroup
PUBLIC 2151b 0 GetWindowGroupLevel
PUBLIC 2155c 0 IsAppNonForeground
PUBLIC 2157a 0 GetWindowGroupLevelOfType
PUBLIC 215b9 0 UpdateSectionHeads(WindowGroupData*, OpaqueWindowPtr*, OpaqueWindowPtr*, unsigned char)
PUBLIC 21716 0 HIWindowGetCGWindowID
PUBLIC 21734 0 _ChangeWindowFeatures
PUBLIC 21742 0 HIWindowChangeFeatures
PUBLIC 217ad 0 SetPlatformWindowOpacity
PUBLIC 217f3 0 _HIWindowSetNeedsQDPrepWhenDrawingViews
PUBLIC 21841 0 HIObjectSetAccessibilityIgnored
PUBLIC 21875 0 _SetWindowCGOrderingEnabled
PUBLIC 218f2 0 WindowStateSetMenuBarState(unsigned int, double, void const*)
PUBLIC 219d6 0 _HIPersistentUICreatePersistentWindow
PUBLIC 21a82 0 ClassNSPersistentUIManager()
PUBLIC 21acb 0 _HIPersistentUISetValue
PUBLIC 21b8d 0 InitMenuEnabling()
PUBLIC 21bbd 0 AllowMenuTearOff(unsigned int)
PUBLIC 21bfb 0 ___ZL20ForEachMenuBarViewDohU13block_pointerFvP16OpaqueControlRefE_block_invoke
PUBLIC 21c2d 0 GetMenuBarViewInWindow(OpaqueWindowPtr*)
PUBLIC 21c71 0 HIViewGetRoot
PUBLIC 21c88 0 HIViewFindByID
PUBLIC 21ced 0 __InvalMenuBarLayout_block_invoke
PUBLIC 21cfd 0 _HIMenuBarViewInvalidateLayout(OpaqueControlRef*)
PUBLIC 21d24 0 HIViewCast<HIMenuBarView>::Cast(OpaqueControlRef*, __CFString const*)
PUBLIC 21d55 0 AreStandardSystemMenusAllowed()
PUBLIC 21d6f 0 ShowHide
PUBLIC 21d98 0 _ShowHideWindows
PUBLIC 22322 0 UpdateLatentWindowVisibility(WindowData*, unsigned char)
PUBLIC 22518 0 AreFloatingWindowsVisible
PUBLIC 22536 0 IsAppSuspended
PUBLIC 22551 0 InFullScreenMode
PUBLIC 2256f 0 IsAppHidden
PUBLIC 225b2 0 GetWindowGroupOwner
PUBLIC 225dc 0 GetWindowGroupParent
PUBLIC 22609 0 TestWindowGroupAttributes
PUBLIC 2262a 0 SendShowHideEvent(WindowData*, unsigned char, unsigned char)
PUBLIC 226d2 0 WindowData::PrepareForVisibility()
PUBLIC 22800 0 HIView::SendVisibilityChanged()
PUBLIC 2288a 0 HIView::VisibilityChangedSelf()
PUBLIC 2289e 0 HIView::AncestorBecomingVisible()
PUBLIC 22914 0 HIView::Invalidate(__HIShape const*, unsigned char)
PUBLIC 22acc 0 HIView::SetNeedsDisplay(bool)
PUBLIC 22b83 0 EnsureFlushObserver
PUBLIC 22c5d 0 ___ZL16GetFlushObserverv_block_invoke
PUBLIC 22cad 0 CanDisableFlushObserver()
PUBLIC 22cdf 0 TXNHasBeenInitialized
PUBLIC 22cee 0 SetWindowProperty
PUBLIC 22d4d 0 SetWindowPropertyCore(WindowData*, unsigned int, unsigned int, unsigned long, void const*)
PUBLIC 22e02 0 HINewCollection
PUBLIC 22e0c 0 HISetCollectionDefaultAttributes
PUBLIC 22e16 0 HIAddCollectionItem
PUBLIC 22e22 0 GetWindowPropertyAttributesCore(OpaqueWindowPtr*, unsigned int, unsigned int, unsigned int*)
PUBLIC 22eb9 0 HIGetCollectionItemInfo
PUBLIC 22ee4 0 HIWindowTestAttribute
PUBLIC 22f2e 0 _InvalidateWindowOpaqueRegion
PUBLIC 22f64 0 WindowData::GetCGContext()
PUBLIC 22ffa 0 WindowData::ResetCGContext()
PUBLIC 2307a 0 HIView::Render(unsigned int, CGContext*)
PUBLIC 230c2 0 HIView::DrawComposited(short, OpaqueGrafPtr*, __HIShape const*, unsigned int, HIView*, CGContext*)
PUBLIC 234d4 0 HIView::GetTrueRoot()
PUBLIC 234ea 0 HIView::DetermineAreaToPaint(OpaqueGrafPtr*, unsigned int, __HIShape const*)
PUBLIC 23582 0 HIView::BuildAggregateInvalidRegion(__HIShape*)
PUBLIC 2370b 0 _HIWindowGetNeedsQDPrepWhenDrawingViews
PUBLIC 23738 0 _GetWindowCGContext
PUBLIC 2375a 0 _HIWindowResetCGContext
PUBLIC 2377b 0 _HIGetWindowBackingStoreScale
PUBLIC 2379c 0 HIView::RecursiveDrawComposited(__HIShape const*, __HIShape const*, unsigned int, HIView*, CGContext*, unsigned char, double)
PUBLIC 23db2 0 HIView::CreateVisibleDrawShape(__HIShape const*)
PUBLIC 23e2a 0 HIView::GetVisRegion()
PUBLIC 23e6a 0 HIView::SendDraw(short, OpaqueGrafPtr*, __HIShape const*, CGContext*)
PUBLIC 24008 0 HIView::HasCustomDrawHandler()
PUBLIC 24034 0 HIView::DrawCacheOrSelf(short, __HIShape const*, CGContext*)
PUBLIC 241ae 0 HIMenuBarFrameView::DrawSelf(short, __HIShape const*, CGContext*)
PUBLIC 241e8 0 HIView::ShapeToViewShape(__HIShape const*, HIView*, __HIShape*)
PUBLIC 24230 0 HIView::ConvertPointToView(CGPoint&, HIView*)
PUBLIC 242ae 0 HIView::ConvertPointFromAncestor(CGPoint&, HIView*)
PUBLIC 242ee 0 HIView::ConvertPointFromSuperView(CGPoint&)
PUBLIC 2432e 0 HIMenuBarView::DrawingDelegateHandler(OpaqueEventHandlerCallRef*, OpaqueEventRef*, void*)
PUBLIC 24430 0 HIMenuBarView::DrawWithoutCustomization(short, __HIShape const*, CGContext*)
PUBLIC 2449d 0 MenuBarHasCustomAppearance
PUBLIC 244ce 0 GetMenuBarViewOnDisplay(MenuData*, unsigned int, unsigned char)
PUBLIC 24565 0 _GetMenuBarWindowOnDisplay
PUBLIC 245b7 0 _HIViewHasCustomDrawHandler
PUBLIC 245f7 0 IsMenuBarUsingBackdrops
PUBLIC 24604 0 _HIMenuUseBackdrops
PUBLIC 2462a 0 IsMenuBarTransparencyEnabled
PUBLIC 246d7 0 _HIThemeReduceTransparency
PUBLIC 24726 0 RegisterToolboxListener
PUBLIC 24748 0 _HIWindowUseBackdrops()
PUBLIC 247c4 0 _HIThemeApplyNewLook
PUBLIC 24800 0 HIMenuBarView::DrawSelf(short, __HIShape const*, CGContext*)
PUBLIC 24ae4 0 HIMenuBarView::SyncInactiveResolution(unsigned int, unsigned int)
PUBLIC 24b40 0 HIMenuBarView::DrawOnce(CGRect, CGRect, bool, bool, CGContext*)
PUBLIC 252f4 0 _HIMenuBarGetAppearance
PUBLIC 25344 0 _HIThemeIsDarkModeEnabled
PUBLIC 25394 0 TBCopyStringPref
PUBLIC 25442 0 HIMenuBarView::EnsureBarLayout()
PUBLIC 256e7 0 _MenuIterCreateInternal
PUBLIC 25740 0 _MenuIterCount
PUBLIC 25809 0 CountItemsInMenu(MenuData*, unsigned long, IterPosition*)
PUBLIC 25891 0 _FindFirstSystemMenuIndex
PUBLIC 258b1 0 FindFirstSystemMenuIndex(MenuData*)
PUBLIC 25948 0 HIMenuBarView::MeasureAppMenus()
PUBLIC 25abf 0 _MenuIterReset
PUBLIC 25ae2 0 HIMenuBarView::MeasureMenuTitle(MenuData*, unsigned char, float*, int)
PUBLIC 25d41 0 _GetMenuTitleIcon(MenuData*, unsigned int*, void**)
PUBLIC 25dc8 0 MenuData::GetTitleIcon()
PUBLIC 25e96 0 _GetThemeAppleMenuTitleWidth
PUBLIC 25eba 0 HIMenuBarView::GetMenuTitleExtra(unsigned int)
PUBLIC 25ef9 0 GetThemeMenuTitleExtra
PUBLIC 25f2a 0 _SetMenuTitleFont
PUBLIC 25f58 0 MenuData::SetTitleFont(unsigned short)
PUBLIC 25f9d 0 GetCurrentAppNameAsCFString
PUBLIC 260a9 0 _GetMenuTitleFont(MenuData*)
PUBLIC 260ea 0 HIThemeGetTextDimensions
PUBLIC 261da 0 DataEngine::GetTextDimensions(void const*, double, HIThemeTextInfo*, double*, double*, double*)
PUBLIC 26354 0 TThemeDrawState::TThemeDrawState(unsigned int)
PUBLIC 26360 0 TThemeDrawState::TThemeDrawState(unsigned int)
PUBLIC 2646b 0 GetSpecialMenuMarkCUIImageName(unsigned short, TThemeDrawState const&, __CFString const*, __CFString const**, __CFString const**, CGPoint*)
PUBLIC 265c2 0 ThemeTextLockIfNeeded()
PUBLIC 265dc 0 ShouldLockForTextOperations
PUBLIC 265ec 0 THIThemeTextInfoFactory(HIThemeTextInfo*)
PUBLIC 2667e 0 THIThemeTextInfoFinder::Set(HIThemeTextInfo*)
PUBLIC 26689 0 ThemeTextCreate(void const*, THIThemeTextInfo const*)
PUBLIC 266d6 0 TThemeTextCache::Create(void const*, THIThemeTextInfo const*)
PUBLIC 2692e 0 TCoreTextEngine::TCoreTextEngine()
PUBLIC 2693e 0 TCoreTextEngine::TCoreTextEngine()
PUBLIC 269ae 0 TThemeText::TThemeText()
PUBLIC 269dc 0 TThemeCacheObject::TThemeCacheObject()
PUBLIC 269f4 0 TLayoutInfo::TLayoutInfo()
PUBLIC 26a14 0 TLayoutState::TLayoutState()
PUBLIC 26a2e 0 TCoreTextEngine::Init(void const*, THIThemeTextInfo const*)
PUBLIC 26b70 0 TLayoutState::IsLaidOut()
PUBLIC 26b84 0 TThemeText::Init(void const*, THIThemeTextInfo const*)
PUBLIC 26bd4 0 THIThemeTextInfoFinder::GetFontID() const
PUBLIC 26be4 0 TThemeText::ConstructThemeFontWithFontID(__CFString const*, THIThemeTextInfo const*)
PUBLIC 26c6e 0 ThemeFontCreate(THIThemeTextInfo const*)
PUBLIC 26dca 0 TThemeMetaFont::TThemeMetaFont()
PUBLIC 26e08 0 TThemeMetaFont::Init(THIThemeTextInfo const*)
PUBLIC 26eb8 0 TThemeFont::SetIdentifier(unsigned int)
PUBLIC 26ecc 0 TThemeFont::GetFontSizeFromTextInfo(THIThemeTextInfo const*) const
PUBLIC 26f1e 0 TThemeMetaFont::GetDefaultSize() const
PUBLIC 26f6c 0 TThemeMetaFont::GetThemeFontID() const
PUBLIC 26f76 0 GetApplicationTextEncoding
PUBLIC 26fb6 0 THIThemeTextInfo::GetCustomSize() const
PUBLIC 26fc0 0 THIThemeTextInfoFinder::GetOptions() const
PUBLIC 26fce 0 TThemeCacheObject::Retain(__CFAllocator const*, void const*)
PUBLIC 26fdc 0 TThemeFont::IsUnderlined() const
PUBLIC 26fe4 0 TThemeFont::IsCondensed() const
PUBLIC 26fec 0 TThemeFont::IsExtended() const
PUBLIC 26ff4 0 TThemeFont::IsBold() const
PUBLIC 26ffc 0 TThemeFont::IsItalic() const
PUBLIC 27002 0 AXDictList::GetCFDictionaryKeyCallBacks()
PUBLIC 2700c 0 HIDualIconTextView::HasLeftIcon()
PUBLIC 27014 0 HIDualIconTextView::HasRightIcon()
PUBLIC 2701c 0 HIDualIconTextView::GetLeftIconPart()
PUBLIC 27024 0 HIDualIconTextView::GetRightIconPart()
PUBLIC 2702c 0 HIDualIconTextView::GetLeftIconBehavior()
PUBLIC 27034 0 HIDualIconTextView::GetRightIconBehavior()
PUBLIC 2703c 0 HIDualIconTextView::GetAccessibilityTitle()
PUBLIC 27044 0 HIDualIconTextView::GetAccessibilityLeftIconConvenienceAttributeName()
PUBLIC 2704c 0 HIDualIconTextView::GetAccessibilityRightIconConvenienceAttributeName()
PUBLIC 27054 0 HIDualIconTextView::GetAccessibilityRightIconDescription()
PUBLIC 27060 0 ITableData::RowBasedData() const
PUBLIC 27066 0 ITableData::ColumnIndex(unsigned long) const
PUBLIC 27070 0 TTableView::GetCustomSelectedSetChangedNotificationName()
PUBLIC 27078 0 TTableView::GetCustomRowCountChangedNotificationName()
PUBLIC 2707e 0 ITableData::CachedData(Cell64 const&) const
PUBLIC 27086 0 TColumnData::CreateContainer(TContainer::ListItemRef&)
PUBLIC 27094 0 TColumnData::SendMessage(int, void*)
PUBLIC 27096 0 non-virtual thunk to TColumnData::CreateContainer(TContainer::ListItemRef&)
PUBLIC 2709e 0 non-virtual thunk to TColumnData::SendMessage(int, void*)
PUBLIC 270a8 0 TColumnView::ClearSelection()
PUBLIC 270b0 0 TColumnView::DragItem(OpaqueDragRef*, EventRecord const&, int&)
PUBLIC 270be 0 TColumnView::UpdateItems(unsigned long, unsigned int, unsigned long const*, IDataSorter const&, unsigned long)
PUBLIC 270c8 0 TBrowserView::CreateAXUIElementForItemInfo(DataBrowserAccessibilityItemInfo const&) const
PUBLIC 270d0 0 TBrowserView::CopyAXUIElementRefForFocus()
PUBLIC 270d8 0 ITableData::CellIsSelected(Cell64 const&) const
PUBLIC 270e0 0 ITableData::ItemRow(unsigned long) const
PUBLIC 270e8 0 ITableData::CellID(Cell64 const&) const
PUBLIC 270f0 0 ITableData::RowID(unsigned long) const
PUBLIC 270f8 0 HLTB_CDEF::DragLeave(OpaqueDragRef*)
PUBLIC 27100 0 HLTB_CDEF::DragWithin(OpaqueDragRef*)
PUBLIC 27108 0 HLTB_CDEF::DragReceive(OpaqueDragRef*)
PUBLIC 27110 0 HLTB_CDEF::CalcBestRect(HLTB_CDEF::BestSizeRec&) const
PUBLIC 27118 0 HLTB_CDEF::CalcRegion(OpaqueRgnHandle*, short) const
PUBLIC 27122 0 CRunObject::NeedToSavePreLinkStyle()
PUBLIC 27130 0 CTextensionDrag::ClientDragTracking(short, OpaqueDragRef*, unsigned char)
PUBLIC 27138 0 CTextensionDrag::ClientDragReceive(OpaqueDragRef*, unsigned char)
PUBLIC 27140 0 CTextensionDrag::ClientFilterData(CTextensionIOSuite*, unsigned int)
PUBLIC 27148 0 CTextensionDrag::DoesClientNeedFiltering()
PUBLIC 27150 0 CTextensionDrag::GetClientWindow()
PUBLIC 27154 0 CStyledText::GetPrinterCGContext()
PUBLIC 27162 0 CTextension::SetInputWindowState(unsigned char)
PUBLIC 2716a 0 CTextension::GetInputWindowState()
PUBLIC 27172 0 CTextension::GetFilterIOSuite()
PUBLIC 2717a 0 CTextension::GetLayoutRanges()
PUBLIC 2717c 0 CTextension::SetFontFallbacks(OpaqueATSUFontFallbacks*)
PUBLIC 27184 0 CTextension::GetFontFallbacks()
PUBLIC 2718a 0 TWindowTracker::CommitTrackedPosition()
PUBLIC 27198 0 TThemeText::ConstructWithThemeFont(__CFString const*, TThemeFont*)
PUBLIC 271ac 0 TCoreTextEngine::CheckForLF(__CFString const*)
PUBLIC 2737c 0 TCoreTextEngine::CreateThemeTextAttributedString(__CFAttributedString const*, __CFString const*)
PUBLIC 27402 0 TThemeFont::CreateAttributeDictionary()
PUBLIC 275e4 0 TThemeMetaFont::CreateCTFontRef()
PUBLIC 2765a 0 HIThemeGetUIFontType
PUBLIC 276ba 0 TCoreTextEngine::GetThemeTextDimensions(double, THIThemeTextInfo*, double*, double*, double*)
PUBLIC 277a6 0 TCoreTextEngine::VerifyLayout(THIThemeTextInfo*, float, float, LayoutIntent)
PUBLIC 278b6 0 TThemeText::LayoutGetLayoutType(THIThemeTextInfo*, float, bool)
PUBLIC 27916 0 THIThemeTextInfoFinder::GetTruncation() const
PUBLIC 27924 0 THIThemeTextInfoFinder::GetTruncationLines() const
PUBLIC 2793e 0 TCoreTextEngine::Layout(THIThemeTextInfo*, float, float, TextLayoutType)
PUBLIC 279d0 0 TCoreTextEngine::LayoutSingleLine(THIThemeTextInfo*, float)
PUBLIC 27b2e 0 TCoreTextEngine::CreateLineInfoFromLine(__CTLine const*, bool)
PUBLIC 27bfe 0 TLayoutInfo::AddLineInfo(TLineInfo const*)
PUBLIC 27c88 0 TLayoutState::SetIsFullyLaidOut(unsigned char)
PUBLIC 27ca2 0 TLayoutState::SetLaidOut(unsigned char)
PUBLIC 27cb8 0 TLayoutState::SetLayoutInfo(THIThemeTextInfo const*)
PUBLIC 27d4c 0 THIThemeTextInfoFinder::GetHFlush() const
PUBLIC 27d66 0 TLayoutInfo::GetBoundingWidth()
PUBLIC 27dc2 0 TLayoutInfo::GetLineCount()
PUBLIC 27e1c 0 TLayoutInfo::GetLineInfo(long)
PUBLIC 27e7c 0 TLayoutInfo::GetBoundingHeight()
PUBLIC 27ee2 0 THIThemeTextInfoFinder::SetTruncationHappened(bool)
PUBLIC 27ef0 0 ThemeTextRelease(TThemeText*)
PUBLIC 27f38 0 TThemeTextCache::Release(TThemeText*)
PUBLIC 280ba 0 ThemeCacheEnabled(unsigned char)
PUBLIC 2810a 0 TBGetNumberPref
PUBLIC 28234 0 TThemeText::SetCUIState(OpaqueCUIRendererRef*, __CFDictionary*)
PUBLIC 28246 0 TCoreTextEngine::GetThemeTextString()
PUBLIC 2825e 0 TThemeCacheObject::Release(TThemeCacheObject*)
PUBLIC 2828e 0 ThemeTextUnlockIfNeeded()
PUBLIC 282b0 0 TThemeFont::IsCompatible(THIThemeTextInfo const*) const
PUBLIC 2834e 0 TThemeCacheObject::Retain(TThemeCacheObject*)
PUBLIC 2835e 0 HIMenuBarView::MeasureSystemMenus()
PUBLIC 28486 0 HIMenuBarView::GetTitleBounds(int, CGRect*)
PUBLIC 285dc 0 HIRectGetMaxX
PUBLIC 285ed 0 _HIThemeDrawAppleMenuTitle
PUBLIC 28821 0 _HIThemeGetVibrantRenderer
PUBLIC 28938 0 TTheme::GetCurrent()
PUBLIC 28a0c 0 OpenThemeResFileMapped
PUBLIC 28af0 0 TTheme::LoadThemeInformation()
PUBLIC 28bca 0 ReleaseLayoutGlobals
PUBLIC 28c0a 0 TTheme::GetCurrentVariant()
PUBLIC 28c2e 0 TTheme::InitializeThemeData()
PUBLIC 28de4 0 TTheme::LoadDataTable(ThemeDataTable*, ThemeDataTableRsrc*, ThemeVariantList*, short)
PUBLIC 28e74 0 TTheme::InsertVariantIDs(ThemeDataTable*, ThemeVariantList*)
PUBLIC 28ff2 0 GetIndThemeVariant
PUBLIC 2909e 0 TTheme::FindThemeDataEntry(unsigned int, short, ThemeDataTable*)
PUBLIC 290f7 0 DataTableSearchCompare(void const*, void const*)
PUBLIC 2910e 0 TTheme::SetVariantFromPrefs()
PUBLIC 291ad 0 _HIThemeGetRendererWithNameFromSystemAppearanceBundle(__CFString const*)
PUBLIC 29289 0 _HIThemeFlipIfRequired
PUBLIC 292e8 0 _HIThemeCUIDrawWithRenderer
PUBLIC 293b1 0 _HIThemeCUIDrawWithOptions
PUBLIC 2942a 0 _HIThemeUnflipIfRequired
PUBLIC 2949a 0 HIThemeDrawMenuTitle
PUBLIC 294a4 0 _HIThemeDrawMenuTitleInternal(CGRect const*, CGRect const*, HIThemeMenuTitleDrawInfo const*, MenuTitleDrawingXUPP*, void*, CGContext*, unsigned int, CGRect*)
PUBLIC 29788 0 _HIThemeIncreaseContrast
PUBLIC 297d8 0 _HIThemeGetFallbackCUIRenderer
PUBLIC 29a3b 0 _HIThemeGetCUIRenderer
PUBLIC 29b18 0 HIMenuBarView::DrawTextTitle(MenuData*, CGRect const*, __CFString const*, unsigned short, CGContext*, bool, bool)
PUBLIC 29ccb 0 _HIWindowSetFontSmoothingColorForBackdropMaterial(CGContext*, HIWindowBackdropMaterial, unsigned char)
PUBLIC 29e43 0 _HIMenuSetFontSmoothingStyle
PUBLIC 29e6e 0 HIMenuBarView::GetTextTitleAttributes()
PUBLIC 29ef6 0 HIThemeSetTextFill
PUBLIC 29f12 0 _HIThemeSetTextColor
PUBLIC 29f62 0 DataEngine::SetTextColor(short, unsigned short, CGContext*, OpaqueCUIRendererRef*)
PUBLIC 2a00e 0 GetTextColorInternal(short, HIColorTransform*, OpaqueCUIRendererRef*, RGBColor*, CGColor**)
PUBLIC 2a3cc 0 TTheme::GetTextColor(short, RGBColor*)
PUBLIC 2a4b4 0 HICGGetRGBColorspace
PUBLIC 2a4dc 0 HIThemeDrawTextBox
PUBLIC 2a6f2 0 DataEngine::DrawTextBox(void const*, CGRect const*, HIThemeTextInfo*, CGContext*)
PUBLIC 2aca0 0 TThemeTextCache::ClassTextDictRelease(__CFAllocator const*, void const*)
PUBLIC 2ace8 0 TThemeTextCache::TextDictRelease(TThemeText*)
PUBLIC 2adde 0 TThemeCacheObject::GetRefCount()
PUBLIC 2ade8 0 TThemeCacheObject::Release(__CFAllocator const*, void const*)
PUBLIC 2ae0c 0 _HIThemeGetMenuTextRenderer
PUBLIC 2ae3f 0 ___ZN10DataEngine11DrawTextBoxEPKvPK6CGRectP15HIThemeTextInfoP9CGContext_block_invoke
PUBLIC 2af63 0 _HIThemeSetCUIState
PUBLIC 2af90 0 _HIThemeTranslateThemeStateToCUIState
PUBLIC 2b00c 0 TCoreTextEngine::DrawThemeTextBox(THIThemeTextInfo*, CGRect const&, unsigned int, CGContext*)
PUBLIC 2bd3e 0 TThemeMetaFont::ApplyStyleToContext(unsigned int, CGContext*) const
PUBLIC 2bdae 0 TCoreTextEngine::GetRequestCompatibility(TextLayoutType, THIThemeTextInfo const*, float, float, LayoutIntent)
PUBLIC 2c028 0 TLayoutState::IsFullyLaidOut()
PUBLIC 2c03c 0 TLayoutState::GetThemeTextTruncation()
PUBLIC 2c05a 0 THIThemeTextInfoFinder::GetVFlush() const
PUBLIC 2c068 0 THIThemeTextInfoFinder::GetState() const
PUBLIC 2c076 0 TThemeMetaFont::GetStyleShadowOutset(unsigned int, Rect*) const
PUBLIC 2c0d2 0 TThemeText::GetCUIRenderer()
PUBLIC 2c0dc 0 TThemeText::GetCUIOptions()
PUBLIC 2c0e9 0 _HIThemeCUIDrawStyledGlyphsAtPositions
PUBLIC 2c16f 0 _SetMenuBarValid
PUBLIC 2c17c 0 CopyWindowImageRect
PUBLIC 2c1fd 0 CopyWindowImageRectToContext
PUBLIC 2c2fb 0 IsMenuBarViewOnActiveDisplay
PUBLIC 2c367 0 HIViewGetWindow
PUBLIC 2c382 0 HIWindowGetGreatestAreaDisplay
PUBLIC 2c3e2 0 GetActiveDisplay
PUBLIC 2c434 0 HIView::GetFocusPartSelf()
PUBLIC 2c441 0 _CopyFirstOpenMenus
PUBLIC 2c524 0 HIView::Validate(__HIShape const*)
PUBLIC 2c536 0 HIView::Validate(__HIShape const*, unsigned char, unsigned char)
PUBLIC 2c6b5 0 FlushPlatformWindow
PUBLIC 2c6e0 0 WindowData::SyncAutoTermination()
PUBLIC 2c7cf 0 GetWindowGroupOrderingParent
PUBLIC 2c7ed 0 WindowStateTrackVisibility(WindowData*)
PUBLIC 2c83a 0 PersistentWindowState::GetPersistentWindowState(WindowData*)
PUBLIC 2c876 0 PersistentWindowState::GetPersistentWindowStateList()
PUBLIC 2c8a8 0 WindowData::BaseHandler(OpaqueEventHandlerCallRef*, OpaqueEventRef*, void*)
PUBLIC 2cd4e 0 UpdateProcessEventMask(OpaqueWindowPtr*, unsigned char)
PUBLIC 2cdb0 0 HIApplication::HandleWindowShown(OpaqueEventRef*)
PUBLIC 2ce79 0 UpdateRotatableWindowList(WindowData*, WindowListChange, unsigned int)
PUBLIC 2d05e 0 HIObject::IsAccessibilityIgnored()
PUBLIC 2d071 0 AdjustBaroloFullScreenModeWindows()
PUBLIC 2d07e 0 CheckForModalityChange
PUBLIC 2d29e 0 FrontNonFloatingWindow
PUBLIC 2d2ba 0 FrontNonFloatingWindowStartingAt(WindowData*, unsigned char)
PUBLIC 2d350 0 IsWindowLatentVisible
PUBLIC 2d387 0 CheckForMainWindowChange()
PUBLIC 2d394 0 HIApplication::PossibleMainWindowChange()
PUBLIC 2d3c8 0 HIApplication::GetMainWindow()
PUBLIC 2d433 0 ActiveNonFloatingWindow
PUBLIC 2d450 0 ___ZN15MenuBarInstance28SetBoundsAndUpdateResolutionEv_block_invoke
PUBLIC 2d55b 0 HIWindowGetBackingScaleFactor
PUBLIC 2d5b3 0 HIWindowSetBounds
PUBLIC 2d5fa 0 WindowData::SetBounds(unsigned short, unsigned int, CGRect const*)
PUBLIC 2d682 0 WindowData::SetBounds(unsigned short, Rect const*, Rect const*, unsigned int, unsigned char*)
PUBLIC 2d806 0 WindowData::GetBounds(unsigned short, Rect*)
PUBLIC 2d846 0 WindowData::GetBounds(unsigned short, unsigned int, CGRect*)
PUBLIC 2da34 0 WindowData::CopyShape(unsigned short, __HIShape const**)
PUBLIC 2dbf0 0 WindowToGlobalShape(WindowData*, __HIShape*)
PUBLIC 2dc2a 0 MoveResizeWindowInternal(WindowData*, int, int, int, int, unsigned char, unsigned char, unsigned char, unsigned char, Rect const*, unsigned int)
PUBLIC 2e2ab 0 HasGroupedWindows(WindowData*, OpaqueWindowGroupRef**, WindowData**, unsigned char*)
PUBLIC 2e350 0 GetWindowGroupAttributes
PUBLIC 2e37c 0 SendBoundsChangeEvent(OpaqueWindowPtr*, unsigned char, Rect const*, Rect const*, Rect*, Rect const*, Rect const*, unsigned int)
PUBLIC 2e5b1 0 ShouldRecalcRegions(WindowData*, Rect const*, Rect const*)
PUBLIC 2e68e 0 WindowData::ShouldRecalcRegionsSelf(Rect const*, Rect const*)
PUBLIC 2e6d6 0 WindowData::MoveResizeRgns(short, short, short, short, bool)
PUBLIC 2e7b4 0 MenuBarInstance::ForEachActiveDisplayDo(unsigned char, bool (unsigned int) block_pointer)
PUBLIC 2e886 0 MenuBarInstance::IsWindowOrderedIn()
PUBLIC 2e8db 0 EnsureTrackingListeners()
PUBLIC 2e93e 0 MenuBarInstance::SetServerBounds()
PUBLIC 2ea0a 0 MenuBarInstance::CopyGlobalSettings()
PUBLIC 2eb51 0 GetCurrentThemeVariant
PUBLIC 2eb68 0 _HIMenuBarViewGetAvailableSpace(OpaqueControlRef*, CGRect*)
PUBLIC 2eba0 0 ___ZN15MenuBarInstance15SetServerBoundsEv_block_invoke
PUBLIC 2ebb4 0 MenuBarInstance::AppendSettings(__CFArray*)
PUBLIC 2ec81 0 ___ZN15MenuBarInstance14AppendSettingsEP9__CFArray_block_invoke
PUBLIC 2ef76 0 _HIMenuBarViewGetInactiveWindow(OpaqueControlRef*)
PUBLIC 2efa6 0 MenuBarInstance::CreateMenuTitlesArray(OpaqueControlRef*)
PUBLIC 2effe 0 MenuBarInstance::AppendMenuTitleBounds(__CFArray*, OpaqueControlRef*)
PUBLIC 2f0ae 0 HIViewGetFocusPart
PUBLIC 2f0f2 0 SendControlDefGetFocusPart(HIView*, short*)
PUBLIC 2f194 0 MenuBarInstance::IsMenuBarOwner()
PUBLIC 2f1df 0 BroadcastToolboxMessage
PUBLIC 2f32c 0 BroadcastInternal(unsigned int, void*, unsigned char)
PUBLIC 2f41e 0 MenuBarInstance::UpdateAutoShowObserver()
PUBLIC 2f440 0 MenuBarInstance::AnyAutoShowInstanceIsVisible()
PUBLIC 2f5af 0 ___ZN15MenuBarInstance28AnyAutoShowInstanceIsVisibleEv_block_invoke
PUBLIC 2f66c 0 MenuBarInstance::RemoveAutoShowObserver()
PUBLIC 2f6ae 0 _SetMenuTrackingShouldReraiseNSExceptions
PUBLIC 2f6bb 0 _HIEnableSuddenTerminationIfRequestedByPlist
PUBLIC 2f7a2 0 GetCurrentEventQueue
PUBLIC 2f844 0 _BlockUntilNextEventMatchingListInModeWithFilter
PUBLIC 2f8a1 0 ReceiveNextEventCommon
PUBLIC 2fc52 0 SetEventQueueFilterTabletEvents
PUBLIC 2fc78 0 RunCurrentEventLoopInMode
PUBLIC 2fe00 0 _FirstEventTime
PUBLIC 3024c 0 _HIEnableAutomaticTerminationIfRequestedByPlist
PUBLIC 302e6 0 HLTBSupportsAutomaticTermination
PUBLIC 3037d 0 WindowStateInitFirstEventTime()
PUBLIC 30392 0 GetPersistenceDictionariesAtLaunch()
PUBLIC 303e4 0 _HIPersistentUICopyPersistentCarbonWindowDictionariesForBundleID
PUBLIC 30488 0 _HIPersistentUIBeginAcquiringExternallyCreatedWindows
PUBLIC 3052e 0 AddCGSSourceToRunLoop(__CFRunLoop*)
PUBLIC 305ad 0 AdjustCGSSourceInRunLoop(void (*)(__CFRunLoop*, __CFRunLoopSource*, __CFString const*), __CFRunLoop*, __CFRunLoopSource*)
PUBLIC 306b2 0 SetMouseCoalescingEnabled
PUBLIC 30752 0 _GetEventQueueLimit
PUBLIC 30767 0 _SetEventQueueLimit
PUBLIC 30781 0 INIT_AppleEvents
PUBLIC 307b3 0 InitializeHighLevelEvents
PUBLIC 3082f 0 CreateHighLevelEvent
PUBLIC 308f3 0 PostEventToQueue
PUBLIC 30989 0 PostEventToQueueInternal
PUBLIC 30cff 0 RetainEvent
PUBLIC 30d3f 0 RemoveEventParameter
PUBLIC 30dab 0 IsEventTraceEnabled
PUBLIC 30e01 0 GetCurrentEventMask
PUBLIC 30e69 0 GetBackgroundModifiersMask
PUBLIC 30e75 0 ShouldFlushAtFullRefreshRate
PUBLIC 30eb0 0 SetPlatformFlushTimeout
PUBLIC 30ebe 0 SyncHandwritingHotKey
PUBLIC 31024 0 TISIsInputSourceConfigSandboxed
PUBLIC 3102e 0 isPrefsIsTISConfigSandboxed
PUBLIC 31210 0 TISCreateInputSourceList
PUBLIC 316ec 0 InitTSMFirstEventTime
PUBLIC 319eb 0 _InitInputSourceDeselect
PUBLIC 31a20 0 InitializeTSMMessageReceiving
PUBLIC 31b3d 0 InstallInputSourceMgrHandlers
PUBLIC 31dd0 0 RegisterSystemToolboxListenerWithOptions
PUBLIC 31dec 0 IsTSMTracingInputSourceNotifications
PUBLIC 31e21 0 HLTBGetProcessID
PUBLIC 31e68 0 RegisterToolboxEventModifierDoubleTapInvalidation
PUBLIC 31e75 0 TSMGetInputSourceCountWithFilteredAdditions
PUBLIC 31ec3 0 islGetInputSourceListWithAdditions
PUBLIC 3257b 0 RegisterInvalidateInputSourceArrayCallback
PUBLIC 32588 0 isPrefsCreateCacheFromEnabledAndDefaultInputSources
PUBLIC 32a5d 0 isPrefsGetDefaultAsciiKeyboardLayout
PUBLIC 32cfd 0 GetInputSourceEnabledPrefs
PUBLIC 33298 0 islcGetInputSourceCacheIndexFromData
PUBLIC 333ff 0 islcGetKeyboardLayoutIndexFromNameAndID
PUBLIC 33540 0 TISGetAppleKeyLayoutIndexForNumericID
PUBLIC 335b3 0 TISMapAppleKeyLayoutData
PUBLIC 336ee 0 _CompareAppleKeyLayoutNumberEntries
PUBLIC 33708 0 TISGetAppleKeyLayoutKLPropertyAtIndex
PUBLIC 33830 0 IsTSMTracingInputSourceSelection
PUBLIC 33865 0 CreateInputSourceProperties
PUBLIC 338fc 0 islcGetInputMethodIndexFromBundleID
PUBLIC 33b42 0 GetInputSourceCacheHeader
PUBLIC 33cfe 0 InitializeInputSourceCache
PUBLIC 3483c 0 TISGetAppleKeyLayoutCount
PUBLIC 34863 0 TSMCreateInputSourceRefForIndex
PUBLIC 348c6 0 islGetInputSourceList
PUBLIC 348d4 0 CreateInputSourceForIndex
PUBLIC 34925 0 TSMGetInputSourceProperty
PUBLIC 34ad1 0 isValidateInputSourceRef
PUBLIC 34b87 0 islGetInputSourceProperty
PUBLIC 34d3a 0 CheckInputSourceStateInvalidated
PUBLIC 34e23 0 islPopulateInputSourceProperty
PUBLIC 36b58 0 islGetInputSourcePrefsDescriptor
PUBLIC 36c41 0 islGetInputSourceInputKind
PUBLIC 36cfc 0 islGetInputSourceCacheIndex
PUBLIC 36f22 0 islcCreateInputKindFromCacheElem
PUBLIC 36ff4 0 islGetInputSourceIdentifier
PUBLIC 37106 0 islcGetIdentifierFromCacheElem
PUBLIC 371fe 0 islCreateInputSourcePrefsDescriptor_Common
PUBLIC 37470 0 islcCreateKeyboardLayoutNameForID
PUBLIC 3750a 0 isPrefsGetInputSourceIsEnabled
PUBLIC 378db 0 IsInputSourceDictValid
PUBLIC 37aaa 0 TISGetInputSourceProperty
PUBLIC 37d2b 0 islcCreateInputSourceIDFromCacheElem
PUBLIC 37dee 0 CreateKLInputSourceIDFromCacheElem
PUBLIC 38035 0 islcGetKLPropertyFromCacheElem
PUBLIC 380a5 0 __TSMInputSourceDeallocate
PUBLIC 380ac 0 GetInputSourceCacheArray
PUBLIC 381ee 0 islGetInputSourceBundleID
PUBLIC 382a0 0 islcCreateBundleIDFromCacheElem
PUBLIC 3835f 0 islGetInputSourceInputMode
PUBLIC 38414 0 islcCreateInputModeFromCacheElem
PUBLIC 384a4 0 SyncIronwoodHotKey
PUBLIC 38580 0 TISGetIronwoodEnabledState
PUBLIC 385d8 0 CopyInputSourceRefForInputSourceID
PUBLIC 386a2 0 TSMShouldIronwoodHotKeyLoadIM
PUBLIC 386d4 0 IsOKToAutoEnableIronwood
PUBLIC 38784 0 TISGetDictationShouldAutoEnable
PUBLIC 3878e 0 isPrefsGetDictationShouldAutoEnable
PUBLIC 38899 0 HLTBGetBundleIDName
PUBLIC 388f6 0 CreateUniqueCGSEventHotKeyID
PUBLIC 38913 0 SetCGSEventHotKeyIDIsHotMod
PUBLIC 3891c 0 InstallScriptMgrEventHandler
PUBLIC 389be 0 LazyInitializeAccessibility
PUBLIC 389f6 0 HLTBIsCarbonProcess
PUBLIC 38a12 0 MacManagerLoadFamilyControls
PUBLIC 38a44 0 FlushAllBuffers(__CFRunLoopObserver*, unsigned long, void*)
PUBLIC 38d1d 0 IsSafeToCallApplication
PUBLIC 38d34 0 GetTaskStorageKeyForSafeToCall
PUBLIC 38d82 0 GetCurrentEventTime
PUBLIC 38dca 0 MachTimeConversionRate
PUBLIC 38dfa 0 FlushWindowObject(WindowData*, void**, unsigned char)
PUBLIC 3924b 0 GetWindowPropertyCore(WindowData*, unsigned int, unsigned int, unsigned long, unsigned long*, void*)
PUBLIC 392cb 0 HIGetCollectionItem
PUBLIC 39300 0 SetPlatformWindowOpaqueShape(WindowData*)
PUBLIC 3941b 0 _HIViewGetVisibleRegion
PUBLIC 394a2 0 HIView::GetNeedsDisplay()
PUBLIC 394cb 0 GetWindowProperty
PUBLIC 39544 0 RemoveWindowProperty
PUBLIC 3958b 0 RemoveWindowPropertyCore(WindowData*, unsigned int, unsigned int)
PUBLIC 3962e 0 HIRemoveCollectionItem
PUBLIC 39638 0 HICountCollectionItems
PUBLIC 39642 0 HIReleaseCollection
PUBLIC 3965a 0 MenuBarWindowFlushed
PUBLIC 396c2 0 GetEventDispatcherTarget
PUBLIC 39728 0 HIEventDispatcher::Create(OpaqueHIObjectRef*)
PUBLIC 39784 0 SetEventTargetDefaultHandler
PUBLIC 397b8 0 ___ZN10WindowData18FinishConstructionEjyjPK4RectPhjP15OpaqueWindowPtrP16OpaqueControlRef_block_invoke
PUBLIC 39807 0 _HIObjectClearWeakRef
PUBLIC 3982a 0 HIObject::ClearWeakRef(OpaqueHIObjectRef**, void (*)(OpaqueHIObjectRef*, void*))
PUBLIC 39890 0 HIObject::WeakRefEqual(void const*, void const*)
PUBLIC 398f0 0 HIObject::WeakRefRelease(__CFAllocator const*, void const*)
PUBLIC 3993d 0 MessageHandler(__CFMachPort*, void*, long, void*)
PUBLIC 39995 0 GetEventMonitorConnection
PUBLIC 399a2 0 PullEventsFromWindowServerOnConnection(unsigned int, unsigned char, __CFMachPortBoost*)
PUBLIC 39c05 0 GetMainEventQueueNoCreateThreadUnsafe
PUBLIC 39c19 0 KernelTraceEvent(unsigned int, __CGEvent*, __CGEvent*)
PUBLIC 39cb2 0 CreateAndPostEventWithCGEvent(__CGEvent*, unsigned int, unsigned char, __CFMachPortBoost*)
PUBLIC 3a108 0 CreateEventWithCGEvent
PUBLIC 3c1d2 0 TSMAdjustDoubleTapAction
PUBLIC 3cc16 0 CreateApplicationEvent
PUBLIC 3cc80 0 GetWindowRefFromNativeWindow
PUBLIC 3cc97 0 GetWindowFromPlatformWindow
PUBLIC 3ccb8 0 GetWindowObjectFromPlatformWindow(unsigned int)
PUBLIC 3ccf6 0 InvalidateCurrentButtonAndModifiersState
PUBLIC 3cd12 0 GetCurrentButtonState
PUBLIC 3cd5c 0 SetEventPlatformEvent
PUBLIC 3cd95 0 KeyEventPostedObserver
PUBLIC 3dc8d 0 TSMHandleCGNotification
PUBLIC 3e357 0 FlushDoubleClickParameters
PUBLIC 3e36a 0 FlushKeyboardParameters
PUBLIC 3e377 0 HLTBPixelToDeviceHIPoint
PUBLIC 3e380 0 GetMacModifiers
PUBLIC 3e403 0 CreateMouseEvent
PUBLIC 3e498 0 _ResetAllIdleTimers
PUBLIC 3e568 0 _GetMouseCoalescingStateWithPenButtons
PUBLIC 3e5d7 0 AcquireCoalescingStack(unsigned char)
PUBLIC 3e652 0 IsEventBusy
PUBLIC 3e674 0 IsEventInQueue
PUBLIC 3e69b 0 CopyEventParameter
PUBLIC 3e700 0 CopyEventCGEvent
PUBLIC 3e723 0 AcquireEventFromQueue
PUBLIC 3ea5c 0 DequeueEvent
PUBLIC 3eb10 0 KeyEventDeQueuedObserver
PUBLIC 3ee3e 0 EventObserver
PUBLIC 3eeaa 0 HIApplication::EventObserver(unsigned int, OpaqueEventRef*, void*)
PUBLIC 3f061 0 UpdateCurrentEventState
PUBLIC 3f1ed 0 _EventPulled
PUBLIC 3f20c 0 ConvertEventRefToEventRecord
PUBLIC 3f300 0 GetEventTime
PUBLIC 3f38f 0 GetGlobalMouse
PUBLIC 3f3cc 0 ConvertHighLevelEventToEventRecord
PUBLIC 3f41f 0 _HIDisableSuddenTerminationForSendEvent
PUBLIC 3f469 0 AEProcessAppleEvent
PUBLIC 3f533 0 AEPredispatchHandler(AEDesc const*, AEDesc*, void*)
PUBLIC 3f779 0 _GetActiveSystemUIMode
PUBLIC 3f7bb 0 FlushSpecificEventsFromQueue
PUBLIC 3f869 0 _MainQueuePreFlush
PUBLIC 3f883 0 PullEventsFromWindowServer
PUBLIC 3f8bb 0 EventIteratorCreate
PUBLIC 3f9af 0 TBObjectRetain
PUBLIC 3f9c7 0 EventIteratorNext
PUBLIC 3fa8f 0 EventIteratorDispose
PUBLIC 3fb5f 0 TBObjectRelease
PUBLIC 3fba8 0 GetDblTime
PUBLIC 3fbe4 0 GetDoubleClickParameters
PUBLIC 3fc5c 0 _IsFullTabbingEnabled
PUBLIC 3fd51 0 NewTSMDocument
PUBLIC 3fd5e 0 utNewTSMDocument
PUBLIC 4015e 0 TimeLogStart
PUBLIC 4019c 0 IsTSMTracingDocumentProperties
PUBLIC 401d1 0 SetTSMDocumentTypeProperty
PUBLIC 401f4 0 SetTSMDocumentSystemProperty
PUBLIC 40265 0 GetTSMDocumentTypeProperty
PUBLIC 4028b 0 GetTSMDocumentSystemProperty
PUBLIC 40312 0 utRecordDocumentID
PUBLIC 403b1 0 GetTSMDocumentTable
PUBLIC 403e5 0 utDocNeedsInputWindow
PUBLIC 40405 0 TimeLogPrintDelta
PUBLIC 40482 0 TSMSetDocumentProperty
PUBLIC 40ef3 0 TSMRemoveDocumentProperty
PUBLIC 40f02 0 TSMRemoveDocumentProperty_Internal
PUBLIC 413d5 0 RemoveEventHandler
PUBLIC 4153d 0 RemoveHandlersFromIndex(EventTargetRec*, HandlerRec*, unsigned long, EventTypeSpec const*)
PUBLIC 416ec 0 TEventTypeIndex::RemoveTypes(unsigned long, EventTypeSpec const*, EventTypeSpec*, unsigned long*)
PUBLIC 418ad 0 GlobalRegistryEventUnregistered(unsigned int, unsigned int)
PUBLIC 4199c 0 _HIEnableSuddenTerminationForSendEvent
PUBLIC 419d3 0 TSMGetDocumentProperty
PUBLIC 41b64 0 InitializeDefaultContext
PUBLIC 41c77 0 swmDoOpen
PUBLIC 41d2d 0 utGetAppsUseInputWindowFlag
PUBLIC 41d66 0 ActivateTSMDocument
PUBLIC 41d70 0 MyActivateTSMDocument
PUBLIC 4260e 0 utVerifyTSMDocID
PUBLIC 42667 0 utVerifyTSMGlobals
PUBLIC 426ac 0 IsTSMContextActive
PUBLIC 426bc 0 DocActivatedinBackground
PUBLIC 426f6 0 RemoveDeferredDeactivateTSMDocument_Timer
PUBLIC 4271f 0 _BeginEventReceiptOnThread
PUBLIC 42863 0 ___BeginEventReceiptOnThread_block_invoke
PUBLIC 42892 0 RemoveCGSSourceFromRunLoop(__CFRunLoop*)
PUBLIC 428cc 0 _AcquireMatchingCGEvent
PUBLIC 42a2a 0 ForEachCGQEntryEventDo(unsigned int (CGQEntry*) block_pointer)
PUBLIC 42c84 0 HIApplication::EndNonActiveMenuBar()
PUBLIC 42cd7 0 RemoveKeyFocusHotKeys
PUBLIC 42d31 0 HLTBIsCurrentProcessFrontProcess
PUBLIC 42d8d 0 SetMenuBarObscured
PUBLIC 42f53 0 _ActivateWindowGroups
PUBLIC 42f5d 0 SyncWindowGroupLevelsOnActivationChange()
PUBLIC 42fdd 0 ShowHideWindows
PUBLIC 43158 0 GetFrontWindowOfClass
PUBLIC 431fd 0 RequestWindowToActivate(unsigned int, unsigned char)
PUBLIC 432ca 0 HIApplication::RestoreWindowFocus(unsigned char)
PUBLIC 43349 0 AXNotificationHIObjectNotify
PUBLIC 43359 0 AXNotificationHIObjectNotifyForObject
PUBLIC 433f3 0 ConvertApplicationEventToEventRecord
PUBLIC 43431 0 ToolboxEventDispatcherHandler(OpaqueEventHandlerCallRef*, OpaqueEventRef*, void*)
PUBLIC 43e80 0 HIPushAutoreleasePool
PUBLIC 43e8f 0 TSMAppActivationHandler
PUBLIC 442ea 0 _TSMResetRemoteViewActivation
PUBLIC 44354 0 SetProcessHasKeyFocus
PUBLIC 44363 0 TSMSimulateAppActivated
PUBLIC 443f1 0 SetTSMSimulatedFrontMostState
PUBLIC 443fe 0 SMHandleAppActivatedEvent
PUBLIC 4446c 0 TSMHandleAppActivatedEvent
PUBLIC 444ec 0 SetTSMContextActiveState
PUBLIC 444fc 0 InstallActivateTSMDocument_Timer
PUBLIC 4456a 0 InstallEventLoopTimerInMode
PUBLIC 4457d 0 InstallEventLoopTimerInternal
PUBLIC 44888 0 SetEventLoopTimerNextFireTime
PUBLIC 448e3 0 IsTimerValid
PUBLIC 44938 0 InstallWindowActivated_Observer
PUBLIC 44975 0 GetCurrentKeyModifiers
PUBLIC 44a34 0 HIPopAutoreleasePool
PUBLIC 44a5f 0 MainLoopObserver(unsigned int, OpaqueEventRef*, void*)
PUBLIC 44ae1 0 Convert1CGEvent(unsigned char)
PUBLIC 44c0e 0 _ConvertMatchingCGEvents
PUBLIC 44dc5 0 SwitchEventQueueToUseMachPort
PUBLIC 44e0f 0 ConfirmAppShowHideEvent
PUBLIC 44ea0 0 InkPreflight
PUBLIC 450b8 0 islcGetInputTISTypeFromCacheElem
PUBLIC 451e5 0 TSMIsInkWithMouseEnabled
PUBLIC 45201 0 ConvertMouseEventToEventRecord
PUBLIC 45326 0 FindWindowAndPartFromMouseEvent
PUBLIC 453ef 0 FindWindow
PUBLIC 45423 0 FindWindowOfClass
PUBLIC 454f5 0 FindWindowCommon(Point, OpaqueWindowPtr**, short*)
PUBLIC 45575 0 MBarHit
PUBLIC 455c2 0 _FindMenuUnderMouse
PUBLIC 4588e 0 _HIPresentationInstanceFindAtLocation
PUBLIC 4593b 0 ___HIPresentationInstanceFindAtLocation_block_invoke
PUBLIC 45982 0 MenuBarInstance::ContainsPoint(CGPoint, unsigned int*)
PUBLIC 45a69 0 ___ZN15MenuBarInstance15ForEachBoundsDoEU13block_pointerFb6CGRectjE_block_invoke
PUBLIC 45b89 0 GetCurrentSpaceForDisplay
PUBLIC 45bc4 0 CopyDisplayUUIDAsString
PUBLIC 45bff 0 ___ZN15MenuBarInstance13ContainsPointE7CGPointPj_block_invoke
PUBLIC 45c7c 0 FindPlatformWindow
PUBLIC 45f56 0 HLTBDeviceToPixelHIPoint
PUBLIC 45f5e 0 TimerVector
PUBLIC 45f73 0 ActivateTSMDocument_TimerHandler
PUBLIC 45fb3 0 IsTSMFrontProcess
PUBLIC 45fcc 0 CallMyActivateTSMDocument
PUBLIC 4602e 0 RemoveWindowActivated_Observer
PUBLIC 46056 0 _RemoveEventLoopObserver
PUBLIC 4612f 0 RemoveActivateTSMDocument_AfterWindowActivate_Timer
PUBLIC 46151 0 RemoveActivateTSMDocument_Timer
PUBLIC 46182 0 RemoveEventLoopTimer
PUBLIC 461f3 0 __EventLoopTimerDeallocate
PUBLIC 4625d 0 DecrementActivateTimerLevel
PUBLIC 46269 0 TSMInvalidateSavedUIServerMessage
PUBLIC 462b8 0 _TSMResetDoubleTapAction
PUBLIC 46331 0 IsTSMTracingIronwood
PUBLIC 46366 0 TSMCopyTextInputGlobalProperty
PUBLIC 465ab 0 _HaveOnlyOneKeyboardInputSource
PUBLIC 465f7 0 TSMGetInputSourceCount
PUBLIC 46638 0 _CreateKeyboardInputSourcesArray_Mutable
PUBLIC 468f4 0 TSMPushAsyncClientStateToSync
PUBLIC 4693c 0 CopyTSMDocumentCFTypeProperty
PUBLIC 46970 0 utIsTSMDocUnicodeAware
PUBLIC 469cd 0 SectSelectableInputSourcesArrayFromCurrentState
PUBLIC 46b9b 0 _CreateKeyboardInputSourcesArray
PUBLIC 46bdd 0 islGetIsKeyLayoutSelectable
PUBLIC 46c32 0 islPopulateKLPropertiesFromBundle
PUBLIC 46f73 0 SectEnabledSubsetEnabledArray
PUBLIC 470c0 0 utIsInputSourceAvailForCurrentArch
PUBLIC 4711c 0 utInputSourceIsKeyboardInputMethod
PUBLIC 471d7 0 utIsKeyboardLayoutKCHROnly
PUBLIC 4724e 0 ValidateInputSourceToUseWithEnabledSet
PUBLIC 4760b 0 TSMInputSourceGetTypeID
PUBLIC 47630 0 TSMCurrentKeyboardInputSourceRefCreate
PUBLIC 477a0 0 CheckIfSelectedStateInvalidated
PUBLIC 4789b 0 isCreateCurrentKeyboardInputSourceRef
PUBLIC 47956 0 IsTextInputMenuLoaded
PUBLIC 479af 0 GetRemoteMessagePortRef
PUBLIC 47a80 0 utFixDeactivateForInputSourceSelection
PUBLIC 47b46 0 _TSMSetInputSourceSelected
PUBLIC 4841a 0 TSMSelectInputSource_Internal
PUBLIC 4844d 0 isSetInputSourceSelected
PUBLIC 48ac5 0 __TSMInputSourceHash
PUBLIC 48ada 0 ActivateNewInputSource
PUBLIC 48be3 0 SetLazyHLTBScriptMgr_KeyScript
PUBLIC 48c16 0 GetLazyHLTBScriptMgrInit
PUBLIC 48c4d 0 SetLazyHLTBScriptMgr_ItlbKey
PUBLIC 48c9c 0 TSMGetKeyboardLayoutOverride_Internal
PUBLIC 49035 0 _HaveKeyboardInputMethodOrModeInputSources
PUBLIC 490d8 0 _ISSendWindowServerKeyboardLayoutUpdate
PUBLIC 4921e 0 TISCopyCurrentKeyboardLayoutInputSource
PUBLIC 49278 0 TSMCurrentKeyboardLayoutInputSourceRefCreate
PUBLIC 49371 0 TISIsKeyboardLayoutCapsLockSwitchAllowed
PUBLIC 49430 0 islcCreateCapsLockSwitchFromCacheElem
PUBLIC 494d2 0 _ISAdjustPhysicalKeyboardForCurrentInputSource
PUBLIC 495c2 0 TISCopyCurrentKeyboardInputSource
PUBLIC 495e2 0 islcCreateOverrideCapsLockDelayFromCacheElem
PUBLIC 49684 0 _ISAdjustKeyboardLayoutOverrideForCapsLockState
PUBLIC 496de 0 TSMGetKeyboardLayoutOverride
PUBLIC 496ec 0 utOpenActivateAllSelectedIMInDoc
PUBLIC 498b7 0 _CreateNonKeyboardInputSourcesArray
PUBLIC 49a1a 0 islCreateInputMethodIsSelectable
PUBLIC 49a26 0 islCreateInputMethodIsSelectable_Common
PUBLIC 49b54 0 BuildSelectedInputMethodArrayIterator
PUBLIC 49bbd 0 isPrefsGetInputSourceSelected
PUBLIC 49c00 0 GetInputSourceSelectedPrefs
PUBLIC 4a05d 0 HaveEnqueuedDocumentDeferredActions
PUBLIC 4a081 0 GetPasteboardInputMethodError
PUBLIC 4a098 0 TSMRestoreAsyncClientStateIfPushed
PUBLIC 4a0ad 0 RestoreActivateTimerLevel
PUBLIC 4a0b9 0 TSMGetInputSourcePropertyWithSetter
PUBLIC 4a0ff 0 islGetInputSourcePropertyWithSetter
PUBLIC 4a174 0 TISPropertyCreateIntendedLanguage
PUBLIC 4a198 0 islcCreateLocaleStringFromCacheElem
PUBLIC 4a241 0 CreateLanguageScriptStringFromLocale
PUBLIC 4a34b 0 CreateKeyboardEvent
PUBLIC 4a41a 0 LMSetKbdType
PUBLIC 4a43e 0 _GestaltKeyboardTypeSelector
PUBLIC 4a484 0 IsKeyTransRelatedEvent
PUBLIC 4a50d 0 FindSpecificEventInQueue
PUBLIC 4a58b 0 TSMKeyTransRelatedComparator
PUBLIC 4a5e8 0 TSMProcessRawKeyCode
PUBLIC 4a728 0 TSMTranslateKeyEvent
PUBLIC 4ae2b 0 GetCurrentInputSourceKeyboardProperties
PUBLIC 4aff9 0 ReleaseUchrKCHRCache
PUBLIC 4b05b 0 GetDataFromUCHRForEvent
PUBLIC 4b2d3 0 GetKeyboardEventKeyCode
PUBLIC 4b31a 0 GetKeyboardEventKeyModifiers
PUBLIC 4b346 0 LMGetKbdType
PUBLIC 4b36c 0 DeUnicodifyUCharCount
PUBLIC 4b378 0 utGetInputSourceScriptInfo
PUBLIC 4b690 0 ConvertEventUniCharsToCharCodes
PUBLIC 4b748 0 GetCharCodesFromUnicode
PUBLIC 4b7fe 0 PrepBothTSMDocConverters
PUBLIC 4b9c4 0 ConvertKeyboardEventToEventRecord
PUBLIC 4bafe 0 IsMenuKeyEvent
PUBLIC 4bbb0 0 _IsMenuKeyEvent(MenuData*, OpaqueEventRef*, unsigned int, MenuData**, unsigned short*)
PUBLIC 4bddf 0 CheckMenusForKeyEvent(MenuData*, CheckMenuData*)
PUBLIC 4c1f7 0 _TSMMenuKeyTransWithModifiersBegin
PUBLIC 4c217 0 CurrentKeyLayoutRequiresCommandKey
PUBLIC 4c2c8 0 TranslateKey
PUBLIC 4c3a0 0 TSMKeyTranslate
PUBLIC 4c436 0 TSMKeyTranslateWithInputSource
PUBLIC 4c593 0 GetMultiDeadKeyState
PUBLIC 4c606 0 SaveMultiDeadKeyState
PUBLIC 4c66c 0 UnicodifyByteCount
PUBLIC 4c678 0 FoldR2L
PUBLIC 4c970 0 CheckForValidCache(CheckMenuData*)
PUBLIC 4c9f2 0 MarkHMenus
PUBLIC 4ca13 0 ForEachInstalledHMenuDo(int (*)(MenuData*, void*), void*)
PUBLIC 4ca85 0 MarkEachHMenu(MenuData*, void*)
PUBLIC 4caa2 0 Check1MenuForKeyEvent(MenuData*, CheckMenuData*)
PUBLIC 4d395 0 PopulateMenu(MenuData*, OpaqueEventTargetRef*, CheckMenuData*, unsigned int, double)
PUBLIC 4d4cf 0 _IsMenuAlreadyPopulated(MenuData*, unsigned int)
PUBLIC 4d513 0 SendMenuPopulate(MenuData*, OpaqueEventTargetRef*, unsigned int, double, unsigned int, OpaqueEventRef*, unsigned char, unsigned char*)
PUBLIC 4d6b4 0 MenuData::GetNextTarget(OpaqueEventTargetRef*, OpaqueEventRef*, void*)
PUBLIC 4d7e1 0 GetUserFocusEventTarget
PUBLIC 4d846 0 HIUserFocus::Create()
PUBLIC 4d893 0 UserFocusGetNextTarget(OpaqueEventTargetRef*, OpaqueEventRef*, void*)
PUBLIC 4d93c 0 HIApplicationGetFocus
PUBLIC 4d960 0 DetermineUserFocusWindow()
PUBLIC 4d9ac 0 HIApplication::GetAppObject()
PUBLIC 4d9c4 0 HIApplication::GetPendingFocusWindow()
PUBLIC 4d9e0 0 HIIsAutomaticTerminationSupported
PUBLIC 4da01 0 _ShouldInsertUncountedItemForTesting
PUBLIC 4da28 0 EnsureCPMenuItemCmdKey(OpaqueMenuRef*)
PUBLIC 4dd40 0 UpdateMenuCommandKeys(MenuData*, unsigned char)
PUBLIC 4de63 0 GetUserCommandKeys(__CFDictionary const**, unsigned char*)
PUBLIC 4e352 0 ShouldDisallowUserCommandKeys
PUBLIC 4e364 0 SuppressMenuCommandKeys(MenuData*, unsigned char)
PUBLIC 4e42c 0 InitHelpKeyData(HelpKeyData*)
PUBLIC 4e519 0 _GetSymbolicHotKeyValue2
PUBLIC 4e5bf 0 FocusKeyFromSymKey(unsigned int)
PUBLIC 4e6c3 0 GetKeyFocusInfo(KeyFocusKey, unsigned int*, unsigned short*, unsigned int*, unsigned char*)
PUBLIC 4e73b 0 SyncWithKeyPrefs()
PUBLIC 4ebd1 0 CGSFlagsToEventModifiers
PUBLIC 4ec1c 0 KeyEventMatchesUniCharAndModifiers
PUBLIC 4ed90 0 KeyEventSetDerivedData
PUBLIC 4ee02 0 TranslateKeyToUniChar
PUBLIC 4eeb4 0 _GetMenuItemSystemProperty(MenuData*, unsigned short, unsigned int, unsigned long, unsigned long*, void*)
PUBLIC 4eeea 0 GetMenuItemPropertyCore(MenuData*, unsigned short, unsigned int, unsigned int, unsigned long, unsigned long*, void*)
PUBLIC 4ef64 0 _SetMenuItemSystemProperty(MenuData*, unsigned short, unsigned int, unsigned long, void const*)
PUBLIC 4ef89 0 SetMenuItemKeyGlyph
PUBLIC 4eff9 0 _SetMenuItemKeyGlyph(MenuData*, unsigned short, short, unsigned char)
PUBLIC 4f0ae 0 SetMenuItemCommandKey
PUBLIC 4f12b 0 _SetMenuItemCommandKey(MenuData*, unsigned short, unsigned char, unsigned short, unsigned char)
PUBLIC 4f1b4 0 _SetItemCmd(MenuData*, unsigned short, short, unsigned char)
PUBLIC 4f477 0 ItemHasSubMenu
PUBLIC 4f608 0 _GetMenuItemHierarchicalID(MenuData*, unsigned short, short*)
PUBLIC 4f6d4 0 ItemNeedsSuppression(MenuData*, unsigned short)
PUBLIC 4f714 0 ChangeMenuItemSystemAttributes(MenuData*, unsigned short, unsigned int, unsigned int, unsigned int, unsigned int*)
PUBLIC 4f958 0 ChangeMenuItemAttributes
PUBLIC 4f9e8 0 RemoveEventTypesFromHandler
PUBLIC 4fa5e 0 _GetMenuItemKeyGlyph(MenuData*, unsigned short, short*)
PUBLIC 4fb10 0 SuppressValidatedItemCommandKey(MenuData*, unsigned short, unsigned int, HelpKeyData const*)
PUBLIC 4fd48 0 ItemModsToEventMods
PUBLIC 4fd99 0 Check1ItemForKeyEvent(MenuData*, int, MenuItemDataRef, unsigned int, CheckMenuData*, MenuCommandKey*, unsigned char*)
PUBLIC 4ffa6 0 FetchItemCommandKey(MenuData*, int, MenuItemDataRef, unsigned int, MenuCommandKey*)
PUBLIC 50229 0 FetchItemCacheKey(MenuData*, unsigned short, MenuItemDataRef, unsigned int, MenuCommandKey const*, OpaqueCollection**, unsigned int*)
PUBLIC 502cb 0 UpdateMenuDynamic(MenuData*, unsigned char)
PUBLIC 503a2 0 SetMenuItemModifiers
PUBLIC 50412 0 _SetMenuItemModifiers(MenuData*, unsigned short, unsigned char, unsigned char)
PUBLIC 504f0 0 MenuItemData::SetModifiers(unsigned char)
PUBLIC 50548 0 MenuItemData::SetGlyph(short)
PUBLIC 50599 0 SetItemMark
PUBLIC 505f0 0 _SetItemMark(MenuData*, unsigned short, short)
PUBLIC 5072a 0 MenuItemData::SetItemMark(unsigned char)
PUBLIC 50779 0 _GetVKeyFromMenuKeyGlyph
PUBLIC 507bc 0 UpdateItemCommandKey(MenuData*, unsigned short, unsigned int, __CFDictionary const**, unsigned char)
PUBLIC 507dd 0 KeyEventMatchesMenuItemInternal
PUBLIC 5098c 0 SetMenuItemIconHandle
PUBLIC 50a36 0 ShouldAllowUnknownMenuIconTypes
PUBLIC 50a46 0 _SetMenuItemIconHandle(MenuData*, unsigned short, unsigned char, char**)
PUBLIC 50b04 0 MenuItemData::RemoveIcon()
PUBLIC 50bde 0 MenuItemData::SetIconType(unsigned char)
PUBLIC 50c28 0 MenuItemData::SetIcon(unsigned char, char**)
PUBLIC 50cb2 0 MenuItemData::SetNSImage(void const*)
PUBLIC 50cfd 0 AppleMenuHandler(OpaqueEventHandlerCallRef*, OpaqueEventRef*, void*)
PUBLIC 51f90 0 GetAppleMenu
PUBLIC 51fb0 0 CountMenuItems
PUBLIC 51fe9 0 GetStandardMenu
PUBLIC 520cc 0 HLTBLoadPreferredLanguageNib
PUBLIC 52260 0 CreateNibReferenceFromURLInSimulator
PUBLIC 52278 0 CreateMenuFromNib
PUBLIC 5231d 0 loadNib
PUBLIC 52444 0 IBXDecoderCreate
PUBLIC 5260f 0 IBXDecoderSetIsRunningInSimulator
PUBLIC 52623 0 IBXDecoderSetIsOpenedForEditing
PUBLIC 52630 0 initializeRegistry()
PUBLIC 526ab 0 IBXDecoderLoad
PUBLIC 527f9 0 _createXMLStructure
PUBLIC 52960 0 createIBXObjectElement(void const*, CFXMLElementInfo*)
PUBLIC 529b6 0 IBXObjectElement::IBXObjectElement(void const*, CFXMLElementInfo*)
PUBLIC 52a40 0 IBXElement::IBXElement(void const*, CFXMLElementInfo*)
PUBLIC 52b16 0 IBXRefCount::IBXRefCount()
PUBLIC 52b3c 0 IBXRefCount::retain()
PUBLIC 52b4c 0 _addChild
PUBLIC 52b6c 0 IBXTextElement::IBXTextElement(void const*, __CFString const*)
PUBLIC 52b80 0 IBXTextElement::IBXTextElement(void const*, __CFString const*)
PUBLIC 52c08 0 IBXTextElement::addToParent(IBXElement*)
PUBLIC 52c20 0 IBXElement::addTextElement(IBXTextElement*)
PUBLIC 52c29 0 _endXMLStructure
PUBLIC 52c38 0 IBXRefCount::release()
PUBLIC 52c6a 0 IBXTextElement::~IBXTextElement()
PUBLIC 52ca6 0 IBXTextElement::~IBXTextElement()
PUBLIC 52cf6 0 IBXElement::~IBXElement()
PUBLIC 52d76 0 IBXRefCount::~IBXRefCount()
PUBLIC 52d7c 0 IBXRefCountRetain
PUBLIC 52d92 0 IBXObjectElement::addToParent(IBXElement*)
PUBLIC 52db4 0 IBXObjectElement::addObjectElement(IBXElement*)
PUBLIC 52dc6 0 IBXObjectElement::addChild(IBXElement*)
PUBLIC 52e30 0 createArrayElement(void const*, CFXMLElementInfo*)
PUBLIC 52e86 0 IBXArrayElement::IBXArrayElement(void const*, CFXMLElementInfo*)
PUBLIC 52f1c 0 IBXArrayElement::addToParent(IBXElement*)
PUBLIC 52f36 0 IBXObjectElement::addArrayElement(IBXArrayElement*)
PUBLIC 52f4e 0 IBXArrayElement::addObjectElement(IBXElement*)
PUBLIC 52f64 0 IBXArrayElement::addValue(IBXElement*)
PUBLIC 52fb0 0 createPropertyElement(void const*, CFXMLElementInfo*)
PUBLIC 53014 0 IBXPropertyElement::addToParent(IBXElement*)
PUBLIC 5302e 0 IBXObjectElement::addPropertyElement(IBXPropertyElement*)
PUBLIC 5303c 0 IBXPropertyElement::addTextElement(IBXTextElement*)
PUBLIC 53070 0 createReferenceElement(void const*, CFXMLElementInfo*)
PUBLIC 530c6 0 IBXReferenceElement::IBXReferenceElement(void const*, CFXMLElementInfo*)
PUBLIC 53156 0 IBXReferenceElement::addToParent(IBXElement*)
PUBLIC 53178 0 IBXArrayElement::addReferenceElement(IBXReferenceElement*)
PUBLIC 53188 0 IBXObjectElement::addReferenceElement(IBXReferenceElement*)
PUBLIC 531a0 0 createDictionaryElement(void const*, CFXMLElementInfo*)
PUBLIC 531f6 0 IBXDictionaryElement::IBXDictionaryElement(void const*, CFXMLElementInfo*)
PUBLIC 532a6 0 IBXDictionaryElement::addToParent(IBXElement*)
PUBLIC 532c0 0 IBXObjectElement::addDictionaryElement(IBXDictionaryElement*)
PUBLIC 532cc 0 IBXDictionaryElement::addPropertyElement(IBXPropertyElement*)
PUBLIC 532e2 0 IBXDictionaryElement::addValue(IBXElement*)
PUBLIC 53352 0 IBXDictionaryElement::addReferenceElement(IBXReferenceElement*)
PUBLIC 5335c 0 IBXObjectElement::instantiate(void const*)
PUBLIC 533cc 0 IBXDecoderPush(void const*, IBXElement*)
PUBLIC 533ff 0 _allocObject
PUBLIC 5340d 0 newIBObject(__CFString const*)
PUBLIC 53460 0 IBCarbonNib::makeIBCarbonNib()
PUBLIC 534d9 0 _setObjectForID
PUBLIC 534fc 0 _initObjectWithDecoder
PUBLIC 53514 0 IBCarbonNib::initWithDecoder(void const*)
PUBLIC 535c2 0 IBObject::initWithDecoder(void const*)
PUBLIC 535d0 0 IBXDecoderDecodeString
PUBLIC 5362a 0 IBXObjectElement::childForPropertyName(__CFString const*)
PUBLIC 53651 0 IBXDecoderDecodeObject
PUBLIC 53672 0 IBXObjectElement::instantiateChild(void const*, __CFString const*)
PUBLIC 536d4 0 IBXArrayElement::instantiate(void const*)
PUBLIC 53754 0 IBXElement::setPrevious(IBXElement*)
PUBLIC 53790 0 IBCarbonMenuItem::makeIBCarbonMenuItem()
PUBLIC 53814 0 IBCarbonMenuItem::initWithDecoder(void const*)
PUBLIC 53a41 0 IBXDecoderDecodeInt
PUBLIC 53a7d 0 IBXDecoderDecodeBoolean
PUBLIC 53aae 0 IBXPropertyElement::decodeBoolean()
PUBLIC 53ade 0 IBXDecoderDecodeOSType
PUBLIC 53b13 0 IBXDecoderPop(void const*)
PUBLIC 53b40 0 IBXElement::isNULL() const
PUBLIC 53b48 0 IBXPropertyElement::decodeString()
PUBLIC 53b6a 0 IBXPropertyElement::decodeOSType()
PUBLIC 53b78 0 IBOSTypeFromString
PUBLIC 53c60 0 IBCarbonMenu::makeIBCarbonMenu()
PUBLIC 53cc0 0 IBHIObject::IBHIObject()
PUBLIC 53d04 0 IBCarbonMenu::initWithDecoder(void const*)
PUBLIC 53de4 0 IBHIObject::initWithDecoder(void const*)
PUBLIC 53e59 0 IBXDecoderIsOpenedForEditing
PUBLIC 53e70 0 IBXPropertyElement::decodeInt()
PUBLIC 53e86 0 IBXReferenceElement::instantiate(void const*)
PUBLIC 53ee3 0 _objectForID
PUBLIC 53f08 0 IBXReferenceElement::~IBXReferenceElement()
PUBLIC 53f3c 0 IBXReferenceElement::~IBXReferenceElement()
PUBLIC 53f90 0 _instantiateArray
PUBLIC 5400c 0 IBArray::IBArray(int)
PUBLIC 54020 0 IBArray::IBArray(int)
PUBLIC 5408a 0 IBXRefCountRelease
PUBLIC 540b6 0 IBXArrayElement::~IBXArrayElement()
PUBLIC 540ec 0 IBXArrayElement::~IBXArrayElement()
PUBLIC 54175 0 IBXDecoderIsRunningInSimulator
PUBLIC 5418e 0 IBXDictionaryElement::instantiate(void const*)
PUBLIC 54256 0 IBXPropertyElement::~IBXPropertyElement()
PUBLIC 5428e 0 IBXPropertyElement::~IBXPropertyElement()
PUBLIC 542f0 0 IBCarbonNSCustomObject::makeIBCarbonNSCustomObject()
PUBLIC 54344 0 IBCarbonNSCustomObject::initWithDecoder(void const*)
PUBLIC 54382 0 _instantiateDictionary
PUBLIC 5440c 0 IBDictionary::IBDictionary(int)
PUBLIC 54420 0 IBDictionary::IBDictionary(int)
PUBLIC 54494 0 IBXDictionaryElement::~IBXDictionaryElement()
PUBLIC 544cc 0 IBXDictionaryElement::~IBXDictionaryElement()
PUBLIC 5455e 0 IBXObjectElement::~IBXObjectElement()
PUBLIC 5458c 0 IBXObjectElement::~IBXObjectElement()
PUBLIC 545fb 0 releaseRegistry()
PUBLIC 54626 0 IBXDecoderDelete
PUBLIC 54668 0 IBCarbonNib::getObjectNamed(__CFString const*)
PUBLIC 5468a 0 IBCarbonMenu::getObjectType()
PUBLIC 546a0 0 IBCarbonMenu::instantiate()
PUBLIC 54840 0 IBHIObject::postCreate(OpaqueHIObjectRef*)
PUBLIC 5489a 0 HLTBGetApplicationUILocale
PUBLIC 5493a 0 IBCarbonMenuItem::append(OpaqueMenuRef*, unsigned short, __CFLocale const*)
PUBLIC 54c0a 0 AppendMenuItemTextWithCFString
PUBLIC 54c71 0 _AppendMenuItemTextWithCFString(MenuData*, __CFString const*, unsigned int, unsigned int, unsigned short*)
PUBLIC 54da5 0 _SetMenuItemCommandID(MenuData*, unsigned short, unsigned int)
PUBLIC 54e1c 0 MenuItemData::SetCommandID(unsigned int)
PUBLIC 54e6a 0 IBHIObject::sendCreatedFromArchive(OpaqueHIObjectRef*)
PUBLIC 54e88 0 _HIObjectSendCreatedFromArchive(OpaqueHIObjectRef*, unsigned char)
PUBLIC 54f3f 0 InstallEventLoopTimer
PUBLIC 54f61 0 CopyMenuItems
PUBLIC 550b1 0 _CopyMenuItems(MenuData*, unsigned short, unsigned long, MenuData*, unsigned short)
PUBLIC 55130 0 MenuData::CopyItems(MenuData*, unsigned short, unsigned long, unsigned short)
PUBLIC 55188 0 _MenuElementCopy
PUBLIC 551ba 0 MenuElement::ResolveAndCopyRows(long, unsigned long, MenuElement*, long, unsigned char)
PUBLIC 5529a 0 MenuElement::CopyRows(RowStore*, long, unsigned long, RowStore*, long, unsigned char)
PUBLIC 552de 0 RowStore::CopyRows(long, unsigned long, RowStore*, long, unsigned char)
PUBLIC 553aa 0 MenuElement::ResolveAndApplyFunction(long, unsigned long, unsigned int, int (*)(long, unsigned int, __CFString const*, unsigned int, unsigned long, void const*, void const*), void const*)
PUBLIC 55434 0 RowStore::ApplyFunction(long, long, unsigned int, int (*)(long, unsigned int, __CFString const*, unsigned int, unsigned long, void const*, void const*), void const*)
PUBLIC 554d0 0 MenuElementRow::ApplyFunction(long, unsigned int, int (*)(long, unsigned int, __CFString const*, unsigned int, unsigned long, void const*, void const*), void const*)
PUBLIC 5576e 0 RowStore::CopyRowData(long, unsigned int, __CFString const*, unsigned int, unsigned long, void const*, void const*)
PUBLIC 557e5 0 _MenuElementGetNormalizedKeyName(__CFString const*)
PUBLIC 5583a 0 GetNormalizedKeyName(__CFString const*, ExternalKeyNames*)
PUBLIC 558ed 0 GetExternalKeyName(unsigned long, ExternalKeyNames*)
PUBLIC 55937 0 GetCoreKeyName()
PUBLIC 55adb 0 _HITypeCreateCopy
PUBLIC 55af2 0 TypeManager::CreateCopy(unsigned int, unsigned char, unsigned int, unsigned long, void*)
PUBLIC 55b9e 0 TagStoreBase::ApplyFunction(unsigned char*, MenuElementData*, unsigned long, long, unsigned int, int (*)(long, unsigned int, __CFString const*, unsigned int, unsigned long, void const*, void const*), void const*)
PUBLIC 55c26 0 _MenuElementGetExternalKeyName(__CFString const*)
PUBLIC 55c7a 0 GetMenuKeyName()
PUBLIC 55f44 0 MenuData::PostCopyProperties(unsigned short, unsigned long)
PUBLIC 5602f 0 CleanupAfterItemInsertion(MenuData*, unsigned short, unsigned long, unsigned int)
PUBLIC 56094 0 IsDash(MenuData*, unsigned short)
PUBLIC 56147 0 ItemHasSubMenuID
PUBLIC 561af 0 UpdateSubmenuCount(MenuData*, int)
PUBLIC 561c7 0 UpdateMenuCustomDraw(MenuData*, unsigned char)
PUBLIC 56245 0 GetIndMenuItemWithCommandID
PUBLIC 562d4 0 _GetIndMenuItemWithCommandIDWithOptions(MenuData*, unsigned int, unsigned int, unsigned char, MenuData**, unsigned short*)
PUBLIC 56410 0 IsRootMenu
PUBLIC 56450 0 NormalizeMenu
PUBLIC 56486 0 FindItemByCommand(MenuData*, unsigned int, unsigned char, unsigned int*, MenuData**, unsigned short*)
PUBLIC 56843 0 PopulateMenu(MenuData*, unsigned int)
PUBLIC 5689d 0 _GetMenuItemCommandID(MenuData*, unsigned short, unsigned int*)
PUBLIC 568f4 0 RemoveUncountedItems(MenuData*, unsigned short*)
PUBLIC 5694a 0 GetMenuItemHierarchicalMenu
PUBLIC 5695f 0 GetMenuItemHierarchicalMenuWithOptions(OpaqueMenuRef*, unsigned short, unsigned char, OpaqueMenuRef**)
PUBLIC 56a1f 0 SetMenuID
PUBLIC 56a3c 0 LocationHandler(OpaqueEventHandlerCallRef*, OpaqueEventRef*, void*)
PUBLIC 56c7a 0 UseInstallerMode()
PUBLIC 56cb9 0 _SetAppleMenuInstallerMode
PUBLIC 56cfb 0 RemoveParentMenu(MenuData*, MenuData*)
PUBLIC 56dcf 0 MenuReleaseProc(unsigned int, unsigned int, unsigned long, void const*, void const*)
PUBLIC 56e08 0 MacManagerIsSessionManaged
PUBLIC 56e12 0 MacManagerIsFinderForKidsEnabled
PUBLIC 56f82 0 UpdateValidatedItemCommandKey(MenuData*, unsigned short, unsigned int, __CFDictionary const**, unsigned char)
PUBLIC 57420 0 RecentsHandler(OpaqueEventHandlerCallRef*, OpaqueEventRef*, void*)
PUBLIC 5783f 0 CheckEachHMenuForKeyEvent(MenuData*, void*)
PUBLIC 57894 0 UnmarkHMenus
PUBLIC 578a7 0 UnmarkEachHMenu(MenuData*, void*)
PUBLIC 578bb 0 _TSMMenuKeyTransWithModifiersEnd
PUBLIC 578d4 0 ProcessInputSourceSwitchEventCandidate
PUBLIC 58b44 0 _IsSymbolicHotKeyEvent
PUBLIC 58c71 0 GetUnmodifiedCharCodeForEvent
PUBLIC 58d9e 0 IsFocusKeyOfType(KeyFocusKey, unsigned int, unsigned short, unsigned int, KeyEventDerivedData const*, unsigned char*)
PUBLIC 58eac 0 TSMGetDeadKeyState
PUBLIC 58eb6 0 GetDeadKeyState
PUBLIC 58f0e 0 TSMSetDeadKeyState
PUBLIC 58f18 0 SaveDeadKeyState
PUBLIC 58f86 0 TSMProcessRawKeyEventWithOptionsAndCompletionHandler
PUBLIC 59dc9 0 _TSMCheckActivateFallbackInputContext
PUBLIC 59e41 0 GetKeyboardEventDeadKeyState
PUBLIC 59eae 0 GetKeyboardEventUnicodes
PUBLIC 59f1f 0 GetKeyboardEventMacCharCodes
PUBLIC 59f91 0 AreTSMAndEventOKForPressAndHold
PUBLIC 5a52b 0 IsTSMTracingPressAndHold
PUBLIC 5a560 0 ShouldNotUsePressAndHoldInputMethod
PUBLIC 5a58f 0 utGetSelectedInputMethodOfTypePressHoldForDoc
PUBLIC 5a5e0 0 __TSMProcessRawKeyEventWithOptionsAndCompletionHandler_block_invoke
PUBLIC 5a79a 0 IsTSMOKForIronwood
PUBLIC 5a831 0 utGetSelectedInputMethodOfTypeIronwoodForDoc
PUBLIC 5a882 0 __TSMProcessRawKeyEventWithOptionsAndCompletionHandler_block_invoke_2
PUBLIC 5aa44 0 IsTSMOKForAssistiveTouch
PUBLIC 5aadb 0 IsTSMTracingAssistiveTouch
PUBLIC 5ab11 0 utGetSelectedInputMethodOfTypeAssistiveTouchForDoc
PUBLIC 5ab60 0 __TSMProcessRawKeyEventWithOptionsAndCompletionHandler_block_invoke_3
PUBLIC 5acf5 0 utGetSelectedInputMethodOfTypeTrackpadForDoc
PUBLIC 5ad46 0 __TSMProcessRawKeyEventWithOptionsAndCompletionHandler_block_invoke_4
PUBLIC 5ae8c 0 TSMKeyEvent_WithCompletionHandler
PUBLIC 5b138 0 GetDefIMInstanceTheInstance
PUBLIC 5b186 0 __utDeliverTSMEvent_WithCompletionHandler_block_invoke
PUBLIC 5b350 0 utIsPressAndHoldInputMethodAwake
PUBLIC 5b379 0 __utDeliverTSMEvent_WithCompletionHandler_block_invoke_2
PUBLIC 5b5c4 0 SendUnicodeTextAEToUnicodeDoc_WithCompletionHandler
PUBLIC 5b719 0 CreateTextInputEvent
PUBLIC 5b76c 0 SetTextInputEventComponentInstance
PUBLIC 5b778 0 SetTextInputEventComponentInstanceCommon
PUBLIC 5b875 0 SetTextInputEventTSMRefCon
PUBLIC 5b93e 0 SendFilterTextEvent_WithCompletionHandler
PUBLIC 5ba54 0 SendTSMEvent_WithCompletionHandler
PUBLIC 5bd32 0 IsNSTextInputContextCompletionHandling
PUBLIC 5bd57 0 lookupClass_NSTextInputContext()
PUBLIC 5bd9c 0 IsTracingTSMEvents
PUBLIC 5bdd1 0 TSMClientUsesAsyncCallbacks
PUBLIC 5bde9 0 __SendTSMEvent_WithCompletionHandler_block_invoke
PUBLIC 5be27 0 __SendFilterTextEvent_WithCompletionHandler_block_invoke
PUBLIC 5bf11 0 __SendUnicodeTextAEToUnicodeDoc_WithCompletionHandler_block_invoke
PUBLIC 5c0d2 0 CopyEvent
PUBLIC 5c0ec 0 PreFilterTextInputEvent
PUBLIC 5e3eb 0 PreUnicodeForKeyEvent_AttribStr_Promise
PUBLIC 5e58d 0 ValidateTextAndGlyphInfo
PUBLIC 5e63c 0 CreateAttribStrFromTextAndGlyphInfo
PUBLIC 5e918 0 ___ZL23DispatchEventToHandlersP14EventTargetRecP14OpaqueEventRefP14HandlerCallRec_block_invoke
PUBLIC 5e98f 0 __SendEventToEventTargetWithCompletionHandler_block_invoke
PUBLIC 5e99e 0 __SendUnicodeTextAEToUnicodeDoc_WithCompletionHandler_block_invoke_2
PUBLIC 5e9d4 0 PostFilterTextInputEvent
PUBLIC 5f98b 0 cleanupUnicodeTextToUnicodeDocContext
PUBLIC 5f9dd 0 __utDeliverTSMEvent_WithCompletionHandler_block_invoke_3
PUBLIC 5fa0e 0 cleanuputDeliverTSMEventCompletionContext
PUBLIC 5fa5b 0 __TSMKeyEvent_WithCompletionHandler_block_invoke
PUBLIC 5fa6c 0 __TryKeyDownEventToTSMKeyEvent_WithContinuationHandler_block_invoke
PUBLIC 5fa88 0 __TSMProcessRawKeyEventWithOptionsAndCompletionHandler_block_invoke_5
PUBLIC 5fad7 0 TISCreatePropertyInputSourceLanguages
PUBLIC 60047 0 CreateUSetForInputSource
PUBLIC 600e6 0 DynamicKeyModifierObserver(unsigned int, OpaqueEventRef*, void*)
PUBLIC 60186 0 GetMatchKeyInstallCount
PUBLIC 60193 0 SearchCache(OpaqueCollection*, bool, bool, CheckMenuData*, MenuResult*)
PUBLIC 60630 0 SearchCacheEntries(OpaqueCollection*, unsigned int, unsigned long, CheckMenuData*, MenuResult*, MenuData**, unsigned long*)
PUBLIC 60938 0 HIThemeDrawMenuSeparator
PUBLIC 60980 0 GetDefaultMenuRenderer()
PUBLIC 609ba 0 _HIThemeDrawMenuSeparatorWithRenderer
PUBLIC 60bd8 0 DeactivateTSMDocument
PUBLIC 60c48 0 MyDeactivateTSMDocument
PUBLIC 60e8d 0 TSMAsyncClientIsSyncStatePushed
PUBLIC 60ec8 0 ClearDeadKeyInlineSession
PUBLIC 60fef 0 ClearDeadKeyInlineSession_WithCompletionHandler
PUBLIC 61129 0 cleanupClearDeadKeyInlineSessionCompletionContext
PUBLIC 611b3 0 __ClearDeadKeyInlineSession_block_invoke
PUBLIC 611c4 0 utDeactivateAllIM4Document
PUBLIC 61277 0 DefIMInstanceCollectionIteratorInit
PUBLIC 612e7 0 utDeactivateAllSelectedIMInDoc
PUBLIC 6137d 0 HaveFallbackTSMDocumentForModalLoop
PUBLIC 613c8 0 StandardMenuTimer(__EventLoopTimer*, void*)
PUBLIC 61424 0 DisposeNibReference
PUBLIC 61496 0 IBCarbonNib::~IBCarbonNib()
PUBLIC 614c8 0 IBCarbonNib::~IBCarbonNib()
PUBLIC 61594 0 IBArray::~IBArray()
PUBLIC 615d6 0 IBArray::~IBArray()
PUBLIC 61624 0 IBDictionary::~IBDictionary()
PUBLIC 6165e 0 IBDictionary::~IBDictionary()
PUBLIC 616b6 0 IBCarbonMenu::~IBCarbonMenu()
PUBLIC 616e6 0 IBCarbonMenu::~IBCarbonMenu()
PUBLIC 61766 0 IBCarbonMenuItem::~IBCarbonMenuItem()
PUBLIC 6179c 0 IBCarbonMenuItem::~IBCarbonMenuItem()
PUBLIC 61834 0 IBHIObject::~IBHIObject()
PUBLIC 618e6 0 IBCarbonNSCustomObject::~IBCarbonNSCustomObject()
PUBLIC 6191a 0 IBCarbonNSCustomObject::~IBCarbonNSCustomObject()
PUBLIC 61981 0 _DropPendingBoost
PUBLIC 619d0 0 __ReceiveNextEventCommon_block_invoke
PUBLIC 619e6 0 _HIIsSuddenTerminationDisabledForSendEvent
PUBLIC 61a01 0 _HLTBRemoveEventSourceFromMode
PUBLIC 61a77 0 PushToCGEventQueue(__CGEvent*, unsigned int, unsigned char, __CFMachPortBoost*)
PUBLIC 625e0 0 CGQEntry::SetBoost(__CFMachPortBoost*)
PUBLIC 62616 0 QuitEventLoop
PUBLIC 6264b 0 GetCFRunLoopFromEventLoop
PUBLIC 62667 0 ___ZL38PullEventsFromWindowServerOnConnectionjhP17__CFMachPortBoost_block_invoke_2
PUBLIC 62682 0 _RemoveCGEventFromQueue
PUBLIC 62780 0 ___ZL16ForEachCGEventDoU13block_pointerFjP9__CGEventE_block_invoke
PUBLIC 627a1 0 ___RemoveCGEventFromQueue_block_invoke
PUBLIC 627ca 0 CGQEntry::~CGQEntry()
PUBLIC 62800 0 PingEventQueueMachPort
PUBLIC 6285e 0 DummyMsgHandler
PUBLIC 6286e 0 ___ZL38PullEventsFromWindowServerOnConnectionjhP17__CFMachPortBoost_block_invoke
PUBLIC 628c6 0 AttachPlatformWindow
PUBLIC 6290c 0 PrepareToSetWindowGroupByLevel(OpaqueWindowPtr*)
PUBLIC 62962 0 ShouldLeaveExternalWindowsInOriginalGroup
PUBLIC 62a35 0 ExternalWindowShowHandler(OpaqueEventHandlerCallRef*, OpaqueEventRef*, void*)
PUBLIC 62a9c 0 GetWindowGroup
PUBLIC 62ad3 0 SetWindowGroupByLevel
PUBLIC 62c89 0 _GetWindowLevel
PUBLIC 62cd2 0 HIView::DrawSelf(short, __HIShape const*, CGContext*)
PUBLIC 62ce0 0 TCoreTextEngine::ApplyAttributes(__CFAttributedString*, __CFDictionary const*)
PUBLIC 62dec 0 TCoreTextEngine::CopyAttributedAttrsAndRuns(__CFAttributedString const*, __CFArray const**, __CFArray const**)
PUBLIC 62f12 0 TCoreTextEngine::ApplyAttribute(__CFAttributedString*, __CFString const*, void const*, __CFArray const*, __CFArray const*)
PUBLIC 62fb0 0 TCoreTextEngine::~TCoreTextEngine()
PUBLIC 62fe8 0 TCoreTextEngine::~TCoreTextEngine()
PUBLIC 6305e 0 TCoreTextEngine::Invalidate()
PUBLIC 630a8 0 TThemeText::Invalidate()
PUBLIC 630ce 0 ThemeFontRelease(TThemeFont*)
PUBLIC 631d2 0 TThemeFont::IsStandard() const
PUBLIC 631f2 0 TLayoutInfo::Clear()
PUBLIC 63242 0 TCoreTextLineInfo::~TCoreTextLineInfo()
PUBLIC 6328a 0 TLayoutState::~TLayoutState()
PUBLIC 63294 0 TLayoutInfo::~TLayoutInfo()
PUBLIC 632a8 0 TLayoutInfo::~TLayoutInfo()
PUBLIC 632ec 0 TThemeText::~TThemeText()
PUBLIC 63340 0 TThemeCacheObject::~TThemeCacheObject()
PUBLIC 63346 0 HIWindowFromCGWindowID
PUBLIC 63350 0 BeginWindowReshape(WindowData*, ReshapeWindowInfo*, unsigned char*, unsigned long long*)
PUBLIC 6341e 0 DisableScreenUpdatesInternal
PUBLIC 63438 0 HIView::DisableTrackingAreaUpdates()
PUBLIC 63470 0 HIView::IsRelayoutNeededIfBoundsUnchangedSelf()
PUBLIC 63478 0 HIView::EnableTrackingAreaUpdates()
PUBLIC 634b0 0 HIView::EnableTrackingAreaUpdatesRecurse()
PUBLIC 634ec 0 EndWindowReshape(WindowData*, ReshapeWindowInfo*, unsigned char)
PUBLIC 635ea 0 PaintWindow(WindowData*, OpaqueRgnHandle*, PaintReason, bool)
PUBLIC 63702 0 AppleWindowDef::Paint()
PUBLIC 63718 0 HIObject::HandleEvent(OpaqueEventHandlerCallRef*, OpaqueEventRef*)
PUBLIC 637c6 0 HIView::RecursiveValidate(unsigned int, HIView*)
PUBLIC 63862 0 WindowData::MarkLastDrawResolution()
PUBLIC 638bf 0 EnableScreenUpdatesInternal
PUBLIC 638e8 0 MenuBarInstance::GetDisplayID()
PUBLIC 63922 0 _DrawMenuBarOnDisplay
PUBLIC 639b7 0 HIViewGetNeedsDisplay
PUBLIC 639e1 0 _InvalMenuBarOnDisplay
PUBLIC 63a47 0 HIViewIsVisible
PUBLIC 63a7b 0 HIViewSetSubviewsNeedDisplayInShape
PUBLIC 63b05 0 SetNeedsDisplayIsNeutered(HIView*, unsigned char)
PUBLIC 63b4e 0 HIView::InvalidateSubtree(__HIShape const*, unsigned char)
PUBLIC 63d02 0 MBarDraw(unsigned int)
PUBLIC 63d76 0 HIWindowFlush
PUBLIC 63d9f 0 _FlushWindow
PUBLIC 63e0c 0 HIMenuBarView::SyncInactiveBounds(unsigned int, CGRect const*)
PUBLIC 63e9c 0 _UpdateInvalidBackdrops(WindowData*)
PUBLIC 63eb4 0 ForEachBackdropDo(WindowData*, void (WindowData*, WindowBackdrop*) block_pointer)
PUBLIC 63f15 0 TISHardwareSupportsGestureHandwriting
PUBLIC 63f77 0 HaveBuiltinTrackpadConnected
PUBLIC 63fb6 0 FlushEventsMatchingListFromQueue
PUBLIC 63fc2 0 FlushEventsMatchingListFromQueueWithOptions
PUBLIC 64273 0 ReleaseFlushedEvents
PUBLIC 642f7 0 ChangeMenuAttributes
PUBLIC 64334 0 _RequestBackgroundMouseMovedEvents
PUBLIC 64365 0 ChangeBackgroundEventMask
PUBLIC 643c1 0 HIPointToQDPoint
PUBLIC 643da 0 HLTBGetDisplayFromPoint
PUBLIC 644de 0 HIPointFromQDPoint
PUBLIC 64501 0 IsCGEventInQueue(__CGEvent*)
PUBLIC 645c8 0 ___ZL16IsCGEventInQueueP9__CGEvent_block_invoke
PUBLIC 645f4 0 ___AcquireMatchingCGEvent_block_invoke
PUBLIC 6467f 0 WindowActivated_EventObserver
PUBLIC 646ef 0 DockCallback(unsigned int, unsigned int, void*, void*)
PUBLIC 64f40 0 HLTBGetGreatestAreaDisplay
PUBLIC 65169 0 HIRectAdjustTop
PUBLIC 65190 0 GetDockRectAndReason(CGRect*, unsigned int*)
PUBLIC 6524c 0 HIApplication::GetNextTransactionID()
PUBLIC 65266 0 CopyEventAs
PUBLIC 652b0 0 GetWindowList
PUBLIC 652d4 0 HIWindowGetAvailablePositioningBounds
PUBLIC 653a2 0 GetDisplayBoundsWithoutMenuBar(unsigned int*, unsigned int, CGRect*)
PUBLIC 6548c 0 NowEnteringFullScreenOnDisplay(unsigned int)
PUBLIC 654a4 0 _GetFirstFullScreenWindow
PUBLIC 6555c 0 HIRectAdjustBottom
PUBLIC 65577 0 HIWindowGetBounds
PUBLIC 655d5 0 CheckForResizing
PUBLIC 6567f 0 GetWindowBounds
PUBLIC 656b9 0 _AppOneTimeModifiersChangedMenuInvalidation
PUBLIC 656c9 0 TSMProcessRawKeyEvent
PUBLIC 6589d 0 CurrentProcessHasKeyFocus
PUBLIC 658e1 0 TryEventToInputMethod_WithContinuationHandler
PUBLIC 659a4 0 TryEventToKeyboardInputMethod_WithContinuationHandler
PUBLIC 65aaa 0 TISIsDesignatedRomanModeCapsLockSwitchAllowed
PUBLIC 65b74 0 __TSMProcessRawKeyEventWithCompletionHandler_block_invoke
PUBLIC 65b83 0 __TSMProcessRawKeyEvent_block_invoke
PUBLIC 65b96 0 IsCapsLockSwitchCandidateEvent
PUBLIC 65c52 0 DeleteMenuItems
PUBLIC 65d50 0 _DeleteMenuItems(MenuData*, unsigned short, unsigned long)
PUBLIC 65f5e 0 MenuData::RemoveItems(unsigned short, unsigned long)
PUBLIC 65f79 0 _MenuElementDelete
PUBLIC 65f98 0 MenuElement::ResolveAndDeleteRows(long, unsigned long)
PUBLIC 65fd6 0 MenuElement::DeleteRows(RowStore*, long, unsigned long)
PUBLIC 6600e 0 HIArray::RemoveValue(unsigned int)
PUBLIC 660ac 0 DeleteMenuItem
PUBLIC 6610c 0 EnableMenu(MenuData*, OpaqueEventTargetRef*, unsigned short, unsigned char, CheckMenuData*, unsigned int, double)
PUBLIC 66227 0 UpdateHICommandStatus
PUBLIC 6625e 0 SendHICommandEvent(unsigned int, HICommand const*, unsigned int, unsigned int, unsigned char, void const*, OpaqueEventTargetRef*, OpaqueEventTargetRef*, OpaqueEventRef**)
PUBLIC 66420 0 GetFirstParent(MenuData*)
PUBLIC 6647d 0 IsMenuItemEnabled
PUBLIC 664fe 0 _IsMenuItemEnabled(MenuData*, unsigned short)
PUBLIC 6653a 0 CouldItemMatchKeyEvent(MenuData*, unsigned short, unsigned int, CheckMenuData*)
PUBLIC 66590 0 UpdateAppleMenuToReflectMacManager()
PUBLIC 6675e 0 TBGetSpecificAppBooleanPref
PUBLIC 66771 0 UpdateVisibilityOfMenuItemWithMenuCommand
PUBLIC 667f1 0 _GetIndMenuItemWithCommandIDU
PUBLIC 66886 0 _ChangeMenuItemAttributesU
PUBLIC 66912 0 MacManagerRegisterForNotification
PUBLIC 669b7 0 ComposeMenuSelectionResult(MenuResult*, unsigned int)
PUBLIC 66a46 0 _HiliteMenuTitle
PUBLIC 66a78 0 _HiliteMenuTitleOnDisplay
PUBLIC 66af9 0 _HiliteMenuTitle(MenuData*, MenuData*, unsigned int, unsigned char)
PUBLIC 66c43 0 GetHilitedMenu
PUBLIC 66cbc 0 TurnMenuOff(MenuData*)
PUBLIC 66cce 0 __ForEachMenuBarViewDo_block_invoke
PUBLIC 66d03 0 ___Z10MBarHiliteP8MenuDataS0_jh_block_invoke
PUBLIC 66d2f 0 GetControlOwner
PUBLIC 66d4a 0 SetKeyboardFocus
PUBLIC 66d5f 0 HIViewSetFocus
PUBLIC 66e50 0 HasNecessaryContentRootForWindow(OpaqueWindowPtr*)
PUBLIC 66e8a 0 _IsFullTabbingEnabledForWindow
PUBLIC 66ec0 0 HIView::SetFocusPart(short, unsigned char, unsigned char, unsigned int, FocusData*)
PUBLIC 670aa 0 HIView::GetFocusForWindow(OpaqueWindowPtr*)
PUBLIC 670f6 0 GetWindowSystemProperty
PUBLIC 67146 0 HIView::SetFocusPartInternal(short, unsigned char, unsigned char, short*, short, unsigned char, unsigned char)
PUBLIC 67232 0 HIView::SendSetFocusPart(short, unsigned char, unsigned char, short*)
PUBLIC 67392 0 HIMenuBarView::SetFocusPartSelf(short, unsigned char, short*)
PUBLIC 674dd 0 TurnMenuOn(MenuData*, MenuData*, unsigned int)
PUBLIC 674fb 0 MBarHilite(MenuData*, MenuData*, unsigned int, unsigned char)
PUBLIC 6758f 0 FindRootMenuChild(MenuData*, MenuData*, unsigned short*)
PUBLIC 67599 0 FindRootMenuChildWithOptions(MenuData*, MenuData*, unsigned int, unsigned short*)
PUBLIC 67625 0 SetWindowSystemProperty
PUBLIC 6767c 0 HIView::SendFocusPartChanged(short, short, unsigned int)
PUBLIC 677aa 0 HIView::FocusPartChangedSelf(short, short, unsigned int)
PUBLIC 677b4 0 LMSetTheMenu
PUBLIC 677ca 0 MenuBarInstance::AppendTitlePartBounds(__CFArray*, OpaqueControlRef*, short)
PUBLIC 67868 0 HIViewCopyShape
PUBLIC 678ce 0 HIMenuBarView::GetPartBoundsSelf(short, CGRect*)
PUBLIC 67944 0 HIViewConvertRect
PUBLIC 679d8 0 HiliteMenu
PUBLIC 67a19 0 _HIMenuBarViewGetMenuAtIndex(OpaqueControlRef*, int, OpaqueMenuRef**)
PUBLIC 67a58 0 HIMenuBarView::GetMenuAtIndex(int, OpaqueMenuRef**)
PUBLIC 67aa4 0 _MenuIterGetMenuAtIndex
PUBLIC 67ac0 0 _MenuIterGetDataAtIndex(OpaqueMenuIteratorRef*, long)
PUBLIC 67b5b 0 SetCurrentMenuTrackingKeyModifiers(unsigned int)
PUBLIC 67b81 0 _CopyAllOpenMenus
PUBLIC 67c7a 0 _CopyAllTearOffMenus(__CFArray const*)
PUBLIC 67d3b 0 UpdateOpenMenuArray(__CFArray const*, unsigned int)
PUBLIC 67de0 0 TSMHandleAppDeactivate
PUBLIC 67ea0 0 InstallDeferredDeactivateTSMDocument_Timer
PUBLIC 67f01 0 UnregisterToolboxListener
PUBLIC 6809d 0 KeyFocusRemoved
PUBLIC 6810f 0 InstallKeyFocusHotKeys
PUBLIC 6821f 0 RegisterEventHotKey
PUBLIC 68251 0 RegisterEventHotInput(HotInputData const*, EventHotKeyID, OpaqueEventTargetRef*, unsigned int, OpaqueEventHotKeyRef**)
PUBLIC 6843b 0 EventModifiersToCGSFlags
PUBLIC 68482 0 IsHotKey(void const*, void const*, void*)
PUBLIC 684c3 0 GetUserFocusWindow
PUBLIC 684d0 0 SetWindowToFocus
PUBLIC 6851a 0 GetFocusThiefWindow
PUBLIC 68590 0 CreateNewWindow
PUBLIC 685b0 0 HIPlainWindowView::Create(HIPlainWindowView::Variant, OpaqueControlRef**)
PUBLIC 68650 0 HIPlainWindowView::Construct(OpaqueHIObjectRef*)
PUBLIC 68698 0 HIPlainWindowView::HIPlainWindowView(OpaqueHIObjectRef*)
PUBLIC 68716 0 HIView::RequestNotification(HIView::Notification)
PUBLIC 6877e 0 HIPlainWindowView::Initialize(OpaqueEventRef*)
PUBLIC 68844 0 HIPlainWindowView::GetBehaviors()
PUBLIC 68860 0 HIContentView::Create(OpaqueControlRef**)
PUBLIC 688ec 0 HIContentView::Construct(OpaqueHIObjectRef*)
PUBLIC 68932 0 HIContentView::HIContentView(OpaqueHIObjectRef*)
PUBLIC 68a1e 0 HIView::InvalidateBehind(__HIShape const*)
PUBLIC 68b58 0 HIContentView::GetPartRegionOrShapeSelf(short, OpaqueRgnHandle*, __HIShape const**)
PUBLIC 68c24 0 HIContentView::SetNoFill()
PUBLIC 68c96 0 HIContentView::ReleaseAnyPatternOrColor()
PUBLIC 68d40 0 HIContentView::SetOpaque(bool)
PUBLIC 68d92 0 HIView::ReshapeStructure()
PUBLIC 68e56 0 HIView::IsWindowCompositing()
PUBLIC 68ea8 0 AllowHighResolutionCarbonWindows()
PUBLIC 68f1e 0 FindWindowGroupDivision(OpaqueWindowGroupRef*, WindowContext*, WindowData**, WindowData**)
PUBLIC 69020 0 SectionHeadOfWindowGroup
PUBLIC 69030 0 GetWindowGroupSibling
PUBLIC 69066 0 HIPlainWindowView::GetFrameMetricsSelf(HIViewFrameMetrics*)
PUBLIC 690c2 0 HIPlainWindowView::BoundsChangedSelf(unsigned int, CGRect const&, CGRect const&)
PUBLIC 690d8 0 HIPlainWindowView::LayoutChildrenSelf()
PUBLIC 6918c 0 HIContentView::BoundsChangedSelf(unsigned int, CGRect const&, CGRect const&)
PUBLIC 6919a 0 HIPlainWindowView::OwningWindowChangedSelf(OpaqueWindowPtr*, OpaqueWindowPtr*)
PUBLIC 691f6 0 HIContentView::OwningWindowChangedSelf(OpaqueWindowPtr*, OpaqueWindowPtr*)
PUBLIC 69258 0 HIPlainWindowView::GetPartRegionOrShapeSelf(short, OpaqueRgnHandle*, __HIShape const**)
PUBLIC 69446 0 SetWindowTitleWithCFString
PUBLIC 6948e 0 WindowData::SetTitleCommon(__CFString const*)
PUBLIC 6951b 0 UpdateDockTitle
PUBLIC 69584 0 SyncPlatformWindowTitle
PUBLIC 695b5 0 SetUserFocusWindow
PUBLIC 6981c 0 ShouldRestoreFocusToNSNav
PUBLIC 69824 0 _HIWindowSharedActivation
PUBLIC 69871 0 _TestWindowAttribute
PUBLIC 698ac 0 ForwardFocusEventToView(OpaqueWindowPtr*, OpaqueEventRef*, unsigned int)
PUBLIC 6993a 0 GetKeyboardFocus
PUBLIC 69948 0 HIViewGetFocus
PUBLIC 69a00 0 SetPlatformWindowFocused(WindowData*, unsigned char)
PUBLIC 69a6e 0 SendSimpleWindowEventToGroup
PUBLIC 69b00 0 CountWindowGroupContents
PUBLIC 69c01 0 InvalidateMenuEnabling
PUBLIC 69c8c 0 EnsureMenuBarObserver
PUBLIC 69ce7 0 AreAnyTearOffMenusOpen()
PUBLIC 69cf9 0 DeferredDeactivateTSMDocument_TimerHandler
PUBLIC 69d61 0 GetDocBeforeFocusTheft
PUBLIC 69d70 0 utCloseSWMWindow
PUBLIC 69d8c 0 DoCloseSWMWindow
PUBLIC 69ff6 0 _CancelMenuTracking
PUBLIC 6a005 0 _CancelMenuTracking2
PUBLIC 6a068 0 AcquireFirstMatchingEventInQueue
PUBLIC 6a0e0 0 RemoveEventFromQueue
PUBLIC 6a189 0 HandleKeyFocusReturned
PUBLIC 6a1cb 0 KeyFocusReturned
PUBLIC 6a1dc 0 RestoreWindowFocus
PUBLIC 6a208 0 RetainWindowGroup
PUBLIC 6a22f 0 GetWindowGroupRetainCount
PUBLIC 6a257 0 ReleaseWindowGroup
PUBLIC 6a324 0 UnregisterEventHotKey
PUBLIC 6a3c3 0 _SetCGEventConversionFilter
PUBLIC 6a41c 0 _AcquireMatchingCGEventInQueue
PUBLIC 6a47b 0 ___AcquireMatchingCGEventInQueue_block_invoke
PUBLIC 6a499 0 SetMenuItemTextWithCFString
PUBLIC 6a50c 0 _SetMenuItemTextWithCFString(MenuData*, unsigned short, __CFString const*)
PUBLIC 6a678 0 MayClearSeparator(MenuData*, unsigned short)
PUBLIC 6a6c4 0 AEGetInteractionAllowed
PUBLIC 6a6ec 0 CheckEventsInited
PUBLIC 6a711 0 DisableMenuItem
PUBLIC 6a78b 0 _DisableMenuItem(MenuData*, unsigned short)
PUBLIC 6a82a 0 MenuData::GetItemModalLevel(unsigned short)
PUBLIC 6a8bc 0 KeyEventMatchesMenuItem
PUBLIC 6aa87 0 __CoreDragItemSetImageComponents
PUBLIC 6abf0 0 __CoreDragCreateImageDataWithComponentsBlock
PUBLIC 6acaf 0 -[CDImageData init]
PUBLIC 6ad31 0 -[CDImageData setPasteboardIndex:]
PUBLIC 6ad41 0 -[CDImageData setScreenFrame:]
PUBLIC 6ad64 0 -[CDImageData setImageComponentsBlock:]
PUBLIC 6add6 0 __CoreDragSetRootCALayer
PUBLIC 6ae0e 0 __CoreDragSetSourceClippingRect
PUBLIC 6ae72 0 __InitLayerBackedDragWindow
PUBLIC 6aebf 0 CreateLayerBackedDragWindow(OpaqueCoreDrag*, CGPoint)
PUBLIC 6b306 0 UpdateScaleFactorCacheForDisplayID(unsigned int)
PUBLIC 6b390 0 __DragInfoPtrImageDataCount
PUBLIC 6b3aa 0 __CoreDragSetupDragImageLayers
PUBLIC 6bf0d 0 SetupContainerLayers(OpaqueCoreDrag*)
PUBLIC 6c048 0 ConvertCGScreenPointToRootLayer(OpaqueCoreDrag*, CGPoint)
PUBLIC 6c0f7 0 -[CDImageData screenFrame]
PUBLIC 6c123 0 -[CoreDragDraggingLayer initWithDragImageDataRef:cursorLocation:]
PUBLIC 6c7bf 0 -[CDImageData imageComponents]
PUBLIC 6cb46 0 -[CDImageData imageComponentsBlock]
PUBLIC 6cb57 0 -[CDImageComponent initWithImage:frame:key:]
PUBLIC 6cc32 0 -[CDImageComponent setKey:]
PUBLIC 6cc43 0 -[CDImageComponent image]
PUBLIC 6cc54 0 -[CDImageComponent key]
PUBLIC 6cc6a 0 -[CDImageComponent frame]
PUBLIC 6cc96 0 __CoreDragImageDataGetItemRef
PUBLIC 6cca8 0 -[CDImageData pasteboardIndex]
PUBLIC 6ccb8 0 -[CoreDragDraggingLayer setDragItemRef:]
PUBLIC 6ccc8 0 -[CoreDragDraggingLayer setOriginalPosition:]
PUBLIC 6ccfc 0 -[CoreDragDraggingLayer dragItemRef]
PUBLIC 6cd0c 0 -[CoreDragDraggingLayer setOriginalOffset:]
PUBLIC 6cd40 0 -[CoreDragDraggingLayer setOffset:]
PUBLIC 6cd74 0 -[CoreDragDraggingLayer originalOffset]
PUBLIC 6cdb4 0 SetupBadge(OpaqueCoreDrag*)
PUBLIC 6d15c 0 UpdateBadgeValue(OpaqueCoreDrag*)
PUBLIC 6d569 0 ___ZL16UpdateBadgeValueP14OpaqueCoreDrag_block_invoke
PUBLIC 6d5a1 0 -[_CDBadgeLayer setLabel:]
PUBLIC 6d8f8 0 AlignBadgeWithLayer(OpaqueCoreDrag*, CALayer*, CoreDragDraggingLayer*)
PUBLIC 6d9b8 0 -[CoreDragDraggingLayer setAnimationToOffset:]
PUBLIC 6d9ec 0 -[CoreDragDraggingLayer setAnimationFromOffset:]
PUBLIC 6da20 0 -[CoreDragDraggingLayer animationDuration]
PUBLIC 6da36 0 -[CoreDragDraggingLayer setAnimationDuration:]
PUBLIC 6da4c 0 -[CoreDragDraggingLayer animationEndTime]
PUBLIC 6da62 0 -[CoreDragDraggingLayer setAnimationEndTime:]
PUBLIC 6da78 0 -[CoreDragDraggingLayer animationToOffset]
PUBLIC 6dab7 0 -[_CDBadgeLayer drawInContext:]
PUBLIC 6dd11 0 __DragInfoPtrSetDestClippingRect
PUBLIC 6ddb2 0 __CoreDragSetValueForKey
PUBLIC 6ddef 0 __DragInfoPtrSetValueForKey
PUBLIC 6ded0 0 __CoreDragUpdateFlockingFormation
PUBLIC 6dfde 0 __CoreDragUpdateLayerPositions
PUBLIC 6e01a 0 UpdateLayerPositions(OpaqueCoreDrag*)
PUBLIC 6e44c 0 -[CoreDragDraggingLayer offset]
PUBLIC 6e48e 0 __CoreDragCancelOutstandingFlockingAnimation
PUBLIC 6e4c6 0 __CoreDragClearAllImageOverrides
PUBLIC 6e4fa 0 __DragInfoPtrClearAllImageOverrides
PUBLIC 6e58c 0 DragInfoPtrClearImageOverridesDictionary
PUBLIC 6e628 0 __DisposeLayerBackedSurfaceAndRender
PUBLIC 6e691 0 __CoreDragReleaseImageData
PUBLIC 6e746 0 -[CDImageData dealloc]
PUBLIC 6e7b1 0 -[CDImageComponent dealloc]
PUBLIC 6e814 0 -[_CDBadgeLayer dealloc]
PUBLIC 6e88a 0 _DeclineBackgroundMouseMovedEvents
PUBLIC 6e8b1 0 DeleteTSMDocument
PUBLIC 6e8bb 0 MyDeleteTSMDocument
PUBLIC 6ea92 0 CheckDocBeforeFocusTheftDeleted
PUBLIC 6eab3 0 utPreventInputMethodZeroCount
PUBLIC 6eb7c 0 utCloseAllIMForDoc
PUBLIC 6ec42 0 utCloseAllSelectedIMInDoc
PUBLIC 6ece5 0 utRemoveDocumentID
PUBLIC 6eda6 0 DisposeTSMDocumentCollection
PUBLIC 6edf8 0 EnableMenuItem
PUBLIC 6ee72 0 _EnableMenuItem(MenuData*, unsigned short)
PUBLIC 6ef11 0 ___ConvertMatchingCGEvents_block_invoke
PUBLIC 6efd2 0 CGQEntry::CGQEntry(CGQEntry*)
PUBLIC 6f023 0 _GetDefaultMenuFont
PUBLIC 6f05a 0 _SetDefaultMenuFont
PUBLIC 6f079 0 _GetMenuMinimumWidth
PUBLIC 6f0eb 0 _SetMenuMinimumWidth
PUBLIC 6f146 0 MenuData::SetMinimumWidth(unsigned int)
PUBLIC 6f198 0 IsMenuSizeInvalid
PUBLIC 6f1dc 0 _SetMenuWindowLevel
PUBLIC 6f208 0 MenuData::SetWindowLevel(int)
PUBLIC 6f255 0 RemoveMenuItemProperty
PUBLIC 6f300 0 _HandlePopUpMenuSelectionWithDictionary
PUBLIC 6f41e 0 GetNumberFromOptions(__CFDictionary const*, __CFString const*, unsigned long long)
PUBLIC 6f47b 0 GetQDRectFromOptions(__CFDictionary const*, __CFString const*, Rect*)
PUBLIC 6f50c 0 GetDataFromOptions(__CFDictionary const*, __CFString const*, unsigned long, void*)
PUBLIC 6f573 0 GetStringFromOptions(__CFDictionary const*, __CFString const*, __CFString const*)
PUBLIC 6f5c4 0 SimulateSelection(unsigned char, unsigned char, OpaqueMenuRef**, unsigned short*, unsigned int*)
PUBLIC 6fcbb 0 _HIMenuIsDarkDockMenu
PUBLIC 6fd20 0 GetMenuItemProperty
PUBLIC 6fdf0 0 InitShortcut
PUBLIC 6fe51 0 GetCurrentEventKeyModifiers
PUBLIC 6fe87 0 GetMenuBarView(MenuData*, unsigned char)
PUBLIC 6feae 0 _HIMenuBarViewFindViewForMenu(OpaqueMenuRef*)
PUBLIC 6feed 0 GetMenuItemSystemProperty
PUBLIC 6ffb5 0 _HIMenuBarViewGetDrawFlags(OpaqueControlRef*)
PUBLIC 6ffeb 0 EnsureMTD(MenuSelectData*, MenuData*, unsigned char)
PUBLIC 700a0 0 HLTBIsCurrentProcessUIElement
PUBLIC 700c2 0 GetAvailableMenuPositioningBounds(unsigned int, unsigned short, unsigned char, CGRect*)
PUBLIC 7026d 0 LMSetMenuDisable
PUBLIC 7027b 0 GetMenuTrackingContext
PUBLIC 7029d 0 SendBeginTracking(MenuData*, unsigned int, unsigned int, MenuSelectData*)
PUBLIC 7030b 0 SendTrackingStatus(unsigned int, MenuData*, unsigned int, unsigned int, unsigned int, OpaqueEventRef*, unsigned int, unsigned char)
PUBLIC 7048c 0 GetMenuHandle
PUBLIC 704a8 0 _GetMenuHandle(short)
PUBLIC 7056e 0 HIMenuGetContentView
PUBLIC 705c0 0 MenuData::GetPrimaryView()
PUBLIC 7061c 0 MenuData::GetModalView()
PUBLIC 70650 0 MenuData::CreateMenuContentView()
PUBLIC 70785 0 _HIStandardMenuViewRegisterClass
PUBLIC 707b8 0 HIMenuView::RegisterSubclass(__CFString const*, HIObject* (*)(OpaqueHIObjectRef*))
PUBLIC 70804 0 HIStandardMenuView::Construct(OpaqueHIObjectRef*)
PUBLIC 7084c 0 HIStandardMenuView::HIStandardMenuView(OpaqueHIObjectRef*)
PUBLIC 709a8 0 HIMenuView::HIMenuView(OpaqueHIObjectRef*)
PUBLIC 709c9 0 GetThemeMenuSeparatorHeight
PUBLIC 709e0 0 DataEngine::GetMenuSeparatorHeight(short&)
PUBLIC 70a13 0 GetThemeMenuItemExtra
PUBLIC 70a3e 0 DataEngine::GetMenuItemExtra(unsigned short, short&, short&)
PUBLIC 70b24 0 TTheme::GetIndexedData(short)
PUBLIC 70b32 0 TTheme::GetIndexedDataForVariant(short, short)
PUBLIC 70bc6 0 TTheme::LoadDataTableEntry(ThemeDataTableEntry*, short, short)
PUBLIC 70d60 0 HLTBGetSysDirection
PUBLIC 70d68 0 DataEngine::GetMenuLayoutExtra(void*, unsigned int, short&, short&, short&, short&)
PUBLIC 70edc 0 LayoutEngine::RectLayout(TTheme*, void*, CGRect const&, unsigned short, int const*, unsigned int, CGRect*)
PUBLIC 70f04 0 LayoutEngine::RectLayoutExactParts(TTheme*, void*, CGRect const&, unsigned int, unsigned int, int const*, unsigned int, CGRect*)
PUBLIC 710e8 0 ResolveEverything
PUBLIC 715ee 0 SameAsLastState(void*, CGRect const&, int const*)
PUBLIC 716ee 0 FigureBoundaryPosCG(CGRect const&, unsigned char, short, LayoutCache*, double*)
PUBLIC 71762 0 CalculatePartRectCG
PUBLIC 71816 0 GetThemeMetric
PUBLIC 7185e 0 GetItemMetrics(unsigned short, __CTFont const*, MenuMetrics const*, ItemMetrics*)
PUBLIC 71a80 0 GetThemeFontInfo
PUBLIC 71b10 0 DataEngine::GetQDFontInfo(HIThemeTextInfo*, unsigned int, FontInfo*, Rect*, unsigned char*)
PUBLIC 71c60 0 TThemeFont::GetFontMetricsForThemeFont(FontInfo*) const
PUBLIC 71daa 0 GetThemeTextDimensionsWrapper
PUBLIC 71db4 0 GetThemeTextDimensions
PUBLIC 71edc 0 HIStandardMenuView::Initialize(OpaqueEventRef*)
PUBLIC 71f36 0 HIBaseMenuView::Initialize(OpaqueEventRef*)
PUBLIC 71fe3 0 HIObjectIsAccessibilityIgnored
PUBLIC 7200b 0 GetControlEventTarget
PUBLIC 72035 0 SetControlID
PUBLIC 7206d 0 HIViewSetVisible
PUBLIC 720b1 0 GetCurrentEventButtonState
PUBLIC 720d9 0 ShouldInstallMenuTrackingAppKeyDownHandler
PUBLIC 720e1 0 GetCurrentTSMDocument
PUBLIC 720f1 0 _ActivateTSMDocumentForMenuTracking
PUBLIC 7212c 0 PushFallbackTSMDocumentForModalLoop
PUBLIC 7213a 0 PushAlternateTSMDocumentDuringMenuTracking
PUBLIC 72147 0 HLTBIsCurrentProcess
PUBLIC 72185 0 ShouldInstallMenuTrackingUserFocusHandler
PUBLIC 72193 0 _IsMenuSizeInvalidOnDevice(MenuData*, unsigned short, unsigned int, CGRect const*)
PUBLIC 721d8 0 _CalcMenuSizeOnDevice(MenuData*, unsigned short, unsigned int, CGRect const*, unsigned int)
PUBLIC 72652 0 PrintMenuName(MenuData*, char const*)
PUBLIC 72667 0 GetMenuSystemAttributes(MenuData*, unsigned int*)
PUBLIC 72684 0 IsAnyMenuDynamic(MenuData*)
PUBLIC 726bc 0 HandleCalculateMenuSize(OpaqueEventRef*)
PUBLIC 7279d 0 _PrepareForMenuCancel
PUBLIC 727dc 0 _HIViewGetOptimalSize
PUBLIC 72822 0 HIView::GetOptimalSize(CGSize*, float*, CGSize*)
PUBLIC 72872 0 HIView::SendGetOptimalBounds(CGRect*, float*, CGSize*)
PUBLIC 72a88 0 HIView::GetOptimalSizeWithLimitsSelf(CGSize*, float*, CGSize*)
PUBLIC 72aa8 0 HIStandardMenuView::GetOptimalSizeSelf(CGSize*, float*)
PUBLIC 73300 0 HIStandardMenuView::Entry(ItemCache*, unsigned char)
PUBLIC 737c5 0 _GetMenuSize
PUBLIC 7380c 0 _HIMenuHasSubmenus(MenuData*, unsigned long*)
PUBLIC 73838 0 _HIMenuIsDark
PUBLIC 738b1 0 _UseDarkMenusForMenuTrackingSession
PUBLIC 738d4 0 _HIMenuShouldUseBackdrops
PUBLIC 7391b 0 _HIMenuIsNCStyle
PUBLIC 73980 0 _GetMenuCallout(MenuData*, unsigned int*, unsigned int*)
PUBLIC 73a1c 0 HIStandardMenuView::ResolveMenuFont(unsigned char)
PUBLIC 73ac0 0 HIStandardMenuView::CopyFontForMenu(MenuData*)
PUBLIC 73bd7 0 _HIMenuCopyFont(MenuData*, unsigned short, __CTFont const**)
PUBLIC 73c5e 0 MenuData::GetFont()
PUBLIC 73cf1 0 _HIMenuCopyParents(MenuData*, __CFArray const**)
PUBLIC 73dbd 0 _HIMenuGetEffectiveDirectionality(MenuData*)
PUBLIC 73e56 0 HIStandardMenuView::FreeLayout(ItemLayout*&, unsigned long)
PUBLIC 73f64 0 HIStandardMenuView::FetchItemCache(unsigned short)
PUBLIC 743bf 0 _ResolveMenuItemIDU
PUBLIC 743dc 0 ResolveMenuItemIDWithOptions(MenuData*, unsigned int, unsigned char, unsigned char, MenuData**, unsigned short*)
PUBLIC 7442a 0 _CopyMenuItemData(MenuData*, unsigned short, unsigned char, MenuItemDataRec*)
PUBLIC 74cf5 0 _GetItemCmd(MenuData*, unsigned short, short*)
PUBLIC 74d8c 0 MenuItemData::GetIcon()
PUBLIC 74ede 0 _GetMenuItemAttributes(MenuData*, unsigned short, unsigned int*)
PUBLIC 74f0d 0 _GetMenuItemCommandKey(MenuData*, unsigned short, unsigned char, unsigned short*)
PUBLIC 75014 0 _HIMenuGetItemView(MenuData*, unsigned short, OpaqueMenuRef*, unsigned short, OpaqueControlRef**)
PUBLIC 75242 0 _HIMenuGetNewItemsCount(MenuData*, unsigned short)
PUBLIC 75286 0 HIStandardMenuView::ResolveItemFont(unsigned short*)
PUBLIC 752ee 0 HIStandardMenuView::GetItemHeight(float*, float*, unsigned char*)
PUBLIC 755fa 0 HIStandardMenuView::GetCommandKeyWidth(unsigned short*)
PUBLIC 75894 0 HIStandardMenuView::GetNewItemsWidth()
PUBLIC 7597a 0 HIStandardMenuView::GetItemWidth(float, TextLayout*, unsigned char*)
PUBLIC 75dd4 0 HIStandardMenuView::MeasureItemTextWidth(__CFString const*, TextLayout*, __CTFont const*)
PUBLIC 75e68 0 HIStandardMenuView::AdjustForTextHeight(float, float, float, float, unsigned char*)
PUBLIC 75efe 0 HIStandardMenuView::LayoutItem(CGRect const*)
PUBLIC 760fe 0 HIStandardMenuView::ReleaseItemCache()
PUBLIC 76187 0 _CheckForMenuCancelEvent2
PUBLIC 76416 0 HIStandardMenuView::PositionItemViews()
PUBLIC 7657d 0 GetMenuContext
PUBLIC 765ba 0 SendMenuOpening(MenuSelectData*, MenuData*, double, unsigned int, unsigned int, __CFDictionary*, unsigned char, unsigned char*)
PUBLIC 7698c 0 MenuTrackingListener(unsigned int, void*, void*)
PUBLIC 769be 0 SuppressMenuBarDrawing
PUBLIC 769cc 0 HIStandardMenuView::MenuHandler(OpaqueEventHandlerCallRef*, OpaqueEventRef*, void*)
PUBLIC 76a58 0 HLEventObserver(unsigned int, OpaqueEventRef*, void*)
PUBLIC 76aa4 0 GetFirstMenu
PUBLIC 76ace 0 GetMenuAttributes
PUBLIC 76b08 0 _CountMenuItemsU
PUBLIC 76b33 0 _GetMenuItemAttributesU
PUBLIC 76bbb 0 _GetMenuItemCommandIDU
PUBLIC 76c5e 0 UpdateHICommandStatusWithCachedEvent
PUBLIC 76c9b 0 EnsureMenuResizing
PUBLIC 76d7a 0 EnableMenuBarDrawing
PUBLIC 76da1 0 GetInitialMenuRect(MenuSelectData*, MenuData*, unsigned char, Point, unsigned short, Rect*, unsigned int*, CGPoint*)
PUBLIC 76fc5 0 _IsMenuSizeInvalid(MenuData*)
PUBLIC 77000 0 HIStandardMenuView::RemoveIconBackdrop(ItemLayout*, unsigned char)
PUBLIC 77057 0 MeasureMenuString(unsigned char const*, unsigned int, unsigned short, __CTFont const*, TextLayout*)
PUBLIC 770ac 0 CreateMenuString(unsigned char const*, unsigned int)
PUBLIC 77194 0 TBStringCreateWithPascalString
PUBLIC 771ac 0 TBStringCreateWithBytes
PUBLIC 77253 0 MeasureItemText(__CFString const*, unsigned short, __CTFont const*, TextLayout*)
PUBLIC 772e8 0 MenuData::GetFrameView()
PUBLIC 7744c 0 HIMenuWindowView::CreateInitEvent(OpaqueMenuRef*, OpaqueEventRef**)
PUBLIC 774be 0 HIStandardMenuView::HandleEvent(OpaqueEventHandlerCallRef*, OpaqueEventRef*)
PUBLIC 783aa 0 HIBaseMenuView::HandleEvent(OpaqueEventHandlerCallRef*, OpaqueEventRef*)
PUBLIC 78844 0 HIMenuView::CreateFrameViewSelf(OpaqueEventRef*, OpaqueControlRef**)
PUBLIC 78870 0 HIMenuWindowView::GetClassID()
PUBLIC 788b2 0 HIMenuWindowView::Construct(OpaqueHIObjectRef*)
PUBLIC 788fa 0 HIMenuWindowView::HIMenuWindowView(OpaqueHIObjectRef*)
PUBLIC 78998 0 HIMenuWindowView::Initialize(OpaqueEventRef*)
PUBLIC 78aa2 0 HIMenuWindowView::GetBehaviors()
PUBLIC 78ab0 0 HIMenuContentView::Create(OpaqueMenuRef*, OpaqueControlRef**)
PUBLIC 78b1c 0 HIMenuContentView::CreateInitEvent(OpaqueMenuRef*, OpaqueEventRef**)
PUBLIC 78b82 0 HIMenuContentView::Construct(OpaqueHIObjectRef*)
PUBLIC 78bca 0 HIMenuContentView::HIMenuContentView(OpaqueHIObjectRef*)
PUBLIC 78c40 0 HIMenuContentView::Initialize(OpaqueEventRef*)
PUBLIC 78d30 0 _HIThemeGetMenuCalloutDimensions
PUBLIC 78df1 0 _ThemeImageCreate
PUBLIC 78e03 0 _ThemeImageCreateIndexModifier(int, unsigned int, unsigned int, unsigned int, CGImage**)
PUBLIC 78e4b 0 _ThemeImageMapToActual
PUBLIC 78ec7 0 _BitfieldThemeDrawStateToRealDrawState(unsigned int)
PUBLIC 78f2a 0 CreateCGImageFromPixMapList
PUBLIC 78f82 0 GetPixMapListForVariant
PUBLIC 7902a 0 TTheme::GetDataForVariant(unsigned int, short, short)
PUBLIC 790b4 0 TTheme::FindThemeDataInTable(unsigned int, short, ThemeDataTable*, short, void**)
PUBLIC 79176 0 TTheme::GetData(unsigned int, short)
PUBLIC 79186 0 CreateCGImageForPixMap(PixMapListRec*, short, short)
PUBLIC 79235 0 _HIThemeGetCachedImage(int)
PUBLIC 79274 0 SetupPlotDataCG(PixMapListRec*, short, RGBA32Image*)
PUBLIC 792e6 0 _HIThemeCreateCGImage(char*, unsigned int, unsigned int, unsigned int, bool, short, unsigned short)
PUBLIC 793ed 0 _HIThemeSetCachedImage(CGImage*, int)
PUBLIC 7944e 0 HIMenuContentView::GetPartRegionOrShapeSelf(short, OpaqueRgnHandle*, __HIShape const**)
PUBLIC 79568 0 HIMenuView::GetFrameBoundsSelf(unsigned short, unsigned char, OpaqueControlRef*, unsigned int*, CGRect const*, unsigned int, CGRect const*, __HIShape const*, OpaqueMenuRef*, unsigned short, unsigned int, unsigned short, CGRect const*, CGRect*, CGPoint*)
PUBLIC 7986e 0 _HIViewGetFrameMetrics
PUBLIC 798b0 0 HIMenuContentView::GetFrameMetricsSelf(HIViewFrameMetrics*)
PUBLIC 7991e 0 HIMenuContentView::GetGenericFrameMetrics(OpaqueMenuRef*, HIViewFrameMetrics*)
PUBLIC 79b73 0 GetMenuType
PUBLIC 79bbd 0 _GetMenuCallout
PUBLIC 79bf3 0 HIThemeGetMenuBackgroundShape
PUBLIC 79c6f 0 _HIThemeGetMenuBackgroundShapeInternal(CGRect const*, _HIThemeMenuDrawInfo const*, OpaqueRgnHandle*)
PUBLIC 79ff2 0 _HIThemeDrawMenuBackgroundWithRenderer
PUBLIC 7a420 0 HIRectGetMaxY
PUBLIC 7a430 0 HIMenuWindowView::GetFrameMetricsSelf(HIViewFrameMetrics*)
PUBLIC 7a4ba 0 HIMenuView::GetPopupFrame(CGSize const*, HIViewFrameMetrics const*, CGRect const*, unsigned int, CGPoint, unsigned short, CGRect const*, CGRect*, CGPoint*)
PUBLIC 7ad55 0 CountLinkedMenuItems
PUBLIC 7ada1 0 _HIViewGetPartBounds
PUBLIC 7adf0 0 HIView::GetPartBounds(short, CGRect*)
PUBLIC 7ae66 0 SendControlDefGetPartBounds(HIView*, short, CGRect*)
PUBLIC 7af20 0 HIStandardMenuView::GetPartBoundsSelf(short, CGRect*)
PUBLIC 7b09f 0 _IsMenuItemIconEnabled(MenuData*, unsigned short)
PUBLIC 7b0ce 0 HIStandardMenuView::GetPartBoundsInternal(CGRect*)
PUBLIC 7b160 0 HIView::GetSizeConstraints(CGSize*, CGSize*)
PUBLIC 7b29a 0 HIView::GetSizeConstraintsSelf(CGSize*, CGSize*)
PUBLIC 7b2a5 0 ConvertMenuStructureToContentRect(OpaqueControlRef*, Rect*)
PUBLIC 7b33e 0 PrepareMenuWindow
PUBLIC 7b7f5 0 GetMenuTypeAndActivation(OpaqueMenuRef*)
PUBLIC 7b841 0 _AddOpenMenu
PUBLIC 7bac1 0 _CountOpenMenus
PUBLIC 7baef 0 _GetMenuWindowLevel
PUBLIC 7bb43 0 GetControlSystemProperty
PUBLIC 7bbc5 0 SetControlSystemProperty
PUBLIC 7bc1a 0 HIView::SetProperty(unsigned int, unsigned int, unsigned long, void const*)
PUBLIC 7bc7e 0 HIView::GetPropertyCollection(unsigned char)
PUBLIC 7bcd5 0 UnlinkGroup(WindowGroupData*)
PUBLIC 7bd14 0 CountGroupChildren(WindowGroupData*, unsigned char)
PUBLIC 7bd67 0 AdjustPlatformWindowShadowsInternal(WindowData*, unsigned char, unsigned char)
PUBLIC 7c0f4 0 HIMenuWindowView::BoundsChangedSelf(unsigned int, CGRect const&, CGRect const&)
PUBLIC 7c0fe 0 HIMenuWindowView::LayoutChildrenSelf()
PUBLIC 7c268 0 HIMenuContentView::BoundsChangedSelf(unsigned int, CGRect const&, CGRect const&)
PUBLIC 7c28e 0 HIMenuContentView::LayoutChildrenSelf()
PUBLIC 7c37e 0 HIMenuWindowView::OwningWindowChangedSelf(OpaqueWindowPtr*, OpaqueWindowPtr*)
PUBLIC 7c446 0 HIMenuWindowView::GetPartRegionOrShapeSelf(short, OpaqueRgnHandle*, __HIShape const**)
PUBLIC 7cb4a 0 GetMenuID
PUBLIC 7cb66 0 _GetOpenMenuDirection
PUBLIC 7cbb5 0 FindMBEntry(MenuData*)
PUBLIC 7cc8a 0 HIMenuWindowView::MenuWindowHandler(OpaqueEventHandlerCallRef*, OpaqueEventRef*, void*)
PUBLIC 7ce58 0 HIMenuWindowView::GetAlphaShape(__HIShape const**, double*)
PUBLIC 7d35c 0 _HIThemeCUICopyMeasurements
PUBLIC 7d485 0 _HIThemeMeasurementsDictContainsAllKeys(__CFDictionary const*, __CFArray const*)
PUBLIC 7d4fe 0 HIContentView::HasBorder()
PUBLIC 7d54b 0 CopyMenuTitleAsCFString
PUBLIC 7d591 0 HiliteWindow
PUBLIC 7d5bc 0 WindowData::Highlight(unsigned char)
PUBLIC 7d636 0 HighlightWindowCore(WindowData*, unsigned char)
PUBLIC 7d6d6 0 AdjustPlatformWindowShadows
PUBLIC 7d6ee 0 HIMenuWindowView::GetCornerMaskImage(CGImage**, unsigned int*, CGRect*)
PUBLIC 7db14 0 HICGGetGenericRGBColorspace
PUBLIC 7db45 0 InstallStandardEventHandler
PUBLIC 7db8c 0 SendSimpleTargetEvent(unsigned int, OpaqueEventTargetRef*)
PUBLIC 7dc0c 0 InstallStandardHandlerHook
PUBLIC 7dc9c 0 GetNativeWindowFromWindowRef
PUBLIC 7dcb9 0 _HIWindowSetPlatformTag
PUBLIC 7dce9 0 SetPlatformWindowTag
PUBLIC 7dd42 0 HIWindowChangeAvailability
PUBLIC 7dda9 0 SetPlatformWindowAvailability
PUBLIC 7ddb9 0 HLTBIsActiveUserSession
PUBLIC 7de3e 0 _HIWindowSetBackingStoreReleasedOnHide
PUBLIC 7de6d 0 ReleasePlatformWindowBackingStoreOnOrderOut
PUBLIC 7ded5 0 UpdateMenuWindowShadow
PUBLIC 7df1c 0 _SetWindowShadow
PUBLIC 7df93 0 _IsPopUpMenuTracking
PUBLIC 7dfc4 0 _HIWindowSetBackgroundBleed(OpaqueWindowPtr*, double)
PUBLIC 7e011 0 DrawMDEF(MenuSelectData*, CGPoint)
PUBLIC 7e2ab 0 HIViewAddSubview
PUBLIC 7e34a 0 HIView::AncestorBecomingHidden()
PUBLIC 7e3a1 0 _HIWindowInvalidateHasOpenGLViewCache
PUBLIC 7e3c4 0 HIMenuContentView::SubviewAddedSelf(HIView*)
PUBLIC 7e43d 0 _HIViewGetScrollingInfo
PUBLIC 7e496 0 HIView::GetScrollingInfo(CGSize*, CGSize*, CGSize*, CGPoint*)
PUBLIC 7e65e 0 HIStandardMenuView::GetScrollingInfoSelf(CGSize*, CGSize*, CGSize*, CGPoint*)
PUBLIC 7e7b2 0 GetWindowPortBounds
PUBLIC 7e804 0 WindowData::GetContentControl()
PUBLIC 7e848 0 HIRectOffset
PUBLIC 7e870 0 HIViewConvertPoint
PUBLIC 7e90c 0 HIWindowGetScaleMode
PUBLIC 7e94f 0 _HIWindowIsTransformed
PUBLIC 7e980 0 HIMenuContentView::LayoutItemsView(HIViewFrameMetrics const&, CGSize const&, CGSize const&, CGPoint const&)
PUBLIC 7eb25 0 HIViewSetFrame
PUBLIC 7eb60 0 _IsWindowLiveResizing
PUBLIC 7eb80 0 HIView::GetOpaqueRegionForSubtree(__HIShape*)
PUBLIC 7ec94 0 HIStandardMenuView::GetPartRegionOrShapeSelf(short, OpaqueRgnHandle*, __HIShape const**)
PUBLIC 7ed00 0 ShouldAddCGContextToControlBoundsChangedEvent
PUBLIC 7ed34 0 HIStandardMenuView::BoundsChangedSelf(unsigned int, CGRect const&, CGRect const&)
PUBLIC 7ee38 0 HIBaseMenuView::CopyPartShapeIfNotEmpty(short)
PUBLIC 7ee93 0 AutoScrollHandler(OpaqueEventHandlerCallRef*, OpaqueEventRef*, void*)
PUBLIC 7efb8 0 _HIViewScrollToLocation
PUBLIC 7eff8 0 HIView::ScrollToLocation(CGPoint const&)
PUBLIC 7f0aa 0 HIMenuContentView::ScrollToHandler(OpaqueEventHandlerCallRef*, OpaqueEventRef*, void*)
PUBLIC 7f280 0 HIBaseMenuView::ScrollToLocationSelf(CGPoint const&)
PUBLIC 7f2b2 0 HIView::SetBoundsOrigin(double, double)
PUBLIC 7f405 0 RedrawCachedMenuPixelsWithTrackingData(OpaqueMenuRef*, Rect const*, MenuTrackingData*)
PUBLIC 7f53f 0 CanViewBeCached(OpaqueControlRef*)
PUBLIC 7f5ca 0 HIView::Hide(unsigned char)
PUBLIC 7f6a2 0 HIView::ValidateSubtree(__HIShape const*, unsigned char)
PUBLIC 7f6b7 0 _SetWindowPrerendered
PUBLIC 7f700 0 _HIWindowPrepareForVisibility
PUBLIC 7f72a 0 HIMenuWindowView::DrawSelf(short, __HIShape const*, CGContext*)
PUBLIC 7fa14 0 HIMenuContentView::DrawSelf(short, __HIShape const*, CGContext*)
PUBLIC 7ffb7 0 _HIThemeGetCUIRendererForMenu
PUBLIC 7ffe8 0 HIStandardMenuView::DrawSelf(short, __HIShape const*, CGContext*)
PUBLIC 804a6 0 HIStandardMenuView::FindItem(float)
PUBLIC 80636 0 _HIThemeSetMenuForRendering
PUBLIC 8065e 0 HIStandardMenuView::DrawItem(unsigned char, CGContext*, unsigned char)
PUBLIC 80f81 0 _HIThemeGetDrawTextPreparationBlock
PUBLIC 80f8e 0 _HIThemeSetDrawTextPreparationBlock
PUBLIC 80fa8 0 HIStandardMenuView::DrawThemeItem(CGRect const*, CGRect const*, _HIThemeMenuItemDrawInfo const*, CGContext*, unsigned int, unsigned char, CGRect*)
PUBLIC 810f7 0 _HIThemeDrawMenuItemInternalWithRenderer
PUBLIC 81b24 0 _HIThemeGetCUIRendererWithSuggestion
PUBLIC 81b46 0 HIStandardMenuView::DrawMenuString(unsigned char const*, unsigned int, unsigned short, __CTFont const*, unsigned int, CGRect const*, float, short, CGContext*, TextLayout const*, float*)
PUBLIC 81c0b 0 CopyCustomGlyphString(unsigned int, unsigned char)
PUBLIC 81c54 0 HIStandardMenuView::DrawItemText(__CFString const*, float, unsigned short, __CTFont const*, unsigned int, CGRect const*, CGRect const*, unsigned char, short, CGContext*, TextLayout const*, CGRect*, float*)
PUBLIC 81e78 0 ___ZN18HIStandardMenuView8DrawItemEhP9CGContexth_block_invoke
PUBLIC 81eea 0 SendScrollingStatusEvent(MenuSelectData*, MenuData*, unsigned char)
PUBLIC 820f1 0 GetScrollingStatusEventKind(unsigned char, MenuData*)
PUBLIC 82137 0 EnsureAutoScrollingEnabled(OpenMenuHandlerData*)
PUBLIC 821c6 0 IsAppSwitchPending(MenuSelectData*)
PUBLIC 82253 0 ShowAndCacheMenu(MenuData*, unsigned char, Rect const*, __CFArray*, unsigned char)
PUBLIC 822fa 0 ShowMenuWindow
PUBLIC 824d1 0 BringToFront
PUBLIC 82504 0 BringWindowToFront(WindowData*, WindowContext*, OpaqueWindowGroupRef*, unsigned char)
PUBLIC 82619 0 WindowIsFront
PUBLIC 826c6 0 ShiftWindowInList(WindowData*, OpaqueWindowGroupRef*, OpaqueWindowGroupRef*, WindowContext*, WindowData*, WindowData*)
PUBLIC 8275a 0 GatherWindow(WindowData*, OpaqueWindowGroupRef*&, __CFArray*&, int&, unsigned int, unsigned char&)
PUBLIC 8282c 0 GatherOwnedGroups(WindowData*, __CFArray*&, int&, unsigned int, unsigned char&)
PUBLIC 829a0 0 ReorderWindows(WindowContext*, __CFArray*, WindowData*, WindowData*, OpaqueWindowGroupRef*, OpaqueWindowGroupRef*, unsigned char)
PUBLIC 82c2b 0 GetWindowRootIndex
PUBLIC 82c51 0 ReorderPlatformWindows
PUBLIC 82fda 0 HIMenuWindowView::SetBlur(unsigned char, unsigned char)
PUBLIC 8311c 0 GetBackdropBounds(WindowBackdrop*)
PUBLIC 831f8 0 CreateCGBackdrop(WindowBackdrop*, CGRect const*)
PUBLIC 83357 0 ValidateAllViews(OpaqueControlRef*)
PUBLIC 83396 0 HIViewSetNeedsDisplay
PUBLIC 83404 0 HIViewGetFirstSubview
PUBLIC 8342e 0 HIViewGetNextView
PUBLIC 83457 0 IsZOrderingAllowedForWindow
PUBLIC 83481 0 DetermineCGSOrderOpAndWindow
PUBLIC 835cc 0 GetPreviousWindowOnScreen(WindowData*)
PUBLIC 835fa 0 ShouldAddSpanningWindowsToUnmanagedSpace
PUBLIC 8362f 0 MenuWindowHandler(OpaqueEventHandlerCallRef*, OpaqueEventRef*, void*)
PUBLIC 837a1 0 GetWindowRegionPromiseProc(OpaqueEventRef*, unsigned int, unsigned int, void*)
PUBLIC 8384b 0 _HIApplicationPushFocus
PUBLIC 83929 0 CacheMenuPixelsWithTrackingData(OpaqueMenuRef*, Rect const*, MenuTrackingData const*)
PUBLIC 83a9f 0 CreateCGSWindowImage
PUBLIC 83aed 0 FindMBEntry(unsigned long)
PUBLIC 83b3a 0 SetMenuBarAvailable
PUBLIC 83b4d 0 _IncrementUserActivityLevel
PUBLIC 83baa 0 SetSimulatedMenuBarClickAnticipated(unsigned char)
PUBLIC 83bb8 0 HitTestBar(MenuSelectData&, MenuData*, Point, unsigned char*, MenuData**)
PUBLIC 83c19 0 RestoreMTD(MenuSelectData*, MenuTreeData*)
PUBLIC 83c74 0 HIWindowFindAtLocation
PUBLIC 83d8d 0 IsUserStillTracking(MenuSelectData*, unsigned char*)
PUBLIC 857e8 0 AcquireNextEventInMode
PUBLIC 85827 0 CFNotificationProc(__CFNotificationCenter*, void*, __CFString const*, void const*, __CFDictionary const*)
PUBLIC 8597b 0 ResizeOpenMenus(OpaqueEventHandlerCallRef*, OpaqueEventRef*, void*)
PUBLIC 859b6 0 ResizeMenuArray(__CFArray const*)
PUBLIC 85a57 0 RecalcAndResizeMenu(OpaqueMenuRef*)
PUBLIC 85b14 0 CheckEventQueueForUserCancel
PUBLIC 85c24 0 HLTBGetProcessSignature
PUBLIC 85c8f 0 EventIteratorCurrent
PUBLIC 85cc5 0 IsUserCancelEventRef
PUBLIC 85ea4 0 HLTBGlobalToWindowPoint
PUBLIC 85f19 0 GetWindowClickModality
PUBLIC 860ab 0 DetermineWindowClickModality
PUBLIC 86259 0 GetPreviousWindow
PUBLIC 86297 0 GetPreviousWindow(WindowData*, WindowContext*)
PUBLIC 862c8 0 HIMouseTrackingGetParameters
PUBLIC 86393 0 SetTrackingMode(MenuSelectData*, TrackMode)
PUBLIC 86424 0 StandardWindowEventHandler(OpaqueEventHandlerCallRef*, OpaqueEventRef*, void*)
PUBLIC 86bfc 0 IsWindowCollapsed
PUBLIC 86c2a 0 HandleTSMMouseDownLogic
PUBLIC 86d60 0 TSMIsEventInsideWindowInlineRegion
PUBLIC 86e2e 0 GetWindowModality
PUBLIC 86ec2 0 WindowData::GetModality(unsigned int*, WindowData**)
PUBLIC 86f33 0 HIViewGetViewForMouseEvent
PUBLIC 86fda 0 HIView::GetClickTarget(OpaqueEventRef*)
PUBLIC 87140 0 HIView::ConvertPointFromView(CGPoint&, HIView*)
PUBLIC 8719a 0 HIView::SendWantsMouseEvent(OpaqueEventRef*, unsigned char*)
PUBLIC 872da 0 HIView::WantsMouseEventSelf(OpaqueEventRef*, unsigned char*)
PUBLIC 873c6 0 HIView::SendHitTest(CGPoint const&, short*)
PUBLIC 874cc 0 HIView::IsHitByPointSelf(CGPoint const&, short*)
PUBLIC 874f4 0 HIView::GetPartHitSelf(CGPoint const&)
PUBLIC 874fc 0 HIRectContainsPoint
PUBLIC 87540 0 IsActiveWindowOfGroup
PUBLIC 8757f 0 IsWindowActive
PUBLIC 875a0 0 WindowData::IsActive()
PUBLIC 87670 0 WindowData::IsModalTarget(WindowData**)
PUBLIC 876fd 0 _HIViewGetClickActivation
PUBLIC 879a5 0 GetWindowActivationScope
PUBLIC 879df 0 IsWindowModalTarget
PUBLIC 87a3d 0 _RequestWindowSelection
PUBLIC 87ab7 0 SendHICommandToTarget
PUBLIC 87afc 0 HandleWindowCommandEvent
PUBLIC 882b7 0 _HIWindowFromCommand
PUBLIC 88309 0 SelectWindow
PUBLIC 88322 0 WindowData::SelectWindow()
PUBLIC 88401 0 BringToFrontAndActivateWindow(WindowData*, OpaqueWindowGroupRef*, unsigned char)
PUBLIC 8849f 0 PotentiallyAdjustToNewWindowActivation(WindowData*, WindowData*, WindowContext*, OpaqueWindowPtr*, WindowData*)
PUBLIC 8852b 0 ActivateFloatingWindows
PUBLIC 88637 0 ActivateUtilityWindows()
PUBLIC 886a7 0 HLTBIsFinder
PUBLIC 886df 0 IsShowContextualMenuEvent
PUBLIC 8877d 0 LMGetMenuFlash
PUBLIC 8878b 0 UnfocusMenuView(MenuSelectData*, MenuData*, OpaqueControlRef*)
PUBLIC 887fb 0 ViewFocusHandler(OpaqueEventHandlerCallRef*, OpaqueEventRef*, void*)
PUBLIC 889ec 0 HIBaseMenuView::SetFocusPartSelf(short, unsigned char, short*)
PUBLIC 88bf8 0 FadePlatformWindows
PUBLIC 88ebd 0 FadeCompleteHook(__EventLoopTimer*, void*)
PUBLIC 88f82 0 MenuFaded(unsigned int, void*)
PUBLIC 88fbb 0 QuitEventLoopMode
PUBLIC 88fe1 0 RestoreAllBits(MenuSelectData*, __CFArray*)
PUBLIC 890ee 0 RestoreMenuBits(MenuSelectData*, __CFArray*)
PUBLIC 892ad 0 CloseMenuWindow
PUBLIC 892e5 0 _RemoveOpenMenu
PUBLIC 893b8 0 _HIApplicationPopFocus
PUBLIC 894cf 0 HideMenus(MenuSelectData*, __CFArray*)
PUBLIC 89594 0 HideMenuWindow
PUBLIC 8960d 0 _HIWindowRemoveBackdrop(WindowBackdrop*)
PUBLIC 89695 0 _HIWindowClearPlatformTag
PUBLIC 896cd 0 ClearPlatformWindowTag
PUBLIC 8971b 0 SendMenuClosed(MenuData*, unsigned int, unsigned char)
PUBLIC 89842 0 HIBaseMenuView::MenuHandler(OpaqueEventHandlerCallRef*, OpaqueEventRef*, void*)
PUBLIC 899a8 0 _DecrementUserActivityLevel
PUBLIC 899c4 0 TearDownMenuTracking(MenuSelectData&)
PUBLIC 89bc6 0 _ReactivateTSMDocumentAfterMenuTracking
PUBLIC 89c71 0 PopFallbackTSMDocumentForModalLoop
PUBLIC 89c83 0 PopAlternateTSMDocumentDuringMenuTracking
PUBLIC 89c96 0 SendEndTracking(MenuData*, unsigned int, OpaqueEventRef*, unsigned int, __CFDictionary const*, MenuSelectData*)
PUBLIC 89d68 0 SendEndTrackingToMenu(void const*, void const*, void*)
PUBLIC 89dac 0 ReleaseAllMTDs(MenuSelectData*)
PUBLIC 89e19 0 OpenMenuHandler(OpaqueEventHandlerCallRef*, OpaqueEventRef*, void*)
PUBLIC 89e60 0 RemoveControlSystemProperty
PUBLIC 89eb5 0 RemoveFrom1MenuKeyCache(OpaqueCollection*, MenuData*)
PUBLIC 89f36 0 _HIViewSetWindow
PUBLIC 89f70 0 HIView::ClearFocusAndSpecialButtons(OpaqueWindowPtr*)
PUBLIC 8a01c 0 HIView::GetDefaultFocusConstraintForWindow(OpaqueWindowPtr*)
PUBLIC 8a060 0 GetWindowDefaultButton
PUBLIC 8a0d7 0 GetWindowCancelButton
PUBLIC 8a158 0 WindowData::Destruct()
PUBLIC 8a3d8 0 FullScreenModeWindowToBeDestroyed(WindowData*)
PUBLIC 8a48b 0 SetWindowPropertyFullScreenParticipatingWindows(OpaqueWindowPtr*, __CFArray const*)
PUBLIC 8a520 0 IsActiveWindowShared(WindowData*, WindowData*, unsigned char*, OpaqueEventHandlerRef**)
PUBLIC 8a5a2 0 WindowData::OnActiveSpace()
PUBLIC 8a620 0 _RemoveDragHandlersFromWindow
PUBLIC 8a726 0 _ReleaseWindowBackdrops(WindowData*)
PUBLIC 8a75f 0 DisposeWindowDefinition(WindowData*)
PUBLIC 8a773 0 SendSimpleDefProcEvent(WindowData*, unsigned int, unsigned char)
PUBLIC 8a7fa 0 RemoveFilePresenter(WindowData*)
PUBLIC 8a80a 0 RemoveWindowFromGroup
PUBLIC 8a85c 0 RemoveFromGroup(WindowGroupData*, void*, unsigned char)
PUBLIC 8ab00 0 RemoveWindowFromList(WindowData*, WindowContext*)
PUBLIC 8ab8e 0 HIObject::ClearWeakRefs()
PUBLIC 8ac90 0 HIViewWrapperDef::~HIViewWrapperDef()
PUBLIC 8acc6 0 AppleWindowDef::~AppleWindowDef()
PUBLIC 8ad1c 0 WindowData::~WindowData()
PUBLIC 8afb5 0 WindowStateTrackDispose(WindowData*)
PUBLIC 8aff8 0 _ClearKeyboardFocusWithExtremePrejudice
PUBLIC 8b051 0 ClearKeyboardFocus
PUBLIC 8b0c8 0 _HIViewClearFocusConstraintForWindow
PUBLIC 8b0d4 0 HIView::SetDefaultFocusConstraintForWindow(OpaqueWindowPtr*, HIView*)
PUBLIC 8b164 0 SetWindowDefaultButton
PUBLIC 8b1b1 0 SetWindowButtonCommon(OpaqueWindowPtr*, OpaqueControlRef*, unsigned int)
PUBLIC 8b264 0 RemoveWindowSystemProperty
PUBLIC 8b2a3 0 SetWindowCancelButton
PUBLIC 8b2f6 0 WindowContext::GetActiveWindowChangedEvent(unsigned char)
PUBLIC 8b341 0 DisposePlatformWindow
PUBLIC 8b39f 0 RemoveAnyExistingProxyIcon(WindowData*, OpaqueIconRef*)
PUBLIC 8b416 0 HIView::Destruct()
PUBLIC 8b520 0 ShouldTearDownHIViewInDestructor
PUBLIC 8b550 0 HIView::DisposeSubPanes(bool)
PUBLIC 8b5ae 0 HIView::SendRemovingSubControl(HIView*)
PUBLIC 8b672 0 HIMenuContentView::SubviewRemovedSelf(HIView*)
PUBLIC 8b6c8 0 SendControlDefDispose(HIView*)
PUBLIC 8b74e 0 HIView::RemoveTrackingAreas(bool)
PUBLIC 8b7da 0 HIView::UnlinkFromCurrentParent(bool)
PUBLIC 8b924 0 HIView::SetNextFocusOverride(HIView*)
PUBLIC 8b9dc 0 HIStandardMenuView::~HIStandardMenuView()
PUBLIC 8ba14 0 HIStandardMenuView::~HIStandardMenuView()
PUBLIC 8baa8 0 HIMenuView::~HIMenuView()
PUBLIC 8bab6 0 HIBaseMenuView::~HIBaseMenuView()
PUBLIC 8bb58 0 HIView::~HIView()
PUBLIC 8bd18 0 HIView::RemoveFromSuperView(bool, bool, bool)
PUBLIC 8bdec 0 HIView::SubtreeContainsKeyboardFocus(bool)
PUBLIC 8bed8 0 HIView::SubviewRemovedSelf(HIView*)
PUBLIC 8bee2 0 HIMenuContentView::~HIMenuContentView()
PUBLIC 8bf1c 0 HIMenuContentView::~HIMenuContentView()
PUBLIC 8bf76 0 HIContentView::~HIContentView()
PUBLIC 8bfba 0 HIMenuWindowView::~HIMenuWindowView()
PUBLIC 8bfec 0 HIMenuWindowView::~HIMenuWindowView()
PUBLIC 8c044 0 ToolboxMemRelease
PUBLIC 8c063 0 HLTBCGWindowLocationToWindowHIPoint
PUBLIC 8c099 0 AddWindowDataToMouseEvent(OpaqueWindowPtr*, CGPoint, OpaqueEventRef*)
PUBLIC 8c177 0 IsWindowHilited
PUBLIC 8c19f 0 _FindWindowPartHit
PUBLIC 8c235 0 HitTestWindowDefinition(WindowData*, Point)
PUBLIC 8c353 0 WindowToLocalPoint(WindowData*, OpaqueGrafPtr*, Point*)
PUBLIC 8c366 0 WindowData::WindowToLocalPoint(Point*)
PUBLIC 8c386 0 HLTBWindowToGlobalPoint
PUBLIC 8c3f6 0 HIViewWrapperDef::HitSelf(Point)
PUBLIC 8c5ac 0 HIView::FindSubPaneHit(CGPoint const&)
PUBLIC 8c5c4 0 HIView::FindSubPaneHitCore(CGPoint const&, bool)
PUBLIC 8c771 0 GetWindowStructureWidths
PUBLIC 8c7c0 0 MenuData::HitTestView(Point)
PUBLIC 8c9a0 0 SendControlDefGetClickTarget(HIView*, OpaqueEventRef*)
PUBLIC 8ca1a 0 HIView::InterceptSubviewClickSelf(OpaqueEventRef*)
PUBLIC 8ca29 0 HIMenuItemViewGetEnclosingMenuItem
PUBLIC 8ccb8 0 HIViewGetSuperview
PUBLIC 8ccec 0 HIViewGetBounds
PUBLIC 8cd7d 0 FindMBEntryIndex(__CFArray const*, MenuData*)
PUBLIC 8cdf4 0 GetCurrentMenuRect(MenuSelectData*, unsigned int*, CGPoint*)
PUBLIC 8ce71 0 ChooseItem(MenuSelectData*, Rect const*)
PUBLIC 8cf93 0 SetupTrackingData(MenuData*, int, MenuTrackingData*)
PUBLIC 8d03b 0 GetVirtualBounds(MenuData*, MenuTrackingData*)
PUBLIC 8d103 0 HIViewGetFrame
PUBLIC 8d15d 0 RestoreSomeBits(MenuSelectData*, unsigned char, __CFArray*)
PUBLIC 8d3be 0 HIStandardMenuView::GetPartHitSelf(CGPoint const&)
PUBLIC 8d4ca 0 HIViewGetPartHit
PUBLIC 8d50c 0 HIView::GetPartHit(CGPoint const&)
PUBLIC 8d552 0 HIView::GetRawPartHit(CGPoint const&)
PUBLIC 8d5b2 0 SendControlDefGetActionProcPart(HIView*, short, unsigned int, short*, unsigned char*)
PUBLIC 8d701 0 CallNextEventHandler
PUBLIC 8d773 0 _AreDisabledItemsSelectable
PUBLIC 8d79d 0 _HIMenuHasItemView(MenuData*, unsigned short)
PUBLIC 8d7e9 0 UpdateMenuViewFocus(MenuSelectData*, MenuData*, short, short)
PUBLIC 8dd14 0 _GetMenuItemBounds(MenuData*, unsigned short, Rect*)
PUBLIC 8de27 0 HLTBWindowToGlobalHIPoint
PUBLIC 8de82 0 _HIWindowSetBackdropBounds(WindowBackdrop*, CGRect const*)
PUBLIC 8df48 0 HIStandardMenuView::FocusPartChangedSelf(short, short, unsigned int)
PUBLIC 8e16d 0 ___Z23_UpdateInvalidBackdropsP10WindowData_block_invoke
PUBLIC 8e219 0 HIViewGetFeatures
PUBLIC 8e252 0 HIView::GetNextTarget(OpaqueEventTargetRef*, OpaqueEventRef*, void*)
PUBLIC 8e2c0 0 HIStandardMenuView::GetKindSelf()
PUBLIC 8e2d0 0 HIMenuContentView::GetKindSelf()
PUBLIC 8e2e0 0 _IsMenuBarWindow
PUBLIC 8e317 0 GetControlFeatures
PUBLIC 8e36a 0 HIView::GetClassicFeatures()
PUBLIC 8e384 0 HIViewClick
PUBLIC 8e3c2 0 HIView::Click(OpaqueEventRef*)
PUBLIC 8e582 0 HIMenuView::ClickSelf(OpaqueEventRef*)
PUBLIC 8e599 0 FlashFeedback(MenuSelectData*)
PUBLIC 8e627 0 HIViewSimulateClick
PUBLIC 8e670 0 HIView::SimulateClick(unsigned int, short, unsigned int, short*)
PUBLIC 8e778 0 HIView::IsCurrentlyClickable(unsigned int)
PUBLIC 8e7ce 0 HIView::SimulateClickSelf(short, unsigned int, short*)
PUBLIC 8e8be 0 HIView::SimulateHit(short, unsigned int, short*)
PUBLIC 8e8cd 0 SendControlSimulateHit(HIView*, short, unsigned int, short*)
PUBLIC 8e9ae 0 HIStandardMenuView::SimulateHitSelf(short, unsigned int, short*)
PUBLIC 8eb22 0 HIMenuView::SimulateHitSelf(short, unsigned int, short*)
PUBLIC 8ebaa 0 DelayForTime(double)
PUBLIC 8ec0b 0 SwapPlatformFlushRequired
PUBLIC 8ec28 0 HIView::GetAutoToggleValue(short, int*)
PUBLIC 8ec3a 0 SendControlDefGetAutoToggleValue(HIView*, short, int*)
PUBLIC 8ed12 0 HIView::GetAutoToggleValueSelf(short, int*)
PUBLIC 8ed72 0 HIView::NotifyControlHit(OpaqueEventRef*, short, unsigned int)
PUBLIC 8edf8 0 SendControlHit(HIView*, OpaqueEventRef*, short, unsigned int)
PUBLIC 8eeee 0 HIMenuView::ControlHitSelf(OpaqueControlRef*, short, unsigned int)
PUBLIC 8ef17 0 GetSelectionData(MenuSelectData&, SelectionData*, MenuResult*, MenuResult*)
PUBLIC 8f124 0 FinishMenuSelection(SelectionData*, MenuResult*, MenuResult*)
PUBLIC 8f1ee 0 SendMenuItemSelectedEvent
PUBLIC 8f2bd 0 SendMenuCommandWithContextAndModifiers
PUBLIC 8f2fd 0 FindTopLevelMenu
PUBLIC 8f319 0 FindTopLevelMenuInternal(MenuData*, MenuData*)
PUBLIC 8f38a 0 IsMenuBarAvailable
PUBLIC 8f3b5 0 _HIPresentationInstanceGetMBarHeight
PUBLIC 8f3ef 0 _HIPresentationInstanceHitTest
PUBLIC 8f4b7 0 _HIMenuBarConvertGlobalToWindowPoint
PUBLIC 8f538 0 HIMenuBarView::GetPartHitSelf(CGPoint const&)
PUBLIC 8f66f 0 _HandleMenuSelection
PUBLIC 8f68e 0 _HandleMenuSelection2
PUBLIC 8f8f7 0 MenuSelectCore(MenuData*, Point, double, unsigned int, OpaqueMenuRef**, unsigned short*)
PUBLIC 8fb77 0 CurrentWorkspaceHasMenuBar
PUBLIC 8fc2b 0 _HIPresentationInstanceIsVisible
PUBLIC 8fc41 0 SetActiveMenuBarDisplay
PUBLIC 8fc94 0 _HIMenuBarViewCustomTracking(OpaqueControlRef*, CGPoint)
PUBLIC 8fce2 0 HIMenuBarView::CustomTracking(CGPoint)
PUBLIC 8fe79 0 _GetMainMenuBarWindow
PUBLIC 8fe9e 0 MenuChanged(MenuSelectData*, unsigned char, unsigned char)
PUBLIC 901a7 0 DrawTheMenu(MenuSelectData*, __CFArray**, unsigned char, unsigned char*)
PUBLIC 9062a 0 UpdateMenuDynamicItems(MenuData*, unsigned char, unsigned int)
PUBLIC 90cc9 0 HIViewSetDrawingEnabled
PUBLIC 90d0a 0 HIView::DisableDrawing()
PUBLIC 90d4d 0 FindDynamicGroup(MenuData*, unsigned short, unsigned long, unsigned short*, unsigned short*, unsigned short*)
PUBLIC 90f26 0 _GetMenuItemModifiers(MenuData*, unsigned short, unsigned char*)
PUBLIC 90fd5 0 AddInvalidItemRange(unsigned int, __CFArray*, InvalidItemRange*)
PUBLIC 91058 0 HIView::EnableDrawing()
PUBLIC 9109a 0 GetAppearanceGlobals()
PUBLIC 91146 0 _GetMenuTitleBoundsOnDisplay
PUBLIC 91150 0 MBarTitleRect(MenuData*, MenuData*, unsigned int, Rect*)
PUBLIC 9123d 0 GetControlRegion
PUBLIC 912a8 0 HIView::GetPartRegion(short, OpaqueRgnHandle*)
PUBLIC 9132e 0 _HIMenuBarConvertWindowToGlobalPoint
PUBLIC 913a8 0 GetThemeMenuTitleOffset
PUBLIC 913b2 0 DataEngine::GetMenuTitleOffset(unsigned char)
PUBLIC 91405 0 _GetDefaultMenuWindowLevel
PUBLIC 91431 0 _HIMenuBarViewFindMenuIndex(OpaqueControlRef*, OpaqueMenuRef*)
PUBLIC 91472 0 HIMenuBarView::FindMenuIndex(OpaqueMenuRef*)
PUBLIC 914d2 0 _MenuIterFirst
PUBLIC 9151b 0 _MenuIterNext
PUBLIC 9153c 0 HIView::ConvertRectFromView(CGRect&, HIView*)
PUBLIC 9159d 0 IsTrackedMenuBarViewDrawingBottomLine
PUBLIC 915bf 0 HiliteCurrentTitle(MenuSelectData*)
PUBLIC 9174f 0 ResizeOtherMenuTrees(MenuSelectData*)
PUBLIC 9184a 0 FocusOnTitle(MenuSelectData*, MenuData*, MenuData*, unsigned char, unsigned char)
PUBLIC 918eb 0 FlushTimer(__CFRunLoopTimer*, void*)
PUBLIC 91903 0 IsControlActive
PUBLIC 91932 0 HIBaseMenuView::FocusHandler(OpaqueEventHandlerCallRef*, OpaqueEventRef*, void*)
PUBLIC 9194c 0 _MenuElementRemoveData
PUBLIC 91974 0 HIMenuBarView::GetKindSelf()
PUBLIC 91984 0 ShouldClearKeyboardFocusWhenWindowFocusLost
PUBLIC 91995 0 UpdateMenuBarAutoShowVisibility
PUBLIC 919c9 0 __UpdateMenuBarAutoShowVisibility_block_invoke
PUBLIC 91a00 0 ShouldIgnoreScrollWheelMomentumEvents
PUBLIC 91a72 0 MenuCacheInvalidationTimer(__EventLoopTimer*, void*)
PUBLIC 91aab 0 InvalidateAllCachedMenuPixels
PUBLIC 91acc 0 ForEachMenuDo(int (*)(MenuData*, void*), void*)
PUBLIC 91b0f 0 HLTBForEachRefDo
PUBLIC 91b2f 0 MenuDictIterator(void const*, void const*, void*)
PUBLIC 91b45 0 Invalidate1MenuCache(MenuData*, void*)
PUBLIC 91b71 0 DisposeAllMenuWindows()
PUBLIC 91b8f 0 Dispose1MenuWindow(MenuData*, void*)
PUBLIC 91b9c 0 ScriptMgrToolboxListener
PUBLIC 91c31 0 _EventQueueSetEventLimit
PUBLIC 91c4b 0 StartSharedIOServiceObserver
PUBLIC 91cbc 0 MenuBarInstance::CountAutoShowInstances()
PUBLIC 91d55 0 ___ZN15MenuBarInstance22CountAutoShowInstancesEv_block_invoke
PUBLIC 91d76 0 isPrefsCopyGlobalTextInputProperty
PUBLIC 91ea2 0 UpdatePBPerContextInput
PUBLIC 91f6d 0 _GetAllEventsOfClass
PUBLIC 91fa3 0 _HIMenuBarSetAutoHideHeight
PUBLIC 91fbd 0 _HIMenuBarSetTransitionDuration
PUBLIC 91fda 0 _HIMenuBarGetReveal
PUBLIC 92056 0 _HIPresentationInstanceCreateForFullScreenSpace
PUBLIC 92070 0 MenuBarInstance::CreateMenuBarForSpace(unsigned long long)
PUBLIC 920c1 0 _HIPresentationInstanceSetUIMode
PUBLIC 920cc 0 MenuBarInstance::SetPresentationInstanceUIMode(unsigned int, unsigned int)
PUBLIC 92106 0 MenuBarInstance::SetFullScreenUIMode(unsigned int, unsigned int)
PUBLIC 9224c 0 MenuBarInstance::HideWindow(MenuBarAnimationStyle, unsigned char)
PUBLIC 9237d 0 _HIMenuBarViewChangeDrawFlags(OpaqueControlRef*, unsigned int, unsigned int)
PUBLIC 923c4 0 HIMenuBarView::ChangeDrawFlags(unsigned int, unsigned int)
PUBLIC 9242a 0 MenuBarInstance::EnableAutoShow()
PUBLIC 924c8 0 MenuBarInstance::UpdateAutoShowVisibility(Point, unsigned char)
PUBLIC 928d5 0 GetActiveSpace
PUBLIC 92946 0 MenuBarInstance::SetShowHideTimer(CGPoint, CGRect, CGRect, unsigned char)
PUBLIC 92b42 0 MenuBarInstance::EnsureAutoShowObserver()
PUBLIC 92c13 0 EnsureMenuBarAutoShowListeners()
PUBLIC 92cb8 0 _HIFullScreenAnimationPrepare
PUBLIC 92cd3 0 TSMFullScreenAnimationPrepare
PUBLIC 92d4c 0 MenuBarInstance::AutoShowHideObserver(unsigned int, OpaqueEventRef*, void*)
PUBLIC 92e05 0 _HIPresentationInstanceSetSpace
PUBLIC 92e18 0 MenuBarInstance::AssignToSpace(unsigned long long)
PUBLIC 92eca 0 _StartSystemUIModeMenuBarAnimation
PUBLIC 92f20 0 DeferredFullScreenDeactivateTickle_TimerHandler
PUBLIC 92f51 0 CallDeferredFullScreenDeactivateTickle
PUBLIC 92fc6 0 MenuBarInstance::FindMenuBarForSpace(unsigned long long)
PUBLIC 93054 0 MenuBarInstance::LookupInstanceForSpace(unsigned long long)
PUBLIC 930c3 0 _HIFullScreenAnimationFinished
PUBLIC 930d4 0 TSMFullScreenAnimationFinished
PUBLIC 93122 0 ___ZN15MenuBarInstance20AutoShowHideObserverEjP14OpaqueEventRefPv_block_invoke
PUBLIC 9313c 0 DisplayForSpace(unsigned long long)
PUBLIC 93182 0 CGNotificationProc(unsigned int, void*, unsigned int, void*, unsigned int)
PUBLIC 93232 0 MenuBarInstance::CopyActiveSpaces()
PUBLIC 9329d 0 ___ZN15MenuBarInstance16CopyActiveSpacesEv_block_invoke
PUBLIC 932c4 0 MenuBarInstance::AutoShowHideTimer(__EventLoopTimer*, void*)
PUBLIC 932d2 0 MenuBarInstance::HandleAutoShowHide()
PUBLIC 93372 0 MenuBarInstance::Animate(MenuBarAnimationStyle, unsigned char, unsigned char)
PUBLIC 933dd 0 GetMenuBarDisplayID
PUBLIC 933f7 0 SendMenuBarVisEvent
PUBLIC 9346e 0 MenuBarInstance::Release()
PUBLIC 934c3 0 PostMenuBarVisEvent
PUBLIC 93540 0 MenuBarInstance::DisableAutoShow()
PUBLIC 935c7 0 RemoveTrackingListeners()
PUBLIC 93612 0 RemoveMenuBarAutoShowListeners()
PUBLIC 93676 0 HIToolboxLSNotificationCallbackAllASNsFunc
PUBLIC 938be 0 CreateSystemUIModeChangedEvent
PUBLIC 93928 0 HIApplication::FrontUILost()
PUBLIC 93997 0 __SetMenuBarObscured_block_invoke
PUBLIC 939f2 0 _DeactivateWindowGroups
PUBLIC 939fe 0 HIApplication::DeactivateFrontWindow()
PUBLIC 93b06 0 ___ZN13HIApplication11FrontUILostEv_block_invoke
PUBLIC 93b10 0 HIApplication::BecomeBackgroundOnly()
PUBLIC 93d23 0 _HIPresentationInstanceRelease
PUBLIC 93d38 0 MenuBarInstance::~MenuBarInstance()
PUBLIC 93e21 0 GetKeyboardType
PUBLIC 93e2b 0 SynchronizeAppTSMContextWithPrefsWithOptions
PUBLIC 93e71 0 ResetAllEnabledInputSources
PUBLIC 93e82 0 islInvalidateEnabledInputSourceState
PUBLIC 93eac 0 isPrefsInvalidateEnabledInputSources
PUBLIC 93ee0 0 ResetAllSelectedInputSources
PUBLIC 93eef 0 InvalidateAllSelectedInputSourceState
PUBLIC 9401b 0 islInvalidateSelectedInputSourceState
PUBLIC 9402c 0 isPrefsInvalidateSelectedInputSources
PUBLIC 9404e 0 islCreateResyncPasteboardInputSourcePrefsDescriptor
PUBLIC 940d8 0 SyncAllScriptMgrPrefs
PUBLIC 94152 0 HLTBIsProcessSandboxed
PUBLIC 94197 0 InitIntlValue
PUBLIC 94244 0 GetPasteboardInternationalCache
PUBLIC 942be 0 InternationalGetPasteboard
PUBLIC 942ee 0 GetScriptVariableWrapper
PUBLIC 942f8 0 INIT_ScriptHL
PUBLIC 94348 0 SetCustomizedFields
PUBLIC 946f0 0 GetScriptManagerVariableWrapper
PUBLIC 946fc 0 GetScriptKeyString
PUBLIC 94746 0 SetAllFields
PUBLIC 948aa 0 CopyCustomValue
PUBLIC 9495e 0 SetPasteboardInternationalCache
PUBLIC 94a24 0 SetLazyHLTBScriptMgrSettings
PUBLIC 94adc 0 GetLazyHLTBScriptMgr_ItlbKey
PUBLIC 94b17 0 GetLazyHLTBScriptMgr_KeyScript
PUBLIC 94b3d 0 ClearLazyHLTBScriptMgrInit
PUBLIC 94b5f 0 InitializeScriptHL
PUBLIC 94c73 0 LNGGetProcessScript
PUBLIC 94ccd 0 GetLanguageMgrGlobals
PUBLIC 94ceb 0 INIT_LanguageMgr
PUBLIC 94d34 0 LNGInitLanguages
PUBLIC 94e7f 0 LNGLanguageToScript
PUBLIC 94ebb 0 LNGInitFonts
PUBLIC 94f54 0 InvalidateEnabledInputSourceDependentState
PUBLIC 94fb3 0 InvalidateInputSourcesInUIOrder
PUBLIC 94ff1 0 islInvalidateSystemRomanInputSourceState
PUBLIC 9502f 0 islFindSystemRomanSourceDict
PUBLIC 950b1 0 __TSMInputSourceEqual
PUBLIC 950d3 0 GetScriptManagerRecord
PUBLIC 9513e 0 SetMenuItemIndent
PUBLIC 951ac 0 _SetMenuItemIndent(MenuData*, unsigned short, unsigned int)
PUBLIC 95236 0 MenuItemData::SetIndent(unsigned short)
PUBLIC 9528d 0 CalcMenuSize
PUBLIC 952b8 0 HIStandardMenuView::GetIconTypeAndHandle(unsigned int, int*, char***)
PUBLIC 9536b 0 _GetMenuItemIconSize(MenuData*, unsigned short, unsigned int*)
PUBLIC 953be 0 HIStandardMenuView::GetIconSize(float*, float*)
PUBLIC 95563 0 GetMenuWidth
PUBLIC 9557c 0 GetMenuHeight
PUBLIC 9559f 0 GetMenuItemAttributes
PUBLIC 9561e 0 HIRectGetMinY
PUBLIC 95636 0 HIStandardMenuView::PlotIconFromHandle(CGContext*, CGRect const*, short, unsigned int, char**, int, unsigned char*)
PUBLIC 958cd 0 _HIMenuGetNSImageCallbackOptions
PUBLIC 958fb 0 HIIsTemplateImage
PUBLIC 95918 0 HIStandardMenuView::EnsureIconBackdrop(CGRect const*, unsigned int)
PUBLIC 95a7e 0 ___Z23_ReleaseWindowBackdropsP10WindowData_block_invoke
PUBLIC 95aab 0 islcGetInputSourceCountInCache
PUBLIC 95af4 0 CreateInputSourceCacheFilterData
PUBLIC 9625d 0 islcCopyInputSourceDataInCacheAtIndex
PUBLIC 962a5 0 CreateInputSourceCacheDescriptorAtIndex
PUBLIC 96fc9 0 ConstrainWindowToScreen
PUBLIC 970ab 0 _ConstrainWindowRegionsToScreen(OpaqueWindowPtr*, unsigned long, unsigned short const*, unsigned int, Rect const*, CGSize const*, Rect*)
PUBLIC 9719b 0 _ConstrainWindowRectToScreen(OpaqueWindowPtr*, Rect const*, unsigned int, Rect const*, CGSize const*, Rect*)
PUBLIC 973f2 0 WindowData::GetPublicAttributes()
PUBLIC 97430 0 FitRectOnScreen(Rect const*, Rect const*, unsigned int, Point, Rect*)
PUBLIC 9785d 0 HMSetMenuItemHelpContent
PUBLIC 97950 0 StartObservingEvents
PUBLIC 9798b 0 _HMCreateHelpContentCopy
PUBLIC 97aa1 0 SetMenuItemSystemProperty
PUBLIC 97b57 0 HelpEventObserver(unsigned int, OpaqueEventRef*, void*)
PUBLIC 97ec2 0 ResetTimer
PUBLIC 98004 0 HelpTagTimer(__EventLoopTimer*, void*)
PUBLIC 984dd 0 MBarMenuTrackingListener(unsigned int, void*, void*)
PUBLIC 9853f 0 _HIMenuFindDynamicGroup
PUBLIC 985b5 0 _HIMenuFindDynamicGroup(MenuData*, unsigned short, unsigned short*, unsigned short*, unsigned short*)
PUBLIC 98621 0 ___ZN18HIStandardMenuView8DrawSelfEsPK9__HIShapeP9CGContext_block_invoke
PUBLIC 98685 0 AutoShowHideHandler(OpaqueEventHandlerCallRef*, OpaqueEventRef*, void*)
PUBLIC 986f5 0 SetEventTime
PUBLIC 98717 0 MBarMenuRgn(unsigned int, OpaqueRgnHandle*)
PUBLIC 98778 0 HIViewConvertRegion
PUBLIC 98814 0 HIView::ConvertRegionToView(OpaqueRgnHandle*, HIView*)
PUBLIC 9887e 0 HIView::ConvertRegionToSuperView(OpaqueRgnHandle*)
PUBLIC 98946 0 IsRectWideOpen(CGRect const&)
PUBLIC 989de 0 HLTBWindowToGlobalRegion
PUBLIC 98a15 0 GetGrayRgnWrapper
PUBLIC 98a25 0 GetGrayRgn
PUBLIC 98a6f 0 BuildGrayRgn()
PUBLIC 98b80 0 IsMenuBarObscured
PUBLIC 98b8d 0 DisposeCurrentHelpTag
PUBLIC 98d6c 0 RemoveTimer
PUBLIC 98dc3 0 IsTSMTracingForAsyncClient
PUBLIC 98df8 0 ClearTSMDocumentTypeProperty
PUBLIC 98e41 0 FixTSMDocument
PUBLIC 98e4b 0 MyFixTSMDocument
PUBLIC 9900f 0 utThisDocsInputMethodNeedsActivateForMenuCommands
PUBLIC 9907b 0 utFixCurrentInputSourceInDocument
PUBLIC 99087 0 utFixCurrentInputSourceInDocumentSkippingPalette
PUBLIC 99236 0 SendRestrictEnabledInputSourcesMessageToUIServer
PUBLIC 99480 0 _TSMCopySelectableInputSourcesInUIOrder
PUBLIC 996b9 0 _CreateUnflattenedInputSource
PUBLIC 99726 0 islGetInputSourceDictFromPrefsDescriptor
PUBLIC 997a7 0 TSMSendMessageToUIServer
PUBLIC 99b7a 0 GetMenuBarEventTarget
PUBLIC 99bae 0 HIMenuBar::GetClassID()
PUBLIC 99bec 0 HIMenuBar::Construct(OpaqueEventHandlerCallRef*, OpaqueEventRef*, void*)
PUBLIC 99c58 0 HIMenuBar::Initialize(OpaqueEventRef*)
PUBLIC 99cc0 0 HIMenuBar::GetNextTarget(OpaqueEventTargetRef*, OpaqueEventRef*, void*)
PUBLIC 99cca 0 InputSourceToolboxListenerWithInternalHint
PUBLIC 99e42 0 InputSourceChangedHandler(unsigned int, void*, void*)
PUBLIC 99e57 0 TSMProcessMouseEventWithCompletionHandler
PUBLIC 99f6a 0 __TSMProcessMouseEventWithCompletionHandler_block_invoke
PUBLIC 99ffd 0 __TSMProcessMouseEventWithCompletionHandler_block_invoke_2
PUBLIC 9a090 0 __TSMProcessMouseEventWithCompletionHandler_block_invoke_3
PUBLIC 9a124 0 __TSMProcessMouseEventWithCompletionHandler_block_invoke_4
PUBLIC 9a1bc 0 SendHotKeyEvent(unsigned int, OpaqueEventTargetRef*, unsigned int, unsigned int, unsigned int)
PUBLIC 9a290 0 GetUnifiedMenuList()
PUBLIC 9a2ae 0 UnifyMenuList()
PUBLIC 9a48b 0 FindItemByCommandInEachHMenu(MenuData*, void*)
PUBLIC 9a4f3 0 LMGetKeyThresh
PUBLIC 9a527 0 GetKeyRepeatThreshold
PUBLIC 9a57a 0 DocDeactivatedinBackground
PUBLIC 9a59c 0 HIToolboxLSNotificationCallbackFunc(LSNotificationCode, double, void const*, __LSASN const*, void const*, LSSessionID, void const*)
PUBLIC 9a7e6 0 StuffInfoFromLSNotificationDictionaryIntoEvent
PUBLIC 9a977 0 CancelMenuTracking
PUBLIC 9aad5 0 FlushEventQueue
PUBLIC 9acdd 0 __DragInfoPtrMergeSourceImagesForDestinationContext
PUBLIC 9adaf 0 __CoreDragCreateImageDataFromCFDictionary
PUBLIC 9ae09 0 -[CDImageData initWithDict:]
PUBLIC 9b19b 0 -[CDImageComponent initWithDictionary:]
PUBLIC 9b3a5 0 -[CDImageComponent setFrame:]
PUBLIC 9b3c8 0 -[CDImageComponent setSlotID:]
PUBLIC 9b3d8 0 -[CDImageComponent slotID]
PUBLIC 9b3e8 0 -[CDImageData setImageComponents:]
PUBLIC 9b42f 0 IsCurrentTSMDocumentUnicode
PUBLIC 9b471 0 GetTextInputEventKeyboardEvent
PUBLIC 9b560 0 ShouldDisallowConvertRawKeyEventToWNE
PUBLIC 9b56a 0 _GetCharFromMenuKeyGlyph
PUBLIC 9b5a8 0 HIObject::__Equal(void const*, void const*)
PUBLIC 9b5c4 0 _HIObjectIsEqual
PUBLIC 9b6ec 0 HIObject::IsEqual(HIObject*)
PUBLIC 9b6fa 0 CopyCGImageToWindow
PUBLIC 9b91a 0 UpdateGroupSectionHeads
PUBLIC 9b92e 0 GetSpaceString()
PUBLIC 9b9a4 0 GetFunctionKeyString()
PUBLIC 9b9e5 0 FindWindowFromItem(unsigned int)
PUBLIC 9ba3c 0 _GetActiveSystemUIModeAndOptions
PUBLIC 9ba94 0 HIObject::NoLongerAccessible(unsigned long long)
PUBLIC 9bab6 0 UpdateCacheEntryItemIndex(OpaqueCollection*, unsigned int, MenuData*, unsigned short, unsigned short)
PUBLIC 9bb26 0 FindCacheEntry(OpaqueCollection*, unsigned int, MenuData*, unsigned short, MenuKeyCacheEntry*, int*)
PUBLIC 9bbd9 0 AcquireRootMenu
PUBLIC 9bbfd 0 GetEventMonitorTarget
PUBLIC 9bc72 0 HIEventMonitor::Create()
PUBLIC 9bcbd 0 HandlerInstalled(OpaqueEventTargetRef*, void*, unsigned int, unsigned int)
PUBLIC 9bcfa 0 SyncEventMonitorMask()
PUBLIC 9be59 0 HandlerRemoved(OpaqueEventTargetRef*, void*, unsigned int, unsigned int)
PUBLIC 9bea0 0 __InvalMenuBar_block_invoke
PUBLIC 9bee0 0 OpenSubmenu(MenuSelectData*, MenuData*, unsigned char, unsigned char*)
PUBLIC 9c09f 0 GetMenuTrackingData
PUBLIC 9c1a0 0 _GetMenuTrackingData(MenuData*, MenuTrackingData*)
PUBLIC 9c271 0 CheckDragging(MenuSelectData*, unsigned char*)
PUBLIC 9c6a0 0 SlopeFromLine(Point, Point)
PUBLIC 9c6d4 0 WithinWanderDistance
PUBLIC 9c719 0 CopyMenuItemTextAsCFString
PUBLIC 9c78c 0 _CopyMenuItemTextAsCFString(MenuData*, unsigned short, __CFString const**)
PUBLIC 9c89f 0 AMUserNameChange(unsigned int, void*, void*)
PUBLIC 9c937 0 InsertStringInMenuItem(OpaqueMenuRef*, unsigned short, __CFString const*, __CFString const*)
PUBLIC 9c9e1 0 EnableCmdItem(HICommand const&, unsigned char)
PUBLIC 9ca0e 0 CopyLocationSetsAndCurrent(long, __CFArray const**, __SCNetworkSet const**)
PUBLIC 9cb0e 0 GetAvailableUpdatesCount()
PUBLIC 9cba1 0 _HIMenuSetNewItemsCount
PUBLIC 9cc3c 0 MenuItemData::SetNewItemsCount(unsigned int)
PUBLIC 9cc83 0 HLTBGetMenuDirection
PUBLIC 9cd44 0 SendCoreAppleEventToSystemProcess(unsigned int, unsigned char)
PUBLIC 9ce78 0 SendAETimer(__EventLoopTimer*, void*)
PUBLIC 9cee1 0 ___ZL11SendAETimerP16__EventLoopTimerPv_block_invoke
PUBLIC 9cf54 0 AESend
PUBLIC 9cfac 0 HIApplication::BeginNonActiveMenuBar(unsigned char)
PUBLIC 9d06a 0 _BeginAppModalStateWithOptions
PUBLIC 9d1d1 0 PushDisabledMenuState
PUBLIC 9d27a 0 PushMenuState(MenuData*, OpaqueMenuModalState*)
PUBLIC 9d2d8 0 UpdateDisabledMenuState(MenuData*, unsigned char, int, int (*)(MenuData*, OpaqueMenuModalState*), OpaqueMenuModalState*)
PUBLIC 9d43a 0 HIMenuBar::HandleEvent(OpaqueEventHandlerCallRef*, OpaqueEventRef*)
PUBLIC 9d4df 0 DisplayAcceleratorChanged(unsigned int, void*, void*)
PUBLIC 9d4f3 0 TransparencyChangedListener(unsigned int, void*, void*)
PUBLIC 9d4fd 0 _ReactFullScreenToDisplayChanged
PUBLIC 9d5f2 0 _FullScreenLogging
PUBLIC 9d65f 0 HIMenuSetFont
PUBLIC 9d6f9 0 _HIMenuSetFont(MenuData*, unsigned short, __CTFont const*)
PUBLIC 9d7c6 0 MenuData::_SetFont(__CTFont const*)
PUBLIC 9d80c 0 HIObjectRegisterSubclass
PUBLIC 9d84d 0 _HIMenuSetItemViewClass
PUBLIC 9d857 0 HIMenuSetItemViewClass
PUBLIC 9da32 0 MenuItemData::SetViewClass(__CFString const*)
PUBLIC 9da7c 0 MenuItemData::SetViewInitEvent(OpaqueEventRef*)
PUBLIC 9dac8 0 _HIMenuSetItemIndent
PUBLIC 9db4c 0 MenuData::SetItemIndent(int)
PUBLIC 9db8f 0 HIMenuSetSelection
PUBLIC 9dc00 0 _HIMenuSetSelection(MenuData*, unsigned short, unsigned short)
PUBLIC 9dc8b 0 ShowDynamicItem(MenuData*, unsigned short)
PUBLIC 9dd34 0 HIView::Construct(OpaqueHIObjectRef*)
PUBLIC 9dd80 0 HIObject::StoreInstanceDataForClass(void*, HIObjectClass*)
PUBLIC 9ddca 0 SetEventHandlerUserData
PUBLIC 9de42 0 SetControlProperty
PUBLIC 9dea3 0 HIViewChangeFeatures
PUBLIC 9def8 0 MenuItemData::SetView(OpaqueControlRef*)
PUBLIC 9df45 0 HIViewChangeAttributes
PUBLIC 9df9c 0 HIView::ChangeAttributes(unsigned int, unsigned int)
PUBLIC 9dfdc 0 HIStandardMenuView::LayoutItemView(float*, float*)
PUBLIC 9e032 0 GetControlProperty
PUBLIC 9e0c0 0 TThemeFont::TThemeFont()
PUBLIC 9e10a 0 TThemeSpecifiedFont::Init(THIThemeTextInfo const*)
PUBLIC 9e130 0 THIThemeTextInfoPublic::GetCustomFont() const
PUBLIC 9e16a 0 TThemeFont::SetCTFont(__CTFont const*)
PUBLIC 9e1b8 0 HIView::BoundsChangedSelf(unsigned int, CGRect const&, CGRect const&)
PUBLIC 9e1c4 0 GetWindowAttributes
PUBLIC 9e1f5 0 GetWindowFeatures
PUBLIC 9e253 0 SetMenuSelection(MenuSelectData*, MenuData*, unsigned short, unsigned char)
PUBLIC 9e50c 0 HIViewAdvanceFocusWithOptions
PUBLIC 9e5ee 0 HIView::AdvanceFocus(unsigned char, unsigned char, unsigned int)
PUBLIC 9e71a 0 HIView::ContainsSubPane(HIView*)
PUBLIC 9e73f 0 AdvanceFocusFromView(HIView*, unsigned char, unsigned int, HIView*, unsigned char, FocusData*)
PUBLIC 9e93a 0 HIViewSetNeedsDisplayInRect
PUBLIC 9e9fe 0 TThemeSpecifiedFont::IsCompatible(THIThemeTextInfo const*) const
PUBLIC 9ea5a 0 TLineInfo::~TLineInfo()
PUBLIC 9ea60 0 HIDualIconTextView::RightIconPressed()
PUBLIC 9ea66 0 HIDualIconTextView::DrawFrame(CGContext*, unsigned int)
PUBLIC 9ea6c 0 HIDualIconTextView::DrawLeftIcon(CGContext*, unsigned int)
PUBLIC 9ea72 0 HIDualIconTextView::DrawRightIcon(CGContext*, unsigned int)
PUBLIC 9ea80 0 HIDualIconTextView::TextFocus(unsigned char)
PUBLIC 9ea8e 0 TBrowser::DataSorter::~DataSorter()
PUBLIC 9ea90 0 HLTB_CDEF::HelpContent(Point, short, short*, HMHelpContentRec*) const
PUBLIC 9ea9c 0 ContainerEater::~ContainerEater()
PUBLIC 9eaaa 0 ITableData::SynchronizeRows()
PUBLIC 9eab8 0 ITableData::AddColumn(unsigned long, DataBrowserPropertyDesc const&)
PUBLIC 9eabe 0 ITableData::MoveColumn(unsigned long, unsigned long)
PUBLIC 9eac4 0 ITableData::DeleteColumn(unsigned long)
PUBLIC 9eaca 0 ITableData::ColumnFlags(unsigned long, unsigned int)
PUBLIC 9ead8 0 ITableData::CachedData(Cell64 const&, BrowserObj*)
PUBLIC 9eae4 0 TColumnView::DragEnter(OpaqueDragRef*)
PUBLIC 9eaea 0 TColumnView::DragLeave(OpaqueDragRef*)
PUBLIC 9eaf0 0 TColumnView::DragWithin(OpaqueDragRef*)
PUBLIC 9eaf6 0 DragRegionGenerator::~DragRegionGenerator()
PUBLIC 9eb00 0 ButtonObj::LabelProc(Rect const*, HIThemeButtonDrawInfo const*, HiliteMode, bool, ExtraUncachedLayoutInfo const&, TDeviceRenderer::Context const&)
PUBLIC 9eb0a 0 ColumnResizer::~ColumnResizer()
PUBLIC 9eb18 0 ItemIDCompare::~ItemIDCompare()
PUBLIC 9eb1e 0 ClientCompare::~ClientCompare()
PUBLIC 9eb26 0 ValueCompare::~ValueCompare()
PUBLIC 9eb2e 0 ChildRemover::~ChildRemover()
PUBLIC 9eb3c 0 IDataSorter::~IDataSorter()
PUBLIC 9eb3e 0 CRunObject::SetLineWidth(int, int, int)
PUBLIC 9eb40 0 CRunObject::ClearWidthCache()
PUBLIC 9eb46 0 CRunObject::RestorePreLinkRunStyleSettings()
PUBLIC 9eb4c 0 CRunObject::SavePreLinkStyleSettings()
PUBLIC 9eb5a 0 CRunObject::FilterRunAttributes()
PUBLIC 9eb60 0 CGraphicsRun::UpdateActiveController()
PUBLIC 9eb68 0 CTextensionDrag::~CTextensionDrag()
PUBLIC 9eb6c 0 CFormatter::~CFormatter()
PUBLIC 9eb78 0 CLongArray::~CLongArray()
PUBLIC 9eb84 0 CTextension::~CTextension()
PUBLIC 9eb8c 0 CStyledText::SetCGContextRefToLayoutRanges(CGContext*)
PUBLIC 9eb92 0 CTextension::DoATSUFontMatchingForCFP(TCharOffsetRange const&, unsigned int*, unsigned char*)
PUBLIC 9eba0 0 CEasyTextDrag::~CEasyTextDrag()
PUBLIC 9eba8 0 CTSMTextension::~CTSMTextension()
PUBLIC 9ebb4 0 CUnicodeTextension::~CUnicodeTextension()
PUBLIC 9ebbe 0 CSelection::~CSelection()
PUBLIC 9ebc6 0 TThemeFont::ApplyStyleToContext(unsigned int, CGContext*) const
PUBLIC 9ebd0 0 HIViewNewTrackingArea
PUBLIC 9ec1a 0 HIView::AddTrackingArea(__HIShape const*, unsigned long long, OpaqueHIViewTrackingAreaRef**)
PUBLIC 9ec32 0 HIView::AddTrackingAreaWithOptions(__HIShape const*, unsigned long long, unsigned int, OpaqueHIViewTrackingAreaRef**)
PUBLIC 9ed56 0 HIView::UpdateTrackingArea(HITrackingArea*)
PUBLIC 9efbe 0 ShouldCallCGSSetTrackingAreaClipForAllAreas
PUBLIC 9efd4 0 HIViewRender
PUBLIC 9f026 0 HIView::Draw(short, OpaqueGrafPtr*, unsigned int)
PUBLIC 9f063 0 HIViewDisposeTrackingArea
PUBLIC 9f0ac 0 HIView::IsTrackingAreaValid(OpaqueHIViewTrackingAreaRef*)
PUBLIC 9f0d2 0 HIView::RemoveTrackingArea(OpaqueHIViewTrackingAreaRef*)
PUBLIC 9f13a 0 HIView::RemoveTrackingAreaInternal(HITrackingArea*, bool)
PUBLIC 9f202 0 HIView::RemoveTrackingAreaFromWindow(HITrackingArea*, OpaqueWindowPtr*, bool)
PUBLIC 9f260 0 HIView::GetKindSelf()
PUBLIC 9f273 0 FindMBEntryIndex(MenuData*)
PUBLIC 9f2ad 0 _HIViewIsTrackingAreaValid
PUBLIC 9f2c9 0 HIViewGetTrackingAreaID
PUBLIC 9f300 0 TThemeSpecifiedFont::GetThemeFontID() const
PUBLIC 9f318 0 TThemeSpecifiedFont::~TThemeSpecifiedFont()
PUBLIC 9f34c 0 TThemeFont::~TThemeFont()
PUBLIC 9f3c2 0 _HIThemeAccessibilityRichmond
PUBLIC 9f41d 0 GetPopupButtonSize(MenuSelectData*)
PUBLIC 9f48b 0 _HIThemeGetPopUpButtonCUIImageOutsetsAndHeight
PUBLIC 9f590 0 _HIWindowDebugAnimations
PUBLIC 9f5c3 0 TransitionWindowWithOptions
PUBLIC a0b0b 0 AddBoundsTransition(WindowWithRefCon&, unsigned int, unsigned int, Rect const*, float, void*, Transition**)
PUBLIC a0c3b 0 AddTransition(Transition*, unsigned int, unsigned int, void*)
PUBLIC a0ca7 0 RunTransitions(unsigned int)
PUBLIC a0e79 0 ReleaseTrans(Transition*)
PUBLIC a0eb9 0 PopupArrowsHandler(OpaqueEventHandlerCallRef*, OpaqueEventRef*, void*)
PUBLIC a10a2 0 TransitionTimer(__EventLoopTimer*, void*)
PUBLIC a1a3c 0 SendTransEvent(WindowData*, unsigned int, unsigned int, unsigned int, void*, double)
PUBLIC a1b37 0 MenuResizingHandler(OpaqueEventHandlerCallRef*, OpaqueEventRef*, void*)
PUBLIC a1d4d 0 SetWindowBoundsAndUpdateEffect(WindowWithRefCon&, unsigned int, unsigned short, Rect const*, Transition*)
PUBLIC a1e09 0 _SetWindowBoundsWithOptions
PUBLIC a1e20 0 SetWindowBoundsInternal(OpaqueWindowPtr*, unsigned short, Rect const*, Rect const*, unsigned int)
PUBLIC a1e7c 0 HIView::CopyEffectiveStructureForMove()
PUBLIC a1f6e 0 HIView::SendAncestorPositionChangedToChildren(CGRect const&, CGRect const&)
PUBLIC a20b8 0 HIView::SendAncestorPositionChangedToChildrenInternal(OpaqueEventRef*)
PUBLIC a2166 0 HIView::InvalidateForSizeChangeSelf(CGRect const&, CGRect const&)
PUBLIC a2174 0 HIMenuWindowView::InvalidateForSizeChangeSelf(CGRect const&, CGRect const&)
PUBLIC a21e4 0 HIView::InvalidateForSizeChangeOptimally(CGRect const&, CGRect const&)
PUBLIC a2281 0 _UpdateOpenMenuBounds
PUBLIC a2335 0 WindowStateTrackBounds(WindowData*)
PUBLIC a2386 0 ResetPlatformWindowSpace
PUBLIC a23c0 0 WindowData::GetWindowArray()
PUBLIC a23ed 0 CreateWidArray
PUBLIC a244a 0 _UpdateBackdropBounds(WindowData*)
PUBLIC a2475 0 ___Z21_UpdateBackdropBoundsP10WindowData_block_invoke
PUBLIC a2492 0 WindowData::RepaintForChangedResolution()
PUBLIC a2517 0 MovePlatformWindow
PUBLIC a2594 0 HIStandardMenuView::InvalidateForSizeChangeSelf(CGRect const&, CGRect const&)
PUBLIC a264c 0 RemoveTransition(Transition*)
PUBLIC a2752 0 HIViewRemoveFromSuperview
PUBLIC a2796 0 HIView::~HIView()
PUBLIC a27c4 0 HelpMenuDisposeHandler
PUBLIC a2839 0 HideTagForProvider
PUBLIC a28b4 0 HMGetCurrentTagProvider
PUBLIC a28cd 0 ReleaseOriginalData
PUBLIC a292b 0 swmDoEvent
PUBLIC a29a9 0 IsMouseCoalescingEnabled
PUBLIC a29bf 0 AutoScrollTimer(__EventLoopTimer*, void*)
PUBLIC a2a5d 0 AutoScrollMenu(OpaqueControlRef*, Point, unsigned char*)
PUBLIC a2e6a 0 AutoScrollObserver(unsigned int, OpaqueEventRef*, void*)
PUBLIC a2f4a 0 HIStandardMenuView::AddResolvedMenuAndItemToEvent(OpaqueEventRef*)
PUBLIC a2fc0 0 HIStandardMenuView::ResendLinkedMenuEvent(OpaqueEventRef*, int*)
PUBLIC a3102 0 InvalidateMenuItems
PUBLIC a3196 0 CountUncountedItemsInRange(MenuData*, unsigned short, unsigned long)
PUBLIC a3221 0 InvalidateMenuSize
PUBLIC a3242 0 _HIThemeUnflipContext
PUBLIC a3290 0 _HIThemeFlipContext
PUBLIC a32d4 0 InvalidateMenuView(MenuData*, unsigned short, unsigned short, unsigned long)
PUBLIC a348e 0 HIViewIsDrawingEnabled
PUBLIC a34b8 0 _HIViewCopyVisibleShape
PUBLIC a3531 0 _HIViewCopyPartRangeShape
PUBLIC a35ac 0 HIView::CopyPartRangeShape(short, short, __HIShape const**)
PUBLIC a3666 0 SendControlDefCopyPartRangeShape(HIView*, short, short, __HIShape const**)
PUBLIC a375c 0 ShouldContextualClickShowPopupMenuBar
PUBLIC a3764 0 ShouldModalityBlockMouseWheelEvents
PUBLIC a3778 0 HIMenuView::GetSubmenuFrame(CGSize const*, HIViewFrameMetrics const*, CGRect const*, CGRect const*, __HIShape const*, unsigned int*, CGRect*)
PUBLIC a3edf 0 BoundsContainedInAvailableShape(CGRect const*, __HIShape const*, __HIShape const**)
PUBLIC a3f52 0 HLTBPixelToWindowHIPoint
PUBLIC a3f7a 0 _HIAccessibleObjectCreateWithHIObjectAndIdentifier
PUBLIC a3f84 0 _HIAccessibleObjectGetHIObject
PUBLIC a3f8e 0 _HIAccessibleObjectGetIdentifier
PUBLIC a3fa0 0 AXRegistrant::AXRegistrant(__CFData const*, void const*, __CFString const*)
PUBLIC a3ffc 0 AXList::ClientDied(void const*)
PUBLIC a4004 0 AXList::HIObjectDied(OpaqueHIObjectRef*)
PUBLIC a400c 0 AXList::Notify(__CFString const*, __CFData const*, __AXUIElement const*)
PUBLIC a401c 0 AXDictList::~AXDictList()
PUBLIC a4066 0 AXDictList::DeletionIterator(void const*, void const*, void*)
PUBLIC a4090 0 __clang_call_terminate
PUBLIC a409c 0 AXDictList::~AXDictList()
PUBLIC a40a6 0 AXDictList::~AXDictList()
PUBLIC a40d4 0 AXDictList::GetList()
PUBLIC a4108 0 AXDictList::ItemDeleter(void const*, void const*)
PUBLIC a411e 0 AXDictList::GetKeyedItem(void const*, void const**)
PUBLIC a4160 0 AXDictList::ContainsItem(void const*)
PUBLIC a418e 0 AXDictList::AddItem(void const*, void*)
PUBLIC a41c2 0 AXDictList::RemoveItem(void const*)
PUBLIC a41e4 0 AXDictList::CountItems()
PUBLIC a4200 0 AXDictList::ApplyFunctionRemoveSafe(void (*)(AXDictList*, void const*, void const*, void*), void*)
PUBLIC a4334 0 AXRegistry::Register(AXRegistrant const*)
PUBLIC a4364 0 AXRegistry::Unregister(AXRegistrant const*)
PUBLIC a43d0 0 AXRegistry::GetItem(AXRegistrant const*, void const**, unsigned char)
PUBLIC a4456 0 AXRegistry::ClientDied(void const*)
PUBLIC a4470 0 AXRegistry::ClientDiedIterator(AXDictList*, void const*, void const*, void*)
PUBLIC a44c8 0 AXRegistry::HIObjectDied(OpaqueHIObjectRef*)
PUBLIC a450e 0 AXRegistry::NotifyWithSourceElement(__CFString const*, __AXUIElement const*, __AXUIElement const*)
PUBLIC a45c8 0 AXObjectList::GetCFDictionaryKeyCallBacks()
PUBLIC a45d6 0 AXObjectList::Register(AXRegistrant const*)
PUBLIC a4606 0 AXObjectList::Unregister(AXRegistrant const*)
PUBLIC a4674 0 AXObjectList::GetItem(AXRegistrant const*, void const**, unsigned char)
PUBLIC a46fc 0 AXObjectList::ClientDied(void const*)
PUBLIC a4716 0 AXObjectList::ClientDiedIterator(AXDictList*, void const*, void const*, void*)
PUBLIC a476e 0 AXObjectList::Notify(__CFString const*, __CFData const*, __AXUIElement const*)
PUBLIC a47b0 0 AXIdentifierList::GetCFDictionaryKeyCallBacks()
PUBLIC a47be 0 AXIdentifierList::Register(AXRegistrant const*)
PUBLIC a47ee 0 AXIdentifierList::Unregister(AXRegistrant const*)
PUBLIC a485c 0 AXIdentifierList::GetItem(AXRegistrant const*, void const**, unsigned char)
PUBLIC a4916 0 AXIdentifierList::ClientDied(void const*)
PUBLIC a4930 0 AXIdentifierList::ClientDiedIterator(AXDictList*, void const*, void const*, void*)
PUBLIC a4988 0 AXIdentifierList::Notify(__CFString const*, __CFData const*, __AXUIElement const*)
PUBLIC a49c8 0 AXClientList::NotifyWithTarget(__CFString const*, __AXUIElement const*)
PUBLIC a4a68 0 AXClientList::~AXClientList()
PUBLIC a4aa6 0 AXClientList::DeletionIterator(void const*, void*)
PUBLIC a4aac 0 AXClientList::~AXClientList()
PUBLIC a4ab6 0 AXClientList::~AXClientList()
PUBLIC a4ae4 0 AXClientList::Register(AXRegistrant const*)
PUBLIC a4b1c 0 AXClientList::Unregister(AXRegistrant const*)
PUBLIC a4b56 0 AXClientList::GetItem(AXRegistrant const*, void const**, unsigned char)
PUBLIC a4ba6 0 AXClientList::ContainsItem(void const*)
PUBLIC a4bb4 0 AXClientList::RemoveItem(void const*)
PUBLIC a4bc6 0 AXClientList::CountItems()
PUBLIC a4bd4 0 AXClientList::NotificationIterator(void const*, void*)
PUBLIC a4be8 0 AXClientList::ClientDied(void const*)
PUBLIC a4bf6 0 CarbonAddObserverCallback
PUBLIC a4d02 0 CarbonRemoveObserverCallback
PUBLIC a4de5 0 CarbonObserverClientDiedCallback
PUBLIC a4e6b 0 AXNotificationAXUIElementNotifyForAXUIElement
PUBLIC a4f06 0 AXRegistry::~AXRegistry()
PUBLIC a4f1a 0 AXRegistry::~AXRegistry()
PUBLIC a4f52 0 AXIdentifierList::~AXIdentifierList()
PUBLIC a4f5a 0 AXObjectList::~AXObjectList()
PUBLIC a4f64 0 AXObjectList::~AXObjectList()
PUBLIC a4f9c 0 AXIdentifierList::~AXIdentifierList()
PUBLIC a4fd0 0 HLTBIsAXEnabled
PUBLIC a4ff6 0 GetCarbonAccessibilityCallbacks
PUBLIC a5003 0 HLTBCopyUIElementAttributeNames
PUBLIC a506a 0 Accessible::GetAllNames(Accessible::ElementType, __CFArray const**)
PUBLIC a51fb 0 HLTBCopyUIElementAttributeValue
PUBLIC a53fc 0 Accessible::GetNamedAttributeData(__CFString const*, void const*, void const**, unsigned char*)
PUBLIC a550a 0 Accessible::IsNamedAttributeSupported(__CFString const*)
PUBLIC a556b 0 HLTBIsUIElementAttributeSettable
PUBLIC a55e8 0 Accessible::IsNamedAttributeSettable(__CFString const*, unsigned char*)
PUBLIC a56a1 0 HLTBSetUIElementAttributeValue
PUBLIC a571e 0 Accessible::SetNamedAttributeData(__CFString const*, void const*)
PUBLIC a57d0 0 HLTBCopyUIElementActionNames
PUBLIC a583a 0 HLTBCopyUIElementActionDescription
PUBLIC a58b6 0 Accessible::GetNamedActionDescription(__CFString const*, __CFString const**)
PUBLIC a59a5 0 HLTBPerformUIElementAction
PUBLIC a5a14 0 Accessible::PerformNamedAction(__CFString const*)
PUBLIC a5b55 0 HLTBCopyUIElementAtScreenPixelPosition
PUBLIC a5bf8 0 Accessible::HitTest(CGPoint const&, __AXUIElement const**)
PUBLIC a5dac 0 TransformAccessibleObjectIntoElement(__AXUIElement const*, __CFString const*, void const*, __AXUIElement const**)
PUBLIC a5e5d 0 AXUIElementCreateWithAXUIElementData(__CFData const*, __AXUIElement const**)
PUBLIC a5eb4 0 AXUIElementCreateWithHIObjectAndIdentifier
PUBLIC a5ed3 0 CreateAccessibilityEvent(unsigned int, __AXUIElement const*, OpaqueEventRef**)
PUBLIC a5f4c 0 Accessible::SendEvent(OpaqueEventRef*, bool) const
PUBLIC a5fad 0 GetEventParameterAsPropertyList(OpaqueEventRef*, unsigned int, __CFString const*, void const*, void const**, unsigned char*)
PUBLIC a64a2 0 Accessible::GetNamedAttributeData(__CFString const*, long, long, __CFArray const**)
PUBLIC a662c 0 Accessible::GetNamedAttributeDataCount(__CFString const*, long*)
PUBLIC a671c 0 Accessible::PostEvent(OpaqueEventRef*, bool) const
PUBLIC a67da 0 Accessible::GetFocus(__AXUIElement const**)
PUBLIC a68ee 0 Accessible::GetDeepFocus(__AXUIElement const**)
PUBLIC a6a55 0 AXUIElementGetHIObject
PUBLIC a6ab6 0 Accessible::GetCGWindow(void**)
PUBLIC a6b48 0 SetEventParameterWithAccessibilityObjectSpecifierForFocus
PUBLIC a6bad 0 HLTBCopyUIElementAtFocus
PUBLIC a6c86 0 CarbonElementDataGetHIObject
PUBLIC a6cb2 0 CarbonElementDataGetIdentifierData(__CFData const*, unsigned long, unsigned long*, void*)
PUBLIC a6d0a 0 CarbonElementDataCreateIdentifierData
PUBLIC a6d37 0 CarbonElementDataGetApplicationIdentifierData
PUBLIC a6d6f 0 AXUIElementCreateWithHIObjectAndData
PUBLIC a6de8 0 AXUIElementGetIdentifier
PUBLIC a6e12 0 AXUIElementGetIdentifierData
PUBLIC a6ead 0 AXUIElementCreateIdentifierData
PUBLIC a6ef8 0 _AXUIElementCopyParentHIObject
PUBLIC a6fcb 0 _AXUIElementGetBounds(__AXUIElement const*, CGRect*)
PUBLIC a707b 0 AXUIElementGetFocusedUIElementBounds
PUBLIC a7392 0 GetAccessibilityAttributeID
PUBLIC a73ef 0 GetAccessibilityActionID
PUBLIC a744c 0 HICopyAccessibilityRoleDescription
PUBLIC a7461 0 HICopyAccessibilityActionDescription
PUBLIC a746b 0 HLTBIsUIEnhanced
PUBLIC a7484 0 AccessibilityCocoaCallbacksNotLoaded
PUBLIC a7494 0 AccessibilitySuspendNotificationRegistrationsForCocoa
PUBLIC a74a1 0 AccessibilityRecordApplicationNotificationRegistrationForCocoa
PUBLIC a756f 0 AccessibilityRemoveApplicationNotificationRegistrationForCocoa
PUBLIC a75f4 0 SetCocoaAccessibilityCallbacks
PUBLIC a7657 0 AccessibilityShimAddObserverCallback(__CFData const*, unsigned int, void const*, __CFString const*, void*)
PUBLIC a7671 0 AccessibilityShimRemoveObserverCallback(__CFData const*, unsigned int, void const*, __CFString const*, void*)
PUBLIC a768b 0 AccessibilityShimObserverClientDiedCallback(void const*, void*)
PUBLIC a76a5 0 AccessibilityShimCopyAttributeNamesCallback(__CFData const*, unsigned int, __CFArray const**, void*)
PUBLIC a76bf 0 AccessibilityShimCopyAttributeValueCallback(__CFData const*, unsigned int, __CFString const*, void const**, void*)
PUBLIC a76d9 0 AccessibilityShimIsAttributeSettableCallback(__CFData const*, unsigned int, __CFString const*, __CFBoolean const**, void*)
PUBLIC a76f3 0 AccessibilityShimSetAttributeValueCallback(__CFData const*, unsigned int, __CFString const*, void const*, void*)
PUBLIC a770d 0 AccessibilityShimCopyActionNamesCallback(__CFData const*, unsigned int, __CFArray const**, void*)
PUBLIC a7727 0 AccessibilityShimCopyActionDescriptionCallback(__CFData const*, unsigned int, __CFString const*, __CFString const**, void*)
PUBLIC a7741 0 AccessibilityShimPerformActionCallback(__CFData const*, unsigned int, __CFString const*, void*)
PUBLIC a775b 0 AccessibilityShimCopyElementAtPositionCallback(__CFData const*, unsigned int, float, float, __AXUIElement const**, void*)
PUBLIC a7775 0 AccessibilityShimGetAttributeValueCountCallback(__CFData const*, unsigned int, __CFString const*, long*, void*)
PUBLIC a778f 0 AccessibilityShimCopyAttributeValuesCallback(__CFData const*, unsigned int, __CFString const*, long, long, __CFArray const**, void*)
PUBLIC a77a9 0 AccessibilityShimCopyParameterizedAttributeNamesCallback(__CFData const*, unsigned int, __CFArray const**, void*)
PUBLIC a77c3 0 AccessibilityShimCopyParameterizedAttributeValueCallback(__CFData const*, unsigned int, __CFString const*, void const*, void const**, void*)
PUBLIC a77dd 0 AccessibilityShimCopyMultipleAttributeValuesCallback(__CFData const*, unsigned int, __CFArray const*, unsigned int, __CFArray const**, void*)
PUBLIC a77f7 0 AccessibilityShimGetWindowCallback(__CFData const*, unsigned int, void**, void*)
PUBLIC a7811 0 CarbonCopyAttributeNamesCallback(__CFData const*, unsigned int, __CFArray const**, void*)
PUBLIC a788c 0 CarbonCopyAttributeValueCallback(__CFData const*, unsigned int, __CFString const*, void const**, void*)
PUBLIC a790e 0 CarbonIsAttributeSettableCallback(__CFData const*, unsigned int, __CFString const*, __CFBoolean const**, void*)
PUBLIC a79b2 0 CarbonSetAttributeValueCallback(__CFData const*, unsigned int, __CFString const*, void const*, void*)
PUBLIC a7a34 0 CarbonCopyActionNamesCallback(__CFData const*, unsigned int, __CFArray const**, void*)
PUBLIC a7aaf 0 CarbonCopyActionDescriptionCallback(__CFData const*, unsigned int, __CFString const*, __CFString const**, void*)
PUBLIC a7b31 0 CarbonPerformActionCallback(__CFData const*, unsigned int, __CFString const*, void*)
PUBLIC a7bac 0 CarbonCopyElementAtPositionCallback(__CFData const*, unsigned int, float, float, __AXUIElement const**, void*)
PUBLIC a7c3a 0 CarbonGetAttributeValueCountCallback(__CFData const*, unsigned int, __CFString const*, long*, void*)
PUBLIC a7d2f 0 CarbonCopyAttributeValuesCallback(__CFData const*, unsigned int, __CFString const*, long, long, __CFArray const**, void*)
PUBLIC a7e56 0 CarbonCopyParameterizedAttributeNamesCallback(__CFData const*, unsigned int, __CFArray const**, void*)
PUBLIC a7f33 0 CarbonCopyParameterizedAttributeValueCallback(__CFData const*, unsigned int, __CFString const*, void const*, void const**, void*)
PUBLIC a810c 0 CarbonCopyMultipleAttributeValuesCallback(__CFData const*, unsigned int, __CFArray const*, unsigned int, __CFArray const**, void*)
PUBLIC a8304 0 CarbonGetWindowCallback(__CFData const*, unsigned int, void**, void*)
PUBLIC a8465 0 CreateElementFromData(__CFData const*, unsigned int, __AXUIElement const**)
PUBLIC a84ba 0 IterateClients(void const*, void const*, void*)
PUBLIC a84ea 0 RegisterForCocoaNotifications(void const*, void*)
PUBLIC a850a 0 _HIThemeGetButtonShapeInternal(CGRect const*, HIThemeButtonDrawInfo const*, OpaqueRgnHandle*)
PUBLIC a8592 0 HIThemeGetButtonContentBounds
PUBLIC a8651 0 HIThemeGetButtonBackgroundBounds
PUBLIC a8797 0 HIThemeDrawButton
PUBLIC a87ae 0 _HIThemeDrawButtonInternal(CGRect const*, HIThemeButtonDrawInfo const*, HIThemeButtonDrawInfo const*, ThemeEraseXUPP*, ThemeButtonDrawXUPP*, void*, CGContext*, unsigned int, CGRect*)
PUBLIC a9d38 0 _HIThemeCreateCUIOptionsDictionaryFromThemeButtonDrawInfo(HIThemeButtonDrawInfo const*, __CFString const*, __CFString const*, __CFString const*, __CFString const*)
PUBLIC a9f1f 0 _HIThemeDrawBevelButtonInset(CGRect const*, HIThemeButtonDrawInfo const*, CGContext*, unsigned int, CGRect*)
PUBLIC aa712 0 _HIThemeCreateCUIOptionsDictionaryFromPushButtonDrawInfo(unsigned short, HIThemeButtonDrawInfo const*)
PUBLIC aa7b1 0 _HIThemeCreateCUIOptionsDictionaryFromDisclosureButtonDrawInfo(HIThemeButtonDrawInfo const*)
PUBLIC aa887 0 RationalizeThemeButtonKind(HIThemeButtonDrawInfo const*, CGRect const*)
PUBLIC aa9e4 0 GetPushButtonDrawData(unsigned short, CGRect const*, CGRect*, CGRect*, unsigned int*)
PUBLIC aacbe 0 _HIThemeHitTestButton
PUBLIC ab020 0 HIThemeGetButtonShape
PUBLIC ab093 0 _HIThemeSetDrawingCallback
PUBLIC ab0e0 0 _IsValidThemeBrush
PUBLIC ab103 0 HIThemeSetFill
PUBLIC ab11e 0 _HIThemeSetColor
PUBLIC ab3a4 0 HIThemeSetStroke
PUBLIC ab3c2 0 HIThemeSetTextStroke
PUBLIC ab40b 0 _HIThemeSetTextColorWithRenderer
PUBLIC ab44e 0 DarkenRGBChannelsToAlternatePrimary(double*, double*, double*)
PUBLIC ab62f 0 _SetThemeTextColorWithContext
PUBLIC ab63c 0 HIThemeBrushCreateCGColor
PUBLIC ab8d0 0 GetThemeBrushAsColor
PUBLIC aba64 0 DarkenRGBColorToAlternatePrimary(RGBColor*)
PUBLIC abb15 0 GetThemeTextColor
PUBLIC abb59 0 _HIThemeGetTabShapeInternal(CGRect const*, HIThemeTabDrawInfo const*, OpaqueRgnHandle*)
PUBLIC abb9a 0 _HIThemeGetTabPaneDrawShapeInternal
PUBLIC abbdb 0 _HIThemeGetTabPaneContentShapeInternal
PUBLIC abc19 0 HIThemeGetTextColorForThemeBrush
PUBLIC abc23 0 _GetThemeTextColorForThemeBrush
PUBLIC abca8 0 HIThemeGetGrowBoxBounds
PUBLIC abd11 0 CopyThemeIdentifier
PUBLIC abd4a 0 HIThemeApplyBackground
PUBLIC abe5d 0 HIThemeDrawChasingArrows
PUBLIC abe6d 0 _HIThemeDrawChasingArrowsInternal(CGRect const*, HIThemeChasingArrowsDrawInfo const*, ThemeEraseXUPP*, void*, CGContext*, unsigned int)
PUBLIC ac065 0 _HIThemeDrawFrameSquare(CGRect const*, HIThemeFrameDrawInfo const*, CGContext*)
PUBLIC ac195 0 _HIThemeDrawFrameListBox(CGRect const*, HIThemeFrameDrawInfo const*, CGContext*)
PUBLIC ac2f8 0 _HIThemeDrawFrameRound(CGRect const*, HIThemeFrameDrawInfo const*, CGContext*)
PUBLIC ac415 0 HIThemeDrawFrame
PUBLIC ac4db 0 _HIThemeDrawFocusRect
PUBLIC ac7ff 0 HIThemeDrawFocusRect
PUBLIC ac80f 0 HIThemeBeginFocus
PUBLIC ac842 0 HIThemeEndFocus
PUBLIC ac85f 0 HIThemeDrawGenericWell
PUBLIC ac9fc 0 HIThemeDrawGrabber
PUBLIC acb53 0 HIThemeDrawPaneSplitter
PUBLIC acc91 0 HIThemeDrawPlacard
PUBLIC acd94 0 HIThemeDrawPopupArrow
PUBLIC acda4 0 _HIThemeDrawPopupArrow(CGRect const*, HIThemePopupArrowDrawInfo const*, ThemeEraseXUPP*, void*, CGContext*, unsigned int)
PUBLIC acfd0 0 HIThemeDrawGroupBox
PUBLIC ad194 0 _HIThemeDrawSelectionMarquee
PUBLIC ad32e 0 HIThemeDrawSeparator
PUBLIC ad501 0 HIThemeDrawSegment
PUBLIC ad50b 0 _HIThemeDrawSegment
PUBLIC ad80a 0 HIThemeDrawGrowBox
PUBLIC ad927 0 HIThemeDrawTab
PUBLIC ad94b 0 _HIThemeDrawTab(CGRect const*, HIThemeTabDrawInfo const*, ThemeTabTitleDrawXUPP*, void*, CGContext*, unsigned int, CGRect*)
PUBLIC ae1f8 0 HIThemeDrawTabPane
PUBLIC ae3a9 0 HIThemeDrawHeader
PUBLIC ae4bc 0 HIThemeGetTabDrawShape
PUBLIC ae52f 0 _HIThemeGetTabDrawShapeInternal
PUBLIC ae570 0 HIThemeGetTabPaneContentShape
PUBLIC ae5ef 0 HIThemeGetTabPaneDrawShape
PUBLIC ae66e 0 HIThemeGetTabShape
PUBLIC ae6e1 0 _NXRGBToHSB(double, double, double, double*, double*, double*)
PUBLIC ae817 0 _NXHSBToRGB(double, double, double, double*, double*, double*)
PUBLIC ae8fc 0 __CUICopyNamedColorConverted(__CFString const*)
PUBLIC ae95c 0 _HIThemeCopyCUIColor
PUBLIC aea96 0 _HIThemeGetChasingArrowDimensions
PUBLIC aeac0 0 _HIThemeDrawWell
PUBLIC aeb97 0 _HIThemeDrawLabel
PUBLIC aed9a 0 ___ZL28__CUICopyNamedColorConvertedPK10__CFString_block_invoke
PUBLIC aedb7 0 GetThemeMenuBackgroundRegion
PUBLIC aee07 0 _GetThemeMenuBackgroundRegionWithCallout
PUBLIC aee66 0 HIThemeDrawMenuBackground
PUBLIC aeea1 0 HIThemeDrawMenuItem
PUBLIC aef47 0 _HIThemeGetMenuBarLogoRect
PUBLIC aef52 0 HIThemeDrawMenuBarBackground
PUBLIC af06e 0 HIThemeDrawBackground
PUBLIC af3f7 0 RecordAnimationTimeout
PUBLIC af426 0 SetScrollBarVariantFromPrefs()
PUBLIC af540 0 AppearanceToolboxListener(unsigned int, void*, void*)
PUBLIC af639 0 NotifyVisibleWindowsOfCoreUIChange
PUBLIC af6c2 0 NotifySubControlsOfScrollBarChange(OpaqueControlRef*)
PUBLIC af7b2 0 NotifyThisClient(unsigned int)
PUBLIC af84b 0 GetThemeTextLength
PUBLIC af8e7 0 GetThemeTextShadowOutset
PUBLIC af92e 0 TruncateThemeText
PUBLIC afa56 0 GetThemeFontCore(unsigned short, short, unsigned char*, short*, short*, unsigned char*)
PUBLIC afb90 0 GetThemeFont
PUBLIC afbba 0 _HIThemeThreadLock
PUBLIC afc02 0 _HIThemeThreadUnlock
PUBLIC afc20 0 ___ZL25AppearanceMutexInitializev_block_invoke
PUBLIC afc50 0 HitTestThemeTrack
PUBLIC afc9b 0 HIThemeHitTestTrack
PUBLIC afce6 0 GetThemeTrackBounds
PUBLIC afd4f 0 HIThemeGetTrackBounds
PUBLIC afe27 0 GetThemeTrackThumbRgn
PUBLIC afe50 0 _HIThemeGetTrackThumbRegion
PUBLIC afec5 0 GetThemeTrackDragRect
PUBLIC aff2e 0 HIThemeGetTrackDragRect
PUBLIC affeb 0 HIThemeGetTrackThumbPositionFromOffset
PUBLIC b01ac 0 GetThemeTrackThumbPositionFromRegion
PUBLIC b0232 0 HIThemeGetTrackThumbPositionFromBounds
PUBLIC b0342 0 GetThemeTrackLiveValue
PUBLIC b0379 0 HIThemeGetTrackLiveValue
PUBLIC b054e 0 HIThemeGetScrollBarTrackRect
PUBLIC b05a1 0 HIThemeHitTestScrollBarArrows
PUBLIC b07dc 0 _HIThemeGetCUITrackValueFromLiveValue(HIThemeTrackDrawInfo const*, int, double*, double*)
PUBLIC b0862 0 _HIThemeGetCUIValueFromRelativePosition(HIThemeTrackDrawInfo const*, int, double*)
PUBLIC b08fa 0 GetThemeMinimumThumbSize(HIThemeTrackDrawInfo const*)
PUBLIC b0958 0 _HIThemeCreateCUIOptionsDictionaryFromThemeTrackDrawInfo(HIThemeTrackDrawInfo const*, __CFString const*, __CFString const*, __CFString const*, __CFString const*)
PUBLIC b0d48 0 _HIThemeCreateCUIOptionsDictionaryForScrollBar(HIThemeTrackDrawInfo const*, unsigned short)
PUBLIC b0e59 0 _HIThemeDrawSlider(HIThemeTrackDrawInfo const*, CGRect const*, ThemeEraseXUPP*, void*, CGContext*)
PUBLIC b117b 0 _GetSliderDragBounds(HIThemeTrackDrawInfo const*, CGRect*)
PUBLIC b1291 0 _HIThemeDrawProgressBar(HIThemeTrackDrawInfo const*, ThemeEraseXUPP*, void*, CGContext*)
PUBLIC b137e 0 _HIThemeDrawScrollBar(HIThemeTrackDrawInfo const*, CGRect const*, ThemeEraseXUPP*, void*, CGContext*)
PUBLIC b1521 0 CalculateThumbPosition(HIThemeTrackDrawInfo const*, float, float)
PUBLIC b158e 0 CalculateThumbSize(HIThemeTrackDrawInfo const*, float, float)
PUBLIC b1626 0 _HIThemeDrawRelevanceBar(HIThemeTrackDrawInfo const*, ThemeEraseXUPP*, void*, CGContext*)
PUBLIC b16a9 0 _GetSliderDrawBounds(HIThemeTrackDrawInfo const*, CGRect*)
PUBLIC b17bc 0 HIThemeDrawTrack
PUBLIC b17d3 0 _HIThemeDrawTrackInternal(HIThemeTrackDrawInfo const*, CGRect const*, ThemeEraseXUPP*, void*, CGContext*, unsigned int)
PUBLIC b1968 0 HIThemeDrawTrackTickMarks
PUBLIC b1978 0 _HIThemeDrawTrackTickMarksInternal(HIThemeTrackDrawInfo const*, unsigned long, ThemeEraseXUPP*, void*, CGContext*, unsigned int)
PUBLIC b1ae3 0 HIThemeDrawTickMark
PUBLIC b1af3 0 _HIThemeDrawTickMarkInternal
PUBLIC b1cb1 0 HIThemeGetTrackPartBounds
PUBLIC b1ccf 0 HIThemeGetTrackParts
PUBLIC b1ce5 0 HIThemeGetTrackThumbShape
PUBLIC b1d53 0 _HIThemeGetCUITrackThumbRegion(HIThemeTrackDrawInfo const*, OpaqueRgnHandle*)
PUBLIC b1f41 0 _HIThemeHitTestScrollBar(HIThemeTrackDrawInfo const*, CGPoint, short*)
PUBLIC b20d4 0 RGBToRGBAColor
PUBLIC b2127 0 RGBAToRGBColor
PUBLIC b218f 0 GetHiliteColor
PUBLIC b21db 0 CacheHighlightColorFromPreferences()
PUBLIC b22bf 0 HighlightColorChangedListener(unsigned int, void*, void*)
PUBLIC b22de 0 GetHiliteColorAsRGBA
PUBLIC b2351 0 RectToCGRect
PUBLIC b236c 0 PointToCGPoint
PUBLIC b239a 0 TrackDrawInfoToHITheme
PUBLIC b2412 0 FabricateScrollBarDrawInfo
PUBLIC b250e 0 CGRectToRect
PUBLIC b2538 0 _HIThemeBeginFocus
PUBLIC b273c 0 _HIThemeEndFocus
PUBLIC b274d 0 _HIThemeGetNullRenderer
PUBLIC b276d 0 _HIThemeCUIDraw
PUBLIC b277a 0 _HIThemeCUIGetMeasurements
PUBLIC b2a62 0 _HIThemeCUIGetMeasurements_IsGrayscale
PUBLIC b2cad 0 _HIThemeCUIHitTest
PUBLIC b2d67 0 _HIThemeCopyAppearanceColor
PUBLIC b2db8 0 _HIThemeCopyCUIBackgroundColorForThemeBrush
PUBLIC b2dea 0 _HIThemeGetCUIBackgroundValueForThemeBrush
PUBLIC b2f84 0 _HIThemeGetRGBAColorForCGColor
PUBLIC b3048 0 _HIThemeGetCUIBackgroundRGBAColorForThemeBrush
PUBLIC b308c 0 BooleanPrefChangedListener(unsigned int, void*, void*)
PUBLIC b30c7 0 GetThemeScrollBarThumbStyle
PUBLIC b30e5 0 GetThemeScrollBarArrowStyle
PUBLIC b3123 0 SetThemeScrollBarArrowStyleInternal(unsigned short)
PUBLIC b313c 0 SetThemeCheckBoxStyle
PUBLIC b3147 0 GetThemeCheckBoxStyle
PUBLIC b3160 0 _HIThemeGetWindowShapeInternal(CGRect const*, HIThemeWindowDrawInfo const*, unsigned short, OpaqueRgnHandle*)
PUBLIC b3217 0 HIThemeGetWindowRegionHit
PUBLIC b339a 0 _HIThemeGetWindowGrowSides
PUBLIC b3490 0 _HIThemeGetWindowTitleBaselineOffset
PUBLIC b34b4 0 HIThemeDrawScrollBarDelimiters
PUBLIC b3609 0 HIThemeDrawTitleBarWidget
PUBLIC b3b14 0 _HIThemeDrawTitleBarWidgetInRect
PUBLIC b4428 0 HIThemeDrawWindowFrame
PUBLIC b4b7c 0 HIThemeGetWindowShape
PUBLIC b4bfc 0 SetThemeCursor
PUBLIC b4c5d 0 SetAnimatedThemeCursor
PUBLIC b4ca1 0 SetThemeCursorOnly(unsigned int, unsigned char)
PUBLIC b4cf7 0 SetClassicCursorOnly(unsigned int, unsigned char)
PUBLIC b4d3f 0 SetAnimatedThemeCursorOnly(unsigned int, unsigned int, unsigned char)
PUBLIC b4de1 0 SetAnimatedClassicCursorOnly(unsigned int, unsigned int, unsigned char)
PUBLIC b4e71 0 GetClassicAnimation(unsigned int)
PUBLIC b4f6e 0 LayoutEngine::DrawLayout(TTheme*, void*, CGRect const&, unsigned short, int const*, unsigned int, unsigned int const*, CGContext*, short)
PUBLIC b4f92 0 LayoutEngine::DrawLayoutWithClipComposited(TTheme*, void*, CGRect const&, unsigned short, int const*, unsigned int, short, unsigned int const*, unsigned int const*, float, CGContext*, short)
PUBLIC b56de 0 LayoutEngine::ApplyLayoutBackground(TTheme*, void*, CGRect const&, int const*, unsigned int, short, unsigned char, unsigned int const*, CGContext*)
PUBLIC b5804 0 LayoutEngine::RegionLayout(TTheme*, void*, CGRect const&, unsigned short, int const*, unsigned int, OpaqueRgnHandle*, unsigned char, unsigned int const*)
PUBLIC b5830 0 LayoutEngine::RegionLayoutFiltered(TTheme*, void*, CGRect const&, unsigned short, unsigned int, int const*, unsigned int, OpaqueRgnHandle*, unsigned char, unsigned int const*)
PUBLIC b6c60 0 CalculateSubIDCG(CGRect const&, CGRect const&, ThemeStateData*, short, CGPoint*)
PUBLIC b6d58 0 LayoutEngine::HitLayout(TTheme*, void*, CGRect const&, int const*, unsigned int, CGPoint, unsigned int const*, unsigned int&)
PUBLIC b6f82 0 LayoutEngine::SetComputedPixMapIndex(unsigned char, short)
PUBLIC b6f96 0 LayoutEngine::GetLabelBaselineOffset(void*, unsigned short, unsigned int, unsigned char&, double&)
PUBLIC b7052 0 _GetLayout
PUBLIC b713f 0 _LayoutRelease
PUBLIC b7168 0 GetPixMapListWidth
PUBLIC b7177 0 GetPixMapListHeight
PUBLIC b7186 0 GetPixMapListCount
PUBLIC b7191 0 CreatePixMapListFromPixPat
PUBLIC b7345 0 _HIThemeInvalidateImageCache()
PUBLIC b737f 0 CreateCGColorFromPixMap
PUBLIC b73f3 0 SetupPlotData(PixMapListRec*, short, ColorTable**, PlotPixMapListData*)
PUBLIC b7873 0 GetCGColorFromRGBA32Image(short, RGBA32Image const*, short, unsigned short)
PUBLIC b79ef 0 StretchPixMapListCG
PUBLIC b7acf 0 FindTileStartCG
PUBLIC b7bac 0 ApplyPixMapListToContext
PUBLIC b7c7b 0 TilePixMapListCG
PUBLIC b82f3 0 GetPixMapListMask
PUBLIC b8362 0 GetPixMapListShadowMask
PUBLIC b8433 0 GetPixMapListRGBAImage
PUBLIC b84d3 0 GetPixMapList
PUBLIC b84ee 0 PixMapListHitRegionIsHit
PUBLIC b8a90 0 _HIPixMapCGPatternCreateWithImage(CGImage*, int)
PUBLIC b8ba4 0 _HIPixMapDrawImage(void*, CGContext*)
PUBLIC b8c44 0 _HIPixMapReleaseImage(void*)
PUBLIC b8c4e 0 TTheme::Open()
PUBLIC b8c8a 0 TTheme::DisposeThemeData()
PUBLIC b8d06 0 TTheme::CopyIdentifier()
PUBLIC b8d52 0 TTheme::ToolboxListener(unsigned int, void*, void*)
PUBLIC b8db4 0 TTheme::UnloadDataTableEntry(ThemeDataTableEntry*, short)
PUBLIC b8e88 0 TTheme::UnloadDataTable(ThemeDataTable*)
PUBLIC b8ee6 0 TTheme::GetDataCache(unsigned int, short)
PUBLIC b8f32 0 TTheme::GetBrush(short, ThemeBrushRec*)
PUBLIC b9092 0 TTheme::LoadOnePlutEntry(short, short, ThemeBrushRec*)
PUBLIC b91a4 0 TTheme::LoadBrush(PlutEntryVersOne const*, ThemeBrushRec*)
PUBLIC b92ba 0 _HIThemeRefreshPreferences
PUBLIC b92c9 0 RetainThemeBrushDictItem(__CFAllocator const*, void const*)
PUBLIC b92d4 0 ReleaseThemeBrushDictItem(__CFAllocator const*, void const*)
PUBLIC b9306 0 TThemeDrawState::OriginalIsValid() const
PUBLIC b9336 0 TThemeDrawState::CanFocus() const
PUBLIC b9352 0 TThemeDrawState::CanClick() const
PUBLIC b9370 0 _HIThemeCreateImage
PUBLIC b939c 0 _ThemeImageGetSize
PUBLIC b9400 0 DataEngine::SetBackgroundWithContext(short, CGContext*)
PUBLIC b9424 0 DataEngine::ApplyBrushToContext(TTheme*, short, unsigned char, CGContext*)
PUBLIC b94be 0 DataEngine::SetPenWithContext(short, CGContext*)
PUBLIC b94e8 0 DataEngine::GetBrushAsColor(short, unsigned short, unsigned char, RGBColor&)
PUBLIC b952a 0 DataEngine::GetTextColor(short, HIColorTransform*, RGBColor&)
PUBLIC b9542 0 DataEngine::DrawTabPane(CGRect const&, TThemeDrawState const&, unsigned short, unsigned int, unsigned int, CGContext*)
PUBLIC b970c 0 DataEngine::DrawTab(CGRect const&, HIThemeTabDrawInfo const*, ThemeTabTitleDrawXUPP const*, void*, CGContext*, CGRect*)
PUBLIC b9bb0 0 DataEngine::GetTabRegion(CGRect const&, HIThemeTabDrawInfo const*, OpaqueRgnHandle*, unsigned char)
PUBLIC b9d00 0 DataEngine::GetTabPaneRegion(CGRect const&, unsigned short, unsigned int, OpaqueRgnHandle*, unsigned char)
PUBLIC b9ef8 0 DataEngine::GetSimpleCursor(short, CCrsr**&)
PUBLIC b9f2e 0 DataEngine::GetCursorAnimation(short, AcurStruct*&)
PUBLIC b9f64 0 DataEngine::ApplyBackground(unsigned int, CGRect const&, TThemeDrawState const&, short, unsigned char, CGContext*)
PUBLIC ba17c 0 SetupButtonParms(unsigned short, TThemeButtonDrawInfo const&, CGRect const&, ThemeEraseXUPP*, ThemeButtonDrawXUPP const*, void*, ThemeButtonDrawParam*, unsigned short)
PUBLIC bac78 0 CalcButtonLabel(unsigned short, ThemeButtonDrawParam*)
PUBLIC badaa 0 CalcButtonBounds(unsigned short, ThemeButtonDrawParam*, unsigned char, OpaqueRgnHandle*)
PUBLIC bb2a8 0 DataEngine::GetButtonBackgroundBounds(CGRect const&, unsigned short, TThemeButtonDrawInfo const&, CGRect*)
PUBLIC bb376 0 DataEngine::GetButtonContentBounds(CGRect const&, unsigned short, TThemeButtonDrawInfo const&, CGRect*)
PUBLIC bb406 0 DataEngine::GetButtonRegion(CGRect const&, unsigned short, TThemeButtonDrawInfo const&, OpaqueRgnHandle*)
PUBLIC bb528 0 GetButtonAttributes(TThemeButtonDrawInfo const&, unsigned char, unsigned char, unsigned char, BaseButtonInfo*, unsigned short)
PUBLIC bb6dc 0 DataEngine::GetMenuBarLogoRect(CGRect const&, CGRect*)
PUBLIC bb778 0 DataEngine::GetTextLength(__CFString const*, HIThemeTextInfo*, double*)
PUBLIC bb790 0 ___ZN10DataEngine11DrawTextBoxEPKvPK6CGRectP15HIThemeTextInfoP9CGContext_block_invoke_2
PUBLIC bb7c8 0 DataEngine::GetTextShadowOutset(HIThemeTextInfo*, Rect*)
PUBLIC bb7ee 0 DataEngine::TruncateText(__CFString const*, HIThemeTextInfo*, short, __CFString const**, unsigned char*)
PUBLIC bb912 0 TCoreTextLineInfo::~TCoreTextLineInfo()
PUBLIC bb946 0 TCoreTextEngine::~TCoreTextEngine()
PUBLIC bb956 0 TCoreTextEngine::GetStringFont(void const*)
PUBLIC bb9b4 0 TCoreTextEngine::TruncateThemeText(short, unsigned int, __CFString const**, unsigned char*)
PUBLIC bbbaa 0 TCoreTextEngine::GetEllipsisWidth(THIThemeTextInfo*)
PUBLIC bbc2e 0 TCoreTextEngine::TruncatedLineTokenCallback(__CTLine const*, CFRange, __CFDictionary const*, void*)
PUBLIC bbc3e 0 TCoreTextEngine::GetEllipsisString()
PUBLIC bbc88 0 TCoreTextEngine::FindLineVerticalOffsetIntersect(float, long*, float*)
PUBLIC bbd54 0 TCoreTextEngine::AdjustShadowOutset(THIThemeTextInfo const*, Rect*)
PUBLIC bbd7c 0 TCoreTextEngine::SyncStrokeColorWithFillColor(CGContext*)
PUBLIC bbdb8 0 TCoreTextEngine::GetCalculatedLineBounds(THIThemeTextInfo*)
PUBLIC bc03e 0 TCoreTextEngine::CanRenderWithSingleFont(__CFString const*)
PUBLIC bc0b6 0 TCoreTextEngine::IsCompatible(void const*, THIThemeTextInfo const*)
PUBLIC bc130 0 TCoreTextEngine::LayoutDeterminedLineCount(THIThemeTextInfo*, float, float)
PUBLIC bc3c4 0 TCoreTextEngine::LayoutIndeterminateLineCount(THIThemeTextInfo*, float, float)
PUBLIC bc5d6 0 TCoreTextEngine::GetEllipsisLine()
PUBLIC bc64c 0 THIThemeTextInfoPublic::~THIThemeTextInfoPublic()
PUBLIC bc65a 0 TBrowser::DataSorter::~DataSorter()
PUBLIC bc662 0 ContainerEater::~ContainerEater()
PUBLIC bc66e 0 ReferenceCountedObject::~ReferenceCountedObject()
PUBLIC bc672 0 DragRegionGenerator::~DragRegionGenerator()
PUBLIC bc676 0 ColumnResizer::~ColumnResizer()
PUBLIC bc682 0 TContainerTree::~TContainerTree()
PUBLIC bc68a 0 ContainerSorter::~ContainerSorter()
PUBLIC bc694 0 ClientCompare::~ClientCompare()
PUBLIC bc69a 0 ValueCompare::~ValueCompare()
PUBLIC bc6a4 0 ChildRemover::~ChildRemover()
PUBLIC bc6b2 0 ButtonObj::~ButtonObj()
PUBLIC bc6c0 0 TrackObj::~TrackObj()
PUBLIC bc6ce 0 CStream::~CStream()
PUBLIC bc6d8 0 CAttrObject::~CAttrObject()
PUBLIC bc6de 0 CStyledText::~CStyledText()
PUBLIC bc6e2 0 CFormatter::~CFormatter()
PUBLIC bc6ea 0 CTextension::~CTextension()
PUBLIC bc6f6 0 CEasyTextDrag::~CEasyTextDrag()
PUBLIC bc6fe 0 CTSMTextension::~CTSMTextension()
PUBLIC bc70a 0 CUnicodeTextension::~CUnicodeTextension()
PUBLIC bc714 0 CSelection::~CSelection()
PUBLIC bc720 0 TLineInfo::~TLineInfo()
PUBLIC bc736 0 TLayoutInfo::EmptyLineArrayEntries()
PUBLIC bc786 0 TLayoutInfo::GetLineInfo(unsigned long, TLineInfo*)
PUBLIC bc7bc 0 TThemeText::~TThemeText()
PUBLIC bc7c6 0 TThemeText::~TThemeText()
PUBLIC bc7fe 0 TThemeText::ConstructThemeFontWithCurrentPortMenuFont(__CFString const*, THIThemeTextInfo const*)
PUBLIC bc8ce 0 TThemeText::IsCompatible(void const*, THIThemeTextInfo const*)
PUBLIC bc8e4 0 TThemeText::GetFontID()
PUBLIC bc8fc 0 TThemeFont::~TThemeFont()
PUBLIC bc906 0 TThemeFont::~TThemeFont()
PUBLIC bc934 0 TThemeFont::SetEllipsisWidth(double)
PUBLIC bc940 0 TThemeFont::GetSize() const
PUBLIC bc95a 0 TThemeFont::GetEllipsisWidth(double*) const
PUBLIC bc97e 0 TThemeFont::ShouldDisableAntiAliasing()
PUBLIC bc9e4 0 TThemeFont::GetCTFontRef()
PUBLIC bca0e 0 TThemeFont::GetMinAntiAliasThreshold()
PUBLIC bca6e 0 TThemeFont::GetEllipsisLine()
PUBLIC bca78 0 TThemeFont::SetEllipsisLine(__CTLine const*)
PUBLIC bcab2 0 TThemeFont::GetDefaultSize() const
PUBLIC bcac2 0 TThemeFont::CreateCTFontRef()
PUBLIC bcad0 0 TThemeFont::ThemeFontNotificationProc(unsigned int, void*, void*)
PUBLIC bcb20 0 TThemeMetaFont::~TThemeMetaFont()
PUBLIC bcb2a 0 TThemeMetaFont::~TThemeMetaFont()
PUBLIC bcb5c 0 TThemeMetaFont::WillApplyStyleToContext(unsigned int) const
PUBLIC bcbb4 0 TThemeMetaFont::CopyCTFontRef(__CTFont const**) const
PUBLIC bcbdc 0 TThemeSpecifiedFont::GetStyleShadowOutset(unsigned int, Rect*) const
PUBLIC bcbf6 0 TThemeSpecifiedFont::WillApplyStyleToContext(unsigned int) const
PUBLIC bcc0c 0 TThemeSpecifiedFont::IsStandard() const
PUBLIC bcc18 0 TThemeSpecifiedFont::GetDefaultSize() const
PUBLIC bcc26 0 TThemeSpecifiedFont::CopyCTFontRef(__CTFont const**) const
PUBLIC bcc5e 0 TThemeSpecifiedFont::~TThemeSpecifiedFont()
PUBLIC bcc68 0 THIThemeTextInfo::Copy(HIThemeTextInfo*) const
PUBLIC bcce8 0 THIThemeTextInfoFinder::GetCustomFont() const
PUBLIC bcd24 0 THIThemeTextInfoFinder::SetLineBounds(unsigned long, CGRect)
PUBLIC bcd5a 0 THIThemeTextInfoFinder::SetLineCount(unsigned long)
PUBLIC bcd68 0 THIThemeTextInfoPublic::~THIThemeTextInfoPublic()
PUBLIC bcd80 0 THIThemeTextInfoFinder::InUse() const
PUBLIC bcd8e 0 THIThemeTextInfoFinder::GetVersion() const
PUBLIC bcd9a 0 THIThemeTextInfoFinder::~THIThemeTextInfoFinder()
PUBLIC bcdb2 0 THIThemeTextInfoFinder::GetCustomSize() const
PUBLIC bcdc2 0 THIThemeTextInfoFinder::WantsLineInfo() const
PUBLIC bcdd4 0 TThemeCacheObject::~TThemeCacheObject()
PUBLIC bcdda 0 TThemeCacheObject::~TThemeCacheObject()
PUBLIC bcde6 0 DataEngine::GetWindowRegion(CGRect const&, HIThemeWindowDrawInfo const*, unsigned char, unsigned short, OpaqueRgnHandle*)
PUBLIC bd008 0 BuildMetaValuesFromDrawInfo(TTheme*, CGRect const&, HIThemeWindowDrawInfo const*, int*)
PUBLIC bd0fd 0 BuildWindowLayoutStatesFromAttributes(unsigned short, unsigned char, unsigned char, unsigned int*, unsigned int*)
PUBLIC bd264 0 DataEngine::GetWindowRegionHitMask(CGRect const&, HIThemeWindowDrawInfo const*, unsigned char, CGPoint const&, unsigned int&)
PUBLIC bd3ba 0 DataEngine::DrawWindowFrame(CGRect const&, HIThemeWindowDrawInfo const*, unsigned char, WindowTitleDrawingXUPP const*, void*, CGContext*, CGRect*)
PUBLIC bd804 0 DataEngine::GetWindowTitleBaselineOffset(unsigned short, unsigned char&, double&)
PUBLIC bd880 0 DataEngine::DrawTrack(HIThemeTrackDrawInfo const*, CGRect const*, ThemeEraseXUPP*, void*, CGContext*)
PUBLIC bdaa1 0 GetTrackLayoutID(TTheme*, HIThemeTrackDrawInfo const*, short*, double*, unsigned char*, unsigned char*)
PUBLIC bdf3c 0 SetupTrackData(short, HIThemeTrackDrawInfo const*, CGRect const*, double, unsigned char, unsigned char, ThemeTrackDrawParams*)
PUBLIC be40c 0 DataEngine::HitTestTrack(HIThemeTrackDrawInfo const*, CGPoint const&, short*, int*)
PUBLIC be54a 0 DataEngine::GetTrackBounds(HIThemeTrackDrawInfo const*, CGRect*)
PUBLIC be74e 0 DataEngine::GetTrackThumbRgn(HIThemeTrackDrawInfo const*, OpaqueRgnHandle*)
PUBLIC be814 0 DataEngine::GetTrackDragRect(HIThemeTrackDrawInfo const*, CGRect*)
PUBLIC be8e0 0 DataEngine::GetTrackThumbPositionFromOffset(HIThemeTrackDrawInfo const*, CGPoint const&, double*)
PUBLIC beac5 0 GetTrackDragRectForLayout(HIThemeTrackDrawInfo const*, short, CGRect*)
PUBLIC bebac 0 GetThumbWidth(HIThemeTrackDrawInfo const*, double, double, int)
PUBLIC bec36 0 DataEngine::GetTrackThumbPositionFromBounds(HIThemeTrackDrawInfo const*, CGRect const*, double*)
PUBLIC bedf4 0 GetTrackAttributes(HIThemeTrackDrawInfo const*, unsigned char, unsigned char, unsigned char, int*, unsigned int*)
PUBLIC bf000 0 DataEngine::GetTrackLiveValue(HIThemeTrackDrawInfo const*, double, double, int*)
PUBLIC bf1d4 0 DataEngine::GetScrollbarIndicatorRect(CGRect const&, unsigned char, unsigned char, unsigned char, CGRect*)
PUBLIC bf1fa 0 DataEngine::GetTrackPartBounds(HIThemeTrackDrawInfo const*, short, CGRect*)
PUBLIC bf344 0 DataEngine::GetTrackParts(HIThemeTrackDrawInfo const*, unsigned int*, unsigned int, short*)
PUBLIC bf400 0 __INIT_AppleEvents_block_invoke
PUBLIC bf4d7 0 _HIRegisterAEWillInteractProc
PUBLIC bf4eb 0 AEInteractWithUser
PUBLIC bf539 0 AEResetTimer
PUBLIC bf55f 0 AESetInteractionAllowed
PUBLIC bf584 0 AEResumeTheCurrentEvent
PUBLIC bf5c3 0 AESuspendTheCurrentEvent
PUBLIC bf5e9 0 AESetTheCurrentEvent
PUBLIC bf60f 0 AEGetTheCurrentEvent
PUBLIC bf638 0 HIApplication::InitializeFromArchive(OpaqueEventRef*, OpaqueHIArchiveRef*)
PUBLIC bf662 0 HIApplication::TerminateOnMemoryPressure(unsigned int, void*, void*)
PUBLIC bf69d 0 HIApplicationGetCurrent
PUBLIC bf6a8 0 SetWindowToActivate
PUBLIC bf6d2 0 HIApplication::SetWindowToActivate(OpaqueWindowPtr*)
PUBLIC bf73e 0 ProcessUIScriptingEvent
PUBLIC bf7a4 0 HandleCompatibilityKeyEvent
PUBLIC bf8ba 0 HIApplication::HandleIsEventInInstantMouser(OpaqueEventHandlerCallRef*, OpaqueEventRef*, void*)
PUBLIC bf971 0 FocusNextWindowOfClass(OpaqueEventRef*, unsigned char)
PUBLIC bfb80 0 FocusToolbarOrDrawerOfFrontDocumentWindow(OpaqueEventRef*, unsigned int)
PUBLIC bfc0a 0 HIApplication::GetWindowToActivate(unsigned int, unsigned char)
PUBLIC bfcc0 0 HIApplication::DiskUnmountApprovalCallback(__DADisk*, void*)
PUBLIC bfccd 0 SetAppEventToIgnore
PUBLIC bfcda 0 HIApplication::HandleActivated(OpaqueEventRef*, unsigned char, OpaqueWindowPtr*, unsigned char)
PUBLIC bff54 0 HIApplication::CanWindowBeActivated(OpaqueWindowPtr*)
PUBLIC bffa2 0 HIApplication::PerformWindowActivation(OpaqueWindowPtr*, OpaqueWindowPtr*, OpaqueEventRef*, unsigned char)
PUBLIC c0264 0 HIApplication::HandleActiveDisplayChanged(unsigned int, void*, void*)
PUBLIC c02a0 0 HIApplication::HandleActiveSpaceChanged(unsigned int, void*, void*)
PUBLIC c0304 0 HIApplication::RequestAndActivateWindow(unsigned int, unsigned char)
PUBLIC c0344 0 HIApplication::FrontChangedHandler(OpaqueEventHandlerCallRef*, OpaqueEventRef*, void*)
PUBLIC c0368 0 HIApplication::FrontChangedTimer(__EventLoopTimer*, void*)
PUBLIC c0390 0 ___ZN13HIApplication20BecomeBackgroundOnlyEv_block_invoke
PUBLIC c039a 0 ___ZN13HIApplication20BecomeBackgroundOnlyEv_block_invoke_2
PUBLIC c03a4 0 ___ZN13HIApplication20BecomeBackgroundOnlyEv_block_invoke_3
PUBLIC c041e 0 HIApplication::GetAccessibleRoleSelf(unsigned long long)
PUBLIC c042c 0 HIApplication::GetAccessibleChildrenSelf(unsigned long long, __CFArray*)
PUBLIC c0486 0 CopyRootMenuChild()
PUBLIC c04bc 0 HIApplication::CopyWindowChildren(__CFArray*, unsigned char)
PUBLIC c05ac 0 HIApplication::GetAccessibleChildAtPointSelf(unsigned long long, CGPoint const&, __AXUIElement const**)
PUBLIC c0686 0 HIApplication::GetAccessibleChildAtFocusSelf(unsigned long long, __AXUIElement const**)
PUBLIC c06d6 0 HIApplication::GetAllAccessibleAttributeNamesSelf(unsigned long long, __CFArray*)
PUBLIC c07a2 0 HIApplication::GetNamedAccessibleAttributeSelf(unsigned long long, __CFString const*, unsigned int, OpaqueEventRef*)
PUBLIC c0980 0 SetAttributeWithWindow(OpaqueEventRef*, OpaqueWindowPtr*)
PUBLIC c09e6 0 HIApplication::SetNamedAccessibleAttributeSelf(unsigned long long, __CFString const*, unsigned int, OpaqueEventRef*)
PUBLIC c0b0e 0 HIApplication::IsNamedAccessibleAttributeSettableSelf(unsigned long long, __CFString const*, unsigned int, unsigned char*)
PUBLIC c0b42 0 IsEventInInstantMouser
PUBLIC c0bf1 0 ___ZN13HIApplication19GetWindowToActivateEjh_block_invoke
PUBLIC c0c66 0 HIApplication::GetWindowToActivateStartingAt(OpaqueWindowPtr*, unsigned char (OpaqueWindowPtr*) block_pointer)
PUBLIC c0cb8 0 HIApplication::IsAutoSpaceSwitchingEnabled()
PUBLIC c0d0c 0 HIApplication::SpaceSwitchChanged(unsigned int, void*, void*)
PUBLIC c0d1a 0 HIApplication::WindowToActivateHandler(OpaqueEventHandlerCallRef*, OpaqueEventRef*, void*)
PUBLIC c0d32 0 RemoveFocusObserver(unsigned int, OpaqueEventRef*, void*)
PUBLIC c0d5a 0 _dictationIsEnabled()
PUBLIC c0e31 0 LaunchAppleCharacterPalette
PUBLIC c0e3f 0 SetAmbientDisplayHint
PUBLIC c0e5d 0 GetAmbientDisplayHint
PUBLIC c0e72 0 RequestAndActivateWindowOnDisplay
PUBLIC c0e9e 0 SetWindowDockTileCustomized
PUBLIC c0ede 0 HIApplication::SyncScaleFactorNotification()
PUBLIC c0f42 0 HIApplication::ScaleFactorChanged(unsigned int, void*, void*)
PUBLIC c0f6a 0 UpdateDockTiles
PUBLIC c0f92 0 UpdateDockTileTimer(__EventLoopTimer*, void*)
PUBLIC c0ff4 0 PerformLazyWindowActivation
PUBLIC c1042 0 HIApplication::LazyActivationTimer(__EventLoopTimer*, void*)
PUBLIC c106e 0 TComboBoxButtonAccessibility::~TComboBoxButtonAccessibility()
PUBLIC c1076 0 TDualIconTextViewAccessibility::~TDualIconTextViewAccessibility()
PUBLIC c107c 0 HIEventDispatcher::~HIEventDispatcher()
PUBLIC c107e 0 HIUserFocus::~HIUserFocus()
PUBLIC c1082 0 HIEventMonitor::~HIEventMonitor()
PUBLIC c108a 0 HIRawObject::~HIRawObject()
PUBLIC c1094 0 HIApplication::~HIApplication()
PUBLIC c10c2 0 HandleQuitOrPrefs(unsigned int, unsigned char)
PUBLIC c1101 0 IronwoodMenuItemSelected()
PUBLIC c11a4 0 IronwoodMenuItemCopyTitle()
PUBLIC c121d 0 _dictationState()
PUBLIC c1296 0 SetIWItemCommandKey(OpaqueMenuRef*, unsigned short)
PUBLIC c13cc 0 SearchForItem(OpaqueMenuRef*, unsigned int, __CFString const*, unsigned char, OpaqueMenuRef**, unsigned short*)
PUBLIC c1477 0 ItemIsOrContainsString(OpaqueMenuRef*, unsigned short, __CFString const*, unsigned char)
PUBLIC c14d8 0 _HIStdAppHandlerRegisterClass
PUBLIC c14f8 0 HIStdAppHandler::Construct(OpaqueHIObjectRef*, TObject**)
PUBLIC c154e 0 HIStdAppHandler::Initialize(TCarbonEvent&)
PUBLIC c1582 0 HIStdAppHandler::GetTargetClasses(__CFArray*)
PUBLIC c159c 0 HIStdAppHandler::PrintDebugInfoSelf()
PUBLIC c15d4 0 HIStdAppHandler::HandleEvent(OpaqueEventHandlerCallRef*, TCarbonEvent&)
PUBLIC c1694 0 HIStdEventLoop::~HIStdEventLoop()
PUBLIC c169e 0 HIStdAppHandler::~HIStdAppHandler()
PUBLIC c16cc 0 _HIStdEventLoopRegisterClass
PUBLIC c16ec 0 HIStdEventLoop::Construct(OpaqueHIObjectRef*, TObject**)
PUBLIC c1742 0 HIStdEventLoop::Initialize(TCarbonEvent&)
PUBLIC c1778 0 HIStdEventLoop::GetTargetClasses(__CFArray*)
PUBLIC c1792 0 HIStdEventLoop::PrintDebugInfoSelf()
PUBLIC c17ca 0 HIStdEventLoop::Installed(OpaqueHIObjectRef*)
PUBLIC c1820 0 HIStdEventLoop::AEQuitHandler(AEDesc const*, AEDesc*, void*)
PUBLIC c182e 0 HIStdEventLoop::Removed(OpaqueHIObjectRef*)
PUBLIC c187e 0 HIStdEventLoop::~HIStdEventLoop()
PUBLIC c18ac 0 AOSendAEToSelf(unsigned int, unsigned int)
PUBLIC c1956 0 TCarbonEvent::TCarbonEvent(OpaqueEventRef*)
PUBLIC c1972 0 TCarbonEvent::~TCarbonEvent()
PUBLIC c198a 0 TCarbonEvent::~TCarbonEvent()
PUBLIC c19c6 0 TCarbonEvent::SetParameter(unsigned int, unsigned int, unsigned long, void const*)
PUBLIC c19d4 0 TCarbonEvent::GetParameter(unsigned int, unsigned int, unsigned long, void*)
PUBLIC c19fa 0 TCarbonEvent::SetParameter(unsigned int, unsigned char)
PUBLIC c1a22 0 TCarbonEvent::GetParameter(unsigned int, unsigned char*)
PUBLIC c1a4e 0 TCarbonEvent::GetParameter(unsigned int, HICommand*)
PUBLIC c1a80 0 TEventHandler::TEventHandler()
PUBLIC c1a9a 0 TEventHandler::~TEventHandler()
PUBLIC c1aba 0 TEventHandler::~TEventHandler()
PUBLIC c1ada 0 TEventHandler::~TEventHandler()
PUBLIC c1b1c 0 TEventHandler::GetEventHandler()
PUBLIC c1b72 0 TEventHandler::RegisterForEvents(unsigned int, EventTypeSpec const*)
PUBLIC c1b96 0 TEventHandler::EventHandler(OpaqueEventHandlerCallRef*, OpaqueEventRef*, void*)
PUBLIC c1c10 0 TObject::TObject(OpaqueHIObjectRef*)
PUBLIC c1c3c 0 TObject::~TObject()
PUBLIC c1c46 0 TObject::~TObject()
PUBLIC c1c50 0 TObject::~TObject()
PUBLIC c1c7e 0 TObject::Initialize(TCarbonEvent&)
PUBLIC c1ce0 0 TObject::InitializeFromEvent(TCarbonEvent&)
PUBLIC c1ce8 0 TObject::InitializeFromArchive(TCarbonEvent&, OpaqueHIArchiveRef*)
PUBLIC c1cf0 0 TObject::Encode(OpaqueHIArchiveRef*)
PUBLIC c1cf8 0 TObject::GetInitParameters(__CFArray*)
PUBLIC c1d04 0 TObject::GetParameter(TCarbonEvent&, unsigned int)
PUBLIC c1d10 0 TObject::SetParameter(TCarbonEvent&, unsigned int)
PUBLIC c1d1c 0 TObject::PrintDebugInfoSelf()
PUBLIC c1d40 0 TObject::RegisterSubclass(__CFString const*, __CFString const*, int (*)(OpaqueHIObjectRef*, TObject**), unsigned int)
PUBLIC c1d6e 0 TObject::ObjectEventHandler(OpaqueEventHandlerCallRef*, OpaqueEventRef*, void*)
PUBLIC c202c 0 TObject::HandleEvent(OpaqueEventHandlerCallRef*, TCarbonEvent&)
PUBLIC c2518 0 TObject::UpdateCommandStatus(OpaqueEventHandlerCallRef*, HICommandExtended&)
PUBLIC c2524 0 TObject::ProcessCommand(OpaqueEventHandlerCallRef*, HICommandExtended&)
PUBLIC c2530 0 TObject::ActivateInterface(unsigned int)
PUBLIC c2570 0 TObject::CopyAccessibleChildAtPoint(OpaqueEventHandlerCallRef*, OpaqueEventRef*, __AXUIElement const*, unsigned long long, CGPoint const&, void const**)
PUBLIC c257c 0 TObject::CopyAccessibleFocusedChild(OpaqueEventHandlerCallRef*, OpaqueEventRef*, __AXUIElement const*, unsigned long long, void const**)
PUBLIC c2588 0 TObject::GetAccessibleAttributeNames(OpaqueEventHandlerCallRef*, OpaqueEventRef*, __AXUIElement const*, unsigned long long, __CFArray*)
PUBLIC c2594 0 TObject::GetAccessibleParameterizedAttributeNames(OpaqueEventHandlerCallRef*, OpaqueEventRef*, __AXUIElement const*, unsigned long long, __CFArray*)
PUBLIC c25a0 0 TObject::GetAccessibleNamedAttribute(OpaqueEventHandlerCallRef*, OpaqueEventRef*, __AXUIElement const*, unsigned long long, __CFString const*)
PUBLIC c25ac 0 TObject::SetAccessibleNamedAttribute(OpaqueEventHandlerCallRef*, OpaqueEventRef*, __AXUIElement const*, unsigned long long, __CFString const*)
PUBLIC c25b8 0 TObject::IsAccessibleNamedAttributeSettable(OpaqueEventHandlerCallRef*, OpaqueEventRef*, __AXUIElement const*, unsigned long long, __CFString const*, unsigned char*)
PUBLIC c25c4 0 TObject::GetAccessibleActionNames(OpaqueEventHandlerCallRef*, OpaqueEventRef*, __AXUIElement const*, unsigned long long, __CFArray*)
PUBLIC c25d0 0 TObject::CopyAccessibleNamedActionDescription(OpaqueEventHandlerCallRef*, OpaqueEventRef*, __AXUIElement const*, unsigned long long, __CFString const*, __CFString const**)
PUBLIC c25dc 0 TObject::PerformAccessibleNamedAction(OpaqueEventHandlerCallRef*, OpaqueEventRef*, __AXUIElement const*, unsigned long long, __CFString const*)
PUBLIC c25e8 0 TObject::GetEventTarget()
PUBLIC c2600 0 TDelegate::TDelegate(OpaqueHIObjectRef*)
PUBLIC c263c 0 TDelegate::~TDelegate()
PUBLIC c26ac 0 TDelegate::~TDelegate()
PUBLIC c26b6 0 TDelegate::~TDelegate()
PUBLIC c26e4 0 TDelegate::Initialize(TCarbonEvent&)
PUBLIC c2752 0 TDelegate::PrintDebugInfoSelf()
PUBLIC c2778 0 TDelegate::HandleEvent(OpaqueEventHandlerCallRef*, TCarbonEvent&)
PUBLIC c298c 0 TDelegate::ActivateInterface(unsigned int)
PUBLIC c29d4 0 TDelegate::TargetCreatedFromArchive(OpaqueHIObjectRef*)
PUBLIC c29da 0 TDelegate::Installed(OpaqueHIObjectRef*)
PUBLIC c29e0 0 TDelegate::Removed(OpaqueHIObjectRef*)
PUBLIC c29e6 0 TDelegate::GetTargetClasses(__CFArray*)
PUBLIC c29ee 0 TDelegate::IsGroup()
PUBLIC c29f6 0 TDelegate::GetGroupClasses(__CFArray*)
PUBLIC c2a10 0 _HIViewRegisterClass
PUBLIC c2a20 0 __clang_call_terminate
PUBLIC c2a2c 0 HIView::FlushImageCache()
PUBLIC c2a5c 0 HIView::~HIView()
PUBLIC c2a70 0 HIView::GetKind(ControlKind*)
PUBLIC c2a9c 0 HIView::ReadBasicDataFromCollection(OpaqueCollection*)
PUBLIC c2da2 0 HIView::InitializeFromArchive(OpaqueEventRef*, OpaqueHIArchiveRef*)
PUBLIC c33fa 0 HIView::DecodeHelpContent(OpaqueHIArchiveRef*, HMHelpContentRec*)
PUBLIC c354c 0 HIView::DecodeLayoutBindings(OpaqueHIArchiveRef*)
PUBLIC c396e 0 HIView::DecodeEmbeddedSubviews(OpaqueHIArchiveRef*)
PUBLIC c3a28 0 HIView::Encode(OpaqueHIArchiveRef*)
PUBLIC c41de 0 HIView::EncodeHelpContent(OpaqueHIArchiveRef*, HMHelpContentRec)
PUBLIC c42fc 0 HIView::EncodeLayoutBindings(OpaqueHIArchiveRef*)
PUBLIC c4698 0 HIView::EncodeEmbeddedSubviews(OpaqueHIArchiveRef*)
PUBLIC c4740 0 HIView::UserSessionListener(OpaqueEventHandlerCallRef*, OpaqueEventRef*, void*)
PUBLIC c4754 0 HIView::DeactivateInterface(HIView::Interface)
PUBLIC c478e 0 HIView::ReduceTransparencyListener(OpaqueEventHandlerCallRef*, OpaqueEventRef*, void*)
PUBLIC c47a2 0 HIView::UserSessionActiveStateChanged()
PUBLIC c47a8 0 HIView::ReduceTransparencyChanged()
PUBLIC c47da 0 HIView::GetNonCompositedRootForWindow(OpaqueWindowPtr*)
PUBLIC c4818 0 HIView::SetMinimum(int)
PUBLIC c4842 0 HIView::SetMaximum(int)
PUBLIC c486c 0 HIView::SetValue(int)
PUBLIC c4898 0 HIView::SetViewSize(int)
PUBLIC c48bc 0 HIView::ChangeAutoInvalidateFlags(unsigned int, unsigned int)
PUBLIC c4922 0 HIView::ChangeAutoCacheFlushFlags(unsigned int, unsigned int)
PUBLIC c493c 0 HIView::SetTitle(__CFString const*)
PUBLIC c4a6a 0 HIView::TitleChangedSelf()
PUBLIC c4a70 0 HIView::GetSyntheticHilite()
PUBLIC c4ab6 0 HIView::GetHiliteAction(short)
PUBLIC c4b1c 0 HIView::ContainsSubview(HIView*)
PUBLIC c4b3c 0 HIView::ContainsSubview(OpaqueControlRef*)
PUBLIC c4b78 0 HIView::GetPartBounds(short, Rect*)
PUBLIC c4be2 0 HIView::GetPartBoundsSelf(short, CGRect*)
PUBLIC c4bf0 0 HIView::GetOptimalSizeSelf(CGSize*, float*)
PUBLIC c4c04 0 HIView::SetSizeExternal(unsigned short)
PUBLIC c4c2c 0 HIView::GetSizeExternal()
PUBLIC c4c58 0 HIView::SetSizeInternal(unsigned short)
PUBLIC c4cb2 0 HIView::IsSizeAllowedSelf(unsigned short)
PUBLIC c4cba 0 HIView::SizeChangedSelf()
PUBLIC c4cc8 0 HIView::ScrollToLocationSelf(CGPoint const&)
PUBLIC c4cce 0 HIView::NotifyScrollableInfoChanged()
PUBLIC c4d5a 0 HIView::GetScrollingInfoSelf(CGSize*, CGSize*, CGSize*, CGPoint*)
PUBLIC c4d62 0 HIView::SubviewAddedSelf(HIView*)
PUBLIC c4d6e 0 HIView::SubviewValueChangedSelf(HIView*)
PUBLIC c4d74 0 HIView::DoControlValueUpdate(bool, int, int, bool)
PUBLIC c4dfa 0 HIView::GetClickActivationSelf(OpaqueEventRef*, unsigned int*)
PUBLIC c4e08 0 HIView::InvalidateSubtree(CGRect const&)
PUBLIC c4e70 0 HIView::IsCompletelyInvalid()
PUBLIC c4e8e 0 HIView::Invalidate(OpaqueRgnHandle*)
PUBLIC c4ede 0 HIView::Invalidate(CGRect const&)
PUBLIC c4f22 0 HIView::Validate(OpaqueRgnHandle*)
PUBLIC c4f78 0 HIView::CreateDrawContext(CGContext*)
PUBLIC c4f82 0 HIView::ReleaseDrawContext(CGContext*, CGContext*)
PUBLIC c4f94 0 HIView::DisableCompositing()
PUBLIC c4ff8 0 HIView::EnsureOrderedAbove(HIView*)
PUBLIC c5044 0 HIView::OrderAbove(HIView*)
PUBLIC c5160 0 HIView::InvalidateForOrderChange(bool, HIView*)
PUBLIC c53c8 0 HIView::OrderBelow(HIView*)
PUBLIC c54f2 0 HIView::CopyCommandClickableShape()
PUBLIC c5654 0 HIView::AddCommandClickableShapeRecurse(__HIShape*, __HIShape const*)
PUBLIC c5804 0 HIView::GetFrame(Rect*)
PUBLIC c5812 0 HIView::LayoutChildrenSelf()
PUBLIC c5826 0 HIView::SetNonCompositedRootForWindow(OpaqueWindowPtr*, HIView*)
PUBLIC c5860 0 HIView::AcceptKeyInputSelf(char, int, unsigned int)
PUBLIC c5868 0 HIView::AcceptTextInputSelf(unsigned short, unsigned int, OpaqueEventRef*)
PUBLIC c5870 0 HIView::GetWindowGrowSides(unsigned int)
PUBLIC c5878 0 HIView::DragEnter(OpaqueDragRef*, unsigned char*)
PUBLIC c58d6 0 HIView::DragEnterOne(OpaqueDragRef*, unsigned char*)
PUBLIC c5930 0 HIView::GetDragSubView(OpaqueDragRef*)
PUBLIC c5a16 0 HIView::DragLeave(OpaqueDragRef*, unsigned char*)
PUBLIC c5a78 0 HIView::DragLeaveOne(OpaqueDragRef*, unsigned char*)
PUBLIC c5acc 0 HIView::DragWithin(OpaqueDragRef*, unsigned char*)
PUBLIC c5b6a 0 HIView::DragWithinOne(OpaqueDragRef*, unsigned char*)
PUBLIC c5baa 0 HIView::DragReceive(OpaqueDragRef*)
PUBLIC c5be6 0 HIView::GetBestDragTarget()
PUBLIC c5c24 0 HIView::DragEnterSelf(OpaqueDragRef*)
PUBLIC c5c2c 0 HIView::DragWithinSelf(OpaqueDragRef*)
PUBLIC c5c34 0 HIView::DragLeaveSelf(OpaqueDragRef*)
PUBLIC c5c3c 0 HIView::DragReceiveSelf(OpaqueDragRef*)
PUBLIC c5c48 0 HIView::GetDragSubviewSelf(OpaqueDragRef*)
PUBLIC c5cc4 0 HIView::AddTrackingArea(CGRect const&, unsigned long long, OpaqueHIViewTrackingAreaRef**)
PUBLIC c5d1e 0 HIView::SetTrackingAreaEnabled(OpaqueHIViewTrackingAreaRef*, bool)
PUBLIC c5d80 0 HIView::TrackingAreaEnteredSelf(OpaqueHIViewTrackingAreaRef*)
PUBLIC c5d88 0 HIView::TrackingAreaExitedSelf(OpaqueHIViewTrackingAreaRef*)
PUBLIC c5d92 0 HIView::GlobalToLocalPoint(CGPoint const&, CGPoint*)
PUBLIC c5e06 0 HIView::LocalToGlobalPoint(CGPoint const&, CGPoint*)
PUBLIC c5e72 0 HIView::ConvertRegionFromSuperView(OpaqueRgnHandle*)
PUBLIC c5f2e 0 HIView::ShapeToSuperViewShape(__HIShape const*, __HIShape*)
PUBLIC c5f72 0 HIView::ConvertRegionFromAncestor(OpaqueRgnHandle*, HIView*)
PUBLIC c5fb0 0 HIView::ConvertRegionFromView(OpaqueRgnHandle*, HIView*)
PUBLIC c6008 0 HIView::GlobalToWindowPoint(CGPoint*)
PUBLIC c6096 0 HIView::CreateOffscreenImage(CGRect*, unsigned char, double*)
PUBLIC c612e 0 HIView::CreateOffscreenImage(CGRect*, double)
PUBLIC c65d2 0 HIView::ShouldUseImageCache()
PUBLIC c65da 0 HIView::EncodeFontStyle(OpaqueHIArchiveRef*, ControlFontStyleRec)
PUBLIC c67bc 0 HIView::DecodeFontStyle(OpaqueHIArchiveRef*, ControlFontStyleRec*)
PUBLIC c69da 0 HIView::GetThemeDrawState(short)
PUBLIC c6abc 0 HIView::CalculateTextInfo(TFontStyle const*, short, HIThemeTextInfo*, unsigned char, unsigned int, unsigned int, unsigned int, unsigned int)
PUBLIC c6c52 0 HIView::GetFontStyleForPartSelf(short, short*)
PUBLIC c6c5a 0 HIView::CalculateHIThemeTextInfoForPartSelf(short, HIThemeTextInfo*, unsigned char)
PUBLIC c6c62 0 HIViewGetLayoutInfo
PUBLIC c6cc6 0 HIView::GetLayoutInfo(HILayoutInfo*)
PUBLIC c6cfd 0 HIViewSetLayoutInfo
PUBLIC c6d3c 0 HIView::SetLayoutInfo(HILayoutInfo const*)
PUBLIC c6fe3 0 HIViewSuspendLayout
PUBLIC c701c 0 HIView::SetLayoutActiveState(short)
PUBLIC c7073 0 HIViewResumeLayout
PUBLIC c70a5 0 HIViewIsLayoutActive
PUBLIC c70d5 0 HIViewIsLayoutLatentlyActive
PUBLIC c710c 0 HIView::AncestorLayoutBecomingInactive()
PUBLIC c7182 0 HIView::ReinstallLayoutWatcher(OpaqueControlRef*, OpaqueControlRef*, int, bool)
PUBLIC c72de 0 HIView::PrintLayoutInfo()
PUBLIC c753c 0 HIView::RemoveLayoutWatchers()
PUBLIC c7604 0 HIView::LayoutEventHandler(OpaqueEventHandlerCallRef*, OpaqueEventRef*, void*)
PUBLIC c7614 0 HIView::LayoutRelativeBoundsChanged(unsigned int, CGRect const&, CGRect const&, OpaqueControlRef*, OpaqueControlRef*, bool, bool)
PUBLIC c79c6 0 HIView::SideBindingHandler(bool, double, double, OpaqueControlRef*, OpaqueControlRef*, bool, bool, HISideBinding const*, HISideBinding const*, double*, double*)
PUBLIC c7cd8 0 HIView::LayoutHandleEvent(OpaqueEventHandlerCallRef*, OpaqueEventRef*)
PUBLIC c7f8e 0 HIView::ApplyLayout()
PUBLIC c81ad 0 HIViewApplyLayout
PUBLIC c81cc 0 HIView::GetData(unsigned int, short, long, long*, void*)
PUBLIC c81e6 0 HIView::GetDataSelf(unsigned int, short, long, long*, void*)
PUBLIC c8498 0 HIView::SimulateHitSelf(short, unsigned int, short*)
PUBLIC c85ce 0 HIView::Track(CGPoint const&, unsigned int*, void (*)(OpaqueControlRef*, short), OpaqueEventRef*, short*)
PUBLIC c85d8 0 HIView::ValueFieldChanged(bool)
PUBLIC c8638 0 HIView::ValueFieldChangedSelf()
PUBLIC c8662 0 HIView::HiliteChanged(short, short)
PUBLIC c86d2 0 HIView::HiliteChangedSelf(short, short)
PUBLIC c86e2 0 HIView::ProcessCommandSelf(HICommand const&)
PUBLIC c86eb 0 CreateRootControl
PUBLIC c87ce 0 GetRootControl
PUBLIC c884a 0 EmbedControl
PUBLIC c890d 0 AutoEmbedControl
PUBLIC c8978 0 IsControlVisible
PUBLIC c89aa 0 ActivateControl
PUBLIC c89d0 0 DeactivateControl
PUBLIC c89f6 0 IsControlEnabled
PUBLIC c8a1f 0 EnableControl
PUBLIC c8a45 0 DisableControl
PUBLIC c8a6b 0 FindControlUnderMouse
PUBLIC c8b00 0 HandleControlSetCursor
PUBLIC c8b66 0 GetControlData
PUBLIC c8bbd 0 GetControlKind
PUBLIC c8bf9 0 GetSuperControl
PUBLIC c8c4b 0 CountSubControls
PUBLIC c8ca2 0 GetIndexedSubControl
PUBLIC c8d06 0 SetControlSupervisor
PUBLIC c8d74 0 GetBestControlRect
PUBLIC c8e37 0 SetControlFontStyle
PUBLIC c8e9e 0 SetupControlContextTextColorWithColorProc(OpaqueControlRef*, CGContext*, bool, short, unsigned char, unsigned char*)
PUBLIC c8efc 0 SetControlVisibility
PUBLIC c8f50 0 ShowControl
PUBLIC c8f6e 0 HideControl
PUBLIC c8f8c 0 GetControlBounds
PUBLIC c8fd4 0 SetControlBounds
PUBLIC c900f 0 MoveControl
PUBLIC c90f0 0 SizeControl
PUBLIC c91be 0 HiliteControl
PUBLIC c9268 0 GetControlHilite
PUBLIC c9287 0 IsControlHilited
PUBLIC c92ac 0 TestControl
PUBLIC c92f3 0 FindControl
PUBLIC c93e8 0 IsValidControlHandle
PUBLIC c940d 0 GetControlByID
PUBLIC c9499 0 ControlIDIterationProc(HIView*, void*)
PUBLIC c94cd 0 SetControlViewSize
PUBLIC c94f6 0 GetControl32BitValue
PUBLIC c9510 0 SetControl32BitValue
PUBLIC c9539 0 GetControl32BitMaximum
PUBLIC c9553 0 SetControl32BitMaximum
PUBLIC c9586 0 SetControl32BitMinimum
PUBLIC c95af 0 GetControlValue
PUBLIC c95dc 0 SetControlValue
PUBLIC c95f3 0 SetControlMaximum
PUBLIC c960a 0 SetControlMinimum
PUBLIC c961f 0 SetControlAction
PUBLIC c9640 0 GetControlReference
PUBLIC c965b 0 SetControlReference
PUBLIC c967c 0 SetControlTitleWithCFString
PUBLIC c96b8 0 CopyControlTitleAsCFString
PUBLIC c9705 0 _SetControlClickThrough
PUBLIC c9741 0 _GetControlClickThrough
PUBLIC c978b 0 HIViewSetTextFont
PUBLIC c97c8 0 HIViewSetTextHorizontalFlush
PUBLIC c9804 0 HIViewSetTextVerticalFlush
PUBLIC c9840 0 HIViewSetTextTruncation
PUBLIC c987c 0 HIViewGetThemeTextInfo
PUBLIC c98f1 0 HandleControlClick
PUBLIC c99a4 0 HIView::ClickInternal(CGPoint const&, unsigned int, void (*)(OpaqueControlRef*, short), OpaqueEventRef*, bool)
PUBLIC c9a9c 0 HIView::ClickSelf(OpaqueEventRef*)
PUBLIC c9bf8 0 HIView::ControlHitSelf(OpaqueControlRef*, short, unsigned int)
PUBLIC c9c00 0 HIView::TrackSelf(OpaqueEventRef*, short*)
PUBLIC c9dc4 0 HIView::DragIndicator(CGPoint const&, unsigned int*, void (*)(OpaqueControlRef*, short), GlyphState const*, unsigned char)
PUBLIC c9ec8 0 HIView::BasicTrackInternal(CGPoint const&, unsigned int, short, void (*)(OpaqueControlRef*, short), GlyphState const*, unsigned int*)
PUBLIC ca25b 0 GetWindowForTML(HIView*)
PUBLIC ca294 0 HIView::DragLiveIndicator(CGPoint const&, unsigned int*, void (*)(OpaqueControlRef*, short), GlyphState const*, unsigned char)
PUBLIC ca652 0 HIView::DragShadowIndicator(CGPoint const&, unsigned int*, void (*)(), GlyphState const*, unsigned char)
PUBLIC caa3d 0 _HIViewGetCurrentMouse
PUBLIC caa96 0 HIView::TrackMouseLocation(double, Point, Point&, unsigned int*, unsigned char&, unsigned int&)
PUBLIC cac60 0 HIView::ContextualMenuClick(CGPoint const&)
PUBLIC cad26 0 HIView::ContextualMenuClickSelf(OpaqueControlRef*, CGPoint const&)
PUBLIC cad2e 0 HIView::ShouldAcceptInput()
PUBLIC cad63 0 GetNewControl
PUBLIC cae09 0 HIViewGetLastSubview
PUBLIC cae33 0 HIViewGetPreviousView
PUBLIC cae58 0 HIViewSetZOrder
PUBLIC caef0 0 HIViewIsCompositingEnabled
PUBLIC caf26 0 _IsControlCompositingEnabled
PUBLIC caf54 0 HIViewMoveBy
PUBLIC cafbb 0 HIViewGetSubviewHit
PUBLIC cb026 0 _HIViewRender
PUBLIC cb074 0 HIView::FindByKind(HIViewKind const&)
PUBLIC cb0de 0 _HIViewCreateOffscreenImageWithScaleFactor
PUBLIC cb111 0 HIViewCreateOffscreenImage
PUBLIC cb18b 0 HIViewSetNeedsDisplayInRegion
PUBLIC cb204 0 HIViewSetNeedsDisplayInShape
PUBLIC cb28f 0 _HIViewIsCompletelyInvalid
PUBLIC cb2ae 0 HIViewFlashDirtyArea
PUBLIC cb320 0 HIViewGetSizeConstraints
PUBLIC cb35c 0 _HIViewGetOptimalSizeWithLimits
PUBLIC cb3a2 0 HIViewIsLatentlyVisible
PUBLIC cb3ce 0 HIViewGetAttributes
PUBLIC cb40c 0 HIViewReshapeStructure
PUBLIC cb42d 0 HIViewScrollRect
PUBLIC cb476 0 HIView::ScrollRectWrapper(CGRect const*, double, double, unsigned int)
PUBLIC cba96 0 _HIViewScrollRectWithOptions
PUBLIC cbaea 0 HIView::IsLocalRectObscured(CGRect const&)
PUBLIC cbc30 0 HIView::SendBitScrollToOpenGLViewsInSubHierarchy(unsigned int)
PUBLIC cbcb0 0 HIViewDrawCGImage
PUBLIC cbd8e 0 NSImageGetSize
PUBLIC cbdfc 0 HIViewDrawNSImage
PUBLIC cbe66 0 _HIViewDrawNSImageWithTransform
PUBLIC cbf7c 0 _HIViewPlotIcon
PUBLIC cc07e 0 HIViewSetBoundsOrigin
PUBLIC cc0c8 0 _HIViewSetTrackingAreaUpdatesEnabled
PUBLIC cc101 0 HIViewRegionChanged
PUBLIC cc146 0 HIViewSetHilite
PUBLIC cc1fc 0 HIViewIsActive
PUBLIC cc23b 0 HIViewSetActivated
PUBLIC cc275 0 HIViewIsEnabled
PUBLIC cc2b7 0 HIViewSetEnabled
PUBLIC cc2f1 0 HIViewGetOptimalBounds
PUBLIC cc394 0 HIView::CopyInImageContent(long, void const*, HIViewAllImageContent*)
PUBLIC cc3b6 0 HIView::CopyOutImageContent(long, long*, void*, HIViewAllImageContent const*)
PUBLIC cc3df 0 _HIViewSetImageContent
PUBLIC cc3e9 0 HIViewSetImageContent
PUBLIC cc440 0 _HIViewGetImageContentSize
PUBLIC cc459 0 HIViewRetainImageContent
PUBLIC cc4b6 0 _HIViewReleaseImageContent
PUBLIC cc4c0 0 HIViewReleaseImageContent
PUBLIC cc52e 0 _HIViewCopyIconFromContent
PUBLIC cc59e 0 CreateContentFromFile(HIViewContentInfo const*, void* (*)(__CFURL const*))
PUBLIC cc600 0 _HIViewCopyImageFromContent
PUBLIC cc627 0 CreateCGImageFromURL(__CFURL const*)
PUBLIC cc660 0 _HIViewEncodeImageContentToArchive
PUBLIC cc6a3 0 _HIViewCopyEncodedImageContent
PUBLIC cc851 0 _HIViewCopyDecodedImageContentFromArchive
PUBLIC cc896 0 _HIViewCopyDecodedImageContent
PUBLIC cca80 0 HIViewSetText
PUBLIC ccafa 0 HIViewCopyText
PUBLIC ccb65 0 HIViewGetValue
PUBLIC ccb7f 0 HIViewSetValue
PUBLIC ccbab 0 HIViewGetMinimum
PUBLIC ccbc5 0 HIViewSetMinimum
PUBLIC ccbf1 0 HIViewGetMaximum
PUBLIC ccc0b 0 HIViewSetMaximum
PUBLIC ccc37 0 HIViewGetViewSize
PUBLIC ccc51 0 HIViewSetViewSize
PUBLIC ccc8a 0 HIViewSetID
PUBLIC cccb4 0 HIViewGetID
PUBLIC ccced 0 HIViewSetCommandID
PUBLIC ccd15 0 HIViewGetCommandID
PUBLIC ccd4c 0 HIViewGetKind
PUBLIC ccd8e 0 HIViewCountSubviews
PUBLIC ccdb6 0 HIViewGetIndexedSubview
PUBLIC cce1c 0 _HIWindowSetAutomaticViewTracking
PUBLIC cce51 0 RemoveControlProperty
PUBLIC cceb4 0 HIView::ChangePropertyAttributes(unsigned int, unsigned int, unsigned int, unsigned int)
PUBLIC ccf3c 0 DisposeControl
PUBLIC ccf55 0 NewControl
PUBLIC cdb16 0 HIViewGetEventTarget
PUBLIC cdb3f 0 SetControlDragTrackingEnabled
PUBLIC cdb7b 0 IsControlDragTrackingEnabled
PUBLIC cdbb1 0 SetAutomaticControlDragTrackingEnabledForWindow
PUBLIC cdbe1 0 IsAutomaticControlDragTrackingEnabledForWindow
PUBLIC cdc2c 0 InstallControlOwningWindowDragHandlers(OpaqueWindowPtr*)
PUBLIC cdc78 0 ControlDragTrackingHandler(short, OpaqueWindowPtr*, void*, OpaqueDragRef*)
PUBLIC cdce1 0 ControlDragReceiveHandler(OpaqueWindowPtr*, void*, OpaqueDragRef*)
PUBLIC cdd0a 0 RemoveControlOwningWindowDragHandlers(OpaqueWindowPtr*)
PUBLIC cdd74 0 GetControlDataHandle
PUBLIC cdd91 0 SetControlDataHandle
PUBLIC cddb2 0 SetControlCommandID
PUBLIC cdde9 0 _HIViewIsFocusConstraint
PUBLIC cde14 0 HIView::RemoveFocus(unsigned char)
PUBLIC cde6c 0 HIView::SetChildFocusOverride(HIView*)
PUBLIC cdea3 0 _HIViewNotifySetFocusPart
PUBLIC cdeec 0 HIView::GetFocusPart(short*)
PUBLIC cdf02 0 HIView::SetFocusPartSelf(short, unsigned char, short*)
PUBLIC cdf10 0 HIViewAdvanceFocus
PUBLIC cdf28 0 _HIViewAdvanceFocusFollowingView
PUBLIC ce033 0 AdvanceKeyboardFocus
PUBLIC ce0a5 0 ReverseKeyboardFocus
PUBLIC ce114 0 HIView::GetNextFocusCandidateSelf(HIView*, short)
PUBLIC ce158 0 HIView::GetFocusPart()
PUBLIC ce182 0 HIViewSubtreeContainsFocus
PUBLIC ce1b1 0 HIViewShowsFocus
PUBLIC ce1de 0 HIView::ShowsFocus(short)
PUBLIC ce240 0 HIView::GetAccessibleChildrenSelf(unsigned long long, __CFArray*)
PUBLIC ce2e6 0 HIView::GetAccessibleChildAtPointSelf(unsigned long long, CGPoint const&, __AXUIElement const**)
PUBLIC ce364 0 HIView::GetAccessibleChildAtFocusSelf(unsigned long long, __AXUIElement const**)
PUBLIC ce4be 0 HIView::GetAccessibleParentSelf(unsigned long long, __AXUIElement const**)
PUBLIC ce546 0 HIView::GetAllAccessibleAttributeNamesSelf(unsigned long long, __CFArray*)
PUBLIC ce6b6 0 HIView::GetNamedAccessibleAttributeSelf(unsigned long long, __CFString const*, unsigned int, OpaqueEventRef*)
PUBLIC ceb1c 0 HIView::CopyAccessibleTitleSelf(unsigned long long)
PUBLIC ceb4e 0 HIView::SetNamedAccessibleAttributeSelf(unsigned long long, __CFString const*, unsigned int, OpaqueEventRef*)
PUBLIC cec2c 0 HIView::IsNamedAccessibleAttributeSettableSelf(unsigned long long, __CFString const*, unsigned int, unsigned char*)
PUBLIC cec7a 0 HIView::GetAllAccessibleActionNamesSelf(unsigned long long, __CFArray*)
PUBLIC cecca 0 HIView::CopyAccessibleActionDescriptionSelf(unsigned long long, __CFString const*, unsigned int, __CFString const**)
PUBLIC ced44 0 HIView::PerformAccessibleActionSelf(unsigned long long, __CFString const*, unsigned int, unsigned char)
PUBLIC ceda8 0 HIView::GetAccessiblePressActionPartSelf()
PUBLIC cedb4 0 DebugPrintControlHierarchy
PUBLIC cedca 0 GDBShowControlHierarchy(OpaqueWindowPtr*)
PUBLIC cede0 0 DebugPrintControl
PUBLIC cee15 0 GDBShowControlInfo(OpaqueControlRef*)
PUBLIC cee24 0 HIView::PrintDebugInfo(HIDebugLog&)
PUBLIC cf6f6 0 GetShapeAsString(__HIShape const*, char*)
PUBLIC cf746 0 HIView::DisplayDebugInfoForControlSize(unsigned short, HIDebugLog&)
PUBLIC cf780 0 HIView::DisplayDebugInfoForControlFontStyleRec(TFontStyle const*, unsigned char, HIDebugLog&)
PUBLIC cf7ba 0 HIView::DisplayDebugInfoForControlFontStyleRec(ControlFontStyleRec const&, unsigned char, HIDebugLog&)
PUBLIC cf9bc 0 HIView::FlashRegion(__HIShape const*, HIView::FlashType, unsigned int)
PUBLIC cfb6d 0 SendControlSubValueChanged(HIView*, HIView*)
PUBLIC cfbeb 0 RgnHandlePromiserDoohickey(OpaqueEventRef*, unsigned int, unsigned int, void*)
PUBLIC cfc94 0 HIView::SendSynchronizeOpenGLCanvas()
PUBLIC cfcee 0 SendControlDefApplyTextColor(HIView*, OpaqueControlRef*, OpaqueGrafPtr*, CGContext*, short, unsigned char, unsigned char*)
PUBLIC cfe78 0 SendControlGetNextFocusCandidate(HIView*, short, HIView*, HIView**)
PUBLIC cff9d 0 SendControlActivated(HIView*)
PUBLIC cffac 0 SendSimpleControlEvent(HIView*, unsigned int)
PUBLIC d0003 0 SendControlDeactivated(HIView*)
PUBLIC d0012 0 SendControlEnabledStateChanged(HIView*)
PUBLIC d0021 0 SendControlDefSetCursor(HIView*, Point, unsigned int)
PUBLIC d00c5 0 SendControlDefDragTrackEvent(HIView*, unsigned int, OpaqueDragRef*, unsigned char*)
PUBLIC d017f 0 SendControlDefDragReceive(HIView*, OpaqueDragRef*)
PUBLIC d01ff 0 SendControlDefTrack(HIView*, CGPoint const&, unsigned int*, void (*)(OpaqueControlRef*, short), OpaqueEventRef*, short*)
PUBLIC d0387 0 SendControlDefGetScrollToHereStartPoint(HIView*, CGPoint const&, unsigned int, CGPoint*)
PUBLIC d047c 0 SendControlDefGetIndicatorDragConstraint(HIView*, CGPoint const&, unsigned int, IndicatorDragConstraint*)
PUBLIC d057e 0 SendControlDefIndicatorMoved(HIView*, OpaqueRgnHandle*, unsigned char)
PUBLIC d0623 0 SendControlDefGhostingFinished(HIView*, Point)
PUBLIC d06ad 0 GetPartRegionOrShapePromiseProc(OpaqueEventRef*, unsigned int, unsigned int, void*)
PUBLIC d075e 0 SendControlDefGetData(HIView*, unsigned int, short, void*, long, long*)
PUBLIC d08b6 0 SendControlDefValueFieldChanged(HIView*)
PUBLIC d091d 0 SendControlDefHiliteChanged(HIView*, short, short)
PUBLIC d09c5 0 SendControlTitleChanged(HIView*)
PUBLIC d0a28 0 SendControlCompositingModeChanged(HIView*)
PUBLIC d0aae 0 SendControlCommand(HIView*, unsigned int, unsigned int)
PUBLIC d0b00 0 HIView::CountSubPanes()
PUBLIC d0b22 0 HIView::GetNthSubPane(unsigned short)
PUBLIC d0b54 0 DepthFirstTraversePanes
PUBLIC d0bb8 0 FindControlPaneHit
PUBLIC d0c96 0 HIView::FindDeepSubPaneHit(CGPoint const&)
PUBLIC d0dd4 0 HIView::ExpandCompositedPaintAreaToIncludeProblematicViews(__HIShape const*&, CGContext*)
PUBLIC d0f76 0 DeviceRectIntersectionProc(int, __HIShape const*, CGRect const*, void*)
PUBLIC d1068 0 Add1RectToPathAndShape(int, __HIShape const*, CGRect const*, void*)
PUBLIC d11e8 0 HIView::ApplyTextColorForDepthAndDevice(short, unsigned char, CGContext*, unsigned char*)
PUBLIC d12b2 0 HIView::SetUpTextColorForAnything(CGContext*, bool, unsigned char*)
PUBLIC d1332 0 HIView::ApplyTextColorSelf(CGContext*, bool, OpaqueEventRef*)
PUBLIC d133e 0 HIView::IsPendingVisible()
PUBLIC d1370 0 HilitePane
PUBLIC d144e 0 HIView::Deactivate(unsigned char)
PUBLIC d1492 0 HIView::SetActiveState(short)
PUBLIC d153c 0 HIView::AncestorBecomingInactive()
PUBLIC d1586 0 HIView::Activate(unsigned char)
PUBLIC d1602 0 HIView::ActivationChangedSelf()
PUBLIC d1608 0 HIView::Disable(unsigned char)
PUBLIC d1674 0 HIView::SetEnableState(short)
PUBLIC d1710 0 HIView::AncestorBecomingDisabled()
PUBLIC d175c 0 HIView::Enable(unsigned char)
PUBLIC d17dc 0 HIView::EnabledStateChangedSelf()
PUBLIC d17e2 0 HIView::AutoEmbed(HIView*)
PUBLIC d1904 0 HIView::FindBestContainer(HIView*)
PUBLIC d1978 0 HIView::IsContainedWithin(HIView*)
PUBLIC d1ba3 0 DumpPaneHierarchy
PUBLIC d1caa 0 HIView::DumpToLog(HIDebugLog*)
PUBLIC d1d3c 0 HIView::CopyDescription()
PUBLIC d21d2 0 TFontStyle::TFontStyle()
PUBLIC d21f6 0 TFontStyle::~TFontStyle()
PUBLIC d220c 0 TFontStyle::SetControlFontStyleRec(ControlFontStyleRec const&, short)
PUBLIC d222c 0 TFontStyle::SetFont(__CTFont const*)
PUBLIC d2266 0 TFontStyle::SetHFlush(unsigned int)
PUBLIC d2290 0 TFontStyle::SetVFlush(unsigned int)
PUBLIC d229a 0 TFontStyle::SetTruncation(unsigned int)
PUBLIC d22a4 0 TFontStyle::GetControlFontStyleRec(ControlFontStyleRec*) const
PUBLIC d22c0 0 TFontStyle::CanGenerateFontID() const
PUBLIC d22d6 0 TFontStyle::GetThemeFontID() const
PUBLIC d2328 0 TFontStyle::GetHFlush() const
PUBLIC d2354 0 TFontStyle::GetVFlush() const
PUBLIC d235e 0 TFontStyle::GetTruncation() const
PUBLIC d2368 0 TFontStyle::GetFont() const
PUBLIC d2372 0 TFontStyle::Encode(OpaqueHIArchiveRef*)
PUBLIC d2616 0 TFontStyle::Decode(OpaqueHIArchiveRef*)
PUBLIC d28f0 0 _HIBevelButtonRegisterClass
PUBLIC d291f 0 CreateBevelButtonControl
PUBLIC d29de 0 _HIBevelButtonCreateWithClass
PUBLIC d2bd2 0 HIBevelButton::HIBevelButton(OpaqueHIObjectRef*)
PUBLIC d2cf6 0 HIBevelButton::~HIBevelButton()
PUBLIC d2da8 0 HIBevelButton::~HIBevelButton()
PUBLIC d2db2 0 HIBevelButton::~HIBevelButton()
PUBLIC d2de0 0 HIBevelButton::Construct(OpaqueHIObjectRef*)
PUBLIC d2e1e 0 HIBevelButton::BevelButtonMenuHandler(OpaqueEventHandlerCallRef*, OpaqueEventRef*, void*)
PUBLIC d2f02 0 HIBevelButton::Initialize(OpaqueEventRef*)
PUBLIC d319c 0 HIBevelButton::InitializeCommon()
PUBLIC d32d0 0 HIBevelButton::InitializeFromArchive(OpaqueEventRef*, OpaqueHIArchiveRef*)
PUBLIC d37a8 0 HIBevelButton::Encode(OpaqueHIArchiveRef*)
PUBLIC d3b84 0 HIBevelButton::GetKindSelf()
PUBLIC d3b94 0 HIBevelButton::GetBehaviors()
PUBLIC d3bd6 0 HIBevelButton::GetPartHitSelf(CGPoint const&)
PUBLIC d3c80 0 HIBevelButton::GetThemeButtonDrawInfo(HIThemeButtonDrawInfo*)
PUBLIC d3cdc 0 HIBevelButton::GetPartRegionOrShapeSelf(short, OpaqueRgnHandle*, __HIShape const**)
PUBLIC d3db2 0 HIBevelButton::GetOptimalSizeSelf(CGSize*, float*)
PUBLIC d41e6 0 HIBevelButton::GetGraphicRect(CGRect const&, CGSize const&, CGRect*)
PUBLIC d42ce 0 HIBevelButton::GetSizeConstraintsSelf(CGSize*, CGSize*)
PUBLIC d430a 0 HIBevelButton::TitleChangedSelf()
PUBLIC d431c 0 HIBevelButton::BoundsChangedSelf(unsigned int, CGRect const&, CGRect const&)
PUBLIC d4330 0 HIBevelButton::TrackSelf(OpaqueEventRef*, short*)
PUBLIC d46c6 0 HIBevelButton::TrackMenu()
PUBLIC d495c 0 HIBevelButton::CalcMenuPoint(OpaqueMenuRef*, Point*, unsigned short*, unsigned int*, Rect*)
PUBLIC d4bac 0 HIBevelButton::GetAutoToggleValueSelf(short, int*)
PUBLIC d4bd8 0 HIBevelButton::SimulateHitSelf(short, unsigned int, short*)
PUBLIC d4d64 0 HIBevelButton::SetFocusPartSelf(short, unsigned char, short*)
PUBLIC d4d8a 0 HIBevelButton::AcceptTextInputSelf(unsigned short, unsigned int, OpaqueEventRef*)
PUBLIC d4d94 0 HIBevelButton::DrawSelf(short, __HIShape const*, CGContext*)
PUBLIC d529e 0 HIBevelButton::GetTitleDimensions(__CFString const*, float, HIThemeTextInfo*)
PUBLIC d5314 0 HIBevelButton::DrawTextContents(__CFString const*, CGRect const&, CGSize const&, HIThemeButtonDrawInfo const&, HIThemeTextInfo*, CGContext*)
PUBLIC d54b4 0 HIBevelButton::GetTextRect(CGRect const&, CGSize const&, CGRect*)
PUBLIC d5618 0 HIBevelButton::GetAccessibleRoleSelf(unsigned long long)
PUBLIC d56bc 0 HIBevelButton::GetAccessibleChildrenSelf(unsigned long long, __CFArray*)
PUBLIC d5724 0 HIBevelButton::GetDataSelf(unsigned int, short, long, long*, void*)
PUBLIC d5a8a 0 HIBevelButton::SetDataSelf(unsigned int, short, long, void const*)
PUBLIC d5fc4 0 HIBevelButton::GetVerticalBias(CGSize const&, float*, unsigned char*)
PUBLIC d6036 0 HIBevelButton::GetHorizontalBias(CGSize const&, float*, unsigned char*)
PUBLIC d60a6 0 HIBevelButton::AlignGraphicRect(CGRect const&, CGSize const&, CGRect*, float, float)
PUBLIC d63bc 0 HIBevelButton::IsSizeAllowedSelf(unsigned short)
PUBLIC d63ce 0 HIBevelButton::GetDefaultSizeSelf() const
PUBLIC d63da 0 HIBevelButton::GetFontStyleForPartSelf(short, short*)
PUBLIC d63f4 0 HIBevelButton::CalculateHIThemeTextInfoForPartSelf(short, HIThemeTextInfo*, unsigned char)
PUBLIC d64a4 0 HIBevelButton::PrintDebugInfo(HIDebugLog&)
PUBLIC d69ad 0 SetBevelButtonContentInfo
PUBLIC d69d1 0 SetBevelButtonTextAlignment
PUBLIC d6a1c 0 SetBevelButtonGraphicAlignment
PUBLIC d6a7a 0 SetBevelButtonTextPlacement
PUBLIC d6ab0 0 _HIChasingArrowsRegisterClass
PUBLIC d6adf 0 CreateChasingArrowsControl
PUBLIC d6b58 0 _HIChasingArrowsCreateWithClass
PUBLIC d6bde 0 HIChasingArrows::Construct(OpaqueHIObjectRef*)
PUBLIC d6c26 0 HIChasingArrows::HIChasingArrows(OpaqueHIObjectRef*)
PUBLIC d6cbc 0 HIChasingArrows::~HIChasingArrows()
PUBLIC d6d08 0 HIChasingArrows::~HIChasingArrows()
PUBLIC d6d12 0 HIChasingArrows::~HIChasingArrows()
PUBLIC d6d40 0 HIChasingArrows::Initialize(OpaqueEventRef*)
PUBLIC d6d72 0 HIChasingArrows::InitializeFromArchive(OpaqueEventRef*, OpaqueHIArchiveRef*)
PUBLIC d6da4 0 HIChasingArrows::GetKindSelf()
PUBLIC d6db4 0 HIChasingArrows::GetBehaviors()
PUBLIC d6dc4 0 HIChasingArrows::DrawSelf(short, __HIShape const*, CGContext*)
PUBLIC d6ef0 0 HIChasingArrows::SyncAnimationTimer(unsigned char)
PUBLIC d6fb6 0 HIChasingArrows::GetDataSelf(unsigned int, short, long, long*, void*)
PUBLIC d7026 0 HIChasingArrows::SetDataSelf(unsigned int, short, long, void const*)
PUBLIC d70da 0 HIChasingArrows::AnimationTimerHook(__EventLoopTimer*, void*)
PUBLIC d70e8 0 HIChasingArrows::AnimationTimer()
PUBLIC d7160 0 HIChasingArrows::PrintDebugInfo(HIDebugLog&)
PUBLIC d718e 0 HIChasingArrows::IsSizeAllowedSelf(unsigned short)
PUBLIC d71ae 0 HIChasingArrows::GetDefaultSizeSelf() const
PUBLIC d71ba 0 HIChasingArrows::GetOptimalSizeSelf(CGSize*, float*)
PUBLIC d720e 0 HIChasingArrows::UserSessionActiveStateChanged()
PUBLIC d7256 0 HIChasingArrows::GetAllAccessibleAttributeNamesSelf(unsigned long long, __CFArray*)
PUBLIC d7290 0 HIChasingArrows::GetNamedAccessibleAttributeSelf(unsigned long long, __CFString const*, unsigned int, OpaqueEventRef*)
PUBLIC d7308 0 HIChasingArrows::IsNamedAccessibleAttributeSettableSelf(unsigned long long, __CFString const*, unsigned int, unsigned char*)
PUBLIC d7324 0 HIChasingArrows::GetAccessibleRoleSelf(unsigned long long)
PUBLIC d7340 0 _HICheckBoxRegisterClass
PUBLIC d738e 0 HICheckBox::GetClassID(HICheckBox::Adornment)
PUBLIC d73f5 0 CreateCheckBoxControl
PUBLIC d74a3 0 _HICheckBoxCreateWithClass
PUBLIC d74ce 0 _HICheckBoxCreateInternal(__CFString const*, OpaqueEventRef*, HICheckBox::Adornment, CGRect const*, __CFString const*, int, unsigned char, unsigned char, OpaqueControlRef**)
PUBLIC d75f3 0 CreateCheckGroupBoxControl
PUBLIC d7696 0 _HICheckGroupBoxCreateWithClass
PUBLIC d76c4 0 HICheckBox::HICheckBox(OpaqueHIObjectRef*, HICheckBox::Adornment)
PUBLIC d7786 0 HICheckBox::~HICheckBox()
PUBLIC d77ce 0 HICheckBox::~HICheckBox()
PUBLIC d77d8 0 HICheckBox::~HICheckBox()
PUBLIC d7806 0 HICheckBox::Construct(OpaqueHIObjectRef*)
PUBLIC d7846 0 HICheckBox::ConstructGroupBox(OpaqueHIObjectRef*)
PUBLIC d7888 0 HICheckBox::Initialize(OpaqueEventRef*)
PUBLIC d793c 0 HICheckBox::InitializeCommon()
PUBLIC d798c 0 HICheckBox::InitializeFromArchive(OpaqueEventRef*, OpaqueHIArchiveRef*)
PUBLIC d7a9e 0 HICheckBox::Encode(OpaqueHIArchiveRef*)
PUBLIC d7b30 0 HICheckBox::GetKindSelf()
PUBLIC d7b56 0 HICheckBox::GetBehaviors()
PUBLIC d7b9e 0 HICheckBox::IsHitByPointSelf(CGPoint const&, short*)
PUBLIC d7c66 0 HICheckBox::GetTitleRectAndOffsets(CGRect const*, CGRect*, Rect*)
PUBLIC d7cc8 0 HICheckBox::GetPartRegionOrShapeSelf(short, OpaqueRgnHandle*, __HIShape const**)
PUBLIC d7f40 0 HICheckBox::GetThemeButtonDrawInfo(HIThemeButtonDrawInfo*)
PUBLIC d7fd0 0 HICheckBox::GetTitleRectAndOffsets(Rect const*, Rect*, Rect*)
PUBLIC d819a 0 HICheckBox::GetOptimalSizeSelf(CGSize*, float*)
PUBLIC d83ce 0 HICheckBox::SetFocusPartSelf(short, unsigned char, short*)
PUBLIC d83f8 0 HICheckBox::AcceptTextInputSelf(unsigned short, unsigned int, OpaqueEventRef*)
PUBLIC d8402 0 HICheckBox::DrawSelf(short, __HIShape const*, CGContext*)
PUBLIC d87fc 0 HICheckBox::ValueFieldChangedSelf()
PUBLIC d885c 0 HICheckBox::HiliteChangedSelf(short, short)
PUBLIC d88d4 0 HICheckBox::GetAccessibleRoleSelf(unsigned long long)
PUBLIC d88ec 0 HICheckBox::GetDataSelf(unsigned int, short, long, long*, void*)
PUBLIC d89ac 0 HICheckBox::GetFrameForGroup(Rect const*, Rect*)
PUBLIC d8a2c 0 HICheckBox::IsSizeAllowedSelf(unsigned short)
PUBLIC d8a48 0 HICheckBox::GetFontStyleForPartSelf(short, short*)
PUBLIC d8a62 0 HICheckBox::CalculateHIThemeTextInfoForPartSelf(short, HIThemeTextInfo*, unsigned char)
PUBLIC d8abc 0 HICheckBox::SetDataSelf(unsigned int, short, long, void const*)
PUBLIC d8ad0 0 HICheckBox::PrintDebugInfo(HIDebugLog&)
PUBLIC d8b7e 0 HICheckBox::GetAccessiblePressActionPartSelf()
PUBLIC d8b99 0 _HIClockCreateWithClass
PUBLIC d8c74 0 HIClockView::HIClockView(OpaqueHIObjectRef*)
PUBLIC d8d26 0 HIClockView::~HIClockView()
PUBLIC d8de6 0 HIClockView::SyncClockAnimationTimer(unsigned char)
PUBLIC d8f08 0 HIClockView::~HIClockView()
PUBLIC d8f12 0 HIClockView::~HIClockView()
PUBLIC d8f40 0 HIClockView::Construct(OpaqueHIObjectRef*)
PUBLIC d8f7e 0 HIClockView::Initialize(OpaqueEventRef*)
PUBLIC d9036 0 HIClockView::InitializeCommon()
PUBLIC d9098 0 HIClockView::InitializeFromArchive(OpaqueEventRef*, OpaqueHIArchiveRef*)
PUBLIC d913c 0 HIClockView::CalcParts()
PUBLIC d97a8 0 HIClockView::Encode(OpaqueHIArchiveRef*)
PUBLIC d9824 0 HIClockView::GetKindSelf()
PUBLIC d9834 0 HIClockView::GetBehaviors()
PUBLIC d986a 0 HIClockView::IsHitByPointSelf(CGPoint const&, short*)
PUBLIC d98a4 0 HIClockView::IsHitByPointSelfGuts(CGPoint const&, short*)
PUBLIC d9926 0 HIClockView::PtToPartCode(Point)
PUBLIC d9b14 0 HIClockView::GetEditRect(Rect*)
PUBLIC d9bd8 0 HIClockView::GetPartRegionOrShapeSelf(short, OpaqueRgnHandle*, __HIShape const**)
PUBLIC d9cda 0 HIClockView::GetOptimalSizeSelf(CGSize*, float*)
PUBLIC d9dfc 0 HIClockView::GetTextRect(Rect*, short*)
PUBLIC d9ee8 0 HIClockView::GetTextPartRect(short, CGRect*)
PUBLIC d9f60 0 HIClockView::TrackSelf(OpaqueEventRef*, short*)
PUBLIC da26e 0 HIClockView::MyToggleDate(signed char, unsigned short)
PUBLIC da6c0 0 HIClockView::SetFocusPartSelf(short, unsigned char, short*)
PUBLIC da7e8 0 HIClockView::GetNextSelectablePart(bool)
PUBLIC da88a 0 HIClockView::AcceptKeyInputSelf(char, int, unsigned int)
PUBLIC da8a2 0 HIClockView::AcceptTextInputSelf(unsigned short, unsigned int, OpaqueEventRef*)
PUBLIC da9c0 0 HIClockView::DrawSelf(short, __HIShape const*, CGContext*)
PUBLIC daf8c 0 HIClockView::CalculateNextClockTimerFireTime(double*, unsigned char*)
PUBLIC db084 0 HIClockView::ClockAnimationTimer(__EventLoopTimer*, void*)
PUBLIC db1bc 0 HIClockView::PrintDebugInfo(HIDebugLog&)
PUBLIC db2a0 0 HIClockView::GetDataSelf(unsigned int, short, long, long*, void*)
PUBLIC db31e 0 HIClockView::SetDataSelf(unsigned int, short, long, void const*)
PUBLIC db3f2 0 HIClockView::SetModified(bool, bool)
PUBLIC db4a2 0 HIClockView::GetFontStyleForPartSelf(short, short*)
PUBLIC db4bc 0 HIClockView::CalculateHIThemeTextInfoForPartSelf(short, HIThemeTextInfo*, unsigned char)
PUBLIC db4f6 0 HIClockView::GetAccessibleChildrenSelf(unsigned long long, __CFArray*)
PUBLIC db74a 0 HIClockView::GetAccessibleParentSelf(unsigned long long, __AXUIElement const**)
PUBLIC db7c6 0 HIClockView::GetAccessibleChildAtPointSelf(unsigned long long, CGPoint const&, __AXUIElement const**)
PUBLIC db892 0 HIClockView::GetAccessibleChildAtFocusSelf(unsigned long long, __AXUIElement const**)
PUBLIC db8fe 0 HIClockView::GetAllAccessibleAttributeNamesSelf(unsigned long long, __CFArray*)
PUBLIC dbbd0 0 HIClockView::GetNamedAccessibleAttributeSelf(unsigned long long, __CFString const*, unsigned int, OpaqueEventRef*)
PUBLIC dc414 0 HIClockView::SetNamedAccessibleAttributeSelf(unsigned long long, __CFString const*, unsigned int, OpaqueEventRef*)
PUBLIC dc5fe 0 HIClockView::IsNamedAccessibleAttributeSettableSelf(unsigned long long, __CFString const*, unsigned int, unsigned char*)
PUBLIC dc7fc 0 HIClockView::GetAccessibleRoleSelf(unsigned long long)
PUBLIC dc8b8 0 HIClockView::GetAccessibleSubRoleSelf(unsigned long long)
PUBLIC dc8e0 0 HIClockView::GetAllAccessibleActionNamesSelf(unsigned long long, __CFArray*)
PUBLIC dc92a 0 HIClockView::CopyAccessibleActionDescriptionSelf(unsigned long long, __CFString const*, unsigned int, __CFString const**)
PUBLIC dc99e 0 HIClockView::PerformAccessibleActionSelf(unsigned long long, __CFString const*, unsigned int, unsigned char)
PUBLIC dca5a 0 HIClockView::CalculateTextDimensions()
PUBLIC dcabb 0 _HIComboBoxCreateWithClass
PUBLIC dcbfe 0 HIComboBox::Construct(OpaqueHIObjectRef*)
PUBLIC dcc5c 0 HIComboBox::HIComboBox(OpaqueHIObjectRef*)
PUBLIC dcde6 0 TComboBoxList::~TComboBoxList()
PUBLIC dcdfc 0 HIComboBox::~HIComboBox()
PUBLIC dceb6 0 HIComboBox::~HIComboBox()
PUBLIC dcec0 0 HIComboBox::~HIComboBox()
PUBLIC dceee 0 HIComboBox::Initialize(OpaqueEventRef*)
PUBLIC dcfda 0 HIComboBox::InitializeCommon(__CFString const*, __CFArray const*)
PUBLIC dd0d0 0 HIComboBox::InitializeFromArchive(OpaqueEventRef*, OpaqueHIArchiveRef*)
PUBLIC dd1d0 0 TComboBoxList::SetList(__CFArray const*)
PUBLIC dd2cc 0 TComboBoxList::SetAutoSort(unsigned char)
PUBLIC dd32a 0 HIComboBox::GetTextFieldQDRect(Rect*)
PUBLIC dd416 0 HIComboBox::HIComboBoxSyncBoundsProc(HIView*)
PUBLIC dd44c 0 HIComboBox::HIComboBoxEventHandlerProc(OpaqueEventHandlerCallRef*, OpaqueEventRef*, void*)
PUBLIC dd46a 0 HIComboBox::Encode(OpaqueHIArchiveRef*)
PUBLIC dd572 0 HIComboBox::DisplayDebugInfo()
PUBLIC dd584 0 HIComboBox::GetKindSelf()
PUBLIC dd594 0 HIComboBox::GetBehaviors()
PUBLIC dd5a4 0 HIComboBox::GetPartHitSelf(CGPoint const&)
PUBLIC dd61e 0 HIComboBox::GetPartForPoint(CGPoint const&)
PUBLIC dd69a 0 HIComboBox::TrackSelf(OpaqueEventRef*, short*)
PUBLIC dd812 0 HIComboBox::HideList()
PUBLIC dd88c 0 HIComboBox::DisplayList()
PUBLIC ddbb6 0 HIComboBox::SimulateHitSelf(short, unsigned int, short*)
PUBLIC ddc1a 0 HIComboBox::GetDataSelf(unsigned int, short, long, long*, void*)
PUBLIC dde46 0 HIComboBox::IsSizeAllowedSelf(unsigned short)
PUBLIC dde62 0 HIComboBox::SizeChangedSelf()
PUBLIC ddeb8 0 TComboBoxList::SetSize(unsigned short)
PUBLIC ddef6 0 HIComboBox::SetDataSelf(unsigned int, short, long, void const*)
PUBLIC de0ce 0 HIComboBox::GetOptimalSizeSelf(CGSize*, float*)
PUBLIC de138 0 HIComboBox::GetOptimalMetricsForTextMetrics(short, short, double*, double*)
PUBLIC de1d8 0 HIComboBox::GetPartRegionOrShapeSelf(short, OpaqueRgnHandle*, __HIShape const**)
PUBLIC de29e 0 HIComboBox::GetDisclosureWidgetBounds(CGRect*)
PUBLIC de39c 0 HIComboBox::GetEntireQDBounds(Rect*)
PUBLIC de404 0 HIComboBox::BoundsChangedSelf(unsigned int, CGRect const&, CGRect const&)
PUBLIC de446 0 HIComboBox::ActivationChangedSelf()
PUBLIC de464 0 HIComboBox::HandleActivate(unsigned char)
PUBLIC de4c2 0 HIComboBox::VisibilityChangedSelf()
PUBLIC de4ea 0 HIComboBox::OwningWindowChangedSelf(OpaqueWindowPtr*, OpaqueWindowPtr*)
PUBLIC de522 0 HIComboBox::DrawSelf(short, __HIShape const*, CGContext*)
PUBLIC de5d0 0 HIComboBox::DrawFrame(unsigned int, CGContext*)
PUBLIC de716 0 HIComboBox::SetFocusPartSelf(short, unsigned char, short*)
PUBLIC de7a8 0 HIComboBox::HandleFocus(short)
PUBLIC de7f4 0 HIComboBox::GetTextAXObject()
PUBLIC de85c 0 HIComboBox::HIComboBoxTextFieldEventHandler(OpaqueEventHandlerCallRef*, OpaqueEventRef*, void*)
PUBLIC de876 0 HIComboBox::GetButtonAXObject()
PUBLIC de8ec 0 HIComboBox::GetAccessibleChildrenSelf(unsigned long long, __CFArray*)
PUBLIC de954 0 HIComboBox::GetAccessibleChildAtPointSelf(unsigned long long, CGPoint const&, __AXUIElement const**)
PUBLIC dea26 0 HIComboBox::GetAccessibleChildAtFocusSelf(unsigned long long, __AXUIElement const**)
PUBLIC dea68 0 HIComboBox::ItemSelected(__CFString const*, long)
PUBLIC debae 0 HIComboBox::ItemChosen(__CFString const*)
PUBLIC dec26 0 HIComboBox::HandleEvent(OpaqueEventHandlerCallRef*, OpaqueEventRef*)
PUBLIC decfa 0 HIComboBox::HandleTextInputEvent(OpaqueEventHandlerCallRef*, OpaqueEventRef*)
PUBLIC deef0 0 HIComboBox::HandleMouseWheelScrollEvent(OpaqueEventHandlerCallRef*, OpaqueEventRef*)
PUBLIC defcc 0 HIComboBox::HandleMouseDownWithVisibleList(OpaqueEventHandlerCallRef*, OpaqueEventRef*)
PUBLIC df094 0 HIComboBox::HandleTextFieldEvent(OpaqueEventHandlerCallRef*, OpaqueEventRef*)
PUBLIC df1d4 0 HIComboBox::HandleTextFieldAXGetChildAtPoint(unsigned long long, OpaqueEventHandlerCallRef*, OpaqueEventRef*)
PUBLIC df2b6 0 HIComboBox::HandleTextFieldAXGetAllAttributeNames(unsigned long long, OpaqueEventHandlerCallRef*, OpaqueEventRef*)
PUBLIC df33a 0 HIComboBox::HandleTextFieldAXGetNamedAttribute(unsigned long long, OpaqueEventHandlerCallRef*, OpaqueEventRef*)
PUBLIC df574 0 HIComboBox::HandleTextFieldAXSetNamedAttribute(unsigned long long, OpaqueEventHandlerCallRef*, OpaqueEventRef*)
PUBLIC df6e8 0 HIComboBox::HandleTextFieldAXIsNamedAttributeSettable(unsigned long long, OpaqueEventHandlerCallRef*, OpaqueEventRef*)
PUBLIC df778 0 HIComboBox::HandleTextFieldAXGetAllActionNames(unsigned long long, OpaqueEventHandlerCallRef*, OpaqueEventRef*)
PUBLIC df7e8 0 HIComboBox::HandleTextFieldAXPerformNamedAction(unsigned long long, OpaqueEventHandlerCallRef*, OpaqueEventRef*)
PUBLIC df856 0 HIComboBox::HandleTextFieldAXGetNamedActionDescription(unsigned long long, OpaqueEventHandlerCallRef*, OpaqueEventRef*)
PUBLIC df91a 0 HIComboBox::GetAXAttributeNameAndID(OpaqueEventRef*, __CFString const**, unsigned int*)
PUBLIC df96c 0 HIComboBox::ConfirmText()
PUBLIC df9d8 0 HIComboBox::HandleNavigationCharCode(unsigned int, unsigned int)
PUBLIC dfb56 0 HIComboBox::SetTimerFireDelay(double)
PUBLIC dfbb2 0 TComboBoxList::ScrollList(TComboBoxList::ListScrollBehavior)
PUBLIC dfc94 0 TComboBoxList::RevealItem(__CFString const*, unsigned char)
PUBLIC dfd08 0 TComboBoxList::GetDimensions(unsigned short*, unsigned short*, Rect*)
PUBLIC dfeb8 0 TComboBoxList::ScrollList(int, int)
PUBLIC e0056 0 HIComboBox::UpdateListSelectionToReflectTextField()
PUBLIC e01e2 0 TComboBoxList::GetClosestFitString(__CFString const*)
PUBLIC e026a 0 HIComboBox::HIComboBoxTimerProc(__EventLoopTimer*, void*)
PUBLIC e0278 0 HIComboBox::LayoutList()
PUBLIC e039a 0 HIComboBox::GetListGlobalPosition(Point, Point*, Rect*)
PUBLIC e0444 0 TComboBoxList::Show(Point const&)
PUBLIC e04fc 0 TComboBoxList::SetFontStyle(ControlFontStyleRec const&)
PUBLIC e054a 0 HIComboBox::GetIdealListPixelWidthFromMetrics(Rect const&)
PUBLIC e061c 0 TComboBoxList::SetDimensions(unsigned short, unsigned short)
PUBLIC e067e 0 TComboBoxList::Hide()
PUBLIC e06ba 0 HIComboBox::CalculateMetrics()
PUBLIC e0872 0 HIComboBox::GetBoundsForMetrics(Rect*)
PUBLIC e0900 0 TComboBoxList::~TComboBoxList()
PUBLIC e095a 0 TComboBoxList::~TComboBoxList()
PUBLIC e0992 0 TComboBoxList::ItemComparisonProc(void const*, void const*, void*)
PUBLIC e09be 0 TComboBoxList::AddListItemsToDataBrowser(OpaqueControlRef*, __CFArray const*)
PUBLIC e0a52 0 TComboBoxList::SetGlobalPosition(Point const&)
PUBLIC e0ad4 0 TComboBoxList::AttachToParentWindow(unsigned char)
PUBLIC e0bfe 0 TComboBoxList::AdjustScrollBars()
PUBLIC e0cac 0 TComboBoxList::ConstructDisplay()
PUBLIC e0cdc 0 TComboBoxList::CreateWindow()
PUBLIC e0d82 0 TComboBoxList::CreateDataBrowserControl()
PUBLIC e0f6a 0 TComboBoxList::WindowEventHandler(OpaqueEventHandlerCallRef*, OpaqueEventRef*, void*)
PUBLIC e1094 0 TComboBoxList::ItemDataCallbackProc(OpaqueControlRef*, unsigned long, unsigned long, void*, unsigned char)
PUBLIC e10ae 0 TComboBoxList::ItemCompareCallbackProc(OpaqueControlRef*, unsigned long, unsigned long, unsigned long)
PUBLIC e10b6 0 TComboBoxList::ItemNotificationCallbackProc(OpaqueControlRef*, unsigned long, unsigned int)
PUBLIC e1118 0 TComboBoxList::IsAttachedToParent(unsigned char*)
PUBLIC e114e 0 TComboBoxList::ItemSelected(__CFString const*)
PUBLIC e11aa 0 TComboBoxList::ItemDoubleClicked(__CFString const*)
PUBLIC e11e4 0 TComboBoxButtonAccessibility::Construct(OpaqueHIObjectRef*)
PUBLIC e124a 0 TComboBoxButtonAccessibility::GetAccessibleChildrenSelf(unsigned long long, __CFArray*)
PUBLIC e1252 0 TComboBoxButtonAccessibility::GetAccessibleChildAtPointSelf(unsigned long long, CGPoint const&, __AXUIElement const**)
PUBLIC e1262 0 TComboBoxButtonAccessibility::GetAccessibleChildAtFocusSelf(unsigned long long, __AXUIElement const**)
PUBLIC e1272 0 TComboBoxButtonAccessibility::GetAccessibleParentSelf(unsigned long long, __AXUIElement const**)
PUBLIC e12a6 0 TComboBoxButtonAccessibility::GetAccessibleRoleSelf(unsigned long long)
PUBLIC e12b4 0 TComboBoxButtonAccessibility::GetAllAccessibleAttributeNamesSelf(unsigned long long, __CFArray*)
PUBLIC e1326 0 TComboBoxButtonAccessibility::GetNamedAccessibleAttributeSelf(unsigned long long, __CFString const*, unsigned int, OpaqueEventRef*)
PUBLIC e1410 0 TComboBoxButtonAccessibility::IsNamedAccessibleAttributeSettableSelf(unsigned long long, __CFString const*, unsigned int, unsigned char*)
PUBLIC e1432 0 TComboBoxButtonAccessibility::GetAllAccessibleActionNamesSelf(unsigned long long, __CFArray*)
PUBLIC e1458 0 TComboBoxButtonAccessibility::PerformAccessibleActionSelf(unsigned long long, __CFString const*, unsigned int, unsigned char)
PUBLIC e1488 0 TComboBoxButtonAccessibility::~TComboBoxButtonAccessibility()
PUBLIC e14b8 0 CalculateControlFont
PUBLIC e1514 0 HIView::CalculateFontForView(HIView*, ControlFontStyleRec const*, unsigned char, unsigned short*, short*)
PUBLIC e15ec 0 HIView::CalculateFont(ControlFontStyleRec const*, unsigned char, unsigned short*, short*)
PUBLIC e1606 0 HIView::CalculateThemeDrawState(short)
PUBLIC e1693 0 CalculateThemeDrawStateForControlState
PUBLIC e16d4 0 CalculateTransformForControl
PUBLIC e1745 0 DrawGroupBoxWithContext
PUBLIC e17e8 0 GetGroupBoxContentRect
PUBLIC e185b 0 GetGroupBoxContentBounds
PUBLIC e1910 0 CreateRootIfNotComposited
PUBLIC e1962 0 GetControlLocalBounds
PUBLIC e1990 0 CopyIconRefFromResource
PUBLIC e19ed 0 CopyIconRefFromURL
PUBLIC e1b23 0 LoadImageContent
PUBLIC e1c20 0 DisposeImageContent
PUBLIC e1c2a 0 IsScrollToHereDesired
PUBLIC e1d2f 0 PrefsListenerProc(unsigned int, void*, void*)
PUBLIC e1d44 0 CalculateScrollToHereStartPoint
PUBLIC e1e32 0 HIStandardAnimator::HIStandardAnimator()
PUBLIC e1e46 0 HIStandardAnimator::~HIStandardAnimator()
PUBLIC e1e62 0 HIStandardAnimator::StopAnimating()
PUBLIC e1ed8 0 HIStandardAnimator::~HIStandardAnimator()
PUBLIC e1ef4 0 HIStandardAnimator::~HIStandardAnimator()
PUBLIC e1f36 0 HIStandardAnimator::StartAnimating()
PUBLIC e1fbe 0 HIStandardAnimator::TimerProc(__EventLoopTimer*, void*)
PUBLIC e2010 0 _HIDisclosureButtonRegisterClass
PUBLIC e203f 0 CreateDisclosureButtonControl
PUBLIC e20cd 0 _HIDisclosureButtonCreateWithClass
PUBLIC e21a8 0 HIDisclosureButton::Construct(OpaqueHIObjectRef*)
PUBLIC e21f0 0 HIDisclosureButton::HIDisclosureButton(OpaqueHIObjectRef*)
PUBLIC e2276 0 HIDisclosureButton::~HIDisclosureButton()
PUBLIC e2280 0 HIDisclosureButton::~HIDisclosureButton()
PUBLIC e22ae 0 HIDisclosureButton::Initialize(OpaqueEventRef*)
PUBLIC e2360 0 HIDisclosureButton::InitializeFromArchive(OpaqueEventRef*, OpaqueHIArchiveRef*)
PUBLIC e23c0 0 HIDisclosureButton::Encode(OpaqueHIArchiveRef*)
PUBLIC e23fc 0 HIDisclosureButton::GetKindSelf()
PUBLIC e240c 0 HIDisclosureButton::GetBehaviors()
PUBLIC e2438 0 HIDisclosureButton::DrawSelf(short, __HIShape const*, CGContext*)
PUBLIC e250a 0 HIDisclosureButton::GetThemeButtonDrawInfo(HIThemeButtonDrawInfo*)
PUBLIC e2594 0 HIDisclosureButton::GetPartHitSelf(CGPoint const&)
PUBLIC e25fa 0 HIDisclosureButton::GetPartRegionOrShapeSelf(short, OpaqueRgnHandle*, __HIShape const**)
PUBLIC e26d6 0 HIDisclosureButton::GetOptimalSizeSelf(CGSize*, float*)
PUBLIC e2770 0 HIDisclosureButton::SetFocusPartSelf(short, unsigned char, short*)
PUBLIC e2796 0 HIDisclosureButton::AcceptTextInputSelf(unsigned short, unsigned int, OpaqueEventRef*)
PUBLIC e27a0 0 HIDisclosureButton::GetAccessibleRoleSelf(unsigned long long)
PUBLIC e27b8 0 HIDisclosureButton::PrintDebugInfo(HIDebugLog&)
PUBLIC e2828 0 HIDisclosureButton::IsSizeAllowedSelf(unsigned short)
PUBLIC e2850 0 _HIDisclosureTriangleRegisterClass
PUBLIC e287f 0 CreateDisclosureTriangleControl
PUBLIC e2932 0 _HIDisclosureTriangleCreateWithClass
PUBLIC e2a9c 0 HIDisclosureTriangle::Construct(OpaqueHIObjectRef*)
PUBLIC e2ae4 0 HIDisclosureTriangle::HIDisclosureTriangle(OpaqueHIObjectRef*)
PUBLIC e2b8c 0 HIDisclosureTriangle::~HIDisclosureTriangle()
PUBLIC e2bd4 0 HIDisclosureTriangle::~HIDisclosureTriangle()
PUBLIC e2bde 0 HIDisclosureTriangle::~HIDisclosureTriangle()
PUBLIC e2c0c 0 HIDisclosureTriangle::Initialize(OpaqueEventRef*)
PUBLIC e2d36 0 HIDisclosureTriangle::InitializeCommon()
PUBLIC e2d6e 0 HIDisclosureTriangle::InitializeFromArchive(OpaqueEventRef*, OpaqueHIArchiveRef*)
PUBLIC e2e62 0 HIDisclosureTriangle::GetThemeButtonDrawInfo(HIThemeButtonDrawInfo*)
PUBLIC e2ef8 0 HIDisclosureTriangle::Encode(OpaqueHIArchiveRef*)
PUBLIC e2f8e 0 HIDisclosureTriangle::GetKindSelf()
PUBLIC e2f9e 0 HIDisclosureTriangle::GetBehaviors()
PUBLIC e2fc8 0 HIDisclosureTriangle::DrawSelf(short, __HIShape const*, CGContext*)
PUBLIC e3296 0 HIDisclosureTriangle::GetPartHitSelf(CGPoint const&)
PUBLIC e3338 0 HIDisclosureTriangle::GetPartRegionOrShapeSelf(short, OpaqueRgnHandle*, __HIShape const**)
PUBLIC e3440 0 HIDisclosureTriangle::GetOptimalSizeSelf(CGSize*, float*)
PUBLIC e3514 0 HIDisclosureTriangle::GetDataSelf(unsigned int, short, long, long*, void*)
PUBLIC e3554 0 HIDisclosureTriangle::SetDataSelf(unsigned int, short, long, void const*)
PUBLIC e35a0 0 HIDisclosureTriangle::SetFocusPartSelf(short, unsigned char, short*)
PUBLIC e35c6 0 HIDisclosureTriangle::AcceptTextInputSelf(unsigned short, unsigned int, OpaqueEventRef*)
PUBLIC e35d0 0 HIDisclosureTriangle::GetAccessibleRoleSelf(unsigned long long)
PUBLIC e35e8 0 HIDisclosureTriangle::GetAllAccessibleAttributeNamesSelf(unsigned long long, __CFArray*)
PUBLIC e3622 0 HIDisclosureTriangle::GetNamedAccessibleAttributeSelf(unsigned long long, __CFString const*, unsigned int, OpaqueEventRef*)
PUBLIC e36a0 0 HIDisclosureTriangle::IsNamedAccessibleAttributeSettableSelf(unsigned long long, __CFString const*, unsigned int, unsigned char*)
PUBLIC e36bc 0 HIDisclosureTriangle::CopyAccessibleTitleSelf(unsigned long long)
PUBLIC e3712 0 HIDisclosureTriangle::GetFontStyleForPartSelf(short, short*)
PUBLIC e3720 0 HIDisclosureTriangle::CalculateHIThemeTextInfoForPartSelf(short, HIThemeTextInfo*, unsigned char)
PUBLIC e377a 0 HIDisclosureTriangle::PrintDebugInfo(HIDebugLog&)
PUBLIC e38ae 0 HIDisclosureTriangle::GetAccessiblePressActionPartSelf()
PUBLIC e38cf 0 CreateSeparatorControl
PUBLIC e3948 0 _HISeparatorCreateWithClass
PUBLIC e39ce 0 HIVisualSeparator::Construct(OpaqueHIObjectRef*)
PUBLIC e3a16 0 HIVisualSeparator::HIVisualSeparator(OpaqueHIObjectRef*)
PUBLIC e3a86 0 HIVisualSeparator::~HIVisualSeparator()
PUBLIC e3a90 0 HIVisualSeparator::~HIVisualSeparator()
PUBLIC e3abe 0 HIVisualSeparator::Initialize(OpaqueEventRef*)
PUBLIC e3af0 0 HIVisualSeparator::InitializeFromArchive(OpaqueEventRef*, OpaqueHIArchiveRef*)
PUBLIC e3b22 0 HIVisualSeparator::GetKindSelf()
PUBLIC e3b32 0 HIVisualSeparator::DrawSelf(short, __HIShape const*, CGContext*)
PUBLIC e3bdc 0 HIVisualSeparator::PrintDebugInfo(HIDebugLog&)
PUBLIC e3c10 0 _HITextFieldRegisterClass
PUBLIC e3c3f 0 CreateEditUnicodeTextControl
PUBLIC e3cd9 0 _HIEditTextCreateWithClass
PUBLIC e3dec 0 HITextField::Construct(OpaqueHIObjectRef*)
PUBLIC e3e4a 0 HITextField::HITextField(OpaqueHIObjectRef*)
PUBLIC e3f2c 0 HITextField::~HITextField()
PUBLIC e3f94 0 HITextField::~HITextField()
PUBLIC e3f9e 0 HITextField::~HITextField()
PUBLIC e3fcc 0 HITextField::Initialize(OpaqueEventRef*)
PUBLIC e40ac 0 HITextField::InitializeCommon(__CFString const*, ControlFontStyleRec, unsigned char)
PUBLIC e416e 0 HITextField::InitializeFromArchive(OpaqueEventRef*, OpaqueHIArchiveRef*)
PUBLIC e428a 0 HITextField::ClassSyncBoundsCallback(HIView*)
PUBLIC e4294 0 HITextField::Encode(OpaqueHIArchiveRef*)
PUBLIC e4396 0 HITextField::DisplayDebugInfo()
PUBLIC e43a8 0 HITextField::GetKindSelf()
PUBLIC e43b8 0 HITextField::GetBehaviors()
PUBLIC e43c8 0 HITextField::GetPartHitSelf(CGPoint const&)
PUBLIC e4464 0 HITextField::TrackSelf(OpaqueEventRef*, short*)
PUBLIC e456c 0 HITextField::GetDataSelf(unsigned int, short, long, long*, void*)
PUBLIC e46aa 0 HITextField::SetDataSelf(unsigned int, short, long, void const*)
PUBLIC e4824 0 HITextField::GetOptimalSizeSelf(CGSize*, float*)
PUBLIC e4898 0 HITextField::GetPartRegionOrShapeSelf(short, OpaqueRgnHandle*, __HIShape const**)
PUBLIC e495a 0 HITextField::CalcTotalBounds(Rect*)
PUBLIC e49b0 0 HITextField::BoundsChangedSelf(unsigned int, CGRect const&, CGRect const&)
PUBLIC e49ba 0 HITextField::SyncBounds()
PUBLIC e4a4e 0 HITextField::ActivationChangedSelf()
PUBLIC e4ae6 0 HITextField::VisibilityChangedSelf()
PUBLIC e4b0e 0 HITextField::DrawSelf(short, __HIShape const*, CGContext*)
PUBLIC e4cec 0 HITextField::CalcFrameBounds(Rect*)
PUBLIC e4dbe 0 HITextField::SetFocusPartSelf(short, unsigned char, short*)
PUBLIC e4ed0 0 HITextField::DragEnterSelf(OpaqueDragRef*)
PUBLIC e4ee2 0 HITextField::DragWithinSelf(OpaqueDragRef*)
PUBLIC e4ef4 0 HITextField::DragLeaveSelf(OpaqueDragRef*)
PUBLIC e4f06 0 HITextField::DragReceiveSelf(OpaqueDragRef*)
PUBLIC e4f1c 0 HITextField::GetAccessibleChildrenSelf(unsigned long long, __CFArray*)
PUBLIC e4f74 0 HITextField::GetTXNAccessibilityObject()
PUBLIC e4fdc 0 HITextField::GetAccessibleChildAtPointSelf(unsigned long long, CGPoint const&, __AXUIElement const**)
PUBLIC e5082 0 HITextField::GetAccessibleChildAtFocusSelf(unsigned long long, __AXUIElement const**)
PUBLIC e50bc 0 HITextField::ClassTXNAXHandler(OpaqueEventHandlerCallRef*, OpaqueEventRef*, void*)
PUBLIC e50d6 0 HITextField::TXNAXHandler(OpaqueEventHandlerCallRef*, OpaqueEventRef*)
PUBLIC e51a8 0 HITextField::HandleAXGetAllAttributeNames(unsigned long long, OpaqueEventHandlerCallRef*, OpaqueEventRef*)
PUBLIC e52d8 0 HITextField::HandleAXGetNamedAttribute(unsigned long long, OpaqueEventHandlerCallRef*, OpaqueEventRef*)
PUBLIC e5590 0 HITextField::HandleAXSetNamedAttribute(unsigned long long, OpaqueEventHandlerCallRef*, OpaqueEventRef*)
PUBLIC e5632 0 HITextField::HandleAXIsNamedAttributeSettable(unsigned long long, OpaqueEventHandlerCallRef*, OpaqueEventRef*)
PUBLIC e56f5 0 AttributeDictionaryApplierFunction(void const*, void const*, void*)
PUBLIC e5740 0 HITextField::GetAXAttributeNameAndID(OpaqueEventRef*, __CFString const**, unsigned int*)
PUBLIC e57af 0 CreateWindowHeaderControl
PUBLIC e5833 0 _HIWindowHeaderCreateWithClass
PUBLIC e58de 0 HIWindowHeaderView::Construct(OpaqueHIObjectRef*)
PUBLIC e5926 0 HIWindowHeaderView::HIWindowHeaderView(OpaqueHIObjectRef*)
PUBLIC e5996 0 HIWindowHeaderView::~HIWindowHeaderView()
PUBLIC e59a0 0 HIWindowHeaderView::~HIWindowHeaderView()
PUBLIC e59ce 0 HIWindowHeaderView::GetKindSelf()
PUBLIC e59de 0 HIWindowHeaderView::GetBehaviors()
PUBLIC e59ee 0 HIWindowHeaderView::Initialize(OpaqueEventRef*)
PUBLIC e5a42 0 HIWindowHeaderView::GetPartRegionOrShapeSelf(short, OpaqueRgnHandle*, __HIShape const**)
PUBLIC e5b68 0 HIWindowHeaderView::DrawSelf(short, __HIShape const*, CGContext*)
PUBLIC e5c18 0 HIWindowHeaderView::PrintDebugInfo(HIDebugLog&)
PUBLIC e5c58 0 HIWindowHeaderView::ApplyTextColorSelf(CGContext*, bool, OpaqueEventRef*)
PUBLIC e5c96 0 HIWindowHeaderView::GetDataSelf(unsigned int, short, long, long*, void*)
PUBLIC e5cd2 0 HIWindowHeaderView::SetDataSelf(unsigned int, short, long, void const*)
PUBLIC e5d1f 0 CreateGroupBoxControl
PUBLIC e5dad 0 _HIGroupBoxCreateWithClass
PUBLIC e5e8a 0 HIGroupBox::HIGroupBox(OpaqueHIObjectRef*)
PUBLIC e5f26 0 HIGroupBox::~HIGroupBox()
PUBLIC e5f6e 0 HIGroupBox::~HIGroupBox()
PUBLIC e5f78 0 HIGroupBox::~HIGroupBox()
PUBLIC e5fa6 0 HIGroupBox::Construct(OpaqueHIObjectRef*)
PUBLIC e5fe4 0 HIGroupBox::Initialize(OpaqueEventRef*)
PUBLIC e605e 0 HIGroupBox::InitializeFromArchive(OpaqueEventRef*, OpaqueHIArchiveRef*)
PUBLIC e60ea 0 HIGroupBox::Encode(OpaqueHIArchiveRef*)
PUBLIC e613a 0 HIGroupBox::GetKindSelf()
PUBLIC e614a 0 HIGroupBox::GetBehaviors()
PUBLIC e6170 0 HIGroupBox::GetPartRegionOrShapeSelf(short, OpaqueRgnHandle*, __HIShape const**)
PUBLIC e6368 0 HIGroupBox::CalcTitleRect(CGRect*, Rect*, float*)
PUBLIC e667e 0 HIGroupBox::TitleChangedSelf()
PUBLIC e6690 0 HIGroupBox::BoundsChangedSelf(unsigned int, CGRect const&, CGRect const&)
PUBLIC e66a4 0 HIGroupBox::GetAccessibleRoleSelf(unsigned long long)
PUBLIC e66cc 0 HIGroupBox::GetAccessibleChildrenSelf(unsigned long long, __CFArray*)
PUBLIC e6768 0 HIGroupBox::CopyTitleIfAvailable()
PUBLIC e67ae 0 HIGroupBox::GetAccessibleParentSelf(unsigned long long, __AXUIElement const**)
PUBLIC e67f8 0 HIGroupBox::GetAllAccessibleAttributeNamesSelf(unsigned long long, __CFArray*)
PUBLIC e68c6 0 HIGroupBox::GetNamedAccessibleAttributeSelf(unsigned long long, __CFString const*, unsigned int, OpaqueEventRef*)
PUBLIC e6ad4 0 HIGroupBox::IsNamedAccessibleAttributeSettableSelf(unsigned long long, __CFString const*, unsigned int, unsigned char*)
PUBLIC e6b0a 0 HIGroupBox::GetAccessibleChildAtPointSelf(unsigned long long, CGPoint const&, __AXUIElement const**)
PUBLIC e6ba8 0 HIGroupBox::DrawSelf(short, __HIShape const*, CGContext*)
PUBLIC e6cec 0 HIGroupBox::DrawTextTitle(CGContext*, CGRect const*)
PUBLIC e6d84 0 HIGroupBox::GetTitleDimensions(__CFString const*, float, HIThemeTextInfo*, CGSize*, float*)
PUBLIC e6e0a 0 HIGroupBox::GetDataSelf(unsigned int, short, long, long*, void*)
PUBLIC e6f5a 0 HIGroupBox::SetDataSelf(unsigned int, short, long, void const*)
PUBLIC e6fa4 0 HIGroupBox::IsSizeAllowedSelf(unsigned short)
PUBLIC e6fc0 0 HIGroupBox::GetFontStyleForPartSelf(short, short*)
PUBLIC e6fda 0 HIGroupBox::CalculateHIThemeTextInfoForPartSelf(short, HIThemeTextInfo*, unsigned char)
PUBLIC e7030 0 HIGroupBox::PrintDebugInfo(HIDebugLog&)
PUBLIC e70c0 0 _HIClipViewCreate
PUBLIC e70f8 0 HIClipView::Create(HIClipView**)
PUBLIC e718c 0 HIClipView::Construct(OpaqueHIObjectRef*)
PUBLIC e71d4 0 HIClipView::HIClipView(OpaqueHIObjectRef*)
PUBLIC e7246 0 HIClipView::~HIClipView()
PUBLIC e7250 0 HIClipView::~HIClipView()
PUBLIC e727e 0 HIClipView::Initialize(OpaqueEventRef*)
PUBLIC e7288 0 HIClipView::PrintDebugInfo(HIDebugLog&)
PUBLIC e72b6 0 HIClipView::GetPartHitSelf(CGPoint const&)
PUBLIC e7336 0 HIClipView::GetKindSelf()
PUBLIC e7346 0 HIClipView::GetSizeConstraintsSelf(CGSize*, CGSize*)
PUBLIC e7382 0 HIClipView::GetSubviewExtents()
PUBLIC e7646 0 HIClipView::SubviewAddedSelf(HIView*)
PUBLIC e7650 0 HIClipView::SubviewRemovedSelf(HIView*)
PUBLIC e765a 0 HIClipView::ScrollToLocationSelf(CGPoint const&)
PUBLIC e7680 0 HIClipView::GetScrollingInfoSelf(CGSize*, CGSize*, CGSize*, CGPoint*)
PUBLIC e7724 0 HIContentView::~HIContentView()
PUBLIC e772e 0 HIContentView::~HIContentView()
PUBLIC e776a 0 HIContentView::GetKindSelf()
PUBLIC e777a 0 HIContentView::GetPartHitSelf(CGPoint const&)
PUBLIC e77d4 0 HIContentView::GetInsetBounds(CGRect*)
PUBLIC e7892 0 HIContentView::DrawSelf(short, __HIShape const*, CGContext*)
PUBLIC e7c68 0 HIContentView::SetBorderMetrics(HIContentBorderMetrics)
PUBLIC e7d32 0 HIContentView::SetCGColor(CGColor*)
PUBLIC e7dce 0 HIContentView::GetDataSelf(unsigned int, short, long, long*, void*)
PUBLIC e7dd8 0 HIContentView::SetDataSelf(unsigned int, short, long, void const*)
PUBLIC e7eb8 0 HIContentView::SetColor(RGBColor const&)
PUBLIC e7fbe 0 HIContentView::SetThemeBrush(short)
PUBLIC e805e 0 HIContentView::PrintDebugInfo(HIDebugLog&)
PUBLIC e8158 0 HIContentView::InvalidateForSizeChangeSelf(CGRect const&, CGRect const&)
PUBLIC e84a8 0 TDualIconTextViewAccessibility::Construct(OpaqueHIObjectRef*)
PUBLIC e8516 0 TDualIconTextViewAccessibility::ClassEventHandler(OpaqueEventHandlerCallRef*, OpaqueEventRef*, void*)
PUBLIC e8530 0 TDualIconTextViewAccessibility::GetAccessibleParentSelf(unsigned long long, __AXUIElement const**)
PUBLIC e856e 0 TDualIconTextViewAccessibility::GetAccessibleRoleSelf(unsigned long long)
PUBLIC e85a8 0 TDualIconTextViewAccessibility::CopyAccessibleRoleDescriptionSelf(unsigned long long)
PUBLIC e85be 0 TDualIconTextViewAccessibility::GetAllAccessibleAttributeNamesSelf(unsigned long long, __CFArray*)
PUBLIC e866a 0 TDualIconTextViewAccessibility::GetNamedAccessibleAttributeSelf(unsigned long long, __CFString const*, unsigned int, OpaqueEventRef*)
PUBLIC e8838 0 TDualIconTextViewAccessibility::GetAllAccessibleActionNamesSelf(unsigned long long, __CFArray*)
PUBLIC e8862 0 TDualIconTextViewAccessibility::CopyAccessibleActionDescriptionSelf(unsigned long long, __CFString const*, unsigned int, __CFString const**)
PUBLIC e88ca 0 TDualIconTextViewAccessibility::PerformAccessibleActionSelf(unsigned long long, __CFString const*, unsigned int, unsigned char)
PUBLIC e8932 0 TDualIconTextViewAccessibility::EventHandler(OpaqueEventHandlerCallRef*, OpaqueEventRef*)
PUBLIC e8a4c 0 TDualIconTextViewAccessibility::HandleTextFieldGetAllAttributeNames(unsigned long long, OpaqueEventHandlerCallRef*, OpaqueEventRef*)
PUBLIC e8be2 0 TDualIconTextViewAccessibility::HandleTextFieldGetNamedAttribute(unsigned long long, OpaqueEventHandlerCallRef*, OpaqueEventRef*)
PUBLIC e9088 0 TDualIconTextViewAccessibility::HandleTextFieldSetNamedAttribute(unsigned long long, OpaqueEventHandlerCallRef*, OpaqueEventRef*)
PUBLIC e912e 0 TDualIconTextViewAccessibility::HandleTextFieldGetChildAtPoint(unsigned long long, OpaqueEventHandlerCallRef*, OpaqueEventRef*)
PUBLIC e9258 0 TDualIconTextViewAccessibility::HandleTextFieldIsNamedAttributeSettable(unsigned long long, OpaqueEventHandlerCallRef*, OpaqueEventRef*)
PUBLIC e92b8 0 TDualIconTextViewAccessibility::HandleTextFieldGetAllActionNames(OpaqueEventHandlerCallRef*, OpaqueEventRef*)
PUBLIC e935c 0 TDualIconTextViewAccessibility::HandleTextFieldPerformNamedAction(OpaqueEventHandlerCallRef*, OpaqueEventRef*)
PUBLIC e9454 0 TDualIconTextViewAccessibility::GetAXAttributeNameAndID(OpaqueEventRef*, __CFString const**, unsigned int*)
PUBLIC e94a8 0 HIDualIconTextView::HIDualIconTextView(OpaqueHIObjectRef*)
PUBLIC e9566 0 HIDualIconTextView::~HIDualIconTextView()
PUBLIC e95b4 0 HIDualIconTextView::~HIDualIconTextView()
PUBLIC e95be 0 HIDualIconTextView::~HIDualIconTextView()
PUBLIC e95ec 0 HIDualIconTextView::HandleTextAccepted()
PUBLIC e9632 0 HIDualIconTextView::Initialize(OpaqueEventRef*)
PUBLIC e96d8 0 HIDualIconTextView::InitializeCommon(__CFString const*, ControlFontStyleRec)
PUBLIC e9802 0 HIDualIconTextView::InitializeFromArchive(OpaqueEventRef*, OpaqueHIArchiveRef*)
PUBLIC e9860 0 HIDualIconTextView::ClassTextInputEventHandler(OpaqueEventHandlerCallRef*, OpaqueEventRef*, void*)
PUBLIC e9896 0 HIDualIconTextView::ClassSyncBoundsCallback(HIView*)
PUBLIC e98a0 0 HIDualIconTextView::Encode(OpaqueHIArchiveRef*)
PUBLIC e98aa 0 HIDualIconTextView::PrintDebugInfo(HIDebugLog&)
PUBLIC e98c2 0 HIDualIconTextView::GetBehaviors()
PUBLIC e98d2 0 HIDualIconTextView::GetPartHitSelf(CGPoint const&)
PUBLIC e997c 0 HIDualIconTextView::TrackSelf(OpaqueEventRef*, short*)
PUBLIC e9b92 0 HIDualIconTextView::TextPartHasFocus()
PUBLIC e9bac 0 HIDualIconTextView::SimulateHitSelf(short, unsigned int, short*)
PUBLIC e9d2e 0 HIDualIconTextView::GetDataSelf(unsigned int, short, long, long*, void*)
PUBLIC e9e6c 0 HIDualIconTextView::SetDataSelf(unsigned int, short, long, void const*)
PUBLIC e9fe2 0 HIDualIconTextView::GetOptimalSizeSelf(CGSize*, float*)
PUBLIC ea10e 0 HIDualIconTextView::GetPartRegionOrShapeSelf(short, OpaqueRgnHandle*, __HIShape const**)
PUBLIC ea224 0 HIDualIconTextView::BoundsChangedSelf(unsigned int, CGRect const&, CGRect const&)
PUBLIC ea22e 0 HIDualIconTextView::SyncBounds()
PUBLIC ea292 0 HIDualIconTextView::ActivationChangedSelf()
PUBLIC ea30c 0 HIDualIconTextView::VisibilityChangedSelf()
PUBLIC ea33a 0 HIDualIconTextView::DrawSelf(short, __HIShape const*, CGContext*)
PUBLIC ea4c6 0 HIDualIconTextView::DrawTextField(CGContext*, CGRect const&)
PUBLIC ea502 0 HIDualIconTextView::SetFocusPartSelf(short, unsigned char, short*)
PUBLIC ea77c 0 HIDualIconTextView::AcceptTextInputSelf(unsigned short, unsigned int, OpaqueEventRef*)
PUBLIC ea7ec 0 HIDualIconTextView::SizeChangedSelf()
PUBLIC ea7f6 0 HIDualIconTextView::GetAccessibleChildrenSelf(unsigned long long, __CFArray*)
PUBLIC ea85e 0 HIDualIconTextView::GetTextAXObject()
PUBLIC ea910 0 HIDualIconTextView::GetAccessibleChildAtPointSelf(unsigned long long, CGPoint const&, __AXUIElement const**)
PUBLIC ea952 0 HIDualIconTextView::GetAccessibleChildAtFocusSelf(unsigned long long, __AXUIElement const**)
PUBLIC ea994 0 HIDualIconTextView::CopyAccessibilityRoleDescription()
PUBLIC ea9c2 0 HIDualIconTextView::GetTotalBounds(CGRect*)
PUBLIC eaa08 0 HIDualIconTextView::GetViewFrameBounds(CGRect*)
PUBLIC eaa4e 0 HIDualIconTextView::GetLeftIconBounds(CGRect*)
PUBLIC eaa7c 0 HIDualIconTextView::GetRightIconBounds(CGRect*)
PUBLIC eaaaa 0 HIDualIconTextView::GetTextFieldBounds(CGRect*)
PUBLIC eaaf0 0 TDualIconTextViewAccessibility::~TDualIconTextViewAccessibility()
PUBLIC eab2c 0 HIDualIconTextView::GetAccessibilityRole()
PUBLIC eab48 0 HIDualIconTextView::DrawAdornment(CGContext*)
PUBLIC eab50 0 HIDrawerContentView::HIDrawerContentView(OpaqueHIObjectRef*)
PUBLIC eabb6 0 HIDrawerContentView::Create(OpaqueControlRef**)
PUBLIC eac38 0 HIDrawerContentView::Construct(OpaqueHIObjectRef*)
PUBLIC eac76 0 HIDrawerContentView::DrawSelf(short, __HIShape const*, CGContext*)
PUBLIC ead70 0 HIDrawerFrameView::ParentChanged(OpaqueWindowPtr*)
PUBLIC eadd8 0 HIDrawerFrameView::Create(OpaqueControlRef**)
PUBLIC eae4a 0 HIDrawerFrameView::PrintDebugInfo(HIDebugLog&)
PUBLIC eae78 0 HIDrawerFrameView::Construct(OpaqueHIObjectRef*)
PUBLIC eaec0 0 HIDrawerFrameView::HIDrawerFrameView(OpaqueHIObjectRef*)
PUBLIC eaf66 0 HIDrawerFrameView::~HIDrawerFrameView()
PUBLIC eafb6 0 HIDrawerFrameView::~HIDrawerFrameView()
PUBLIC eafc0 0 HIDrawerFrameView::~HIDrawerFrameView()
PUBLIC eafee 0 HIDrawerFrameView::GetKindSelf()
PUBLIC eaffe 0 HIDrawerFrameView::Initialize(OpaqueEventRef*)
PUBLIC eb082 0 HIDrawerFrameView::EventHandler(OpaqueEventHandlerCallRef*, OpaqueEventRef*, void*)
PUBLIC eb184 0 HIDrawerFrameView::AdjustTrackingAreas()
PUBLIC eb33e 0 HIDrawerFrameView::AttributesChanged()
PUBLIC eb396 0 HIDrawerFrameView::GetBehaviors()
PUBLIC eb3a4 0 HIDrawerFrameView::BoundsChangedSelf(unsigned int, CGRect const&, CGRect const&)
PUBLIC eb41c 0 HIDrawerFrameView::ConvertToContentFrame(CGRect*)
PUBLIC eb4da 0 HIDrawerFrameView::OwningWindowChangedSelf(OpaqueWindowPtr*, OpaqueWindowPtr*)
PUBLIC eb5ea 0 HIDrawerFrameView::SetMetal(bool)
PUBLIC eb634 0 HIDrawerFrameView::GetFrameMetricsSelf(HIViewFrameMetrics*)
PUBLIC eb7cc 0 HIDrawerFrameView::IsMetal()
PUBLIC eb804 0 HIDrawerFrameView::GetPartRegionOrShapeSelf(short, OpaqueRgnHandle*, __HIShape const**)
PUBLIC ebad8 0 HIDrawerFrameView::GetGrowImageRegion(Rect const&, OpaqueRgnHandle*)
PUBLIC ebbee 0 HIDrawerFrameView::GetPartHitSelf(CGPoint const&)
PUBLIC ebc78 0 HIDrawerFrameView::TrackSelf(OpaqueEventRef*, short*)
PUBLIC ebdfc 0 HIDrawerFrameView::GetResizeBounds(CGRect*)
PUBLIC ebfa0 0 HIDrawerFrameView::DrawSelf(short, __HIShape const*, CGContext*)
PUBLIC ec170 0 HIDrawerFrameView::TrackingAreaEnteredSelf(OpaqueHIViewTrackingAreaRef*)
PUBLIC ec20e 0 HIDrawerFrameView::TrackingAreaExitedSelf(OpaqueHIViewTrackingAreaRef*)
PUBLIC ec23c 0 HIDrawerContentView::~HIDrawerContentView()
PUBLIC ec246 0 HIDrawerContentView::~HIDrawerContentView()
PUBLIC ec280 0 HIFocusableView::HIFocusableView(OpaqueHIObjectRef*)
PUBLIC ec2e6 0 HIFocusableView::~HIFocusableView()
PUBLIC ec2f0 0 HIFocusableView::~HIFocusableView()
PUBLIC ec2fa 0 HIFocusableView::~HIFocusableView()
PUBLIC ec328 0 HIFocusableView::SetFocusPartSimple(short, unsigned char, unsigned char, short, short, short, short*)
PUBLIC ec4ba 0 HIFocusableView::AcceptTextInputSimple(unsigned short, unsigned int)
PUBLIC ec508 0 HIImageContent::HIImageContent()
PUBLIC ec520 0 HIImageContent::Release()
PUBLIC ec550 0 HIImageContent::~HIImageContent()
PUBLIC ec580 0 HIImageContent::SetStruct(HIViewAllImageContent const*)
PUBLIC ec5c8 0 HIImageContent::GetSizeForBounds(OpaqueControlRef*, CGRect const&, bool)
PUBLIC ec700 0 HIImageContent::LoadContent()
PUBLIC ec840 0 HIImageContent::GetIconSize(CGRect const&, bool)
PUBLIC eca42 0 HIImageContent::GetFileImageSize()
PUBLIC ecafa 0 HIImageContent::GetAlertIconResSize(OpaqueControlRef*)
PUBLIC ecb74 0 HIImageContent::HasContent()
PUBLIC ecb92 0 HIImageContent::GetContentType() const
PUBLIC ecb9c 0 HIImageContent::Encode(OpaqueHIArchiveRef*)
PUBLIC ecbc4 0 HIImageContent::Decode(OpaqueHIArchiveRef*)
PUBLIC ecc14 0 HIImageContent::Draw(OpaqueControlRef*, CGContext*, CGRect const&, short, short)
PUBLIC ecdb8 0 HIImageContent::MustFlipContext()
PUBLIC ece10 0 HIImageContent::DrawFileImage(CGContext*, CGRect const&, short)
PUBLIC ecee0 0 HIImageContent::DrawCGImageWithTransform(CGImage*, CGContext*, CGRect const&, short)
PUBLIC ecfee 0 HIImageContent::CreateImageSourceForFileData()
PUBLIC ed052 0 HIImageContent::GetImageIndexForDPI(CGImageSource*, int, __CFDictionary const**)
PUBLIC ed21a 0 HIImageContent::GetIconStats()
PUBLIC ed278 0 HIImageContent::GetIconStatsFromIconRef(OpaqueIconRef*)
PUBLIC ed32a 0 HIImageContent::GetCGImage()
PUBLIC ed352 0 HIImageContent::IsSpecialIcon(unsigned int)
PUBLIC ed432 0 HIImageContent::DrawsAsIcon()
PUBLIC ed454 0 HIImageContent::PrintDebugInfo(HIDebugLog&)
PUBLIC ed63a 0 HIGrowBoxView::Create(bool, OpaqueControlRef**)
PUBLIC ed6e5 0 HIGrowBoxViewSetTransparent
PUBLIC ed718 0 HIGrowBoxView::SetTransparent(bool)
PUBLIC ed729 0 HIGrowBoxViewIsTransparent
PUBLIC ed746 0 HIGrowBoxView::Construct(OpaqueHIObjectRef*)
PUBLIC ed7b0 0 HIGrowBoxView::~HIGrowBoxView()
PUBLIC ed7ba 0 HIGrowBoxView::~HIGrowBoxView()
PUBLIC ed7e8 0 HIGrowBoxView::Initialize(OpaqueEventRef*)
PUBLIC ed854 0 HIGrowBoxView::GetKindSelf()
PUBLIC ed864 0 HIGrowBoxView::DrawSelf(short, __HIShape const*, CGContext*)
PUBLIC ed998 0 HIGrowBoxView::CreateImage()
PUBLIC eda1c 0 HIGrowBoxView::PrintDebugInfo(HIDebugLog&)
PUBLIC eda4a 0 HIGrowBoxView::GetOptimalSizeSelf(CGSize*, float*)
PUBLIC edb2e 0 HIGrowBoxView::GetPartRegionOrShapeSelf(short, OpaqueRgnHandle*, __HIShape const**)
PUBLIC edb5a 0 HIGrowBoxView::GetPartHitSelf(CGPoint const&)
PUBLIC edbc4 0 HIGrowBoxView::TrackSelf(OpaqueEventRef*, short*)
PUBLIC edc5e 0 HIGrowBoxView::GetClickActivationSelf(OpaqueEventRef*, unsigned int*)
PUBLIC edcde 0 HIGrowBoxView::SetBaroloFullScreenModeChromeless(bool)
PUBLIC edcf0 0 HIGrowBoxView::GetDataSelf(unsigned int, short, long, long*, void*)
PUBLIC edd2c 0 HIGrowBoxView::SetDataSelf(unsigned int, short, long, void const*)
PUBLIC edd60 0 HIGrowBoxView::GetAccessibleRoleSelf(unsigned long long)
PUBLIC edd76 0 HIImageView::Create(__CFString const*, OpaqueEventRef*, CGImage*, OpaqueControlRef**)
PUBLIC ede2a 0 _HIImageViewCreateWithClass
PUBLIC ede40 0 HIImageViewSetOpaque
PUBLIC ede6e 0 HIImageView::SetOpaque(unsigned char)
PUBLIC edef7 0 HIImageViewSetAlpha
PUBLIC edf42 0 HIImageView::SetAlpha(double)
PUBLIC edf9c 0 HIImageViewSetScaleToFit
PUBLIC edfca 0 HIImageView::SetScaleToFit(unsigned char)
PUBLIC ee043 0 HIImageViewSetAutoTransform
PUBLIC ee070 0 HIImageView::SetAutoTransform(unsigned int)
PUBLIC ee0e2 0 HIImageView::Construct(OpaqueHIObjectRef*)
PUBLIC ee12a 0 HIImageView::HIImageView(OpaqueHIObjectRef*)
PUBLIC ee1dc 0 HIImageView::Initialize(OpaqueEventRef*)
PUBLIC ee27a 0 HIImageView::InitializeFromArchive(OpaqueEventRef*, OpaqueHIArchiveRef*)
PUBLIC ee3c2 0 HIImageView::Encode(OpaqueHIArchiveRef*)
PUBLIC ee4a0 0 HIImageView::DrawSelf(short, __HIShape const*, CGContext*)
PUBLIC ee6e8 0 HIImageView::GetPartHitSelf(CGPoint const&)
PUBLIC ee746 0 HIImageView::PrintDebugInfo(HIDebugLog&)
PUBLIC ee830 0 HIImageView::GetKindSelf()
PUBLIC ee840 0 HIImageView::GetSizeConstraintsSelf(CGSize*, CGSize*)
PUBLIC ee86e 0 HIImageView::GetOptimalSizeSelf(CGSize*, float*)
PUBLIC ee898 0 HIImageView::ScrollToLocationSelf(CGPoint const&)
PUBLIC ee8f6 0 HIImageView::GetScrollingInfoSelf(CGSize*, CGSize*, CGSize*, CGPoint*)
PUBLIC eea3e 0 HIImageView::GetPartRegionOrShapeSelf(short, OpaqueRgnHandle*, __HIShape const**)
PUBLIC eeb54 0 HIImageView::UpdateOpaqueness(unsigned char)
PUBLIC eebaa 0 HIImageView::GetImageSize()
PUBLIC eec1c 0 HIImageView::SetImageContent(HIViewAllImageContent const*)
PUBLIC eec84 0 HIImageView::GetDataSelf(unsigned int, short, long, long*, void*)
PUBLIC eee1e 0 HIImageView::SetDataSelf(unsigned int, short, long, void const*)
PUBLIC eef0a 0 HIImageView::GetAccessibleRoleSelf(unsigned long long)
PUBLIC eef18 0 HIImageView::~HIImageView()
PUBLIC eef60 0 HIImageView::~HIImageView()
PUBLIC eefc2 0 HIPlainWindowView::PrintDebugInfo(HIDebugLog&)
PUBLIC eeff6 0 HIPlainWindowView::~HIPlainWindowView()
PUBLIC ef000 0 HIPlainWindowView::~HIPlainWindowView()
PUBLIC ef02e 0 HIPlainWindowView::GetKindSelf()
PUBLIC ef040 0 HIPlainWindowView::DrawSelf(short, __HIShape const*, CGContext*)
PUBLIC ef3f0 0 HIMenuWindowView::Create(OpaqueMenuRef*, OpaqueControlRef**)
PUBLIC ef464 0 HIMenuWindowView::PrintDebugInfo(HIDebugLog&)
PUBLIC ef4a0 0 HIMenuWindowView::~HIMenuWindowView()
PUBLIC ef4b8 0 HIMenuWindowView::GetKindSelf()
PUBLIC ef4d2 0 _HIMenuCreateDarkPath(CGRect const*, _HIThemeMenuDrawInfo const*, int)
PUBLIC ef5d8 0 _HIMenuWindowSetBlur(OpaqueWindowPtr*, unsigned char, unsigned char)
PUBLIC ef61c 0 HIViewCast<HIMenuView>::Cast(OpaqueControlRef*, __CFString const*)
PUBLIC ef628 0 HIViewCast<HIMenuWindowView>::Cast(OpaqueControlRef*, __CFString const*)
PUBLIC ef656 0 _HIMenuWindowHandleThemeChange(OpaqueWindowPtr*)
PUBLIC ef6ae 0 HIMenuWindowView::HandleThemeChange()
PUBLIC ef744 0 HIMenuContentView::PrintDebugInfo(HIDebugLog&)
PUBLIC ef778 0 HIMenuContentView::~HIMenuContentView()
PUBLIC ef78a 0 HIMenuContentView::InvalidateForSizeChangeSelf(CGRect const&, CGRect const&)
PUBLIC ef810 0 HIMenuViewGetMenu
PUBLIC ef84e 0 HIBaseMenuView::~HIBaseMenuView()
PUBLIC ef858 0 HIBaseMenuView::~HIBaseMenuView()
PUBLIC ef88e 0 HIBaseMenuView::PrintDebugInfo(HIDebugLog&)
PUBLIC ef8f6 0 HIBaseMenuView::EnsureSelectionBackdropForItemShape(__HIShape const*)
PUBLIC efbd0 0 HIBaseMenuView::CreateFrameViewSelf(OpaqueEventRef*, OpaqueControlRef**)
PUBLIC efbdc 0 HIBaseMenuView::GetFrameBoundsSelf(unsigned short, unsigned char, OpaqueControlRef*, unsigned int*, CGRect const*, unsigned int, CGRect const*, __HIShape const*, OpaqueMenuRef*, unsigned short, unsigned int, unsigned short, CGRect const*, CGRect*, CGPoint*)
PUBLIC efbea 0 HIBaseMenuView::AdjustFrameBoundsForScrollSelf(CGPoint const&, CGPoint&, CGRect const&)
PUBLIC efbf0 0 _HIMenuViewRegisterClass
PUBLIC efc20 0 HIMenuView::Construct(OpaqueHIObjectRef*)
PUBLIC efc72 0 HIMenuView::~HIMenuView()
PUBLIC efc7c 0 HIMenuView::~HIMenuView()
PUBLIC efcaa 0 HIMenuView::PrintDebugInfo(HIDebugLog&)
PUBLIC efcd8 0 HIMenuView::GetKindSelf()
PUBLIC efcf2 0 HIMenuView::GetPullDownFrame(CGSize const*, float, float, CGRect const*, unsigned int, CGRect const*, __HIShape const*, unsigned int*, CGRect*)
PUBLIC effaa 0 HIMenuView::AdjustFrameBoundsForScrollSelf(CGPoint const&, CGPoint&, CGRect const&)
PUBLIC f0450 0 LeastMaxXProc(int, __HIShape const*, CGRect const*, void*)
PUBLIC f047d 0 GreatestMinXProc(int, __HIShape const*, CGRect const*, void*)
PUBLIC f04a6 0 LeastWidthProc(int, __HIShape const*, CGRect const*, void*)
PUBLIC f04d2 0 HIStandardMenuView::~HIStandardMenuView()
PUBLIC f04e6 0 HIStandardMenuView::DrawItemContent(CGRect const*, float, float, unsigned int, short, CGContext*, OpaqueCUIRendererRef*)
PUBLIC f1802 0 HIStandardMenuView::PrintDebugInfo(HIDebugLog&)
PUBLIC f1836 0 HIStandardMenuView::RemoveNewItemsBackdrop(ItemLayout*, unsigned char)
PUBLIC f188b 0 __copy_helper_block_
PUBLIC f18a2 0 __destroy_helper_block_
PUBLIC f18be 0 HIStandardMenuView::DrawCmdKeyModifiers(unsigned int, unsigned char, int, CGRect const*, float, unsigned short, __CTFont const*, unsigned int, CGContext*, TextLayout const*, float*)
PUBLIC f1b75 0 GetCommandKeyWritingDirection(int)
PUBLIC f1bf2 0 HIStandardMenuView::DrawNewItems(CGContext*, CGRect const*, unsigned int, OpaqueCUIRendererRef*)
PUBLIC f1f04 0 HIStandardMenuView::CheckForVirtualKey(unsigned int*, unsigned short**)
PUBLIC f1fa4 0 CharFromVirtualKey(unsigned short, unsigned int, unsigned char*)
PUBLIC f20d4 0 HIStandardMenuView::OwningWindowChangedSelf(OpaqueWindowPtr*, OpaqueWindowPtr*)
PUBLIC f20da 0 HIStandardMenuView::MeasureCmdKeyModifiers(unsigned int, unsigned short, __CTFont const*, unsigned char, int, TextLayout*)
PUBLIC f22a7 0 GetCmdKeyString(unsigned int, unsigned char, int)
PUBLIC f25b6 0 HIMenuBarFrameView::~HIMenuBarFrameView()
PUBLIC f25c0 0 HIMenuBarFrameView::~HIMenuBarFrameView()
PUBLIC f25fa 0 HIMenuBarFrameView::GetKindSelf()
PUBLIC f260a 0 HIMenuBarFrameView::PrintDebugInfo(HIDebugLog&)
PUBLIC f263a 0 HIMenuBarView::~HIMenuBarView()
PUBLIC f26c4 0 HIMenuBarView::~HIMenuBarView()
PUBLIC f26ce 0 HIMenuBarView::~HIMenuBarView()
PUBLIC f26fc 0 HIMenuBarView::Initialize(OpaqueEventRef*)
PUBLIC f2754 0 HIMenuBarView::PrintDebugInfo(HIDebugLog&)
PUBLIC f278c 0 HIMenuBarView::FocusMovingFromMenuToBar()
PUBLIC f27dc 0 HIMenuBarView::DrawIconTitle(MenuData*, CGRect const*, unsigned int, void*, unsigned short, CGContext*)
PUBLIC f2990 0 HIMenuBarView::CalcIconBounds(MenuData*, CGRect*, unsigned int, void*)
PUBLIC f2a9c 0 HIMenuBarView::TruncateWidestMenuTitle()
PUBLIC f2c56 0 HIMenuBarView::SetCondensed(unsigned char, float)
PUBLIC f2cfc 0 HIMenuBarView::GetAvailableSpace(CGRect*)
PUBLIC f2d7c 0 HIMenuBarView::TrackSelf(OpaqueEventRef*, short*)
PUBLIC f2e3e 0 ___ZN13HIMenuBarView14CustomTrackingE7CGPoint_block_invoke
PUBLIC f2e48 0 _HIMenuBarViewFocusMovingFromMenuToBar(OpaqueControlRef*)
PUBLIC f2e70 0 HIScrollViewCreate
PUBLIC f2e94 0 _HIScrollViewCreateWithClass
PUBLIC f2eaa 0 HIScrollView::Create(__CFString const*, OpaqueEventRef*, unsigned int, OpaqueControlRef**)
PUBLIC f2f61 0 HIScrollViewSetScrollBarAutoHide
PUBLIC f2f94 0 HIScrollView::SetScrollBarAutoHide(bool)
PUBLIC f2fd0 0 HIScrollViewGetScrollBarAutoHide
PUBLIC f2fed 0 HIScrollViewSetAllowGrow
PUBLIC f3020 0 HIScrollView::SetAllowGrowBox(bool)
PUBLIC f305c 0 HIScrollViewGetAllowGrow
PUBLIC f307b 0 _HIScrollViewRegisterClass
PUBLIC f30aa 0 HIScrollView::Construct(OpaqueHIObjectRef*)
PUBLIC f30f2 0 HIScrollView::HIScrollView(OpaqueHIObjectRef*)
PUBLIC f31ac 0 HIScrollView::EventHandler(OpaqueEventHandlerCallRef*, OpaqueEventRef*, void*)
PUBLIC f33bc 0 HIScrollView::~HIScrollView()
PUBLIC f341a 0 HIScrollView::~HIScrollView()
PUBLIC f3424 0 HIScrollView::~HIScrollView()
PUBLIC f3452 0 HIScrollView::InitializeFromArchive(OpaqueEventRef*, OpaqueHIArchiveRef*)
PUBLIC f34fe 0 HIScrollView::InitializeCommon(unsigned int)
PUBLIC f3664 0 HIScrollView::Initialize(OpaqueEventRef*)
PUBLIC f36bc 0 HIScrollView::VertScrollProc(OpaqueControlRef*, short)
PUBLIC f37bc 0 HIScrollView::HorizScrollProc(OpaqueControlRef*, short)
PUBLIC f38b8 0 HIScrollView::Encode(OpaqueHIArchiveRef*)
PUBLIC f3972 0 HIScrollView::DrawSelf(short, __HIShape const*, CGContext*)
PUBLIC f3a92 0 HIScrollView::PrintDebugInfo(HIDebugLog&)
PUBLIC f3b60 0 HIScrollView::GetBehaviors()
PUBLIC f3b6e 0 HIScrollView::GetPartHitSelf(CGPoint const&)
PUBLIC f3bee 0 HIScrollView::GetKindSelf()
PUBLIC f3bfe 0 HIScrollView::GetSizeConstraintsSelf(CGSize*, CGSize*)
PUBLIC f3cc6 0 HIScrollView::BindToSubView(HIView*)
PUBLIC f3d64 0 HIScrollView::AdjustScrollBarBounds()
PUBLIC f408e 0 HIScrollView::AdjustTargetViewBounds()
PUBLIC f417a 0 HIScrollView::GetTargetInfo()
PUBLIC f4284 0 HIScrollView::TargetEventHandler(OpaqueEventHandlerCallRef*, OpaqueEventRef*, void*)
PUBLIC f4432 0 HIScrollView::BoundsChangedSelf(unsigned int, CGRect const&, CGRect const&)
PUBLIC f44ec 0 HIScrollView::SendScrollTo(CGPoint const&)
PUBLIC f4598 0 HIScrollView::ScrollVertical(float)
PUBLIC f4646 0 HIScrollView::ScrollHorizontal(float)
PUBLIC f46f4 0 HIScrollView::SubviewAddedSelf(HIView*)
PUBLIC f4764 0 HIScrollView::SubviewRemovedSelf(HIView*)
PUBLIC f480a 0 HIScrollView::GetDataSelf(unsigned int, short, long, long*, void*)
PUBLIC f488c 0 HIScrollView::SetDataSelf(unsigned int, short, long, void const*)
PUBLIC f493c 0 HIScrollView::IsSizeAllowedSelf(unsigned short)
PUBLIC f4950 0 HIScrollView::SizeChangedSelf()
PUBLIC f49e4 0 HIScrollView::GetAccessibleRoleSelf(unsigned long long)
PUBLIC f49f2 0 HIScrollView::GetAllAccessibleAttributeNamesSelf(unsigned long long, __CFArray*)
PUBLIC f4a78 0 HIScrollView::GetNamedAccessibleAttributeSelf(unsigned long long, __CFString const*, unsigned int, OpaqueEventRef*)
PUBLIC f4bbe 0 HIScrollView::IsNamedAccessibleAttributeSettableSelf(unsigned long long, __CFString const*, unsigned int, unsigned char*)
PUBLIC f4bf0 0 HISearchField::HISearchField(OpaqueHIObjectRef*)
PUBLIC f4c96 0 HISearchField::~HISearchField()
PUBLIC f4cf4 0 HISearchField::~HISearchField()
PUBLIC f4cfe 0 HISearchField::~HISearchField()
PUBLIC f4d34 0 HISearchField::SetAttributes(unsigned int, unsigned int)
PUBLIC f4e04 0 HISearchField::SetDescriptiveText(__CFString const*)
PUBLIC f4e56 0 HISearchField::Construct(OpaqueHIObjectRef*)
PUBLIC f4eaa 0 HISearchField::LeftIconPressed()
PUBLIC f4f46 0 HISearchField::RightIconPressed()
PUBLIC f4fd0 0 HISearchField::HasLeftIcon()
PUBLIC f4ff0 0 HISearchField::HasRightIcon()
PUBLIC f5000 0 HISearchField::GetLeftIconBehavior()
PUBLIC f5014 0 HISearchField::GetAccessibilityTitle()
PUBLIC f5046 0 HISearchField::GetAccessibilityLeftIconConvenienceAttributeName()
PUBLIC f5054 0 HISearchField::GetAccessibilityRightIconConvenienceAttributeName()
PUBLIC f5062 0 HISearchField::GetAccessibilityRightIconDescription()
PUBLIC f5098 0 HISearchField::CopyAccessibilityRoleDescription()
PUBLIC f50b0 0 HISearchField::GetTotalBounds(CGRect*)
PUBLIC f5110 0 HISearchField::GetViewFrameBounds(CGRect*)
PUBLIC f51fe 0 HISearchField::GetLeftIconBounds(CGRect*)
PUBLIC f529c 0 HISearchField::GetRightIconBounds(CGRect*)
PUBLIC f5340 0 HISearchField::GetTextFieldBounds(CGRect*)
PUBLIC f53a8 0 HISearchField::GetFieldBounds(CGRect*)
PUBLIC f5554 0 HISearchField::DrawFrame(CGContext*, unsigned int)
PUBLIC f562e 0 HISearchField::DrawLeftIcon(CGContext*, unsigned int)
PUBLIC f5798 0 HISearchField::DrawRightIcon(CGContext*, unsigned int)
PUBLIC f58ce 0 HISearchField::DrawAdornment(CGContext*)
PUBLIC f59da 0 HISearchField::Initialize(OpaqueEventRef*)
PUBLIC f5b16 0 HISearchField::ClassEventHandler(OpaqueEventHandlerCallRef*, OpaqueEventRef*, void*)
PUBLIC f5b36 0 HISearchField::InitializeFromArchive(OpaqueEventRef*, OpaqueHIArchiveRef*)
PUBLIC f5c60 0 HISearchField::Encode(OpaqueHIArchiveRef*)
PUBLIC f5ce4 0 HISearchField::PrintDebugInfo(HIDebugLog&)
PUBLIC f5d40 0 HISearchField::GetKindSelf()
PUBLIC f5d50 0 HISearchField::IsSizeAllowedSelf(unsigned short)
PUBLIC f5d6c 0 HISearchField::BoundsChangedSelf(unsigned int, CGRect const&, CGRect const&)
PUBLIC f5d94 0 HISearchField::AdjustTrackingAreas()
PUBLIC f5e2c 0 HISearchField::OwningWindowChangedSelf(OpaqueWindowPtr*, OpaqueWindowPtr*)
PUBLIC f5e48 0 HISearchField::TrackingAreaExitedSelf(OpaqueHIViewTrackingAreaRef*)
PUBLIC f5ea0 0 HISearchField::HandleEvent(OpaqueEventHandlerCallRef*, OpaqueEventRef*)
PUBLIC f5f2c 0 HISearchField::GetGlobalMenuPosition(CGPoint*)
PUBLIC f5fa6 0 HISearchField::SearchIconWithMenuBadgePressed()
PUBLIC f6048 0 HISearchField::GetAccessibleSubRoleSelf(unsigned long long)
PUBLIC f6060 0 HISearchField::GetAllAccessibleAttributeNamesSelf(unsigned long long, __CFArray*)
PUBLIC f60a0 0 HISearchField::GetNamedAccessibleAttributeSelf(unsigned long long, __CFString const*, unsigned int, OpaqueEventRef*)
PUBLIC f6128 0 HISearchFieldCreate
PUBLIC f6151 0 _HISearchFieldCreateWithClass
PUBLIC f626e 0 HISearchFieldChangeAttributes
PUBLIC f62a9 0 HISearchFieldGetAttributes
PUBLIC f62f6 0 HISearchField::GetLeftIconPart()
PUBLIC f6302 0 HISearchField::GetRightIconPart()
PUBLIC f631a 0 _HISegmentedViewCreateWithClass
PUBLIC f637a 0 HISegmentView::GetClassID()
PUBLIC f63c6 0 HISegmentedViewSetSegmentCount
PUBLIC f63f4 0 HISegmentView::SetSegmentCount(unsigned int)
PUBLIC f668b 0 HISegmentedViewGetSegmentCount
PUBLIC f66a5 0 HISegmentedViewSetSegmentBehavior
PUBLIC f66f4 0 HISegmentedViewGetSegmentBehavior
PUBLIC f6738 0 HISegmentedViewChangeSegmentAttributes
PUBLIC f679b 0 HISegmentedViewSetSegmentValue
PUBLIC f67e0 0 HISegmentView::SetSegmentValue(unsigned int, int)
PUBLIC f6841 0 HISegmentedViewSetSegmentEnabled
PUBLIC f68b0 0 HISegmentedViewIsSegmentEnabled
PUBLIC f68f8 0 HISegmentedViewSetSegmentCommand
PUBLIC f6949 0 HISegmentedViewGetSegmentCommand
PUBLIC f698b 0 HISegmentedViewSetSegmentLabel
PUBLIC f69d0 0 HISegmentView::SetSegmentLabel(unsigned int, __CFString const*)
PUBLIC f6a96 0 HISegmentedViewSetSegmentContentWidth
PUBLIC f6aee 0 HISegmentView::SetSegmentContentWidth(unsigned int, unsigned char, double)
PUBLIC f6b40 0 HISegmentView::GetSegmentContentWidth(unsigned int, unsigned char*)
PUBLIC f6ba8 0 HISegmentedViewSetSegmentImage
PUBLIC f6bee 0 HISegmentView::SetSegmentImage(unsigned int, HIViewAllImageContent const*)
PUBLIC f6c78 0 _HISegmentViewSetIsInset
PUBLIC f6cc1 0 _HISegmentViewRegisterClass
PUBLIC f6ccc 0 HISegmentView::HISegmentView(OpaqueHIObjectRef*)
PUBLIC f6d46 0 HISegmentView::~HISegmentView()
PUBLIC f6d86 0 HISegmentView::ReleaseAndClearSegmentEntries()
PUBLIC f6e70 0 HISegmentView::~HISegmentView()
PUBLIC f6e7a 0 HISegmentView::~HISegmentView()
PUBLIC f6ea8 0 HISegmentView::Construct(OpaqueHIObjectRef*)
PUBLIC f6ee6 0 HISegmentView::Initialize(OpaqueEventRef*)
PUBLIC f6f0e 0 HISegmentView::InitializeCommon()
PUBLIC f6f4e 0 HISegmentView::InitializeFromArchive(OpaqueEventRef*, OpaqueHIArchiveRef*)
PUBLIC f7302 0 HISegmentView::LoadMetrics()
PUBLIC f7412 0 HISegmentView::Encode(OpaqueHIArchiveRef*)
PUBLIC f77be 0 HISegmentView::GetKindSelf()
PUBLIC f77ce 0 HISegmentView::GetBehaviors()
PUBLIC f77de 0 HISegmentView::GetDataSelf(unsigned int, short, long, long*, void*)
PUBLIC f7840 0 HISegmentView::SetDataSelf(unsigned int, short, long, void const*)
PUBLIC f78c0 0 HISegmentView::IsHitByPointSelf(CGPoint const&, short*)
PUBLIC f78d4 0 HISegmentView::IsHitByPointInternal(CGPoint const&, short*, bool)
PUBLIC f7b0c 0 HISegmentView::CalcSegmentBounds()
PUBLIC f7bf2 0 HISegmentView::GetPartRegionOrShapeSelf(short, OpaqueRgnHandle*, __HIShape const**)
PUBLIC f7d0c 0 HISegmentView::CalcOneSegmentBounds(unsigned int)
PUBLIC f7df8 0 HISegmentView::GetOptimalSizeSelf(CGSize*, float*)
PUBLIC f7ee4 0 HISegmentView::GetSizeConstraintsSelf(CGSize*, CGSize*)
PUBLIC f7f20 0 HISegmentView::TrackSelf(OpaqueEventRef*, short*)
PUBLIC f7f8c 0 HISegmentView::ReactToPartHit(short, unsigned int)
PUBLIC f8024 0 HISegmentView::SetFocusPartSelf(short, unsigned char, short*)
PUBLIC f81f6 0 HISegmentView::GetNextFocusableSegment(short, bool, bool)
PUBLIC f82aa 0 HISegmentView::AcceptTextInputSelf(unsigned short, unsigned int, OpaqueEventRef*)
PUBLIC f8376 0 HISegmentView::SimulateHitSelf(short, unsigned int, short*)
PUBLIC f83c0 0 HISegmentView::DrawSegment(CGRect const*, unsigned int, unsigned char, unsigned char, unsigned char, CGContext*)
PUBLIC f8726 0 HISegmentView::CalcSegmentContentWidth(unsigned int)
PUBLIC f8882 0 HISegmentView::DrawSelf(short, __HIShape const*, CGContext*)
PUBLIC f8dfe 0 HISegmentView::InvalidateMinimally()
PUBLIC f8fe8 0 HISegmentView::ActivationChangedSelf()
PUBLIC f8ff2 0 HISegmentView::EnabledStateChangedSelf()
PUBLIC f8ffc 0 HISegmentView::GetAccessibleChildrenSelf(unsigned long long, __CFArray*)
PUBLIC f9094 0 HISegmentView::GetAccessibleChildAtPointSelf(unsigned long long, CGPoint const&, __AXUIElement const**)
PUBLIC f9140 0 HISegmentView::GetAccessibleChildAtFocusSelf(unsigned long long, __AXUIElement const**)
PUBLIC f91c8 0 HISegmentView::GetAccessibleParentSelf(unsigned long long, __AXUIElement const**)
PUBLIC f920a 0 HISegmentView::GetAllAccessibleAttributeNamesSelf(unsigned long long, __CFArray*)
PUBLIC f92e8 0 HISegmentView::GetNamedAccessibleAttributeSelf(unsigned long long, __CFString const*, unsigned int, OpaqueEventRef*)
PUBLIC f951c 0 HISegmentView::GetAccessibleRoleSelf(unsigned long long)
PUBLIC f95c0 0 HISegmentView::CopyAccessibleTitleSelf(unsigned long long)
PUBLIC f95f8 0 HISegmentView::SetNamedAccessibleAttributeSelf(unsigned long long, __CFString const*, unsigned int, OpaqueEventRef*)
PUBLIC f96ba 0 HISegmentView::IsNamedAccessibleAttributeSettableSelf(unsigned long long, __CFString const*, unsigned int, unsigned char*)
PUBLIC f9712 0 HISegmentView::GetAllAccessibleActionNamesSelf(unsigned long long, __CFArray*)
PUBLIC f975c 0 HISegmentView::CopyAccessibleActionDescriptionSelf(unsigned long long, __CFString const*, unsigned int, __CFString const**)
PUBLIC f97d8 0 HISegmentView::PerformAccessibleActionSelf(unsigned long long, __CFString const*, unsigned int, unsigned char)
PUBLIC f986a 0 HISegmentView::PrintDebugInfo(HIDebugLog&)
PUBLIC f98da 0 HISegmentView::IsSizeAllowedSelf(unsigned short)
PUBLIC f98f6 0 HISegmentView::SizeChangedSelf()
PUBLIC f9950 0 HISheetWindowView::Create(OpaqueControlRef**)
PUBLIC f99c6 0 HISheetWindowView::PrintDebugInfo(HIDebugLog&)
PUBLIC f99f4 0 HISheetWindowView::Construct(OpaqueHIObjectRef*)
PUBLIC f9a3c 0 HISheetWindowView::HISheetWindowView(OpaqueHIObjectRef*)
PUBLIC f9adc 0 HISheetWindowView::~HISheetWindowView()
PUBLIC f9b28 0 HISheetWindowView::~HISheetWindowView()
PUBLIC f9b32 0 HISheetWindowView::~HISheetWindowView()
PUBLIC f9b60 0 HISheetWindowView::GetKindSelf()
PUBLIC f9b70 0 HISheetWindowView::Initialize(OpaqueEventRef*)
PUBLIC f9c06 0 HISheetWindowView::GetBehaviors()
PUBLIC f9c14 0 HISheetWindowView::BoundsChangedSelf(unsigned int, CGRect const&, CGRect const&)
PUBLIC f9c80 0 HISheetWindowView::UpdateGrowBox()
PUBLIC f9d7e 0 HISheetWindowView::UpdateBotLeftResize()
PUBLIC f9e80 0 HISheetWindowView::UpdateBotRightResize()
PUBLIC f9f82 0 HISheetWindowView::UpdateBotEdgeResize()
PUBLIC fa094 0 HISheetWindowView::UpdateLeftEdgeResize()
PUBLIC fa19c 0 HISheetWindowView::UpdateRightEdgeResize()
PUBLIC fa2a4 0 HISheetWindowView::AttributesChanged()
PUBLIC fa356 0 HISheetWindowView::EventHandler(OpaqueEventHandlerCallRef*, OpaqueEventRef*, void*)
PUBLIC fa416 0 HISheetWindowView::GetGrowImageRegion(Rect const&, OpaqueRgnHandle*)
PUBLIC fa538 0 HISheetWindowView::OwningWindowChangedSelf(OpaqueWindowPtr*, OpaqueWindowPtr*)
PUBLIC fa69e 0 HISheetWindowView::LayoutChildrenSelf()
PUBLIC fa8a8 0 HISheetWindowView::GetResizeWidgetFrame(unsigned int, CGRect*)
PUBLIC fb020 0 _HITextViewRegisterClass
PUBLIC fb054 0 HITextViewCreate
PUBLIC fb06f 0 _HITextViewCreateWithClass
PUBLIC fb166 0 HITextViewGetTXNObject
PUBLIC fb190 0 TTextViewUnicodeText::~TTextViewUnicodeText()
PUBLIC fb19a 0 TTextViewUnicodeText::~TTextViewUnicodeText()
PUBLIC fb1c8 0 TTextViewUnicodeText::TextensionCallEntry(bool)
PUBLIC fb1d6 0 TTextViewUnicodeText::ScrollProc(double, double, CGRect*)
PUBLIC fb1f2 0 TTextViewUnicodeText::ScrollInfoProc(float, float, unsigned int)
PUBLIC fb20e 0 TTextViewUnicodeText::HandleUnicodeForKeyEvent(OpaqueEventHandlerCallRef*, OpaqueEventRef*)
PUBLIC fb2f2 0 HITextView::HITextView(OpaqueHIObjectRef*)
PUBLIC fb416 0 HITextView::ClassEventHandler(OpaqueEventHandlerCallRef*, OpaqueEventRef*, void*)
PUBLIC fb466 0 HITextView::~HITextView()
PUBLIC fb4d0 0 HITextView::~HITextView()
PUBLIC fb4da 0 HITextView::~HITextView()
PUBLIC fb508 0 HITextView::PrintDebugInfo(HIDebugLog&)
PUBLIC fb536 0 HITextView::Construct(OpaqueHIObjectRef*)
PUBLIC fb58a 0 HITextView::Initialize(OpaqueEventRef*)
PUBLIC fb60e 0 HITextView::InitializeCommon()
PUBLIC fb762 0 HITextView::InitializeFromArchive(OpaqueEventRef*, OpaqueHIArchiveRef*)
PUBLIC fb7b6 0 HITextView::Encode(OpaqueHIArchiveRef*)
PUBLIC fb802 0 HITextView::GetKindSelf()
PUBLIC fb812 0 HITextView::GetBehaviors()
PUBLIC fb822 0 HITextView::GetPartHitSelf(CGPoint const&)
PUBLIC fb888 0 HITextView::TrackSelf(OpaqueEventRef*, short*)
PUBLIC fb8fe 0 HITextView::GetPartRegionOrShapeSelf(short, OpaqueRgnHandle*, __HIShape const**)
PUBLIC fb9d4 0 HITextView::GetDataSelf(unsigned int, short, long, long*, void*)
PUBLIC fbc34 0 HITextView::SetDataSelf(unsigned int, short, long, void const*)
PUBLIC fbdf4 0 HITextView::BoundsChangedSelf(unsigned int, CGRect const&, CGRect const&)
PUBLIC fbe6a 0 HITextView::ActivationChangedSelf()
PUBLIC fbef6 0 HITextView::DrawSelf(short, __HIShape const*, CGContext*)
PUBLIC fc07c 0 HITextView::SetFocusPartSelf(short, unsigned char, short*)
PUBLIC fc22e 0 HITextView::GetTextAXObject()
PUBLIC fc296 0 HITextView::ClassTextEventHandler(OpaqueEventHandlerCallRef*, OpaqueEventRef*, void*)
PUBLIC fc2e0 0 HITextView::GetAccessibleRoleSelf(unsigned long long)
PUBLIC fc2fc 0 HITextView::GetAccessibleChildrenSelf(unsigned long long, __CFArray*)
PUBLIC fc364 0 HITextView::GetAccessibleChildAtPointSelf(unsigned long long, CGPoint const&, __AXUIElement const**)
PUBLIC fc3e6 0 HITextView::GetAllAccessibleAttributeNamesSelf(unsigned long long, __CFArray*)
PUBLIC fc426 0 HITextView::GetNamedAccessibleAttributeSelf(unsigned long long, __CFString const*, unsigned int, OpaqueEventRef*)
PUBLIC fc496 0 HITextView::SetNamedAccessibleAttributeSelf(unsigned long long, __CFString const*, unsigned int, OpaqueEventRef*)
PUBLIC fc4f4 0 HITextView::IsNamedAccessibleAttributeSettableSelf(unsigned long long, __CFString const*, unsigned int, unsigned char*)
PUBLIC fc55e 0 HITextView::DragEnterSelf(OpaqueDragRef*)
PUBLIC fc570 0 HITextView::DragWithinSelf(OpaqueDragRef*)
PUBLIC fc582 0 HITextView::DragLeaveSelf(OpaqueDragRef*)
PUBLIC fc594 0 HITextView::DragReceiveSelf(OpaqueDragRef*)
PUBLIC fc5a6 0 HITextView::HandleScrollEvent(OpaqueEventHandlerCallRef*, OpaqueEventRef*)
PUBLIC fc890 0 HITextView::HandleTextAccessibilityEvent(OpaqueEventHandlerCallRef*, OpaqueEventRef*)
PUBLIC fc960 0 HITextView::ClassScrollProc(double, double, CGRect*, HIView*)
PUBLIC fc974 0 HITextView::TextObjectWantsScroll(double, double, CGRect*)
PUBLIC fc9b0 0 HITextView::ClassScrollInfoProc(float, float, unsigned int, HIView*)
PUBLIC fc9c4 0 HITextView::UpdateScrollInfo()
PUBLIC fca38 0 HITextView::ScrollTextObject(double, double)
PUBLIC fcab4 0 HITextView::HandleTextAXGetAllAttributeNames(unsigned long long, OpaqueEventHandlerCallRef*, OpaqueEventRef*)
PUBLIC fcb70 0 HITextView::HandleTextAXGetNamedAttribute(unsigned long long, OpaqueEventHandlerCallRef*, OpaqueEventRef*)
PUBLIC fcd84 0 HITextView::HandleTextAXSetNamedAttribute(unsigned long long, OpaqueEventHandlerCallRef*, OpaqueEventRef*)
PUBLIC fce26 0 HITextView::HandleTextAXIsNamedAttributeSettable(unsigned long long, OpaqueEventHandlerCallRef*, OpaqueEventRef*)
PUBLIC fcea0 0 HITextView::GetAXAttributeNameAndID(OpaqueEventRef*, __CFString const**, unsigned int*)
PUBLIC fcefe 0 TUnicodeText::HandleTextInputOtherEvent(OpaqueEventHandlerCallRef*, OpaqueEventRef*)
PUBLIC fcf0a 0 TUnicodeText::HandleDocumentAccessEvent(OpaqueEventHandlerCallRef*, OpaqueEventRef*)
PUBLIC fcf16 0 TUnicodeText::HandleRawKeyDown(OpaqueEventHandlerCallRef*, OpaqueEventRef*)
PUBLIC fcf22 0 TUnicodeText::HandleOwningViewVisibilityChanged(OpaqueEventHandlerCallRef*, OpaqueEventRef*)
PUBLIC fcf2e 0 TUnicodeText::HandleOwningViewEnabledStateChanged(OpaqueEventHandlerCallRef*, OpaqueEventRef*)
PUBLIC fcf30 0 TBrowserView::HandleAccessibilityEvent(OpaqueEventHandlerCallRef*, OpaqueEventRef*)
PUBLIC fcf32 0 TUnicodeText::HandleTextInputUpdateActiveInputAreaEvent(OpaqueEventHandlerCallRef*, OpaqueEventRef*)
PUBLIC fcf4a 0 TUnicodeText::HandleMouseScroll(OpaqueEventHandlerCallRef*, OpaqueEventRef*)
PUBLIC fcf6a 0 HIWindowButtonView::Create(unsigned int, OpaqueControlRef**)
PUBLIC fd014 0 HIWindowButtonView::Construct(OpaqueHIObjectRef*)
PUBLIC fd05c 0 HIWindowButtonView::HIWindowButtonView(OpaqueHIObjectRef*)
PUBLIC fd10c 0 HIWindowButtonView::~HIWindowButtonView()
PUBLIC fd16a 0 HIWindowButtonView::~HIWindowButtonView()
PUBLIC fd174 0 HIWindowButtonView::~HIWindowButtonView()
PUBLIC fd1a2 0 HIWindowButtonView::Initialize(OpaqueEventRef*)
PUBLIC fd244 0 HIWindowButtonView::EventHandler(OpaqueEventHandlerCallRef*, OpaqueEventRef*, void*)
PUBLIC fd274 0 HIWindowButtonView::GetKindSelf()
PUBLIC fd284 0 HIWindowButtonView::DrawSelf(short, __HIShape const*, CGContext*)
PUBLIC fd54c 0 HIWindowButtonView::GetDrawState()
PUBLIC fd65c 0 HIWindowButtonView::GetAutosaveMessage(unsigned char)
PUBLIC fd6d4 0 HIWindowButtonView::PrintDebugInfo(HIDebugLog&)
PUBLIC fd73c 0 HIWindowButtonView::GetOptimalSizeSelf(CGSize*, float*)
PUBLIC fd898 0 HIWindowButtonView::MeasureTextForAutosaveState(unsigned char, double*)
PUBLIC fd980 0 HIWindowButtonView::GetPartHitSelf(CGPoint const&)
PUBLIC fd9e0 0 HIWindowButtonView::GetClickActivationSelf(OpaqueEventRef*, unsigned int*)
PUBLIC fda8c 0 HIWindowButtonView::ControlHitSelf(OpaqueControlRef*, short, unsigned int)
PUBLIC fdb18 0 HIWindowButtonView::SendWindowEvent(unsigned int, unsigned int)
PUBLIC fdbc4 0 HIWindowButtonView::ClickSelf(OpaqueEventRef*)
PUBLIC fdc82 0 HIWindowButtonView::DetectAutosaveMenuAction(OpaqueEventRef*, CGPoint)
PUBLIC fdd6a 0 HIWindowButtonView::DisplayAutosaveMenu(CGPoint const&)
PUBLIC fdffa 0 HIWindowButtonView::ContextualMenuClickSelf(OpaqueControlRef*, CGPoint const&)
PUBLIC fe016 0 HIWindowButtonView::SetDataSelf(unsigned int, short, long, void const*)
PUBLIC fe11c 0 HIWindowButtonView::SetRollover(unsigned char)
PUBLIC fe17c 0 HIWindowButtonView::SetMetal(unsigned char)
PUBLIC fe1b2 0 HIWindowButtonView::GetDataSelf(unsigned int, short, long, long*, void*)
PUBLIC fe1ec 0 HIWindowButtonView::EnsureRolloverTimer(unsigned char)
PUBLIC fe24e 0 HIWindowButtonView::AutosaveRolloverTimer(__EventLoopTimer*, void*)
PUBLIC fe280 0 HIWindowButtonView::ShouldShowRollover()
PUBLIC fe290 0 HIWindowButtonView::DoesZoomBoxEnterFullScreen()
PUBLIC fe2a2 0 HIWindowButtonView::OwningWindowChangedSelf(OpaqueWindowPtr*, OpaqueWindowPtr*)
PUBLIC fe314 0 HIWindowButtonView::IsSizeAllowedSelf(unsigned short)
PUBLIC fe330 0 HIWindowButtonView::SizeChangedSelf()
PUBLIC fe33e 0 HIWindowButtonView::GetAccessibleRoleSelf(unsigned long long)
PUBLIC fe368 0 HIWindowButtonView::GetAccessibleSubRoleSelf(unsigned long long)
PUBLIC fe3e0 0 HIWindowButtonView::CopyAccessibleTitleSelf(unsigned long long)
PUBLIC fe424 0 HIWindowButtonView::GetAccessibleChildrenSelf(unsigned long long, __CFArray*)
PUBLIC fe496 0 HIWindowButtonView::GetAllAccessibleAttributeNamesSelf(unsigned long long, __CFArray*)
PUBLIC fe4ec 0 HIWindowButtonView::GetNamedAccessibleAttributeSelf(unsigned long long, __CFString const*, unsigned int, OpaqueEventRef*)
PUBLIC fe5fe 0 HIWindowButtonView::IsNamedAccessibleAttributeSettableSelf(unsigned long long, __CFString const*, unsigned int, unsigned char*)
PUBLIC fe63a 0 HIWindowResizeView::Create(unsigned int, OpaqueControlRef**)
PUBLIC fe6e4 0 HIWindowResizeView::Construct(OpaqueHIObjectRef*)
PUBLIC fe72c 0 HIWindowResizeView::HIWindowResizeView(OpaqueHIObjectRef*)
PUBLIC fe7ac 0 HIWindowResizeView::~HIWindowResizeView()
PUBLIC fe804 0 HIWindowResizeView::~HIWindowResizeView()
PUBLIC fe80e 0 HIWindowResizeView::~HIWindowResizeView()
PUBLIC fe83c 0 HIWindowResizeView::Initialize(OpaqueEventRef*)
PUBLIC fe8be 0 HIWindowResizeView::GetKindSelf()
PUBLIC fe8ce 0 HIWindowResizeView::DrawSelf(short, __HIShape const*, CGContext*)
PUBLIC fe8d4 0 HIWindowResizeView::PrintDebugInfo(HIDebugLog&)
PUBLIC fe93c 0 HIWindowResizeView::GetOptimalSizeSelf(CGSize*, float*)
PUBLIC fe9da 0 HIWindowResizeView::GetPartHitSelf(CGPoint const&)
PUBLIC fea3a 0 HIWindowResizeView::GetClickActivationSelf(OpaqueEventRef*, unsigned int*)
PUBLIC feaba 0 HIWindowResizeView::TrackSelf(OpaqueEventRef*, short*)
PUBLIC feb54 0 HIWindowResizeView::SetDataSelf(unsigned int, short, long, void const*)
PUBLIC feb5e 0 HIWindowResizeView::OwningWindowChangedSelf(OpaqueWindowPtr*, OpaqueWindowPtr*)
PUBLIC feb8a 0 HIWindowResizeView::GetWindowGrowSides(unsigned int)
PUBLIC fec74 0 HIWindowResizeView::WorkaroundEventHandler(OpaqueEventHandlerCallRef*, OpaqueEventRef*, void*)
PUBLIC fed26 0 HIWindowResizeView::HandleEvent(OpaqueEventHandlerCallRef*, OpaqueEventRef*)
PUBLIC fee06 0 CalculateWindowResizeCursor(OpaqueWindowPtr*, unsigned int, Rect const*, Rect const*)
PUBLIC ff080 0 HIWindowResizeView::TrackingAreaEnteredSelf(OpaqueHIViewTrackingAreaRef*)
PUBLIC ff18c 0 HIWindowResizeView::TrackingAreaExitedSelf(OpaqueHIViewTrackingAreaRef*)
PUBLIC ff1f0 0 _HIWindowFrameViewRegisterClass
PUBLIC ff220 0 HIWindowFrameView::Create(unsigned int, OpaqueControlRef**)
PUBLIC ff2be 0 HIWindowFrameView::Construct(OpaqueHIObjectRef*)
PUBLIC ff306 0 HIWindowFrameView::HIWindowFrameView(OpaqueHIObjectRef*)
PUBLIC ff47c 0 HIWindowFrameView::~HIWindowFrameView()
PUBLIC ff4f4 0 HIWindowFrameView::~HIWindowFrameView()
PUBLIC ff4fe 0 HIWindowFrameView::~HIWindowFrameView()
PUBLIC ff52c 0 HIWindowFrameView::GetBehaviors()
PUBLIC ff536 0 HIWindowFrameView::Initialize(OpaqueEventRef*)
PUBLIC ff628 0 HIWindowFrameView::SetType(unsigned int)
PUBLIC ff744 0 HIWindowFrameView::SetContentFillForType()
PUBLIC ff786 0 HIWindowFrameView::InvalidateSubtree(HIView*)
PUBLIC ff7c4 0 HIWindowFrameView::ReshapeFrame(bool, HIWindowFrameView::ReshapeBehavior)
PUBLIC ff90e 0 HIWindowFrameView::GetKindSelf()
PUBLIC ff91e 0 HIWindowFrameView::DrawSelf(short, __HIShape const*, CGContext*)
PUBLIC ffa22 0 HIWindowFrameView::GetFrameMetricsSelf(HIViewFrameMetrics*, float*)
PUBLIC ffd02 0 HIWindowFrameView::DrawDark(CGRect const&, unsigned int, CGContext*)
PUBLIC 1000c4 0 HIWindowFrameView::ApplyTextColorSelf(CGContext*, bool, OpaqueEventRef*)
PUBLIC 1004f4 0 HIWindowFrameView::PrintDebugInfo(HIDebugLog&)
PUBLIC 100522 0 HIWindowFrameView::BoundsChangedSelf(unsigned int, CGRect const&, CGRect const&)
PUBLIC 100556 0 HIWindowFrameView::InvalidateForSizeChangeSelf(CGRect const&, CGRect const&)
PUBLIC 1008f4 0 HIWindowFrameView::GetFrameMetricsSelf(HIViewFrameMetrics*)
PUBLIC 100904 0 HIWindowFrameView::GetPartRegionOrShapeSelf(short, OpaqueRgnHandle*, __HIShape const**)
PUBLIC 101606 0 HIWindowFrameView::LayoutChildrenSelf()
PUBLIC 10235c 0 HIWindowFrameView::GetWidgetFrame(void*, unsigned int, CGRect*)
PUBLIC 102968 0 HIWindowFrameView::GetResizeWidgetFrame(void*, unsigned int, CGRect*)
PUBLIC 103470 0 HIWindowFrameView::AdjustTrackingAreas()
PUBLIC 103910 0 HIWindowFrameView::OwningWindowChangedSelf(OpaqueWindowPtr*, OpaqueWindowPtr*)
PUBLIC 103b26 0 HIWindowFrameView::EventHandler(OpaqueEventHandlerCallRef*, OpaqueEventRef*, void*)
PUBLIC 1041e4 0 HIWindowFrameView::CreateButtonViews()
PUBLIC 10434e 0 HIWindowFrameView::SetupZoomStates()
PUBLIC 104482 0 HIWindowFrameView::RecalculateStructureKind(unsigned int, unsigned char)
PUBLIC 1046f4 0 HIWindowFrameView::UpdateTopLeftResize()
PUBLIC 10481e 0 HIWindowFrameView::UpdateTopRightResize(OpaqueHIViewTrackingAreaRef*&)
PUBLIC 104950 0 HIWindowFrameView::UpdateBotLeftResize()
PUBLIC 104a78 0 HIWindowFrameView::UpdateBotRightResize()
PUBLIC 104ba0 0 HIWindowFrameView::UpdateTopEdgeResize()
PUBLIC 104cd6 0 HIWindowFrameView::UpdateBotEdgeResize()
PUBLIC 104e0c 0 HIWindowFrameView::UpdateLeftEdgeResize()
PUBLIC 104f42 0 HIWindowFrameView::UpdateRightEdgeResize()
PUBLIC 105078 0 HIWindowFrameView::UpdateCloseBox()
PUBLIC 105228 0 HIWindowFrameView::UpdateCollapseBox()
PUBLIC 1053ee 0 HIWindowFrameView::UpdateZoomBox()
PUBLIC 10560a 0 HIWindowFrameView::UpdateTitle(bool)
PUBLIC 105754 0 HIWindowFrameView::UpdateEnterFullScreenButton()
PUBLIC 105822 0 HIWindowFrameView::UpdateGrowBox()
PUBLIC 10592c 0 HIWindowFrameView::EnsureResizeOrdering()
PUBLIC 1059ca 0 HIWindowFrameView::RecalcChangedAttributes(bool)
PUBLIC 105e22 0 HIWindowFrameView::UpdateAutosaveState(unsigned char)
PUBLIC 1060a2 0 HIWindowFrameView::RecalculateGrowBoxSettings()
PUBLIC 106198 0 HIWindowFrameView::SetSquareBottomCorners(unsigned char)
PUBLIC 1061f0 0 HIWindowFrameView::HandleToolbarDisplayModeChanged()
PUBLIC 1062b2 0 HIWindowFrameView::AttributesChanged()
PUBLIC 106322 0 HIWindowFrameView::AppModalityChanged(OpaqueWindowPtr*)
PUBLIC 10645c 0 HIWindowFrameView::UpdateFSCapable()
PUBLIC 10647e 0 HIWindowFrameView::BecomeModalTarget(bool)
PUBLIC 106596 0 HIWindowFrameView::CollapsableChanged(unsigned char)
PUBLIC 1065fc 0 HIWindowFrameView::AdjustOneTrackingArea(CGRect, CGRect&, OpaqueHIViewTrackingAreaRef*&)
PUBLIC 106710 0 HIWindowFrameView::TrackingAreaEnteredSelf(OpaqueHIViewTrackingAreaRef*)
PUBLIC 1068f4 0 HIWindowFrameView::ZoomBoxEventHandler(OpaqueEventHandlerCallRef*, OpaqueEventRef*, void*)
PUBLIC 106a04 0 HIWindowFrameView::TrackingAreaExitedSelf(OpaqueHIViewTrackingAreaRef*)
PUBLIC 106af4 0 HIWindowFrameView::GetDataSelf(unsigned int, short, long, long*, void*)
PUBLIC 106bfc 0 HIWindowFrameView::SetDataSelf(unsigned int, short, long, void const*)
PUBLIC 107440 0 HIWindowFrameView::InvalidateForHiliteChange()
PUBLIC 107596 0 HIWindowFrameView::InvalidateForFocusChange()
PUBLIC 1075fe 0 HIWindowFrameView::SetToolbar(OpaqueHIObjectRef*)
PUBLIC 107762 0 HIWindowFrameView::SetToolbarView(OpaqueControlRef*)
PUBLIC 10781e 0 HIWindowFrameView::PaintWindow()
PUBLIC 107aba 0 HIWindowFrameView::ShowHideToolbar(unsigned char, unsigned char)
PUBLIC 107c6a 0 HIWindowFrameView::ToggleToolbarVisible()
PUBLIC 107cac 0 HIWindowFrameView::GetGrowImageRegion(Rect const&, OpaqueRgnHandle*)
PUBLIC 107ec4 0 HIWindowFrameView::ToolbarConfigSheetDone()
PUBLIC 107f5a 0 HIWindowFrameView::ProcessCommand(HICommand const&)
PUBLIC 1080da 0 HIWindowFrameView::UpdateCommandStatus(HICommand const&)
PUBLIC 1082e8 0 HIWindowFrameView::NeedsTitleView()
PUBLIC 10837a 0 HIWindowFrameView::ResizeWidgets(unsigned short)
PUBLIC 1083e4 0 HIWindowFrameView::GetPartHitSelf(CGPoint const&)
PUBLIC 108444 0 HIWindowFrameView::TrackSelf(OpaqueEventRef*, short*)
PUBLIC 1086ca 0 HIWindowFrameView::ContextualMenuClickSelf(OpaqueControlRef*, CGPoint const&)
PUBLIC 1087c2 0 HIWindowFrameView::GetClickActivationSelf(OpaqueEventRef*, unsigned int*)
PUBLIC 108812 0 HIWindowFrameView::ActivationChangedSelf()
PUBLIC 1088ee 0 HIWindowFrameView::VisibilityChangedSelf()
PUBLIC 108940 0 HIWindowFrameView::IsRelayoutNeededIfBoundsUnchangedSelf()
PUBLIC 108958 0 HIWindowFrameView::ReleaseToolbarView()
PUBLIC 1089bc 0 HIWindowFrameView::ToolbarEventHandler(OpaqueEventHandlerCallRef*, OpaqueEventRef*, void*)
PUBLIC 108bc2 0 HIWindowFrameView::ToolbarViewChanged()
PUBLIC 108c92 0 HIWindowFrameView::GetOptimalToolbarRect(CGRect*)
PUBLIC 108d3c 0 HIWindowFrameView::ResizeToolbar(short, unsigned char)
PUBLIC 109062 0 HIWindowFrameView::ToggleAllToolbarsVisible()
PUBLIC 1091e8 0 HIWindowFrameView::CycleToolbarMode(bool)
PUBLIC 10921a 0 HIWindowFrameView::OffsetWindowContent(OpaqueWindowPtr*, short)
PUBLIC 10938e 0 HIWindowFrameView::PrepareToolbarImage()
PUBLIC 109400 0 HIWindowFrameView::RunToolbarConfigSheet()
PUBLIC 1094ea 0 HIWindowTitleView::Create(OpaqueControlRef**)
PUBLIC 10956a 0 HIWindowTitleView::Construct(OpaqueHIObjectRef*)
PUBLIC 1095b2 0 HIWindowTitleView::HIWindowTitleView(OpaqueHIObjectRef*)
PUBLIC 10964c 0 HIWindowTitleView::~HIWindowTitleView()
PUBLIC 109698 0 HIWindowTitleView::~HIWindowTitleView()
PUBLIC 1096a2 0 HIWindowTitleView::~HIWindowTitleView()
PUBLIC 1096d0 0 HIWindowTitleView::Initialize(OpaqueEventRef*)
PUBLIC 1096da 0 HIWindowTitleView::GetKindSelf()
PUBLIC 1096ea 0 HIWindowTitleView::SetRotated(bool)
PUBLIC 1096fe 0 HIWindowTitleView::DrawSelf(short, __HIShape const*, CGContext*)
PUBLIC 10988a 0 HIWindowTitleView::HasProxy()
PUBLIC 1098e4 0 HIWindowTitleView::GetProxyIconBounds(CGRect*)
PUBLIC 109a06 0 HIWindowTitleView::DrawTitleText(CGRect const&, CGContext*)
PUBLIC 109c14 0 HIWindowTitleView::PrintDebugInfo(HIDebugLog&)
PUBLIC 109c42 0 HIWindowTitleView::GetOptimalSizeSelf(CGSize*, float*)
PUBLIC 109cdc 0 HIWindowTitleView::GetTextSize()
PUBLIC 109dbe 0 HIWindowTitleView::GetPartRegionOrShapeSelf(short, OpaqueRgnHandle*, __HIShape const**)
PUBLIC 109eb6 0 HIWindowTitleView::GetPartHitSelf(CGPoint const&)
PUBLIC 109f60 0 HIWindowTitleView::GetClickActivationSelf(OpaqueEventRef*, unsigned int*)
PUBLIC 10a002 0 HIWindowTitleView::ClickSelf(OpaqueEventRef*)
PUBLIC 10a0ee 0 HIWindowTitleView::OwningWindowChangedSelf(OpaqueWindowPtr*, OpaqueWindowPtr*)
PUBLIC 10a15e 0 HIWindowTitleView::EventHandler(OpaqueEventHandlerCallRef*, OpaqueEventRef*, void*)
PUBLIC 10a392 0 HIWindowTitleView::IsSizeAllowedSelf(unsigned short)
PUBLIC 10a3a6 0 HIWindowTitleView::SizeChangedSelf()
PUBLIC 10a3b4 0 HIWindowTitleView::SetDataSelf(unsigned int, short, long, void const*)
PUBLIC 10a3ea 0 HIWindowTitleView::GetAccessibleRoleSelf(unsigned long long)
PUBLIC 10a412 0 HIWindowTitleView::GetAccessibleChildrenSelf(unsigned long long, __CFArray*)
PUBLIC 10a464 0 HIWindowTitleView::GetAccessibleParentSelf(unsigned long long, __AXUIElement const**)
PUBLIC 10a4ae 0 HIWindowTitleView::GetAccessibleChildAtPointSelf(unsigned long long, CGPoint const&, __AXUIElement const**)
PUBLIC 10a568 0 HIWindowTitleView::GetAllAccessibleAttributeNamesSelf(unsigned long long, __CFArray*)
PUBLIC 10a618 0 HIWindowTitleView::GetNamedAccessibleAttributeSelf(unsigned long long, __CFString const*, unsigned int, OpaqueEventRef*)
PUBLIC 10a830 0 _HIIconViewRegisterClass
PUBLIC 10a85f 0 CreateIconControl
PUBLIC 10a8ed 0 _HIIconViewCreateWithClass
PUBLIC 10a9d6 0 HIIconView::HIIconView(OpaqueHIObjectRef*)
PUBLIC 10aa86 0 HIIconView::~HIIconView()
PUBLIC 10aada 0 HIIconView::~HIIconView()
PUBLIC 10aae4 0 HIIconView::~HIIconView()
PUBLIC 10ab12 0 HIIconView::Construct(OpaqueHIObjectRef*)
PUBLIC 10ab50 0 HIIconView::Initialize(OpaqueEventRef*)
PUBLIC 10ac3c 0 HIIconView::InitializeCommon(HIViewAllImageContent const*)
PUBLIC 10acb8 0 HIIconView::InitializeFromArchive(OpaqueEventRef*, OpaqueHIArchiveRef*)
PUBLIC 10ae3e 0 HIIconView::LoadIconData(HIViewAllImageContent const*)
PUBLIC 10af54 0 HIIconView::Encode(OpaqueHIArchiveRef*)
PUBLIC 10b0a8 0 HIIconView::GetKindSelf()
PUBLIC 10b0b8 0 HIIconView::GetBehaviors()
PUBLIC 10b0e4 0 HIIconView::GetPartHitSelf(CGPoint const&)
PUBLIC 10b1f8 0 HIIconView::GetPartRegionOrShapeSelf(short, OpaqueRgnHandle*, __HIShape const**)
PUBLIC 10b222 0 HIIconView::TrackSelf(OpaqueEventRef*, short*)
PUBLIC 10b2a2 0 HIIconView::SetFocusPartSelf(short, unsigned char, short*)
PUBLIC 10b2dc 0 HIIconView::AcceptTextInputSelf(unsigned short, unsigned int, OpaqueEventRef*)
PUBLIC 10b2e6 0 HIIconView::DrawSelf(short, __HIShape const*, CGContext*)
PUBLIC 10b512 0 HIIconView::GetAccessibleRoleSelf(unsigned long long)
PUBLIC 10b53c 0 HIIconView::GetDataSelf(unsigned int, short, long, long*, void*)
PUBLIC 10b636 0 HIIconView::SetDataSelf(unsigned int, short, long, void const*)
PUBLIC 10b76e 0 HIIconView::PrintDebugInfo(HIDebugLog&)
PUBLIC 10b86c 0 HIIconView::GetAccessiblePressActionPartSelf()
PUBLIC 10b877 0 SubstituteSystemIcon(short, OpaqueIconRef**)
PUBLIC 10b8df 0 CreateImageWellControl
PUBLIC 10b962 0 _HIImageWellCreateWithClass
PUBLIC 10ba1a 0 HIImageWell::HIImageWell(OpaqueHIObjectRef*)
PUBLIC 10bac6 0 HIImageWell::~HIImageWell()
PUBLIC 10bb30 0 HIImageWell::~HIImageWell()
PUBLIC 10bb3a 0 HIImageWell::~HIImageWell()
PUBLIC 10bb68 0 HIImageWell::Construct(OpaqueHIObjectRef*)
PUBLIC 10bba6 0 HIImageWell::Initialize(OpaqueEventRef*)
PUBLIC 10bc78 0 HIImageWell::InitializeFromArchive(OpaqueEventRef*, OpaqueHIArchiveRef*)
PUBLIC 10bdb4 0 HIImageWell::Encode(OpaqueHIArchiveRef*)
PUBLIC 10bef8 0 HIImageWell::GetKindSelf()
PUBLIC 10bf08 0 HIImageWell::GetBehaviors()
PUBLIC 10bf12 0 HIImageWell::GetPartRegionOrShapeSelf(short, OpaqueRgnHandle*, __HIShape const**)
PUBLIC 10c02a 0 HIImageWell::DrawSelf(short, __HIShape const*, CGContext*)
PUBLIC 10c1ba 0 HIImageWell::DrawWellBackground(CGContext*)
PUBLIC 10c2bc 0 HIImageWell::DrawWellContents(CGContext*)
PUBLIC 10c40a 0 HIImageWell::GetPartHitSelf(CGPoint const&)
PUBLIC 10c470 0 HIImageWell::GetAccessibleRoleSelf(unsigned long long)
PUBLIC 10c488 0 HIImageWell::GetDataSelf(unsigned int, short, long, long*, void*)
PUBLIC 10c506 0 HIImageWell::SetDataSelf(unsigned int, short, long, void const*)
PUBLIC 10c60e 0 HIImageWell::PrintDebugInfo(HIDebugLog&)
PUBLIC 10c7d0 0 _HICocoaViewRegisterClass
PUBLIC 10c80a 0 HICocoaViewCreate
PUBLIC 10c874 0 HICocoaViewGetView
PUBLIC 10c8c3 0 HICocoaViewSetView
PUBLIC 10c92f 0 CreateLittleArrowsControl
PUBLIC 10c9d0 0 _HILittleArrowsCreateWithClass
PUBLIC 10caf2 0 HILittleArrows::Construct(OpaqueHIObjectRef*)
PUBLIC 10cb3a 0 HILittleArrows::HILittleArrows(OpaqueHIObjectRef*)
PUBLIC 10cbac 0 HILittleArrows::Initialize(OpaqueEventRef*)
PUBLIC 10cc0e 0 HILittleArrows::InitializeFromArchive(OpaqueEventRef*, OpaqueHIArchiveRef*)
PUBLIC 10cc72 0 HILittleArrows::Encode(OpaqueHIArchiveRef*)
PUBLIC 10ccc4 0 HILittleArrows::~HILittleArrows()
PUBLIC 10ccce 0 HILittleArrows::~HILittleArrows()
PUBLIC 10ccfc 0 HILittleArrows::GetKindSelf()
PUBLIC 10cd0c 0 HILittleArrows::GetBehaviors()
PUBLIC 10cd22 0 HILittleArrows::GetButtonInfo(HIThemeButtonDrawInfo*)
PUBLIC 10cdae 0 HILittleArrows::GetPartRegionOrShapeSelf(short, OpaqueRgnHandle*, __HIShape const**)
PUBLIC 10ce88 0 HILittleArrows::GetOptimalSizeSelf(CGSize*, float*)
PUBLIC 10cf1a 0 HILittleArrows::DrawSelf(short, __HIShape const*, CGContext*)
PUBLIC 10cfce 0 HILittleArrows::GetPartHitSelf(CGPoint const&)
PUBLIC 10d0b2 0 HILittleArrows::SetFocusPartSelf(short, unsigned char, short*)
PUBLIC 10d0d8 0 HILittleArrows::AcceptTextInputSelf(unsigned short, unsigned int, OpaqueEventRef*)
PUBLIC 10d134 0 HILittleArrows::GetAccessibleRoleSelf(unsigned long long)
PUBLIC 10d160 0 HILittleArrows::GetAccessibleSubRoleSelf(unsigned long long)
PUBLIC 10d188 0 HILittleArrows::GetAccessibleChildrenSelf(unsigned long long, __CFArray*)
PUBLIC 10d21c 0 HILittleArrows::GetAccessibleParentSelf(unsigned long long, __AXUIElement const**)
PUBLIC 10d26a 0 HILittleArrows::GetAccessibleChildAtPointSelf(unsigned long long, CGPoint const&, __AXUIElement const**)
PUBLIC 10d330 0 HILittleArrows::GetAllAccessibleAttributeNamesSelf(unsigned long long, __CFArray*)
PUBLIC 10d39e 0 HILittleArrows::GetNamedAccessibleAttributeSelf(unsigned long long, __CFString const*, unsigned int, OpaqueEventRef*)
PUBLIC 10d5b4 0 HILittleArrows::IsNamedAccessibleAttributeSettableSelf(unsigned long long, __CFString const*, unsigned int, unsigned char*)
PUBLIC 10d5e0 0 HILittleArrows::GetAllAccessibleActionNamesSelf(unsigned long long, __CFArray*)
PUBLIC 10d61e 0 HILittleArrows::CopyAccessibleActionDescriptionSelf(unsigned long long, __CFString const*, unsigned int, __CFString const**)
PUBLIC 10d65c 0 HILittleArrows::PerformAccessibleActionSelf(unsigned long long, __CFString const*, unsigned int, unsigned char)
PUBLIC 10d6aa 0 HILittleArrows::PrintDebugInfo(HIDebugLog&)
PUBLIC 10d706 0 HILittleArrows::GetDataSelf(unsigned int, short, long, long*, void*)
PUBLIC 10d742 0 HILittleArrows::IsSizeAllowedSelf(unsigned short)
PUBLIC 10d75e 0 HILittleArrows::SetDataSelf(unsigned int, short, long, void const*)
PUBLIC 10d79f 0 CreatePlacardControl
PUBLIC 10d818 0 _HIPlacardCreateWithClass
PUBLIC 10d89e 0 HIPlacardView::Construct(OpaqueHIObjectRef*)
PUBLIC 10d8e6 0 HIPlacardView::HIPlacardView(OpaqueHIObjectRef*)
PUBLIC 10d946 0 HIPlacardView::~HIPlacardView()
PUBLIC 10d950 0 HIPlacardView::~HIPlacardView()
PUBLIC 10d97e 0 HIPlacardView::Initialize(OpaqueEventRef*)
PUBLIC 10d9b0 0 HIPlacardView::InitializeFromArchive(OpaqueEventRef*, OpaqueHIArchiveRef*)
PUBLIC 10d9e2 0 HIPlacardView::GetKindSelf()
PUBLIC 10d9f2 0 HIPlacardView::GetBehaviors()
PUBLIC 10da02 0 HIPlacardView::GetPartRegionOrShapeSelf(short, OpaqueRgnHandle*, __HIShape const**)
PUBLIC 10dafe 0 HIPlacardView::DrawSelf(short, __HIShape const*, CGContext*)
PUBLIC 10db9e 0 HIPlacardView::PrintDebugInfo(HIDebugLog&)
PUBLIC 10dbcc 0 HIPlacardView::ApplyTextColorSelf(CGContext*, bool, OpaqueEventRef*)
PUBLIC 10dc1f 0 CreatePopupArrowControl
PUBLIC 10dcae 0 _HIPopupArrowCreateWithClass
PUBLIC 10dd8a 0 HIPopupArrow::HIPopupArrow(OpaqueHIObjectRef*)
PUBLIC 10ddf0 0 HIPopupArrow::~HIPopupArrow()
PUBLIC 10ddfa 0 HIPopupArrow::~HIPopupArrow()
PUBLIC 10de28 0 HIPopupArrow::Construct(OpaqueHIObjectRef*)
PUBLIC 10de66 0 HIPopupArrow::Initialize(OpaqueEventRef*)
PUBLIC 10df08 0 HIPopupArrow::InitializeFromArchive(OpaqueEventRef*, OpaqueHIArchiveRef*)
PUBLIC 10df8e 0 HIPopupArrow::Encode(OpaqueHIArchiveRef*)
PUBLIC 10e010 0 HIPopupArrow::GetKindSelf()
PUBLIC 10e020 0 HIPopupArrow::GetBehaviors()
PUBLIC 10e02e 0 HIPopupArrow::GetPartRegionOrShapeSelf(short, OpaqueRgnHandle*, __HIShape const**)
PUBLIC 10e058 0 HIPopupArrow::DrawSelf(short, __HIShape const*, CGContext*)
PUBLIC 10e168 0 HIPopupArrow::PrintDebugInfo(HIDebugLog&)
PUBLIC 10e2a0 0 _HIPopupButtonRegisterClass
PUBLIC 10e2d0 0 HIPopupButton::Construct(OpaqueHIObjectRef*)
PUBLIC 10e318 0 HIPopupButton::HIPopupButton(OpaqueHIObjectRef*)
PUBLIC 10e4bc 0 HIPopupButton::~HIPopupButton()
PUBLIC 10e55a 0 HIPopupButton::ReleasePopupMenuRef(unsigned char)
PUBLIC 10e5fc 0 HIPopupButton::~HIPopupButton()
PUBLIC 10e606 0 HIPopupButton::~HIPopupButton()
PUBLIC 10e634 0 HIPopupButton::GetKindSelf()
PUBLIC 10e65c 0 HIPopupButton::GetBehaviors()
PUBLIC 10e69e 0 HIPopupButton::Initialize(OpaqueEventRef*)
PUBLIC 10e8a6 0 HIPopupButton::InitializeCommon(unsigned char)
PUBLIC 10e978 0 HIPopupButton::InitializeFromArchive(OpaqueEventRef*, OpaqueHIArchiveRef*)
PUBLIC 10eb7e 0 HIPopupButton::AcquirePopupMenuRef(unsigned char)
PUBLIC 10ecf8 0 HIPopupButton::Encode(OpaqueHIArchiveRef*)
PUBLIC 10ee60 0 HIPopupButton::DrawSelf(short, __HIShape const*, CGContext*)
PUBLIC 10f082 0 HIPopupButton::LayoutIfNecessary()
PUBLIC 10f432 0 HIPopupButton::SetUpPopupFontState(PopupFontState*, unsigned short*)
PUBLIC 10f49a 0 HIPopupButton::DrawTitle(CGContext*, unsigned int)
PUBLIC 10f584 0 HIPopupButton::DrawButton(CGContext*, HIThemeButtonDrawInfo const&)
PUBLIC 10f632 0 HIPopupButton::DrawButtonContents(CGRect const&, HIThemeButtonDrawInfo const&, HIThemeTextInfo*, CGContext*)
PUBLIC 10fa54 0 HIPopupButton::GetIconInfo(short, short&, short&, short&, short&, char**&)
PUBLIC 10fbfa 0 HIPopupButton::DrawItemIcon(CGRect const&, HIThemeButtonDrawInfo const&, short, short, char**, CGContext*)
PUBLIC 10fe00 0 HIPopupButton::IsHitByPointSelf(CGPoint const&, short*)
PUBLIC 10fecc 0 HIPopupButton::CalcPopupRectForGroup(CGRect*, HIViewFrameMetrics*)
PUBLIC 1101ce 0 HIPopupButton::TrackSelf(OpaqueEventRef*, short*)
PUBLIC 11025a 0 HIPopupButton::TrackSelfCommon(short, short*)
PUBLIC 1102c8 0 HIPopupButton::SimulateHitSelf(short, unsigned int, short*)
PUBLIC 1102da 0 HIPopupButton::TrackMenu()
PUBLIC 1109b6 0 HIPopupButton::GetMenuWidthSmartRecalc(OpaqueMenuRef*)
PUBLIC 1109e6 0 HIPopupButton::MenuEventHandler(OpaqueEventHandlerCallRef*, OpaqueEventRef*, void*)
PUBLIC 110ab4 0 ___ZN13HIPopupButton9TrackMenuEv_block_invoke
PUBLIC 110aff 0 ___ZN13HIPopupButton9TrackMenuEv_block_invoke_2
PUBLIC 110b40 0 FindHItem(OpaqueMenuRef*, OpaqueMenuRef*)
PUBLIC 110b9c 0 HIPopupButton::GetOptimalSizeInternal(CGSize*, float*)
PUBLIC 110ee0 0 HIPopupButton::GetPartRegionOrShapeSelf(short, OpaqueRgnHandle*, __HIShape const**)
PUBLIC 1110ac 0 HIPopupButton::DoCalc(OpaqueRgnHandle*, __HIShape const**)
PUBLIC 11128a 0 HIPopupButton::GetOptimalSizeSelf(CGSize*, float*)
PUBLIC 1112c6 0 HIPopupButton::AdjustToMinimumHeight(short, unsigned char, short, unsigned short)
PUBLIC 111381 0 GetIconSize(char**, short, short&, short&, unsigned char, short, OpaqueMenuRef*)
PUBLIC 111454 0 HIPopupButton::BoundsChangedSelf(unsigned int, CGRect const&, CGRect const&)
PUBLIC 1114d4 0 HIPopupButton::TitleChangedSelf()
PUBLIC 111514 0 HIPopupButton::IsSizeAllowedSelf(unsigned short)
PUBLIC 111530 0 HIPopupButton::GetDefaultSizeSelf() const
PUBLIC 11153c 0 HIPopupButton::SizeChangedSelf()
PUBLIC 1115e8 0 HIPopupButton::GetDataSelf(unsigned int, short, long, long*, void*)
PUBLIC 11182e 0 HIPopupButton::SetDataSelf(unsigned int, short, long, void const*)
PUBLIC 111aae 0 HIPopupButton::PrintDebugInfo(HIDebugLog&)
PUBLIC 111e20 0 CreatePopupButtonControl
PUBLIC 111edf 0 _HIPopupButtonCreateWithClass
PUBLIC 1120aa 0 CreatePopupGroupBoxControl
PUBLIC 112174 0 HIPopupButton::SetFocusPartSelf(short, unsigned char, short*)
PUBLIC 1121d4 0 HIPopupButton::AcceptTextInputSelf(unsigned short, unsigned int, OpaqueEventRef*)
PUBLIC 112214 0 HIPopupButton::GetFontStyleForPartSelf(short, short*)
PUBLIC 11222e 0 HIPopupButton::CalculateHIThemeTextInfoForPartSelf(short, HIThemeTextInfo*, unsigned char)
PUBLIC 1122b4 0 HIPopupButton::GetAccessibleRoleSelf(unsigned long long)
PUBLIC 1122c2 0 HIPopupButton::GetAllAccessibleAttributeNamesSelf(unsigned long long, __CFArray*)
PUBLIC 1122fc 0 HIPopupButton::GetNamedAccessibleAttributeSelf(unsigned long long, __CFString const*, unsigned int, OpaqueEventRef*)
PUBLIC 1123ca 0 HIPopupButton::IsNamedAccessibleAttributeSettableSelf(unsigned long long, __CFString const*, unsigned int, unsigned char*)
PUBLIC 1123e6 0 GetControlPopupMenuHandle
PUBLIC 112420 0 _HIProgressBarRegisterClass
PUBLIC 11244c 0 HIProgressBar::GetClassID(bool)
PUBLIC 1124b8 0 CreateProgressBarControl
PUBLIC 11256a 0 HIProgressBar::Create(__CFString const*, OpaqueEventRef*, CGRect const*, int, int, int, unsigned char, unsigned char, OpaqueControlRef**)
PUBLIC 112681 0 CreateRelevanceBarControl
PUBLIC 112721 0 _HIProgressBarCreateWithClass
PUBLIC 11273e 0 _HIRelevanceBarCreateWithClass
PUBLIC 112758 0 HIProgressBar::Construct(OpaqueHIObjectRef*)
PUBLIC 1127a0 0 HIProgressBar::HIProgressBar(OpaqueHIObjectRef*)
PUBLIC 11287c 0 HIProgressBar::~HIProgressBar()
PUBLIC 1128ba 0 HIProgressBar::~HIProgressBar()
PUBLIC 1128c4 0 non-virtual thunk to HIProgressBar::~HIProgressBar()
PUBLIC 1128d6 0 HIProgressBar::~HIProgressBar()
PUBLIC 112904 0 non-virtual thunk to HIProgressBar::~HIProgressBar()
PUBLIC 112916 0 HIProgressBar::GetKindSelf()
PUBLIC 11293e 0 HIProgressBar::GetBehaviors()
PUBLIC 11294e 0 HIProgressBar::Initialize(OpaqueEventRef*)
PUBLIC 112a12 0 HIProgressBar::SyncAnimationTimer(unsigned char)
PUBLIC 112ab2 0 HIProgressBar::InitializeFromArchive(OpaqueEventRef*, OpaqueHIArchiveRef*)
PUBLIC 112b18 0 HIProgressBar::Encode(OpaqueHIArchiveRef*)
PUBLIC 112b64 0 HIProgressBar::GetPartRegionOrShapeSelf(short, OpaqueRgnHandle*, __HIShape const**)
PUBLIC 112c34 0 HIProgressBar::SetupTrackInfo(CGRect const&, HIThemeTrackDrawInfo*)
PUBLIC 112d48 0 HIProgressBar::DrawSelf(short, __HIShape const*, CGContext*)
PUBLIC 112e70 0 HIProgressBar::IsSizeAllowedSelf(unsigned short)
PUBLIC 112e94 0 HIProgressBar::SizeChangedSelf()
PUBLIC 112e9e 0 HIProgressBar::GetDataSelf(unsigned int, short, long, long*, void*)
PUBLIC 112f04 0 HIProgressBar::SetDataSelf(unsigned int, short, long, void const*)
PUBLIC 113086 0 HIProgressBar::PrintDebugInfo(HIDebugLog&)
PUBLIC 113134 0 HIProgressBar::Animate()
PUBLIC 1131d6 0 non-virtual thunk to HIProgressBar::Animate()
PUBLIC 1131e8 0 HIProgressBar::GetOptimalSizeSelf(CGSize*, float*)
PUBLIC 113320 0 HIProgressBar::ValueFieldChangedSelf()
PUBLIC 113362 0 HIProgressBar::GetAllAccessibleAttributeNamesSelf(unsigned long long, __CFArray*)
PUBLIC 1133ac 0 HIProgressBar::GetNamedAccessibleAttributeSelf(unsigned long long, __CFString const*, unsigned int, OpaqueEventRef*)
PUBLIC 11346e 0 HIProgressBar::IsNamedAccessibleAttributeSettableSelf(unsigned long long, __CFString const*, unsigned int, unsigned char*)
PUBLIC 113496 0 HIProgressBar::GetAccessibleRoleSelf(unsigned long long)
PUBLIC 1134d4 0 HIProgressBar::UserSessionActiveStateChanged()
PUBLIC 113520 0 _HIPushButtonRegisterClass
PUBLIC 11354f 0 CreatePushButtonControl
PUBLIC 113564 0 CreatePushButtonWithIconControl
PUBLIC 1135fb 0 _HIPushButtonCreateWithClass
PUBLIC 113714 0 HIPushButton::HIPushButton(OpaqueHIObjectRef*)
PUBLIC 113806 0 HIPushButton::~HIPushButton()
PUBLIC 11388e 0 HIPushButton::~HIPushButton()
PUBLIC 113898 0 HIPushButton::~HIPushButton()
PUBLIC 1138ca 0 HIPushButton::Construct(OpaqueHIObjectRef*)
PUBLIC 113908 0 HIPushButton::Initialize(OpaqueEventRef*)
PUBLIC 113a62 0 HIPushButton::ControlTrackHandler(OpaqueEventHandlerCallRef*, OpaqueEventRef*, void*)
PUBLIC 113ba2 0 HIPushButton::InitializeFromArchive(OpaqueEventRef*, OpaqueHIArchiveRef*)
PUBLIC 113d46 0 HIPushButton::Encode(OpaqueHIArchiveRef*)
PUBLIC 113e28 0 HIPushButton::GetKindSelf()
PUBLIC 113e38 0 HIPushButton::GetBehaviors()
PUBLIC 113e48 0 HIPushButton::GetPartHitSelf(CGPoint const&)
PUBLIC 113ef2 0 HIPushButton::GetThemeButtonDrawInfo(HIThemeButtonDrawInfo*)
PUBLIC 113fe8 0 HIPushButton::GetPartRegionOrShapeSelf(short, OpaqueRgnHandle*, __HIShape const**)
PUBLIC 1140b6 0 HIPushButton::GetOptimalSizeSelf(CGSize*, float*)
PUBLIC 11434c 0 HIPushButton::GetSizeConstraintsSelf(CGSize*, CGSize*)
PUBLIC 114388 0 HIPushButton::SetFocusPartSelf(short, unsigned char, short*)
PUBLIC 1143ae 0 HIPushButton::AcceptTextInputSelf(unsigned short, unsigned int, OpaqueEventRef*)
PUBLIC 1143b8 0 HIPushButton::ShouldUseImageCache()
PUBLIC 1143c8 0 HIPushButton::DrawSelf(short, __HIShape const*, CGContext*)
PUBLIC 1144de 0 HIPushButton::DrawButtonContents(CGRect const&, HIThemeTextInfo*, CGContext*, bool)
PUBLIC 114910 0 HIPushButton::ActivationChangedSelf()
PUBLIC 11491a 0 HIPushButton::TitleChangedSelf()
PUBLIC 11492c 0 HIPushButton::SizeChangedSelf()
PUBLIC 114950 0 HIPushButton::BoundsChangedSelf(unsigned int, CGRect const&, CGRect const&)
PUBLIC 114964 0 HIPushButton::UserSessionActiveStateChanged()
PUBLIC 1149a2 0 HIPushButton::GetAccessibleRoleSelf(unsigned long long)
PUBLIC 1149ba 0 HIPushButton::GetDataSelf(unsigned int, short, long, long*, void*)
PUBLIC 114afa 0 HIPushButton::SetDataSelf(unsigned int, short, long, void const*)
PUBLIC 114df2 0 HIPushButton::GetLabelClipRectFromLabelRect(CGRect const&, CGRect*)
PUBLIC 114ed0 0 HIPushButton::GetTextSize(__CFString const*, HIThemeTextInfo*)
PUBLIC 114f46 0 HIPushButton::PrintDebugInfo(HIDebugLog&)
PUBLIC 1150d6 0 HIPushButton::IsSizeAllowedSelf(unsigned short)
PUBLIC 1150f2 0 HIPushButton::GetDefaultSizeSelf() const
PUBLIC 1150fe 0 HIPushButton::GetFontStyleForPartSelf(short, short*)
PUBLIC 115118 0 HIPushButton::CalculateHIThemeTextInfoForPartSelf(short, HIThemeTextInfo*, unsigned char)
PUBLIC 11517f 0 CreateRadioButtonControl
PUBLIC 115215 0 _HIRadioButtonCreateWithClass
PUBLIC 115336 0 HIRadioButton::HIRadioButton(OpaqueHIObjectRef*, HIRadioButton::Adornment)
PUBLIC 1153e6 0 HIRadioButton::~HIRadioButton()
PUBLIC 11542e 0 HIRadioButton::~HIRadioButton()
PUBLIC 115438 0 HIRadioButton::~HIRadioButton()
PUBLIC 115466 0 HIRadioButton::Construct(OpaqueHIObjectRef*)
PUBLIC 1154a4 0 HIRadioButton::Initialize(OpaqueEventRef*)
PUBLIC 11556c 0 HIRadioButton::InitializeCommon(bool)
PUBLIC 1155ea 0 HIRadioButton::InitializeFromArchive(OpaqueEventRef*, OpaqueHIArchiveRef*)
PUBLIC 115670 0 HIRadioButton::Encode(OpaqueHIArchiveRef*)
PUBLIC 1156c0 0 HIRadioButton::GetKindSelf()
PUBLIC 1156d0 0 HIRadioButton::GetBehaviors()
PUBLIC 1156fa 0 HIRadioButton::GetPartHitSelf(CGPoint const&)
PUBLIC 115760 0 HIRadioButton::GetPartRegionOrShapeSelf(short, OpaqueRgnHandle*, __HIShape const**)
PUBLIC 11588e 0 HIRadioButton::GetThemeButtonDrawInfo(HIThemeButtonDrawInfo*)
PUBLIC 115918 0 HIRadioButton::GetOptimalSizeSelf(CGSize*, float*)
PUBLIC 115b20 0 HIRadioButton::SetFocusPartSelf(short, unsigned char, short*)
PUBLIC 115b4a 0 HIRadioButton::AcceptTextInputSelf(unsigned short, unsigned int, OpaqueEventRef*)
PUBLIC 115b54 0 HIRadioButton::DrawSelf(short, __HIShape const*, CGContext*)
PUBLIC 115d62 0 HIRadioButton::ValueFieldChangedSelf()
PUBLIC 115dc2 0 HIRadioButton::HiliteChangedSelf(short, short)
PUBLIC 115e3a 0 HIRadioButton::GetAccessibleRoleSelf(unsigned long long)
PUBLIC 115e52 0 HIRadioButton::GetDataSelf(unsigned int, short, long, long*, void*)
PUBLIC 115e5c 0 HIRadioButton::IsSizeAllowedSelf(unsigned short)
PUBLIC 115e78 0 HIRadioButton::GetFontStyleForPartSelf(short, short*)
PUBLIC 115e92 0 HIRadioButton::CalculateHIThemeTextInfoForPartSelf(short, HIThemeTextInfo*, unsigned char)
PUBLIC 115eec 0 HIRadioButton::SetDataSelf(unsigned int, short, long, void const*)
PUBLIC 115f00 0 HIRadioButton::PrintDebugInfo(HIDebugLog&)
PUBLIC 115f98 0 HIRadioButton::GetAccessiblePressActionPartSelf()
PUBLIC 115fb0 0 _HIRadioGroupRegisterClass
PUBLIC 115fdf 0 CreateRadioGroupControl
PUBLIC 116058 0 _HIRadioGroupCreateWithClass
PUBLIC 116104 0 HIRadioGroup::HIRadioGroup(OpaqueHIObjectRef*)
PUBLIC 116170 0 HIRadioGroup::~HIRadioGroup()
PUBLIC 11617a 0 HIRadioGroup::~HIRadioGroup()
PUBLIC 1161a8 0 HIRadioGroup::Initialize(OpaqueEventRef*)
PUBLIC 1161da 0 HIRadioGroup::InitializeFromArchive(OpaqueEventRef*, OpaqueHIArchiveRef*)
PUBLIC 11620c 0 HIRadioGroup::Encode(OpaqueHIArchiveRef*)
PUBLIC 116216 0 HIRadioGroup::Construct(OpaqueHIObjectRef*)
PUBLIC 116254 0 HIRadioGroup::GetKindSelf()
PUBLIC 116264 0 HIRadioGroup::GetBehaviors()
PUBLIC 116272 0 HIRadioGroup::GetPartHitSelf(CGPoint const&)
PUBLIC 1162f0 0 HIRadioGroup::ValueFieldChangedSelf()
PUBLIC 116302 0 HIRadioGroup::AdjustSubControlValues(short)
PUBLIC 11638e 0 HIRadioGroup::SubviewAddedSelf(HIView*)
PUBLIC 1164a8 0 HIRadioGroup::EventHandler(OpaqueEventHandlerCallRef*, OpaqueEventRef*, void*)
PUBLIC 1165b6 0 HIRadioGroup::SubviewRemovedSelf(HIView*)
PUBLIC 1166ce 0 HIRadioGroup::TrackSelf(OpaqueEventRef*, short*)
PUBLIC 1167fe 0 HIRadioGroup::SubviewValueChangedSelf(HIView*)
PUBLIC 116912 0 HIRadioGroup::PrintDebugInfo(HIDebugLog&)
PUBLIC 116940 0 HIRadioGroup::DrawSelf(short, __HIShape const*, CGContext*)
PUBLIC 116952 0 HIRadioGroup::GetAllAccessibleAttributeNamesSelf(unsigned long long, __CFArray*)
PUBLIC 1169a0 0 HIRadioGroup::GetNamedAccessibleAttributeSelf(unsigned long long, __CFString const*, unsigned int, OpaqueEventRef*)
PUBLIC 116b76 0 HIRadioGroup::IsNamedAccessibleAttributeSettableSelf(unsigned long long, __CFString const*, unsigned int, unsigned char*)
PUBLIC 116ba2 0 HIRadioGroup::GetAccessibleRoleSelf(unsigned long long)
PUBLIC 116bc0 0 _HIRoundButtonRegisterClass
PUBLIC 116bef 0 CreateRoundButtonControl
PUBLIC 116c7d 0 _HIRoundButtonCreateWithClass
PUBLIC 116d5c 0 HIRoundButton::HIRoundButton(OpaqueHIObjectRef*)
PUBLIC 116e06 0 HIRoundButton::~HIRoundButton()
PUBLIC 116e70 0 HIRoundButton::~HIRoundButton()
PUBLIC 116e7a 0 HIRoundButton::~HIRoundButton()
PUBLIC 116ea8 0 HIRoundButton::AssignContent(HIViewAllImageContent const*)
PUBLIC 116f08 0 HIRoundButton::Construct(OpaqueHIObjectRef*)
PUBLIC 116f46 0 HIRoundButton::Initialize(OpaqueEventRef*)
PUBLIC 117054 0 HIRoundButton::ControlTrackHandler(OpaqueEventHandlerCallRef*, OpaqueEventRef*, void*)
PUBLIC 11716c 0 HIRoundButton::InitializeFromArchive(OpaqueEventRef*, OpaqueHIArchiveRef*)
PUBLIC 1172e6 0 HIRoundButton::Encode(OpaqueHIArchiveRef*)
PUBLIC 1173c8 0 HIRoundButton::GetKindSelf()
PUBLIC 1173d8 0 HIRoundButton::GetBehaviors()
PUBLIC 1173e8 0 HIRoundButton::GetPartHitSelf(CGPoint const&)
PUBLIC 11747c 0 HIRoundButton::GetPartRegionOrShapeSelf(short, OpaqueRgnHandle*, __HIShape const**)
PUBLIC 117556 0 HIRoundButton::GetThemeButtonDrawInfo(HIThemeButtonDrawInfo*)
PUBLIC 1175ce 0 HIRoundButton::GetOptimalSizeSelf(CGSize*, float*)
PUBLIC 117638 0 HIRoundButton::SetFocusPartSelf(short, unsigned char, short*)
PUBLIC 11765e 0 HIRoundButton::AcceptTextInputSelf(unsigned short, unsigned int, OpaqueEventRef*)
PUBLIC 117668 0 HIRoundButton::DrawSelf(short, __HIShape const*, CGContext*)
PUBLIC 117a50 0 HIRoundButton::GetDataSelf(unsigned int, short, long, long*, void*)
PUBLIC 117ac0 0 HIRoundButton::SetDataSelf(unsigned int, short, long, void const*)
PUBLIC 117bb2 0 HIRoundButton::IsSizeAllowedSelf(unsigned short)
PUBLIC 117bc6 0 HIRoundButton::GetAccessibleRoleSelf(unsigned long long)
PUBLIC 117be6 0 HIRoundButton::PrintDebugInfo(HIDebugLog&)
PUBLIC 117c4f 0 CreateScrollBarControl
PUBLIC 117d2a 0 _HIScrollBarCreateWithClass
PUBLIC 117e5c 0 HIScrollBar::Construct(OpaqueHIObjectRef*)
PUBLIC 117ea4 0 HIScrollBar::HIScrollBar(OpaqueHIObjectRef*)
PUBLIC 117f3c 0 HIScrollBar::~HIScrollBar()
PUBLIC 117f88 0 HIScrollBar::~HIScrollBar()
PUBLIC 117f92 0 HIScrollBar::~HIScrollBar()
PUBLIC 117fc0 0 HIScrollBar::Initialize(OpaqueEventRef*)
PUBLIC 11802e 0 HIScrollBar::InitializeCommon()
PUBLIC 118088 0 HIScrollBar::InitializeFromArchive(OpaqueEventRef*, OpaqueHIArchiveRef*)
PUBLIC 1180ec 0 HIScrollBar::ScrollBarEventHandler(OpaqueEventHandlerCallRef*, OpaqueEventRef*, void*)
PUBLIC 1182b0 0 HIScrollBar::Encode(OpaqueHIArchiveRef*)
PUBLIC 1182ee 0 HIScrollBar::GetKindSelf()
PUBLIC 1182fe 0 HIScrollBar::GetBehaviors()
PUBLIC 118328 0 HIScrollBar::GetActionProcPart(OpaqueEventRef*)
PUBLIC 118426 0 HIScrollBar::GetScrollToHereStartPoint(OpaqueEventRef*)
PUBLIC 11864a 0 HIScrollBar::DrawGhostThumb(OpaqueRgnHandle*)
PUBLIC 1186a4 0 HIScrollBar::LiveUpdate(OpaqueRgnHandle*)
PUBLIC 118720 0 HIScrollBar::GhostingFinished(CGPoint const&)
PUBLIC 118844 0 HIScrollBar::CalcDragLimits(IndicatorDragConstraint*)
PUBLIC 118b32 0 HIScrollBar::GetTrackInfo(HIThemeTrackDrawInfo*)
PUBLIC 118d08 0 HIScrollBar::GetTrackEnableState()
PUBLIC 118da6 0 HIScrollBar::GetTrackPressState()
PUBLIC 118e32 0 HIScrollBar::GetPartRegionOrShapeSelf(short, OpaqueRgnHandle*, __HIShape const**)
PUBLIC 118fa2 0 HIScrollBar::TrackSelf(OpaqueEventRef*, short*)
PUBLIC 118fcc 0 HIScrollBar::ValueFieldChangedSelf()
PUBLIC 118ff0 0 HIScrollBar::BoundsChangedSelf(unsigned int, CGRect const&, CGRect const&)
PUBLIC 118ffe 0 HIScrollBar::UpdateOpaqueness(CGRect const&)
PUBLIC 1190a2 0 HIScrollBar::DrawSelf(short, __HIShape const*, CGContext*)
PUBLIC 11911c 0 HIScrollBar::GetPartHitInternal(CGPoint const&, bool)
PUBLIC 11928c 0 HIScrollBar::GetPartHitSelf(CGPoint const&)
PUBLIC 1192a6 0 HIScrollBar::CalcValueFromIndicatorPosition(OpaqueRgnHandle*)
PUBLIC 1193d4 0 HIScrollBar::CalculateScrollToHereStartPoint(unsigned char, CGPoint const&, CGRect const&, CGRect const&, CGPoint*)
PUBLIC 119852 0 HIScrollBar::GetDataSelf(unsigned int, short, long, long*, void*)
PUBLIC 119894 0 HIScrollBar::IsSizeAllowedSelf(unsigned short)
PUBLIC 1198a6 0 HIScrollBar::GetDefaultSizeSelf() const
PUBLIC 1198b2 0 HIScrollBar::SizeChangedSelf()
PUBLIC 119906 0 HIScrollBar::SetDataSelf(unsigned int, short, long, void const*)
PUBLIC 11994c 0 HIScrollBar::PrintDebugInfo(HIDebugLog&)
PUBLIC 1199ce 0 HIScrollBar::GetOptimalSizeSelf(CGSize*, float*)
PUBLIC 119bde 0 HIScrollBar::GetAccessibleRoleSelf(unsigned long long)
PUBLIC 119c0c 0 HIScrollBar::GetAccessibleSubRoleSelf(unsigned long long)
PUBLIC 119c7c 0 HIScrollBar::GetAccessibleChildrenSelf(unsigned long long, __CFArray*)
PUBLIC 119daa 0 HIScrollBar::GetAccessibleParentSelf(unsigned long long, __AXUIElement const**)
PUBLIC 119dee 0 HIScrollBar::GetAccessibleChildAtPointSelf(unsigned long long, CGPoint const&, __AXUIElement const**)
PUBLIC 119e8e 0 HIScrollBar::GetAllAccessibleAttributeNamesSelf(unsigned long long, __CFArray*)
PUBLIC 119f46 0 HIScrollBar::GetNamedAccessibleAttributeSelf(unsigned long long, __CFString const*, unsigned int, OpaqueEventRef*)
PUBLIC 11a34c 0 HIScrollBar::SetNamedAccessibleAttributeSelf(unsigned long long, __CFString const*, unsigned int, OpaqueEventRef*)
PUBLIC 11a458 0 HIScrollBar::IsNamedAccessibleAttributeSettableSelf(unsigned long long, __CFString const*, unsigned int, unsigned char*)
PUBLIC 11a4ec 0 HIScrollBar::GetAllAccessibleActionNamesSelf(unsigned long long, __CFArray*)
PUBLIC 11a526 0 HIScrollBar::CopyAccessibleActionDescriptionSelf(unsigned long long, __CFString const*, unsigned int, __CFString const**)
PUBLIC 11a59e 0 HIScrollBar::PerformAccessibleActionSelf(unsigned long long, __CFString const*, unsigned int, unsigned char)
PUBLIC 11a5f0 0 _HIShrinkToFitEditRegisterClass
PUBLIC 11a61f 0 CreateShrinkToFitEditControl
PUBLIC 11a6e2 0 _HIShrinkToFitEditFieldCreateWithClass
PUBLIC 11a7c6 0 HISTFTextInputView::HISTFTextInputView(OpaqueHIObjectRef*)
PUBLIC 11a86e 0 TSTFControlText::~TSTFControlText()
PUBLIC 11a896 0 HISTFTextInputView::~HISTFTextInputView()
PUBLIC 11a8de 0 HISTFTextInputView::~HISTFTextInputView()
PUBLIC 11a8e8 0 HISTFTextInputView::~HISTFTextInputView()
PUBLIC 11a916 0 HISTFTextInputView::CreateView(OpaqueControlRef*, __CFString const*, ControlFontStyleRec const*, OpaqueControlRef**)
PUBLIC 11aa1a 0 HISTFTextInputView::GetTextHIObject(OpaqueControlRef*, OpaqueHIObjectRef**)
PUBLIC 11aa4e 0 HISTFTextInputView::Construct(OpaqueHIObjectRef*)
PUBLIC 11aaa2 0 HISTFTextInputView::Initialize(OpaqueEventRef*)
PUBLIC 11abe6 0 HISTFTextInputView::DisplayDebugInfo()
PUBLIC 11abf8 0 HISTFTextInputView::GetKindSelf()
PUBLIC 11ac08 0 HISTFTextInputView::GetBehaviors()
PUBLIC 11ac18 0 HISTFTextInputView::GetOptimalSizeSelf(CGSize*, float*)
PUBLIC 11ac88 0 HISTFTextInputView::GetTextSize(CGSize*, float*)
PUBLIC 11acfc 0 HISTFTextInputView::GetPartHitSelf(CGPoint const&)
PUBLIC 11ad62 0 HISTFTextInputView::TrackSelf(OpaqueEventRef*, short*)
PUBLIC 11ae1e 0 HISTFTextInputView::DrawSelf(short, __HIShape const*, CGContext*)
PUBLIC 11af48 0 HISTFTextInputView::GetTextFrameBounds(CGRect*, float*)
PUBLIC 11aff4 0 HISTFTextInputView::GetDataSelf(unsigned int, short, long, long*, void*)
PUBLIC 11b062 0 HISTFTextInputView::SetDataSelf(unsigned int, short, long, void const*)
PUBLIC 11b0ca 0 HISTFTextInputView::SetFocusPartSelf(short, unsigned char, short*)
PUBLIC 11b15c 0 HISTFTextInputView::BoundsChangedSelf(unsigned int, CGRect const&, CGRect const&)
PUBLIC 11b1e8 0 HISTFTextInputView::ActivationChangedSelf()
PUBLIC 11b22e 0 HISTFTextInputView::VisibilityChangedSelf()
PUBLIC 11b25e 0 HIShrinkToFitEditField::HIShrinkToFitEditField(OpaqueHIObjectRef*)
PUBLIC 11b2de 0 HIShrinkToFitEditField::~HIShrinkToFitEditField()
PUBLIC 11b39a 0 HIShrinkToFitEditField::HideWindow()
PUBLIC 11b42c 0 HIShrinkToFitEditField::RemoveFromParent(OpaqueWindowPtr*)
PUBLIC 11b4a6 0 HIShrinkToFitEditField::~HIShrinkToFitEditField()
PUBLIC 11b4b0 0 HIShrinkToFitEditField::~HIShrinkToFitEditField()
PUBLIC 11b4de 0 HIShrinkToFitEditField::Construct(OpaqueHIObjectRef*)
PUBLIC 11b532 0 HIShrinkToFitEditField::Initialize(OpaqueEventRef*)
PUBLIC 11b858 0 HIShrinkToFitEditField::ClassTextAccessibilityEventHandler(OpaqueEventHandlerCallRef*, OpaqueEventRef*, void*)
PUBLIC 11b872 0 HIShrinkToFitEditField::ClassForwardEventHandler(OpaqueEventHandlerCallRef*, OpaqueEventRef*, void*)
PUBLIC 11b882 0 HIShrinkToFitEditField::ClassAppAccessibilityEventHandler(OpaqueEventHandlerCallRef*, OpaqueEventRef*, void*)
PUBLIC 11b892 0 HIShrinkToFitEditField::ClassTextViewEventHandler(OpaqueEventHandlerCallRef*, OpaqueEventRef*, void*)
PUBLIC 11b8a6 0 HIShrinkToFitEditField::ClassDisplayWindowEventHandler(OpaqueEventHandlerCallRef*, OpaqueEventRef*, void*)
PUBLIC 11b8be 0 HIShrinkToFitEditField::GetKindSelf()
PUBLIC 11b8ce 0 HIShrinkToFitEditField::GetBehaviors()
PUBLIC 11b8da 0 HIShrinkToFitEditField::GetPartHitSelf(CGPoint const&)
PUBLIC 11b922 0 HIShrinkToFitEditField::GetDataSelf(unsigned int, short, long, long*, void*)
PUBLIC 11ba7e 0 HIShrinkToFitEditField::SetDataSelf(unsigned int, short, long, void const*)
PUBLIC 11bb70 0 HIShrinkToFitEditField::GetPartRegionOrShapeSelf(short, OpaqueRgnHandle*, __HIShape const**)
PUBLIC 11bbe8 0 HIShrinkToFitEditField::CalcControlRect(CGRect*)
PUBLIC 11bd16 0 HIShrinkToFitEditField::CalcTextBounds(CGRect*)
PUBLIC 11bd64 0 HIShrinkToFitEditField::GetOptimalSizeSelf(CGSize*, float*)
PUBLIC 11bde8 0 HIShrinkToFitEditField::DrawSelf(short, __HIShape const*, CGContext*)
PUBLIC 11be64 0 HIShrinkToFitEditField::OwningWindowChangedSelf(OpaqueWindowPtr*, OpaqueWindowPtr*)
PUBLIC 11c046 0 HIShrinkToFitEditField::ClassParentWindowEventHandler(OpaqueEventHandlerCallRef*, OpaqueEventRef*, void*)
PUBLIC 11c05c 0 HIShrinkToFitEditField::VisibilityChangedSelf()
PUBLIC 11c0ee 0 HIShrinkToFitEditField::BoundsChangedSelf(unsigned int, CGRect const&, CGRect const&)
PUBLIC 11c15e 0 HIShrinkToFitEditField::SetFocusPartSelf(short, unsigned char, short*)
PUBLIC 11c23c 0 HIShrinkToFitEditField::DisplayWindowEventHandler(OpaqueEventHandlerCallRef*, OpaqueEventRef*)
PUBLIC 11c3d4 0 HIShrinkToFitEditField::TextAccessibilityEventHandler(OpaqueEventHandlerCallRef*, OpaqueEventRef*)
PUBLIC 11c794 0 HIShrinkToFitEditField::AppAccessibilityEventHandler(OpaqueEventHandlerCallRef*, OpaqueEventRef*)
PUBLIC 11c8da 0 HIShrinkToFitEditField::ForwardEventHandler(OpaqueEventHandlerCallRef*, OpaqueEventRef*)
PUBLIC 11c92c 0 HIShrinkToFitEditField::AdjustTextWindow()
PUBLIC 11ccb0 0 HIShrinkToFitEditField::GetFlushness()
PUBLIC 11cd46 0 TSTFControlText::~TSTFControlText()
PUBLIC 11cd74 0 TUnicodeText::TextensionCallEntry(bool)
PUBLIC 11cd82 0 TSTFControlText::GetInvokeView()
PUBLIC 11cd90 0 _HISliderRegisterClass
PUBLIC 11cdbf 0 CreateSliderControl
PUBLIC 11ce93 0 _HISliderCreateWithClass
PUBLIC 11cfee 0 HISlider::Construct(OpaqueHIObjectRef*)
PUBLIC 11d036 0 HISlider::HISlider(OpaqueHIObjectRef*)
PUBLIC 11d116 0 HISlider::~HISlider()
PUBLIC 11d120 0 HISlider::~HISlider()
PUBLIC 11d14e 0 HISlider::HandleStateChangedHook(OpaqueEventHandlerCallRef*, OpaqueEventRef*, void*)
PUBLIC 11d344 0 HISlider::DrawGhostThumb(OpaqueRgnHandle*)
PUBLIC 11d398 0 HISlider::LiveUpdate(OpaqueRgnHandle*)
PUBLIC 11d3e2 0 HISlider::CalcDragLimits(IndicatorDragConstraint*)
PUBLIC 11d708 0 HISlider::FindScrollToHerePart(Point*)
PUBLIC 11dc7c 0 HISlider::SetRelativePosition(Point)
PUBLIC 11dd8e 0 HISlider::Initialize(OpaqueEventRef*)
PUBLIC 11de66 0 HISlider::InitializeCommon()
PUBLIC 11dec0 0 HISlider::InitializeFromArchive(OpaqueEventRef*, OpaqueHIArchiveRef*)
PUBLIC 11df80 0 HISlider::Encode(OpaqueHIArchiveRef*)
PUBLIC 11e00c 0 HISlider::GetKindSelf()
PUBLIC 11e01c 0 HISlider::GetBehaviors()
PUBLIC 11e046 0 HISlider::DrawSelf(short, __HIShape const*, CGContext*)
PUBLIC 11e18a 0 HISlider::GetTrackInfo(short, HIThemeTrackDrawInfo*)
PUBLIC 11e8be 0 HISlider::EnlargeBoundsForTickMarks(CGRect*, HIThemeTrackDrawInfo const&)
PUBLIC 11eae6 0 HISlider::GetPartHitSelf(CGPoint const&)
PUBLIC 11eba6 0 HISlider::GetPartRegionOrShapeSelf(short, OpaqueRgnHandle*, __HIShape const**)
PUBLIC 11ec6c 0 HISlider::GetOptimalSizeSelf(CGSize*, float*)
PUBLIC 11ef86 0 HISlider::CalcValueFromIndicatorPosition(CGRect const&)
PUBLIC 11efda 0 HISlider::HiliteChangedSelf(short, short)
PUBLIC 11f056 0 HISlider::SetFocusPartSelf(short, unsigned char, short*)
PUBLIC 11f092 0 HISlider::AcceptTextInputSelf(unsigned short, unsigned int, OpaqueEventRef*)
PUBLIC 11f34c 0 HISlider::SimulateHitSelf(short, unsigned int, short*)
PUBLIC 11f376 0 HISlider::PrintDebugInfo(HIDebugLog&)
PUBLIC 11f490 0 HISlider::IsSizeAllowedSelf(unsigned short)
PUBLIC 11f4b0 0 HISlider::GetAccessibleChildrenSelf(unsigned long long, __CFArray*)
PUBLIC 11f506 0 HISlider::GetAccessibleParentSelf(unsigned long long, __AXUIElement const**)
PUBLIC 11f554 0 HISlider::GetAccessibleChildAtPointSelf(unsigned long long, CGPoint const&, __AXUIElement const**)
PUBLIC 11f618 0 HISlider::GetAccessibleChildAtFocusSelf(unsigned long long, __AXUIElement const**)
PUBLIC 11f67e 0 HISlider::GetAllAccessibleAttributeNamesSelf(unsigned long long, __CFArray*)
PUBLIC 11f73c 0 HISlider::GetNamedAccessibleAttributeSelf(unsigned long long, __CFString const*, unsigned int, OpaqueEventRef*)
PUBLIC 11f9fa 0 HISlider::SetNamedAccessibleAttributeSelf(unsigned long long, __CFString const*, unsigned int, OpaqueEventRef*)
PUBLIC 11faf0 0 HISlider::IsNamedAccessibleAttributeSettableSelf(unsigned long long, __CFString const*, unsigned int, unsigned char*)
PUBLIC 11fb48 0 HISlider::GetAccessibleRoleSelf(unsigned long long)
PUBLIC 11fb72 0 HISlider::GetAllAccessibleActionNamesSelf(unsigned long long, __CFArray*)
PUBLIC 11fbbc 0 HISlider::CopyAccessibleActionDescriptionSelf(unsigned long long, __CFString const*, unsigned int, __CFString const**)
PUBLIC 11fc40 0 HISlider::PerformAccessibleActionSelf(unsigned long long, __CFString const*, unsigned int, unsigned char)
PUBLIC 11fc80 0 _HIStaticTextViewRegisterClass
PUBLIC 11fcaf 0 CreateStaticTextControl
PUBLIC 11fd3c 0 _HIStaticTextCreateWithClass
PUBLIC 11fe20 0 HIStaticTextView::Construct(OpaqueHIObjectRef*)
PUBLIC 11fe68 0 HIStaticTextView::HIStaticTextView(OpaqueHIObjectRef*)
PUBLIC 11ff1c 0 HIStaticTextView::~HIStaticTextView()
PUBLIC 11ff96 0 HIStaticTextView::~HIStaticTextView()
PUBLIC 11ffa0 0 HIStaticTextView::~HIStaticTextView()
PUBLIC 11ffce 0 HIStaticTextView::GetKindSelf()
PUBLIC 11ffde 0 HIStaticTextView::GetBehaviors()
PUBLIC 11ffee 0 HIStaticTextView::Initialize(OpaqueEventRef*)
PUBLIC 1200a6 0 HIStaticTextView::CreateStringCopy(__CFString const*)
PUBLIC 1200f0 0 HIStaticTextView::InitializeCommon()
PUBLIC 120168 0 HIStaticTextView::InitializeFromArchive(OpaqueEventRef*, OpaqueHIArchiveRef*)
PUBLIC 12027a 0 HIStaticTextView::CheckForCitations()
PUBLIC 120348 0 HIStaticTextView::Encode(OpaqueHIArchiveRef*)
PUBLIC 12045a 0 HIStaticTextView::GetCurrentString()
PUBLIC 1204ac 0 HIStaticTextView::CreateMutableStringCopy(__CFString const*)
PUBLIC 1204fa 0 HIStaticTextView::GetStringLength(__CFString const*)
PUBLIC 120542 0 HIStaticTextView::UpdateCFStringFromTextHandle()
PUBLIC 1205b6 0 HIStaticTextView::DrawSelf(short, __HIShape const*, CGContext*)
PUBLIC 1206ee 0 HIStaticTextView::CreateCitedString()
PUBLIC 120740 0 HIStaticTextView::SetText(__CFString const*)
PUBLIC 1207ac 0 HIStaticTextView::GetDataSelf(unsigned int, short, long, long*, void*)
PUBLIC 120a26 0 HIStaticTextView::SetDataSelf(unsigned int, short, long, void const*)
PUBLIC 120b1e 0 HIStaticTextView::IsSizeAllowedSelf(unsigned short)
PUBLIC 120b30 0 HIStaticTextView::GetDefaultSizeSelf() const
PUBLIC 120b3c 0 HIStaticTextView::GetOptimalSizeSelf(CGSize*, float*)
PUBLIC 120c6e 0 HIStaticTextView::GetFontStyleForPartSelf(short, short*)
PUBLIC 120c88 0 HIStaticTextView::CalculateHIThemeTextInfoForPartSelf(short, HIThemeTextInfo*, unsigned char)
PUBLIC 120d6e 0 HIStaticTextView::ReplaceCitationsCFString(__CFString*)
PUBLIC 120ee4 0 HIStaticTextView::CoreReplaceCitationsCFString(__CFString*, __CFString const**, __CFString const**, CFRange, short)
PUBLIC 121004 0 HIStaticTextView::GetAccessibleRoleSelf(unsigned long long)
PUBLIC 12101c 0 HIStaticTextView::GetAllAccessibleAttributeNamesSelf(unsigned long long, __CFArray*)
PUBLIC 121058 0 HIStaticTextView::GetNamedAccessibleAttributeSelf(unsigned long long, __CFString const*, unsigned int, OpaqueEventRef*)
PUBLIC 121118 0 HIStaticTextView::IsNamedAccessibleAttributeSettableSelf(unsigned long long, __CFString const*, unsigned int, unsigned char*)
PUBLIC 121134 0 HIStaticTextView::PrintDebugInfo(HIDebugLog&)
PUBLIC 12123f 0 CreateTabsControl
PUBLIC 1212e3 0 _HITabViewCreateWithClass
PUBLIC 1214f0 0 SetTabEnabled
PUBLIC 121516 0 HITabbedView::HITabbedView(OpaqueHIObjectRef*)
PUBLIC 1215d6 0 HITabbedView::~HITabbedView()
PUBLIC 1216a4 0 HITabbedView::GetTabEntry(short)
PUBLIC 121704 0 HITabbedView::DisposeTabEntryContents(HITabbedView::TabDataEntry*)
PUBLIC 121732 0 HITabbedView::~HITabbedView()
PUBLIC 12173c 0 HITabbedView::~HITabbedView()
PUBLIC 12176a 0 HITabbedView::Construct(OpaqueHIObjectRef*)
PUBLIC 1217a8 0 HITabbedView::Initialize(OpaqueEventRef*)
PUBLIC 1219b8 0 HITabbedView::InitializeCommon(unsigned short)
PUBLIC 121a30 0 HITabbedView::SyncTabCount(short)
PUBLIC 121b4a 0 HITabbedView::SetTabEntry(short, HIViewAllImageContent const*, short, __CFString const*)
PUBLIC 121be8 0 HITabbedView::InitializeFromArchive(OpaqueEventRef*, OpaqueHIArchiveRef*)
PUBLIC 121e8e 0 HITabbedView::HandleTabSizing()
PUBLIC 121f32 0 HITabbedView::Encode(OpaqueHIArchiveRef*)
PUBLIC 12220a 0 HITabbedView::GetKindSelf()
PUBLIC 12221a 0 HITabbedView::GetBehaviors()
PUBLIC 12222a 0 HITabbedView::IsHitByPointSelf(CGPoint const&, short*)
PUBLIC 1223f8 0 HITabbedView::DecodeTabInfo(short, HIThemeTabDrawInfo*)
PUBLIC 122570 0 HITabbedView::GetPartRegionOrShapeSelf(short, OpaqueRgnHandle*, __HIShape const**)
PUBLIC 1228aa 0 HITabbedView::InvalidateSizeCaches()
PUBLIC 122908 0 HITabbedView::GetTabAreaRect(HIThemeTextInfo*, CGRect*)
PUBLIC 122be4 0 HITabbedView::SetFocusPartSelf(short, unsigned char, short*)
PUBLIC 122c66 0 HITabbedView::GetNextTabFocus(short, bool)
PUBLIC 122d26 0 HITabbedView::AcceptTextInputSelf(unsigned short, unsigned int, OpaqueEventRef*)
PUBLIC 122dfe 0 HITabbedView::SimulateHitSelf(short, unsigned int, short*)
PUBLIC 122e1c 0 HITabbedView::ApplyTextColorSelf(CGContext*, bool, OpaqueEventRef*)
PUBLIC 122e5c 0 HITabbedView::GetFontStyleForPartSelf(short, short*)
PUBLIC 122e76 0 HITabbedView::CalculateHIThemeTextInfoForPartSelf(short, HIThemeTextInfo*, unsigned char)
PUBLIC 122ee6 0 HITabbedView::DrawSelf(short, __HIShape const*, CGContext*)
PUBLIC 1233c0 0 HITabbedView::GetTabPaneRect(Rect*)
PUBLIC 1234a8 0 HITabbedView::CalculateTabDrawState(short)
PUBLIC 1234fc 0 HITabbedView::GetTabRect(short, HIThemeTextInfo*, Rect*)
PUBLIC 1239a8 0 HITabbedView::DrawOneTab(short, CGContext*, HIThemeTextInfo*, unsigned char, unsigned char)
PUBLIC 123a7a 0 HITabbedView::BoundsChangedSelf(unsigned int, CGRect const&, CGRect const&)
PUBLIC 123a84 0 HITabbedView::GetAutoToggleValueSelf(short, int*)
PUBLIC 123ab0 0 HITabbedView::HiliteChangedSelf(short, short)
PUBLIC 123b58 0 HITabbedView::ValueFieldChangedSelf()
PUBLIC 123c0c 0 HITabbedView::GetDataSelf(unsigned int, short, long, long*, void*)
PUBLIC 12405e 0 HITabbedView::SetDataSelf(unsigned int, short, long, void const*)
PUBLIC 12435a 0 HITabbedView::SetTabEntryHilite(short, short)
PUBLIC 12438a 0 HITabbedView::PrintDebugInfo(HIDebugLog&)
PUBLIC 1244b4 0 HITabbedView::GetAccessibleChildrenSelf(unsigned long long, __CFArray*)
PUBLIC 1245a0 0 HITabbedView::GetAccessibleParentSelf(unsigned long long, __AXUIElement const**)
PUBLIC 1245fe 0 HITabbedView::GetAccessibleChildAtPointSelf(unsigned long long, CGPoint const&, __AXUIElement const**)
PUBLIC 1247da 0 HITabbedView::GetAccessibleChildAtFocusSelf(unsigned long long, __AXUIElement const**)
PUBLIC 1248ca 0 HITabbedView::GetAllAccessibleAttributeNamesSelf(unsigned long long, __CFArray*)
PUBLIC 1249d6 0 HITabbedView::GetNamedAccessibleAttributeSelf(unsigned long long, __CFString const*, unsigned int, OpaqueEventRef*)
PUBLIC 124f24 0 HITabbedView::IsNamedAccessibleAttributeSettableSelf(unsigned long long, __CFString const*, unsigned int, unsigned char*)
PUBLIC 124fa6 0 HITabbedView::SetNamedAccessibleAttributeSelf(unsigned long long, __CFString const*, unsigned int, OpaqueEventRef*)
PUBLIC 12506e 0 HITabbedView::GetAccessibleRoleSelf(unsigned long long)
PUBLIC 1250b2 0 HITabbedView::CopyAccessibleRoleDescriptionSelf(unsigned long long)
PUBLIC 1250da 0 HITabbedView::CopyAccessibleTitleSelf(unsigned long long)
PUBLIC 125106 0 HITabbedView::GetAllAccessibleActionNamesSelf(unsigned long long, __CFArray*)
PUBLIC 125150 0 HITabbedView::CopyAccessibleActionDescriptionSelf(unsigned long long, __CFString const*, unsigned int, __CFString const**)
PUBLIC 1251a0 0 HITabbedView::PerformAccessibleActionSelf(unsigned long long, __CFString const*, unsigned int, unsigned char)
PUBLIC 1251ec 0 HITabbedView::SubviewAddedSelf(HIView*)
PUBLIC 12527a 0 HITabbedView::SubviewAccessibilityEventHandler(OpaqueEventHandlerCallRef*, OpaqueEventRef*, void*)
PUBLIC 1253ae 0 HITabbedView::SubviewRemovedSelf(HIView*)
PUBLIC 1253ea 0 HITabbedView::SizeChangedSelf()
PUBLIC 1253fa 0 HITabbedView::GetTotalTabsWidth(HIThemeTextInfo*)
PUBLIC 12554a 0 HITabbedView::GetTabEntryHilite(short)
PUBLIC 125576 0 HITabbedView::DrawTabContents(short, HITabbedView::TabDataEntry*, HIThemeTabDrawInfo const&, CGRect const&, HIThemeTextInfo*, CGContext*)
PUBLIC 125ea0 0 HITabbedView::IsSizeAllowedSelf(unsigned short)
PUBLIC 125ecc 0 TUnicodeText::TUnicodeText()
PUBLIC 125f14 0 TUnicodeText::Init(HIView*, CGRect const&, unsigned int)
PUBLIC 126112 0 TUnicodeText::~TUnicodeText()
PUBLIC 126126 0 TUnicodeText::~TUnicodeText()
PUBLIC 12613a 0 TUnicodeText::~TUnicodeText()
PUBLIC 126172 0 TUnicodeText::SetControls(unsigned long, unsigned int const*, TXNControlData const*)
PUBLIC 1261e8 0 TUnicodeText::ClassShouldChangeInRangeProc(long, long, unsigned short const*, long, void const*, long*, unsigned char*)
PUBLIC 126204 0 TUnicodeText::ClassDidChangeProc(unsigned short const*, long, long, long, void const*)
PUBLIC 126232 0 TUnicodeText::RegisterCompositingCallbacks()
PUBLIC 1262da 0 TUnicodeText::Dispose()
PUBLIC 12636c 0 TUnicodeText::GetControls(unsigned long, unsigned int const*, TXNControlData*)
PUBLIC 1263e0 0 TUnicodeText::SetSpellCheckingControl(unsigned char)
PUBLIC 126430 0 TUnicodeText::GetSpellCheckingControl(unsigned char*)
PUBLIC 126464 0 TUnicodeText::SetSpellCheckingAsYouTypeControl(unsigned char)
PUBLIC 126472 0 TUnicodeText::GetSpellCheckingAsYouTypeControl(unsigned char*)
PUBLIC 12648e 0 TUnicodeText::SetFontStyle(ControlFontStyleRec const&)
PUBLIC 12649a 0 TUnicodeText::GetFontStyle(ControlFontStyleRec*)
PUBLIC 1264a6 0 TUnicodeText::IsReadOnly()
PUBLIC 1264dc 0 TUnicodeText::IsSelectionVisible()
PUBLIC 126512 0 TUnicodeText::SetPasswordField(unsigned char)
PUBLIC 12659e 0 TUnicodeText::SetFocus(unsigned char, unsigned char)
PUBLIC 126636 0 TUnicodeText::EnableIdleTimer(unsigned char)
PUBLIC 1266b2 0 TUnicodeText::HandleTrackingClick(OpaqueEventRef*)
PUBLIC 12673e 0 TUnicodeText::HandleTrackingClick(EventRecord const*)
PUBLIC 12679a 0 TUnicodeText::GetSelection(unsigned int*, unsigned int*)
PUBLIC 126806 0 TUnicodeText::SetSelection(unsigned int, unsigned int)
PUBLIC 12688c 0 TUnicodeText::ShowSelection(unsigned char)
PUBLIC 1268ea 0 TUnicodeText::NotifySelectionChange(unsigned char)
PUBLIC 126948 0 TUnicodeText::SetData(unsigned int, unsigned int, unsigned int, void const*, long, unsigned char)
PUBLIC 126a0e 0 TUnicodeText::GetDataSize()
PUBLIC 126a68 0 TUnicodeText::GetLineCount(unsigned long*)
PUBLIC 126ac8 0 TUnicodeText::GetAllLineMetrics(unsigned int, int*, int*, short*, short*, short*)
PUBLIC 126b60 0 TUnicodeText::GetLineMetrics(unsigned int, int*, int*)
PUBLIC 126bd4 0 TUnicodeText::GetRectBounds(CGRect*, CGRect*, CGRect*, unsigned char)
PUBLIC 126cb8 0 TUnicodeText::ShowOffset(unsigned int)
PUBLIC 126d14 0 TUnicodeText::SetAdminMode(unsigned char)
PUBLIC 126d50 0 TUnicodeText::CreateDataHandle(unsigned int, unsigned int, char***)
PUBLIC 126dc4 0 TUnicodeText::CreateDataHandleEncoded(unsigned int, unsigned int, unsigned int, char***)
PUBLIC 126e4c 0 TUnicodeText::SetTypeAttributes(unsigned int, unsigned int, unsigned long, TXNTypeAttributes const*)
PUBLIC 126ed0 0 TUnicodeText::SetTextColor(RGBColor const&)
PUBLIC 126f48 0 TUnicodeText::SetBackgroundColor(RGBColor const&)
PUBLIC 126fc6 0 TUnicodeText::TellBaseHandlerToRefuseEvent(OpaqueEventRef*)
PUBLIC 127022 0 TUnicodeText::GetChangeCount()
PUBLIC 127062 0 TUnicodeText::DrawWithContext(CGContext*, CGRect const&, CGRect*)
PUBLIC 1271cc 0 TUnicodeText::Cut()
PUBLIC 127226 0 TUnicodeText::Copy()
PUBLIC 127280 0 TUnicodeText::Paste()
PUBLIC 1272da 0 TUnicodeText::Clear()
PUBLIC 127334 0 TUnicodeText::Undo()
PUBLIC 12738a 0 TUnicodeText::Redo()
PUBLIC 1273e0 0 TUnicodeText::SetBounds(CGRect const&)
PUBLIC 127462 0 TUnicodeText::SizeFrame(CGSize const&)
PUBLIC 1274ca 0 TUnicodeText::ScrollPixels(float, float, float*, float*)
PUBLIC 127586 0 TUnicodeText::IsSelectionEmpty()
PUBLIC 1275ec 0 TUnicodeText::CanUndo(__CFString const**)
PUBLIC 12764e 0 TUnicodeText::CanRedo(__CFString const**)
PUBLIC 1276b0 0 TUnicodeText::BindToWindow(OpaqueWindowPtr*)
PUBLIC 127714 0 TUnicodeText::Idle()
PUBLIC 12776a 0 TUnicodeText::SetMouseLocation(CGPoint const&)
PUBLIC 1277de 0 TUnicodeText::SendTextAcceptedEvent()
PUBLIC 127876 0 TUnicodeText::ClassInvalidationProc(Rect*, void*)
PUBLIC 1278e4 0 TUnicodeText::ClassMouseLocationProc(unsigned char, Point*, unsigned char, void*)
PUBLIC 127948 0 TUnicodeText::ClassScrollProc(double, double, CGRect*, void*)
PUBLIC 127962 0 TUnicodeText::ClassScrollInfoProc(int, int, unsigned int, void*)
PUBLIC 127980 0 TUnicodeText::RemoveCompositingCallbacks()
PUBLIC 127a12 0 TUnicodeText::SetSmallSystemDefaultFontSize()
PUBLIC 127a20 0 TUnicodeText::GetAccessibilityHIObject()
PUBLIC 127a8e 0 TUnicodeText::GetAccessibleRole()
PUBLIC 127a9c 0 TUnicodeText::GetAllAccessibleAttributeNames(__CFArray*)
PUBLIC 127afa 0 TUnicodeText::GetNamedAccessibleAttribute(__CFString const*, unsigned int, OpaqueEventRef*)
PUBLIC 127c24 0 TUnicodeText::CopyContents(unsigned int, unsigned int, __CFString const**)
PUBLIC 127c8e 0 TUnicodeText::SetNamedAccessibleAttribute(__CFString const*, unsigned int, OpaqueEventRef*)
PUBLIC 127dc2 0 TUnicodeText::SetContents(__CFString const*, unsigned int, unsigned int, unsigned char)
PUBLIC 127e62 0 TUnicodeText::IsNamedAccessibleAttributeSettable(__CFString const*, unsigned int, unsigned char*)
PUBLIC 127ed4 0 TUnicodeText::HandleProcessHICommandID(OpaqueEventHandlerCallRef*, unsigned int)
PUBLIC 127fac 0 TUnicodeText::HandleUpdateStatusHICommand(OpaqueEventHandlerCallRef*, HICommand const&)
PUBLIC 128268 0 TUnicodeText::HandleOwningWindowChanged(OpaqueEventHandlerCallRef*, OpaqueWindowPtr*, OpaqueWindowPtr*)
PUBLIC 1282aa 0 TUnicodeText::HandleCompositingModeChanged(OpaqueEventHandlerCallRef*, OpaqueEventRef*)
PUBLIC 12835e 0 TUnicodeText::HandleOwningWindowFocusChanged(OpaqueEventHandlerCallRef*, OpaqueEventRef*, unsigned char)
PUBLIC 128370 0 TUnicodeText::HandleTextDidChange(unsigned short const*, long, long, long)
PUBLIC 1284a0 0 TUnicodeText::MouseScroll(OpaqueEventHandlerCallRef*, OpaqueEventRef*)
PUBLIC 128602 0 TUnicodeText::InvalidationProc(CGRect const&)
PUBLIC 128610 0 TUnicodeText::MouseLocationProc(unsigned char, CGPoint&, unsigned char)
PUBLIC 1286ba 0 TUnicodeText::ScrollProc(double, double, CGRect*)
PUBLIC 1286ca 0 TUnicodeText::ScrollInfoProc(float, float, unsigned int)
PUBLIC 1286d0 0 TUnicodeText::TextInputEventHandler(OpaqueEventHandlerCallRef*, OpaqueEventRef*)
PUBLIC 12884a 0 TUnicodeText::HandleTargetEvent(OpaqueEventHandlerCallRef*, OpaqueEventRef*)
PUBLIC 1288f8 0 TUnicodeText::HandleCommandEvent(OpaqueEventHandlerCallRef*, OpaqueEventRef*)
PUBLIC 128982 0 TUnicodeText::HandleTextInputEvent(OpaqueEventHandlerCallRef*, OpaqueEventRef*)
PUBLIC 128a22 0 TUnicodeText::HandleControlEvent(OpaqueEventHandlerCallRef*, OpaqueEventRef*)
PUBLIC 128b24 0 TUnicodeText::HandleServiceEvent(OpaqueEventHandlerCallRef*, OpaqueEventRef*)
PUBLIC 128da0 0 TUnicodeText::HandleWindowEvent(OpaqueEventHandlerCallRef*, OpaqueEventRef*)
PUBLIC 128e0e 0 TUnicodeText::ShouldChangeInRangeProc(long, long, unsigned short const*, long, long*, unsigned char*)
PUBLIC 12923c 0 TUnicodeText::ClassTextInputEventHandler(OpaqueEventHandlerCallRef*, OpaqueEventRef*, void*)
PUBLIC 129256 0 TUnicodeText::ClassIdleTimerProc(__EventLoopTimer*, void*)
PUBLIC 12928a 0 TUnicodeText::DragEnter(OpaqueDragRef*)
PUBLIC 12929e 0 TUnicodeText::DragWithin(OpaqueDragRef*)
PUBLIC 1292b2 0 TUnicodeText::DragLeave(OpaqueDragRef*)
PUBLIC 1292c6 0 TUnicodeText::DragReceive(OpaqueDragRef*)
PUBLIC 1292d6 0 TUnicodeText::HandleUnicodeForKeyEvent(OpaqueEventHandlerCallRef*, OpaqueEventRef*)
PUBLIC 1292fc 0 TControlText::TControlText()
PUBLIC 129350 0 TControlText::InitializeData()
PUBLIC 1293ec 0 TControlText::TControlText()
PUBLIC 1293f6 0 TControlText::~TControlText()
PUBLIC 129436 0 TControlText::~TControlText()
PUBLIC 129440 0 TControlText::~TControlText()
PUBLIC 12946e 0 TControlText::Init(HIView*, Rect const&, __CFString const*, ControlFontStyleRec const&, unsigned int)
PUBLIC 129642 0 TControlText::GetUserCanModifyState(unsigned int*)
PUBLIC 12968c 0 TControlText::SetupContextForOwningWindow(OpaqueWindowPtr*)
PUBLIC 1296f8 0 TControlText::SetSelectionTextCFString(unsigned int, unsigned int, __CFString const*)
PUBLIC 129786 0 TControlText::SetFontStyle(ControlFontStyleRec const&)
PUBLIC 12988e 0 TControlText::WindowHasDefaultOrCancel(OpaqueWindowPtr*, unsigned char*, unsigned char*)
PUBLIC 129914 0 TControlText::Dispose()
PUBLIC 129942 0 TControlText::Draw(CGContext*, Rect const*)
PUBLIC 12996e 0 TControlText::Redraw(CGContext*, Rect const*)
PUBLIC 129a30 0 TControlText::HandleTracking(Point const&, unsigned short const&, void (*)(OpaqueControlRef*, short))
PUBLIC 129a88 0 TControlText::HandleFocus(unsigned char)
PUBLIC 129b9c 0 TControlText::AdjustText()
PUBLIC 129c0e 0 TControlText::SetSelection(unsigned int, unsigned int)
PUBLIC 129cb4 0 TControlText::ConfirmSelection()
PUBLIC 129cfa 0 TControlText::UpdateSecureEventInput(bool)
PUBLIC 129d18 0 TControlText::AdjustForKeyScriptBehavior()
PUBLIC 129de2 0 TControlText::HandleActivate(unsigned char)
PUBLIC 129f30 0 TControlText::GetSelection(unsigned int*, unsigned int*)
PUBLIC 129f3e 0 TControlText::GetSingleLineControl(unsigned char*)
PUBLIC 129f7c 0 TControlText::CopySelectionText(unsigned int, unsigned int, void*, long, long*)
PUBLIC 12a004 0 TControlText::CopySelectionTextEncoded(unsigned int, unsigned int, unsigned int, void*, long, long*)
PUBLIC 12a08c 0 TControlText::CopySelectionTextToCFString(unsigned int, unsigned int)
PUBLIC 12a0c2 0 TControlText::CreateCFStringFromTextHandle(char**)
PUBLIC 12a100 0 TControlText::CopyCFString()
PUBLIC 12a14e 0 TControlText::GetCharacterCount()
PUBLIC 12a15e 0 TControlText::GetFontStyle(ControlFontStyleRec*)
PUBLIC 12a186 0 TControlText::GetTextRect(short*, short*, short*)
PUBLIC 12a2c0 0 TControlText::GetTaggedData(unsigned int, long, long*, void*)
PUBLIC 12a6c2 0 TControlText::SetTaggedData(unsigned int, long, void const*)
PUBLIC 12aa2a 0 TControlText::SetSingleLineControl(unsigned char)
PUBLIC 12aa54 0 TControlText::DisplayDebugInfo()
PUBLIC 12ab96 0 TControlText::SaveTextStyleForDraw(TControlTextPortStyleState*, unsigned char)
PUBLIC 12abe8 0 TControlText::SetVisibilityPriv(unsigned char)
PUBLIC 12ac94 0 TControlText::GenerateFontStyle(ControlFontStyleRec*)
PUBLIC 12ad9e 0 TControlText::RestoreTextStyleForDraw(TControlTextPortStyleState const&, unsigned char)
PUBLIC 12adf0 0 TControlText::SetVisibility(unsigned char)
PUBLIC 12adf8 0 TControlText::SetBounds(Rect const&)
PUBLIC 12ae3c 0 TControlText::SetDragAndDrop(OpaqueControlRef*, unsigned char)
PUBLIC 12aeb4 0 TControlText::BeginTrackInlineHole()
PUBLIC 12af04 0 TControlText::EndTrackInlineHole(OpaqueEventRef*)
PUBLIC 12b046 0 TControlText::CheckForAutoConfirmEvent(OpaqueEventRef*)
PUBLIC 12b0e4 0 TControlText::TextInputFilter(OpaqueEventRef*, TControlText::KeyDownInfo const&)
PUBLIC 12b2e6 0 TControlText::InvalidationProc(CGRect const&)
PUBLIC 12b370 0 TControlText::ScrollProc(double, double, CGRect*)
PUBLIC 12b3e6 0 TControlText::HandleProcessHICommandID(OpaqueEventHandlerCallRef*, unsigned int)
PUBLIC 12b46e 0 TControlText::HandleTextInputUpdateActiveInputAreaEvent(OpaqueEventHandlerCallRef*, OpaqueEventRef*)
PUBLIC 12b47e 0 TControlText::HandleInputUpdateActiveAreaCore(OpaqueEventHandlerCallRef*, OpaqueEventRef*, unsigned char, unsigned char*)
PUBLIC 12b5ee 0 TControlText::HandleUnicodeForKeyEvent(OpaqueEventHandlerCallRef*, OpaqueEventRef*)
PUBLIC 12b742 0 TControlText::HandleTextDidChange(unsigned short const*, long, long, long)
PUBLIC 12b766 0 TControlText::HandleRawKeyDown(OpaqueEventHandlerCallRef*, OpaqueEventRef*)
PUBLIC 12b810 0 TControlText::HandleMouseScroll(OpaqueEventHandlerCallRef*, OpaqueEventRef*)
PUBLIC 12b86c 0 TControlText::GetInvokeView()
PUBLIC 12b87a 0 TControlText::HandleOwningWindowChanged(OpaqueEventHandlerCallRef*, OpaqueWindowPtr*, OpaqueWindowPtr*)
PUBLIC 12b95c 0 TControlText::HandleOwningViewVisibilityChanged(OpaqueEventHandlerCallRef*, OpaqueEventRef*)
PUBLIC 12b9de 0 TControlText::HandleOwningViewEnabledStateChanged(OpaqueEventHandlerCallRef*, OpaqueEventRef*)
PUBLIC 12baaa 0 TControlText::HandleCompositingModeChanged(OpaqueEventHandlerCallRef*, OpaqueEventRef*)
PUBLIC 12bba6 0 TControlText::HandleOwningWindowFocusChanged(OpaqueEventHandlerCallRef*, OpaqueEventRef*, unsigned char)
PUBLIC 12bbb8 0 TControlText::GetFrameOptions(unsigned int)
PUBLIC 12bbef 0 CreateUserPaneControl
PUBLIC 12bc72 0 _HIUserPaneCreateWithClass
PUBLIC 12bd1c 0 _HIViewCreateCompatibilityRoot
PUBLIC 12be08 0 HIUserPane::HIUserPane(OpaqueHIObjectRef*)
PUBLIC 12bec6 0 HIUserPane::Construct(OpaqueHIObjectRef*)
PUBLIC 12bf04 0 HIUserPane::Initialize(OpaqueEventRef*)
PUBLIC 12bf70 0 HIUserPane::InitializeFromArchive(OpaqueEventRef*, OpaqueHIArchiveRef*)
PUBLIC 12bfa2 0 HIUserPane::Encode(OpaqueHIArchiveRef*)
PUBLIC 12bfac 0 HIUserPane::GetKindSelf()
PUBLIC 12bfbc 0 HIUserPane::IsHitByPointSelf(CGPoint const&, short*)
PUBLIC 12c042 0 HIUserPane::TrackSelf(OpaqueEventRef*, short*)
PUBLIC 12c0e8 0 HIUserPane::DrawSelf(short, __HIShape const*, CGContext*)
PUBLIC 12c172 0 HIUserPane::AcceptKeyInputSelf(char, int, unsigned int)
PUBLIC 12c1c0 0 HIUserPane::ActivationChangedSelf()
PUBLIC 12c200 0 HIUserPane::SetFocusPartSelf(short, unsigned char, short*)
PUBLIC 12c248 0 HIUserPane::GetDataSelf(unsigned int, short, long, long*, void*)
PUBLIC 12c33c 0 HIUserPane::SetDataSelf(unsigned int, short, long, void const*)
PUBLIC 12c430 0 HIUserPane::EnsureKeyboardInterface()
PUBLIC 12c472 0 HIUserPane::PrintDebugInfo(HIDebugLog&)
PUBLIC 12c4a0 0 HIUserPane::~HIUserPane()
PUBLIC 12c4aa 0 HIUserPane::~HIUserPane()
PUBLIC 12c4e0 0 CreateDataBrowserControl
PUBLIC 12c550 0 _HIDataBrowserCreateWithClass
PUBLIC 12c5d5 0 InitDataBrowserCallbacks
PUBLIC 12c614 0 SetDataBrowserCallbacks
PUBLIC 12c669 0 InitDataBrowserCustomCallbacks
PUBLIC 12c69c 0 SetDataBrowserCustomCallbacks
PUBLIC 12c6f1 0 AddDataBrowserItems
PUBLIC 12c7bb 0 RevealDataBrowserItem
PUBLIC 12c844 0 UpdateDataBrowserItems
PUBLIC 12c8e5 0 RemoveDataBrowserItems
PUBLIC 12c985 0 GetDataBrowserSelectionAnchor
PUBLIC 12c9e1 0 GetDataBrowserItems
PUBLIC 12ca75 0 GetDataBrowserItemState
PUBLIC 12cabf 0 GetDataBrowserItemCount
PUBLIC 12cb0f 0 IsDataBrowserItemSelected
PUBLIC 12cb58 0 SetDataBrowserSelectedItems
PUBLIC 12cbab 0 SetDataBrowserViewStyle
PUBLIC 12cbf2 0 GetDataBrowserViewStyle
PUBLIC 12cc47 0 SetDataBrowserSortProperty
PUBLIC 12cc90 0 SetDataBrowserHasScrollBars
PUBLIC 12cce1 0 GetDataBrowserHasScrollBars
PUBLIC 12cd38 0 SetDataBrowserScrollPosition
PUBLIC 12cd77 0 GetDataBrowserScrollPosition
PUBLIC 12cdf7 0 SetDataBrowserScrollBarInset
PUBLIC 12ce4c 0 SetDataBrowserSelectionFlags
PUBLIC 12ce88 0 GetDataBrowserSelectionFlags
PUBLIC 12ced4 0 SetDataBrowserPropertyFlags
PUBLIC 12cf1e 0 GetDataBrowserPropertyFlags
PUBLIC 12cf84 0 SetDataBrowserTableViewGeometry
PUBLIC 12cfd5 0 GetDataBrowserTableViewGeometry
PUBLIC 12d01f 0 SetDataBrowserTableViewRowHeight
PUBLIC 12d02f 0 SetDataBrowserTableViewItemRowHeight
PUBLIC 12d07a 0 GetDataBrowserTableViewRowHeight
PUBLIC 12d08c 0 GetDataBrowserTableViewItemRowHeight
PUBLIC 12d0e5 0 SetDataBrowserTableViewHiliteStyle
PUBLIC 12d121 0 GetDataBrowserTableViewHiliteStyle
PUBLIC 12d16a 0 GetDataBrowserTableViewColumnCount
PUBLIC 12d1b6 0 SetDataBrowserTableViewColumnWidth
PUBLIC 12d1c6 0 SetDataBrowserTableViewNamedColumnWidth
PUBLIC 12d211 0 GetDataBrowserTableViewColumnWidth
PUBLIC 12d223 0 GetDataBrowserTableViewNamedColumnWidth
PUBLIC 12d27c 0 SetDataBrowserTableViewColumnPosition
PUBLIC 12d2c7 0 GetDataBrowserTableViewColumnPosition
PUBLIC 12d320 0 GetDataBrowserTableViewColumnProperty
PUBLIC 12d379 0 SetDataBrowserListViewUsePlainBackground
PUBLIC 12d3c2 0 AddDataBrowserListViewColumn
PUBLIC 12d458 0 GetDataBrowserListViewHeaderDesc
PUBLIC 12d4ea 0 SetDataBrowserListViewHeaderBtnHeight
PUBLIC 12d527 0 GetDataBrowserListViewHeaderBtnHeight
PUBLIC 12d580 0 GetDataBrowserColumnViewDisplayType
PUBLIC 12d5bd 0 GetDataBrowserItemDataIcon
PUBLIC 12d5fe 0 SetDataBrowserItemDataIcon
PUBLIC 12d647 0 _CopyDataBrowserItemDataImage
PUBLIC 12d699 0 SetDataBrowserItemDataText
PUBLIC 12d707 0 GetDataBrowserItemDataText
PUBLIC 12d74e 0 SetDataBrowserItemDataBooleanValue
PUBLIC 12d790 0 TBrowser::TBrowser(OpaqueControlRef*, OpaqueCollection*, short)
PUBLIC 12d836 0 IBrowser::IBrowser(OpaqueControlRef*, OpaqueCollection*, short)
PUBLIC 12d966 0 TBrowser::~TBrowser()
PUBLIC 12da7a 0 TBrowser::~TBrowser()
PUBLIC 12da84 0 non-virtual thunk to TBrowser::~TBrowser()
PUBLIC 12da92 0 non-virtual thunk to TBrowser::~TBrowser()
PUBLIC 12daa0 0 TBrowser::~TBrowser()
PUBLIC 12dace 0 non-virtual thunk to TBrowser::~TBrowser()
PUBLIC 12dadc 0 non-virtual thunk to TBrowser::~TBrowser()
PUBLIC 12daea 0 TBrowser::Initialize(OpaqueEventHandlerCallRef*, OpaqueEventRef*)
PUBLIC 12db50 0 TBrowser::ViewStyle(unsigned int)
PUBLIC 12dd02 0 TBrowser::InitializeCommon()
PUBLIC 12dd90 0 TBrowser::InitializeFromArchive(OpaqueEventHandlerCallRef*, OpaqueEventRef*, OpaqueHIArchiveRef*)
PUBLIC 12e3e6 0 TBrowser::SetUpWindowEventHandler()
PUBLIC 12e45e 0 TBrowser::Encode(OpaqueEventHandlerCallRef*, OpaqueEventRef*, OpaqueHIArchiveRef*)
PUBLIC 12ea62 0 TBrowser::GetClassID()
PUBLIC 12eab6 0 TBrowser::EventHandlerProc(OpaqueEventHandlerCallRef*, OpaqueEventRef*, void*)
PUBLIC 12fc14 0 TBrowser::GetBounds(Rect&) const
PUBLIC 12fc48 0 TBrowser::SetBounds(Rect const&, Rect const&)
PUBLIC 12fcce 0 TBrowser::CreateEditText()
PUBLIC 12fd9e 0 TBrowser::KeyFilterProc(OpaqueControlRef*, short*, short*, unsigned short*)
PUBLIC 12fe32 0 TBrowser::EditTextValidation(OpaqueControlRef*)
PUBLIC 12fe50 0 IBrowser::HasFrame(bool)
PUBLIC 12fee2 0 IBrowser::DrawFrame(TDeviceRenderer::Context const&) const
PUBLIC 13000a 0 IBrowser::ChangeAttributes(unsigned int, unsigned int)
PUBLIC 130020 0 TBrowser::SetMetricValue(unsigned int, bool, float)
PUBLIC 130074 0 TBrowser::GetMetricValue(unsigned int, bool*, double*)
PUBLIC 1300d6 0 TBrowser::Root() const
PUBLIC 1300fa 0 non-virtual thunk to TBrowser::Root() const
PUBLIC 13011e 0 TBrowser::Target() const
PUBLIC 13013e 0 non-virtual thunk to TBrowser::Target() const
PUBLIC 13015e 0 TBrowser::Target(unsigned long)
PUBLIC 1301ae 0 TBrowser::GetSortOrder() const
PUBLIC 1301d2 0 TBrowser::SetSortOrder(unsigned short)
PUBLIC 13024c 0 TBrowser::ViewStyle() const
PUBLIC 130278 0 TBrowser::GetSortProperty() const
PUBLIC 130298 0 TBrowser::SetSortProperty(unsigned long)
PUBLIC 130312 0 TBrowser::AutoEditStartWaiting(unsigned long, unsigned long)
PUBLIC 130384 0 IBrowser::AutoEditStartWaiting(unsigned long, unsigned long)
PUBLIC 130396 0 TBrowser::IdleTimerProc(__EventLoopTimer*, void*)
PUBLIC 1303e8 0 TBrowser::AutoEditStopWaiting()
PUBLIC 130418 0 IBrowser::AutoEditStopWaiting()
PUBLIC 130422 0 TBrowser::ChangeAttributes(unsigned int, unsigned int)
PUBLIC 13044e 0 TBrowser::Open(unsigned long)
PUBLIC 13049e 0 TBrowser::Close(unsigned long)
PUBLIC 1304ee 0 TBrowser::EditText(__CFString const*&, Rect&, FontCache::FontStyle const&)
PUBLIC 13079a 0 TBrowser::SortItems(unsigned long, bool)
PUBLIC 130886 0 TBrowser::ForEachItem(unsigned long, unsigned int, void (*)(unsigned long, unsigned int, void*), void*, bool) const::ClientCallback::~ClientCallback()
PUBLIC 13088e 0 TBrowser::WindowEventHandlerProc(OpaqueEventHandlerCallRef*, OpaqueEventRef*, void*)
PUBLIC 13092e 0 TBrowser::Draw(CGContext*, OpaqueRgnHandle*) const
PUBLIC 130aa0 0 HackHandlerProc(OpaqueEventHandlerCallRef*, OpaqueEventRef*, void*)
PUBLIC 130c62 0 TBrowser::Idle()
PUBLIC 130d04 0 TBrowser::Focus(short)
PUBLIC 130e28 0 TBrowser::Track(Point, int, unsigned short)
PUBLIC 130e7a 0 TBrowser::HitTest(Point) const
PUBLIC 130ecc 0 TBrowser::ActiveEnabledStateChanged()
PUBLIC 13101c 0 TBrowser::KeyDown(short, short, unsigned short, double, bool)
PUBLIC 1311c2 0 TBrowser::SetCursorForLocation(Point, unsigned short) const
PUBLIC 1311f6 0 TBrowser::CalcRegion(OpaqueRgnHandle*, short) const
PUBLIC 131248 0 TBrowser::DragEnter(OpaqueDragRef*)
PUBLIC 13126a 0 TBrowser::DragLeave(OpaqueDragRef*)
PUBLIC 13128c 0 TBrowser::DragWithin(OpaqueDragRef*)
PUBLIC 1312ae 0 TBrowser::DragReceive(OpaqueDragRef*)
PUBLIC 1312d0 0 TBrowser::HelpContent(Point, short, short*, HMHelpContentRec*) const
PUBLIC 13135c 0 TBrowser::CalcBestRect(HLTB_CDEF::BestSizeRec&) const
PUBLIC 131424 0 TBrowser::GetClickActivation(Point, unsigned short) const
PUBLIC 131458 0 TBrowser::ShowContextualMenu(Point, bool)
PUBLIC 13168a 0 TBrowser::GetContextualMenu(OpaqueMenuRef*&, unsigned int&, __CFString const*&, AEDesc&) const
PUBLIC 1316ca 0 TBrowser::SelectContextualMenu(OpaqueMenuRef*&, unsigned int, short, unsigned short) const
PUBLIC 131710 0 TBrowser::AddRemoveSubControl(OpaqueControlRef*, bool)
PUBLIC 13174c 0 TBrowser::GetClientData(unsigned long, unsigned long, void*, bool) const
PUBLIC 1317ec 0 non-virtual thunk to TBrowser::GetClientData(unsigned long, unsigned long, void*, bool) const
PUBLIC 1317fe 0 TBrowser::CompareItems(unsigned long, unsigned long, unsigned long) const
PUBLIC 131820 0 non-virtual thunk to TBrowser::CompareItems(unsigned long, unsigned long, unsigned long) const
PUBLIC 13183e 0 TBrowser::NotifyItemEvent(unsigned long, unsigned int) const
PUBLIC 1318d0 0 non-virtual thunk to TBrowser::NotifyItemEvent(unsigned long, unsigned int) const
PUBLIC 1318de 0 TBrowser::NotifyDragCompleted(OpaqueDragRef*, int) const
PUBLIC 1318f8 0 non-virtual thunk to TBrowser::NotifyDragCompleted(OpaqueDragRef*, int) const
PUBLIC 131912 0 TBrowser::Draw(unsigned long, unsigned long, unsigned int, Rect const&, short, bool, TDeviceRenderer::Context const&) const
PUBLIC 131b0c 0 non-virtual thunk to TBrowser::Draw(unsigned long, unsigned long, unsigned int, Rect const&, short, bool, TDeviceRenderer::Context const&) const
PUBLIC 131b1a 0 TBrowser::HitTest(unsigned long, unsigned long, Rect&, Rect const&) const
PUBLIC 131b3e 0 non-virtual thunk to TBrowser::HitTest(unsigned long, unsigned long, Rect&, Rect const&) const
PUBLIC 131b62 0 TBrowser::TrackItem(unsigned long, unsigned long, Rect&, Point, int, unsigned short) const
PUBLIC 131b94 0 non-virtual thunk to TBrowser::TrackItem(unsigned long, unsigned long, Rect&, Point, int, unsigned short) const
PUBLIC 131bc6 0 TBrowser::GetClientEditTextInfo(unsigned long, unsigned long, __CFString const*&, Rect&, unsigned char&) const
PUBLIC 131bea 0 non-virtual thunk to TBrowser::GetClientEditTextInfo(unsigned long, unsigned long, __CFString const*&, Rect&, unsigned char&) const
PUBLIC 131c0e 0 TBrowser::AcceptDrag(unsigned long, unsigned long, OpaqueDragRef*, Rect const*) const
PUBLIC 131c62 0 non-virtual thunk to TBrowser::AcceptDrag(unsigned long, unsigned long, OpaqueDragRef*, Rect const*) const
PUBLIC 131c70 0 TBrowser::ReceiveDrag(unsigned long, unsigned long, OpaqueDragRef*, unsigned int) const
PUBLIC 131cc0 0 non-virtual thunk to TBrowser::ReceiveDrag(unsigned long, unsigned long, OpaqueDragRef*, unsigned int) const
PUBLIC 131cce 0 TBrowser::AddDragItem(unsigned long, OpaqueDragRef*) const
PUBLIC 131d08 0 non-virtual thunk to TBrowser::AddDragItem(unsigned long, OpaqueDragRef*) const
PUBLIC 131d42 0 TBrowser::GetDragRgn(unsigned long, unsigned long, Rect const&, OpaqueRgnHandle*) const
PUBLIC 131d5c 0 non-virtual thunk to TBrowser::GetDragRgn(unsigned long, unsigned long, Rect const&, OpaqueRgnHandle*) const
PUBLIC 131d76 0 TBrowser::GetHelpContent(unsigned long, unsigned long, HelpContentRequest&) const
PUBLIC 131e46 0 non-virtual thunk to TBrowser::GetHelpContent(unsigned long, unsigned long, HelpContentRequest&) const
PUBLIC 131e54 0 TBrowser::SendMessage(int, void*)
PUBLIC 132418 0 non-virtual thunk to TBrowser::SendMessage(int, void*)
PUBLIC 132426 0 TBrowser::SetData(unsigned int, unsigned int, long, char*)
PUBLIC 132a1c 0 non-virtual thunk to TBrowser::SetData(unsigned int, unsigned int, long, char*)
PUBLIC 132a2a 0 TBrowser::GetData(unsigned int, unsigned int, long, char*, long*) const
PUBLIC 1330b4 0 GatherItems(unsigned long, unsigned int, void*)
PUBLIC 1330fe 0 non-virtual thunk to TBrowser::GetData(unsigned int, unsigned int, long, char*, long*) const
PUBLIC 13310c 0 IBrowser::InvalidateRect(Rect const&)
PUBLIC 133182 0 IBrowser::ScrollRectWrapper(Rect const&, short, short, OpaqueRgnHandle*)
PUBLIC 13351e 0 IBrowser::DoubleClick(Point, int) const
PUBLIC 13359c 0 HLTB_CDEF::~HLTB_CDEF()
PUBLIC 1335a2 0 IBrowser::~IBrowser()
PUBLIC 1335ac 0 IBrowser::~IBrowser()
PUBLIC 1335e6 0 IBrowser::GetActiveItems() const
PUBLIC 133600 0 non-virtual thunk to HLTB_CDEF::~HLTB_CDEF()
PUBLIC 133604 0 non-virtual thunk to IBrowser::~IBrowser()
PUBLIC 133612 0 non-virtual thunk to IBrowser::~IBrowser()
PUBLIC 133648 0 non-virtual thunk to IBrowser::~IBrowser()
PUBLIC 133656 0 non-virtual thunk to IBrowser::~IBrowser()
PUBLIC 13368c 0 non-virtual thunk to IBrowser::GetActiveItems() const
PUBLIC 1336a4 0 TBrowser::DataSorter::operator()(unsigned long, unsigned long) const
PUBLIC 1336be 0 TBrowser::ForEachItem(unsigned long, unsigned int, void (*)(unsigned long, unsigned int, void*), void*, bool) const::ClientCallback::~ClientCallback()
PUBLIC 1336c8 0 TBrowser::ForEachItem(unsigned long, unsigned int, void (*)(unsigned long, unsigned int, void*), void*, bool) const::ClientCallback::operator()(unsigned long, unsigned int)
PUBLIC 1336ee 0 TBrowserView::AcquireScrollBar(TBrowserView::WhichScrollBar) const
PUBLIC 133801 0 SetScrollBarValues(TBrowserView::WhichScrollBar, OpaqueControlRef*, Rect const&, UPoint32 const&, UPoint32 const&)
PUBLIC 13389a 0 TBrowserView::TBrowserView(IBrowser&, bool, bool, bool, OpaqueControlRef*)
PUBLIC 133954 0 TBrowserView::HasVScrollBar(bool)
PUBLIC 1339e6 0 TBrowserView::HasHScrollBar(bool)
PUBLIC 133a78 0 TBrowserView::ResetScrollBarUserPaneFrame()
PUBLIC 133acc 0 TBrowserView::~TBrowserView()
PUBLIC 133b0e 0 TBrowserView::~TBrowserView()
PUBLIC 133b18 0 TBrowserView::~TBrowserView()
PUBLIC 133b46 0 TBrowserView::SendMessage(int, void*)
PUBLIC 133b78 0 TBrowserView::SetData(unsigned int, unsigned int, long, char*)
PUBLIC 133c0c 0 TBrowserView::SetScrollPosition(UPoint32 const&, bool, bool)
PUBLIC 133de2 0 TBrowserView::SynchronizeScrollBars()
PUBLIC 13425a 0 TBrowserView::GetData(unsigned int, unsigned int, long, char*, long*) const
PUBLIC 1342ba 0 TBrowserView::SetBounds(Rect const&, Rect const&)
PUBLIC 1342e0 0 TBrowserView::GetBounds(Rect&, unsigned short) const
PUBLIC 13431c 0 TBrowserView::CalcRegion(OpaqueRgnHandle*, short) const
PUBLIC 1343b0 0 TBrowserView::CalcBounds(unsigned short, Rect&) const
PUBLIC 1345ac 0 TBrowserView::GetActualScrollBarInset() const
PUBLIC 134634 0 TBrowserView::AttributesChanged(unsigned int, unsigned int)
PUBLIC 134648 0 TBrowserView::HasColumnResizer(bool)
PUBLIC 134672 0 TBrowserView::GetDefaultScrollBarInset() const
PUBLIC 13473e 0 TBrowserView::CompositingModeChanged(bool)
PUBLIC 13476c 0 TBrowserView::DisposeOldScrollBarDataForCompositingModeChange()
PUBLIC 1347c2 0 TBrowserView::CreateNewScrollBarDataForCompositingModeChange(bool)
PUBLIC 134816 0 TBrowserView::GetDrawConstrainRect(Rect*) const
PUBLIC 13481e 0 TBrowserView::Draw(CGContext*, unsigned short, OpaqueRgnHandle*) const
PUBLIC 1349a8 0 TBrowserView::DrawMarqueeAsNecessary(TDeviceRenderer::Context const&) const
PUBLIC 134a42 0 TBrowserView::DrawDragHiliteAsNecessary(TDeviceRenderer::Context const&) const
PUBLIC 134aaa 0 TBrowserView::CopyDragHiliteShape() const
PUBLIC 134b9c 0 TBrowserView::Scroll(int&, int&)
PUBLIC 134e12 0 TBrowserView::Track(Point, int, unsigned short)
PUBLIC 134f56 0 TBrowserView::TrackColumnResizer(Point, int, unsigned short)
PUBLIC 134f5c 0 TBrowserView::HitTest(Point, unsigned short) const
PUBLIC 135000 0 TBrowserView::KeyDown(short, short, unsigned short)
PUBLIC 135064 0 TBrowserView::CanTypeSelect() const
PUBLIC 13506c 0 TBrowserView::TypeSelect(__CFString const*)
PUBLIC 135074 0 TBrowserView::SetCursorForLocation(Point, unsigned short, short&) const
PUBLIC 1350a8 0 TBrowserView::HelpContent(Point, HelpContentRequest&) const
PUBLIC 1350ae 0 TBrowserView::ActiveEnabledStateChanged()
PUBLIC 1350f0 0 TBrowserView::DragItem(OpaqueDragRef*, EventRecord const&, OpaqueRgnHandle*)
PUBLIC 1351b0 0 TBrowserView::DrawView(unsigned short, TDeviceRenderer::Context const&) const
PUBLIC 135352 0 TBrowserView::TrackScrollCallback(OpaqueControlRef*, short)
PUBLIC 1353be 0 TBrowserView::ScrollBarEventHandler(OpaqueEventHandlerCallRef*, OpaqueEventRef*, void*)
PUBLIC 13542c 0 TBrowserView::LiveScroll(TBrowserView::WhichScrollBar, short, int, int, int&)
PUBLIC 1355b6 0 TBrowserView::ScrollView(Rect const&, int, int, OpaqueRgnHandle*) const
PUBLIC 135644 0 TBrowserView::TrackMouse(short&, Point, int, unsigned short)
PUBLIC 13597e 0 TBrowserView::TrackMouse(short&, Point, int, unsigned short)::PanView::~PanView()
PUBLIC 135984 0 TBrowserView::TrackSelection(Point, bool, Rect const*, UPoint32 const*)
PUBLIC 135e74 0 TBrowserView::CalcAutoScrollFlags(Point, bool, bool, Rect const*)
PUBLIC 1360c4 0 TBrowserView::AutoScrollView(Point, unsigned int, Point*)
PUBLIC 1361a8 0 TBrowserView::SignalRedraw(unsigned short) const
PUBLIC 136220 0 TBrowserView::ScrollPositionChanged(bool, bool)
PUBLIC 136226 0 TBrowserView::DragEnter(OpaqueDragRef*)
PUBLIC 136270 0 TBrowserView::DragOriginatedElsewhere(OpaqueDragRef*) const
PUBLIC 136314 0 TBrowserView::UpdateDragHilight(OpaqueDragRef*, bool)
PUBLIC 13643c 0 TBrowserView::DragLeave(OpaqueDragRef*)
PUBLIC 1364a6 0 TBrowserView::InvalidateDragHiliteRegion()
PUBLIC 1364dc 0 TBrowserView::AutoScrollTimer(__EventLoopTimer*, void*)
PUBLIC 136730 0 TBrowserView::DragWithin(OpaqueDragRef*)
PUBLIC 136822 0 TBrowserView::DragReceive(OpaqueDragRef*)
PUBLIC 1368bc 0 TBrowserView::HiliteContentDrop(OpaqueDragRef*) const
PUBLIC 1368c6 0 TBrowserView::AcceptAsContentDrop(OpaqueDragRef*) const
PUBLIC 13690c 0 TBrowserView::MouseWheelScroll(Point, int, int, bool)
PUBLIC 136a6c 0 TBrowserView::GetMetricDefaultValue(unsigned int) const
PUBLIC 136a74 0 TBrowserView::MetricValueChanged(unsigned int)
PUBLIC 136a84 0 TBrowserView::TrackMouse(short&, Point, int, unsigned short)::PanView::~PanView()
PUBLIC 136a8e 0 TBrowserView::TrackMouse(short&, Point, int, unsigned short)::PanView::Continue(Point&, unsigned short)
PUBLIC 136b16 0 TContainer::TContainer()
PUBLIC 136bfa 0 TSingleColumnView::TSingleColumnView(unsigned long, TColumnContainer&, TColumnView&)
PUBLIC 136d46 0 TSingleColumnView::~TSingleColumnView()
PUBLIC 136d80 0 TSingleColumnView::~TSingleColumnView()
PUBLIC 136d8a 0 non-virtual thunk to TSingleColumnView::~TSingleColumnView()
PUBLIC 136d98 0 non-virtual thunk to TSingleColumnView::~TSingleColumnView()
PUBLIC 136daa 0 TSingleColumnView::~TSingleColumnView()
PUBLIC 136dd8 0 non-virtual thunk to TSingleColumnView::~TSingleColumnView()
PUBLIC 136de6 0 non-virtual thunk to TSingleColumnView::~TSingleColumnView()
PUBLIC 136df8 0 TSingleColumnView::Track(Point, int, unsigned short)
PUBLIC 136eaa 0 non-virtual thunk to TSingleColumnView::Track(Point, int, unsigned short)
PUBLIC 136eb8 0 TSingleColumnView::TrackItem(Point, int, unsigned short)
PUBLIC 136eee 0 TSingleColumnView::UpdateHilitedCell()
PUBLIC 136f86 0 non-virtual thunk to TSingleColumnView::TrackItem(Point, int, unsigned short)
PUBLIC 136fb6 0 TSingleColumnView::TrackColumnResizer(Point, int, unsigned short)
PUBLIC 136fce 0 non-virtual thunk to TSingleColumnView::TrackColumnResizer(Point, int, unsigned short)
PUBLIC 136fe6 0 TSingleColumnView::KeyDown(short, short, unsigned short)
PUBLIC 13706c 0 non-virtual thunk to TSingleColumnView::KeyDown(short, short, unsigned short)
PUBLIC 13707a 0 TSingleColumnView::TypeSelect(__CFString const*)
PUBLIC 1370e8 0 non-virtual thunk to TSingleColumnView::TypeSelect(__CFString const*)
PUBLIC 1370f6 0 TSingleColumnView::SynchronizeRowDetailsWithContainer()
PUBLIC 1371b8 0 TSingleColumnView::RowCountChanged()
PUBLIC 1371c6 0 non-virtual thunk to TSingleColumnView::RowCountChanged()
PUBLIC 1371d4 0 TSingleColumnView::SetIsFocused(bool)
PUBLIC 1371e2 0 TSingleColumnView::GetBounds(Rect&, unsigned short) const
PUBLIC 137206 0 non-virtual thunk to TSingleColumnView::GetBounds(Rect&, unsigned short) const
PUBLIC 13722e 0 TSingleColumnView::SetBounds(Rect const&, Rect const&)
PUBLIC 137284 0 non-virtual thunk to TSingleColumnView::SetBounds(Rect const&, Rect const&)
PUBLIC 1372c8 0 TSingleColumnView::GetDrawConstrainRect(Rect*) const
PUBLIC 1372e2 0 non-virtual thunk to TSingleColumnView::GetDrawConstrainRect(Rect*) const
PUBLIC 1372fc 0 TSingleColumnView::CalcBounds(unsigned short, Rect&) const
PUBLIC 137374 0 non-virtual thunk to TSingleColumnView::CalcBounds(unsigned short, Rect&) const
PUBLIC 137382 0 TSingleColumnView::IsFocusedColumn() const
PUBLIC 13738e 0 non-virtual thunk to TSingleColumnView::IsFocusedColumn() const
PUBLIC 13739a 0 TSingleColumnView::GetActiveHiliteMode() const
PUBLIC 1373aa 0 non-virtual thunk to TSingleColumnView::GetActiveHiliteMode() const
PUBLIC 1373ba 0 TSingleColumnView::AdjustLabelRectangleForCell(TTableCell const&, Rect&) const
PUBLIC 1373ca 0 non-virtual thunk to TSingleColumnView::AdjustLabelRectangleForCell(TTableCell const&, Rect&) const
PUBLIC 1373da 0 TSingleColumnView::DrawCell(TTableCell const&, unsigned int, TDeviceRenderer::Context const&) const
PUBLIC 137502 0 non-virtual thunk to TSingleColumnView::DrawCell(TTableCell const&, unsigned int, TDeviceRenderer::Context const&) const
PUBLIC 137510 0 TSingleColumnView::DrawLabelForUnselectedCell(TTableCell const&, int, TDeviceRenderer::Context const&) const
PUBLIC 1375f4 0 non-virtual thunk to TSingleColumnView::DrawLabelForUnselectedCell(TTableCell const&, int, TDeviceRenderer::Context const&) const
PUBLIC 137602 0 TSingleColumnView::CalcBounds(TTableCell const&, Rect&, unsigned int, bool) const
PUBLIC 137718 0 non-virtual thunk to TSingleColumnView::CalcBounds(TTableCell const&, Rect&, unsigned int, bool) const
PUBLIC 13772a 0 TSingleColumnView::DataProxy()
PUBLIC 13773c 0 non-virtual thunk to TSingleColumnView::DataProxy()
PUBLIC 13774e 0 TSingleColumnView::DataProxy() const
PUBLIC 137760 0 non-virtual thunk to TSingleColumnView::DataProxy() const
PUBLIC 137772 0 TSingleColumnView::ViewStyle() const
PUBLIC 13777a 0 non-virtual thunk to TSingleColumnView::ViewStyle() const
PUBLIC 137782 0 TSingleColumnView::CellIsSelected(Cell64 const&) const
PUBLIC 13781e 0 TSingleColumnView::CachedData(Cell64 const&) const
PUBLIC 137850 0 TSingleColumnView::CachedData(Cell64 const&, BrowserObj*)
PUBLIC 13788a 0 TSingleColumnView::ItemRow(unsigned long) const
PUBLIC 1378ca 0 TSingleColumnView::SelectCell(Cell64 const&, BinaryState)
PUBLIC 137a4c 0 TSingleColumnView::ForEachCell(TableCellState, ICellCallback&, bool) const
PUBLIC 137a9c 0 TSingleColumnView::ForEachCell(TableCellState, ICellCallback&, bool) const::ForEachCellFunc::~ForEachCellFunc()
PUBLIC 137aa2 0 TSingleColumnView::ColumnStyle(unsigned long) const
PUBLIC 137ab6 0 TSingleColumnView::CopyAXUIElementRef()
PUBLIC 137ace 0 non-virtual thunk to TSingleColumnView::CopyAXUIElementRef()
PUBLIC 137ae6 0 TColumnData::TColumnData(TColumnView&)
PUBLIC 137cd6 0 TColumnData::ColumnBounds(unsigned long, bool*, bool) const
PUBLIC 137d6c 0 TListContainer::~TListContainer()
PUBLIC 137d6e 0 TColumnContainer::~TColumnContainer()
PUBLIC 137d78 0 TColumnData::TColumnData(TColumnView&)
PUBLIC 137d82 0 TColumnData::~TColumnData()
PUBLIC 137e58 0 TColumnData::~TColumnData()
PUBLIC 137e62 0 non-virtual thunk to TColumnData::~TColumnData()
PUBLIC 137e70 0 non-virtual thunk to TColumnData::~TColumnData()
PUBLIC 137e7e 0 TColumnData::~TColumnData()
PUBLIC 137eac 0 non-virtual thunk to TColumnData::~TColumnData()
PUBLIC 137eba 0 non-virtual thunk to TColumnData::~TColumnData()
PUBLIC 137ed0 0 TColumnData::SetData(unsigned int, unsigned int, long, char*)
PUBLIC 137f66 0 non-virtual thunk to TColumnData::SetData(unsigned int, unsigned int, long, char*)
PUBLIC 137f74 0 TColumnData::GetData(unsigned int, unsigned int, long, char*, long*) const
PUBLIC 138016 0 non-virtual thunk to TColumnData::GetData(unsigned int, unsigned int, long, char*, long*) const
PUBLIC 138024 0 TColumnData::Path(char**) const
PUBLIC 13812e 0 TColumnData::PreviewColumn(unsigned long) const
PUBLIC 13817e 0 TColumnData::Path(unsigned int, unsigned long const*)
PUBLIC 13835c 0 TColumnData::TrimPath(unsigned long)
PUBLIC 138538 0 TColumnData::AppendPath(unsigned int, unsigned long const*)
PUBLIC 1387a8 0 CacheSelectionNotifications::~CacheSelectionNotifications()
PUBLIC 1387b2 0 TColumnData::Target(unsigned long)
PUBLIC 138a8a 0 non-virtual thunk to TColumnData::Target(unsigned long)
PUBLIC 138a98 0 TColumnData::AddToPath(TContainer::ListItemRef&)
PUBLIC 138f30 0 TColumnData::ColumnIndex(unsigned long) const
PUBLIC 138f7e 0 TColumnData::OpenContainer(unsigned long)
PUBLIC 139006 0 non-virtual thunk to TColumnData::OpenContainer(unsigned long)
PUBLIC 139014 0 TColumnData::CloseContainer(unsigned long)
PUBLIC 139262 0 non-virtual thunk to TColumnData::CloseContainer(unsigned long)
PUBLIC 139274 0 TColumnData::AddItems(unsigned long, unsigned long long, unsigned long const*, IDataSorter const&)
PUBLIC 1393ca 0 non-virtual thunk to TColumnData::AddItems(unsigned long, unsigned long long, unsigned long const*, IDataSorter const&)
PUBLIC 1393d8 0 TColumnData::SortItems(unsigned long, IDataSorter const&, bool)
PUBLIC 13944c 0 non-virtual thunk to TColumnData::SortItems(unsigned long, IDataSorter const&, bool)
PUBLIC 13945e 0 TColumnData::SetSelection(unsigned long long, unsigned long const*, unsigned int)
PUBLIC 139676 0 non-virtual thunk to TColumnData::SetSelection(unsigned long long, unsigned long const*, unsigned int)
PUBLIC 139684 0 TColumnData::UpdateItems(unsigned long, unsigned long long, unsigned long const*, IDataSorter const&, unsigned long, bool)
PUBLIC 13981c 0 non-virtual thunk to TColumnData::UpdateItems(unsigned long, unsigned long long, unsigned long const*, IDataSorter const&, unsigned long, bool)
PUBLIC 13982a 0 TColumnData::RemoveItems(unsigned long, unsigned long long, unsigned long const*, IDataSorter const&)
PUBLIC 139a2c 0 TColumnData::RemoveItems(unsigned long, unsigned long long, unsigned long const*, IDataSorter const&)::CatchContainerClosures::~CatchContainerClosures()
PUBLIC 139a8c 0 non-virtual thunk to TColumnData::RemoveItems(unsigned long, unsigned long long, unsigned long const*, IDataSorter const&)
PUBLIC 139a9a 0 TColumnData::GetContainer(unsigned long, bool, bool) const
PUBLIC 139aae 0 non-virtual thunk to TColumnData::GetContainer(unsigned long, bool, bool) const
PUBLIC 139abe 0 TColumnData::GetSingleColumnView(unsigned long) const
PUBLIC 139af6 0 IDataProxy::SetSortOrder(unsigned short)
PUBLIC 139b24 0 TextObj::OriginalString() const
PUBLIC 139b30 0 ITableData::View() const
PUBLIC 139b3a 0 TSingleColumnView::ColumnID(unsigned long) const
PUBLIC 139b4e 0 TSingleColumnView::ColumnFlags(unsigned long) const
PUBLIC 139b60 0 TSingleColumnView::CellID(Cell64 const&) const
PUBLIC 139b8e 0 TSingleColumnView::RowID(unsigned long) const
PUBLIC 139bb8 0 TSingleColumnView::RowHeight(unsigned long, unsigned short)
PUBLIC 139be8 0 TSingleColumnView::RowHasCustomHeight(unsigned long) const
PUBLIC 139c12 0 TSingleColumnView::RowHeight(unsigned long) const
PUBLIC 139c40 0 ITableData::MoveRow(unsigned long, unsigned long)
PUBLIC 139c6c 0 TSingleColumnView::DrawView(unsigned short, TDeviceRenderer::Context const&) const
PUBLIC 139c7a 0 TSingleColumnView::SetData(unsigned int, unsigned int, long, char*)
PUBLIC 139c88 0 TSingleColumnView::GetData(unsigned int, unsigned int, long, char*, long*) const
PUBLIC 139c96 0 non-virtual thunk to TSingleColumnView::SetData(unsigned int, unsigned int, long, char*)
PUBLIC 139ca0 0 non-virtual thunk to TSingleColumnView::GetData(unsigned int, unsigned int, long, char*, long*) const
PUBLIC 139cb0 0 TTableView::ViewWidth() const
PUBLIC 139ccc 0 TTableView::VScrollIncrement() const
PUBLIC 139ce4 0 TTableView::ClearSelection()
PUBLIC 139cf2 0 non-virtual thunk to TSingleColumnView::DrawView(unsigned short, TDeviceRenderer::Context const&) const
PUBLIC 139d02 0 TListData::RowBasedData() const
PUBLIC 139d10 0 TTableView::RedirectDrag(OpaqueDragRef*, unsigned int&)
PUBLIC 139d20 0 TTableLayout::ColumnWidth(unsigned long long) const
PUBLIC 139d46 0 TColumnData::ColumnID(unsigned long) const
PUBLIC 139de4 0 TColumnData::ColumnStyle(unsigned long) const
PUBLIC 139e0a 0 ITableData::ColumnFlags(unsigned long) const
PUBLIC 139e20 0 ITableData::RowHasCustomHeight(unsigned long) const
PUBLIC 139e34 0 ITableData::RowHeight(unsigned long) const
PUBLIC 139e5e 0 TColumnData::Root() const
PUBLIC 139e6c 0 TColumnData::SelectAll(BinaryState)
PUBLIC 139edc 0 non-virtual thunk to TColumnData::SelectAll(BinaryState)
PUBLIC 139f48 0 non-virtual thunk to TColumnData::Root() const
PUBLIC 139f56 0 TColumnContainer::~TColumnContainer()
PUBLIC 139f8a 0 TSingleColumnView::ForEachCell(TableCellState, ICellCallback&, bool) const::ForEachCellFunc::~ForEachCellFunc()
PUBLIC 139f94 0 TSingleColumnView::ForEachCell(TableCellState, ICellCallback&, bool) const::ForEachCellFunc::ApplyToItem(TContainer::ListItemRef&, unsigned int)
PUBLIC 139fd0 0 CacheSelectionNotifications::CacheSelectionNotifications(IBrowser&, bool)
PUBLIC 13a098 0 CacheSelectionNotifications::ItemNotificationBottleneck(OpaqueControlRef*, unsigned long, unsigned int, void*)
PUBLIC 13a120 0 CacheSelectionNotifications::FilterItemNotification(unsigned long, unsigned int, void*)
PUBLIC 13a158 0 CacheSelectionNotifications::~CacheSelectionNotifications()
PUBLIC 13a1ee 0 CLongArray::~CLongArray()
PUBLIC 13a1f0 0 IDataSorter::~IDataSorter()
PUBLIC 13a20c 0 ContainerEater::ApplyToContainer(NonOwningSharedPtr_TContainer&, unsigned long)
PUBLIC 13a29a 0 TColumnData::RemoveItems(unsigned long, unsigned long long, unsigned long const*, IDataSorter const&)::CatchContainerClosures::FilterItemNotification(unsigned long, unsigned int, void*)
PUBLIC 13a302 0 TColumnData::RemoveItems(unsigned long, unsigned long long, unsigned long const*, IDataSorter const&)::CatchContainerClosures::~CatchContainerClosures()
PUBLIC 13a33e 0 TColumnView::TColumnView(IBrowser&)
PUBLIC 13a499 0 CreateScrollBarUserPaneAsNecessary(IBrowser&)
PUBLIC 13a506 0 TColumnView::ChangeFocusedColumn(unsigned long, bool)
PUBLIC 13a58c 0 TColumnView::TColumnView(IBrowser&)
PUBLIC 13a596 0 TColumnView::~TColumnView()
PUBLIC 13a61c 0 TColumnView::~TColumnView()
PUBLIC 13a626 0 non-virtual thunk to TColumnView::~TColumnView()
PUBLIC 13a634 0 TColumnView::~TColumnView()
PUBLIC 13a662 0 non-virtual thunk to TColumnView::~TColumnView()
PUBLIC 13a670 0 TColumnView::SendMessage(int, void*)
PUBLIC 13a69a 0 TColumnView::SetData(unsigned int, unsigned int, long, char*)
PUBLIC 13aa8c 0 TColumnView::ColumnBounds(unsigned long, Rect const&, UPoint32 const&, unsigned long*, bool) const
PUBLIC 13aacc 0 TColumnView::GetData(unsigned int, unsigned int, long, char*, long*) const
PUBLIC 13aba4 0 TColumnView::GetPathIndex() const
PUBLIC 13ac16 0 TColumnView::ProcessSelection(unsigned long)
PUBLIC 13ad3c 0 TColumnView::AdjustColumns(bool)
PUBLIC 13ad82 0 TColumnView::FocusedColumnWasDeleted()
PUBLIC 13ae08 0 TColumnView::PostScrollUpdate()
PUBLIC 13ae50 0 TColumnView::ScrollPositionChanged(bool, bool)
PUBLIC 13af52 0 TColumnView::ActiveEnabledStateChanged()
PUBLIC 13afa8 0 TColumnView::ForEachVisibleColumn(TColumnView::ColumnIterator const&) const
PUBLIC 13b080 0 TColumnView::ActiveEnabledStateChanged()::ActivateCol::~ActivateCol()
PUBLIC 13b086 0 TColumnView::SetBounds(Rect const&, Rect const&)
PUBLIC 13b2b2 0 TColumnView::AdjustColumns(unsigned short, bool)
PUBLIC 13b3f6 0 TColumnView::CalcBounds(unsigned short, Rect&) const
PUBLIC 13b426 0 TColumnView::RefreshItem(unsigned long, TContainer::ListItemRef&) const
PUBLIC 13b4b4 0 TColumnView::RefreshItem(unsigned long, TContainer::ListItemRef&) const::RefreshCol::~RefreshCol()
PUBLIC 13b4ba 0 TColumnView::RefreshItem(unsigned long, unsigned long) const
PUBLIC 13b568 0 TColumnView::HitTest(Point, unsigned short) const
PUBLIC 13b662 0 TColumnView::DrawCell(TTableCell const&, unsigned int, TDeviceRenderer::Context const&) const
PUBLIC 13b9b0 0 TColumnView::KeyDown(short, short, unsigned short)
PUBLIC 13bdf0 0 TColumnView::CanTypeSelect() const
PUBLIC 13bdf8 0 TColumnView::TypeSelect(__CFString const*)
PUBLIC 13bf60 0 TColumnView::HScrollIncrement() const
PUBLIC 13bf7c 0 TColumnView::GetCellHelp(TTableCell const&, Point, HelpContentRequest&) const
PUBLIC 13c008 0 TColumnView::RevealItem(unsigned long, unsigned long, unsigned char)
PUBLIC 13c154 0 TColumnView::MouseWheelScroll(Point, int, int, bool)
PUBLIC 13c240 0 TColumnView::TrackMouse(short&, Point, int, unsigned short)
PUBLIC 13c736 0 TColumnView::TrackColumnResizerForColumn(Point, int, unsigned short, unsigned long)
PUBLIC 13ca06 0 TColumnView::ResizeMultipleColumns(unsigned long, short, unsigned int)
PUBLIC 13cdba 0 TColumnView::ResizeColumn(unsigned long, short, unsigned int)
PUBLIC 13cf34 0 TColumnView::GetItemAndPropertyOfSelection(bool, unsigned long*, unsigned long*)
PUBLIC 13cf3c 0 TColumnView::StartEditSession(unsigned long, unsigned long)
PUBLIC 13cf6e 0 TColumnView::StopEditSession(bool, bool)
PUBLIC 13d022 0 TColumnView::CurrentEditSession(unsigned long&, unsigned long&) const
PUBLIC 13d030 0 TColumnView::DisposeOldScrollBarDataForCompositingModeChange()
PUBLIC 13d0b8 0 TColumnView::CreateNewScrollBarDataForCompositingModeChange(bool)
PUBLIC 13d152 0 TColumnView::SetVariableHeightRows(bool)
PUBLIC 13d1c6 0 non-virtual thunk to TColumnView::SetVariableHeightRows(bool)
PUBLIC 13d1e6 0 TColumnView::DataProxy() const
PUBLIC 13d1e8 0 TColumnView::DataProxy()
PUBLIC 13d1f8 0 CTextensionDrag::ClientConvertFileData(HFSFlavor*, CRunObject**)
PUBLIC 13d204 0 CTextensionDrag::ClientConvertFromHandleOfType(char**, unsigned int, CRunObject**)
PUBLIC 13d208 0 CTextensionDrag::ClientNewDropCommand(CTextensionDropCommand*)
PUBLIC 13d216 0 TColumnView::DragReceive(OpaqueDragRef*)
PUBLIC 13d222 0 TColumnView::ViewStyle() const
PUBLIC 13d238 0 TColumnView::UpdateSelection(UPoint32 const&, UPoint32 const&, UPoint32 const&)
PUBLIC 13d24c 0 TTableView::ColumnWidth(unsigned long, unsigned short)
PUBLIC 13d2c6 0 TColumnView::NotifyDoubleClick() const
PUBLIC 13d2d8 0 TTableLayout::MoveRow(unsigned long long, unsigned long long)
PUBLIC 13d2f4 0 TColumnView::ActiveEnabledStateChanged()::ActivateCol::~ActivateCol()
PUBLIC 13d2fe 0 TColumnView::ActiveEnabledStateChanged()::ActivateCol::operator()(unsigned long, Rect const&, bool) const
PUBLIC 13d31a 0 TColumnView::RefreshItem(unsigned long, TContainer::ListItemRef&) const::RefreshCol::~RefreshCol()
PUBLIC 13d324 0 TColumnView::RefreshItem(unsigned long, TContainer::ListItemRef&) const::RefreshCol::operator()(unsigned long, Rect const&, bool) const
PUBLIC 13d3a4 0 TColumnView::HandleAccessibilityEvent(OpaqueEventHandlerCallRef*, OpaqueEventRef*)
PUBLIC 13d8c8 0 TColumnView::BrowserGetChildAtPoint(TColumnView::AccessibilityID const&, Point, __AXUIElement const**) const
PUBLIC 13d93e 0 TColumnView::HorizScrollAreaGetChildAtPoint(TColumnView::AccessibilityID const&, Point, __AXUIElement const**) const
PUBLIC 13da5a 0 TColumnView::ColumnScrollAreaGetChildAtPoint(TColumnView::AccessibilityID const&, Point, __AXUIElement const**) const
PUBLIC 13dbcc 0 TColumnView::ColumnListGetChildAtPoint(TColumnView::AccessibilityID const&, Point, __AXUIElement const**) const
PUBLIC 13dc78 0 TColumnView::RowGetChildAtPoint(TColumnView::AccessibilityID const&, Point, __AXUIElement const**) const
PUBLIC 13dd58 0 TColumnView::BrowserGetChildAtFocus(TColumnView::AccessibilityID const&, __AXUIElement const**) const
PUBLIC 13ddfa 0 TColumnView::HorizScrollAreaGetChildAtFocus(TColumnView::AccessibilityID const&, __AXUIElement const**) const
PUBLIC 13dea6 0 TColumnView::ColumnScrollAreaGetChildAtFocus(TColumnView::AccessibilityID const&, __AXUIElement const**) const
PUBLIC 13df54 0 TColumnView::BrowserGetAllAttributeNames(TColumnView::AccessibilityID const&, __CFArray*) const
PUBLIC 13e020 0 TColumnView::HorizScrollAreaGetAllAttributeNames(TColumnView::AccessibilityID const&, __CFArray*) const
PUBLIC 13e0e6 0 TColumnView::ColumnScrollAreaGetAllAttributeNames(TColumnView::AccessibilityID const&, __CFArray*) const
PUBLIC 13e1d6 0 TColumnView::ColumnListGetAllAttributeNames(TColumnView::AccessibilityID const&, __CFArray*) const
PUBLIC 13e2c2 0 TColumnView::RowGetAllAttributeNames(TColumnView::AccessibilityID const&, __CFArray*) const
PUBLIC 13e3c8 0 TColumnView::BrowserGetAttribute(TColumnView::AccessibilityID const&, __CFString const*, unsigned int, OpaqueEventRef*) const
PUBLIC 13e6b0 0 TColumnView::HorizScrollAreaGetAttribute(TColumnView::AccessibilityID const&, __CFString const*, unsigned int, OpaqueEventRef*) const
PUBLIC 13ead8 0 TColumnView::ColumnScrollAreaGetAttribute(TColumnView::AccessibilityID const&, __CFString const*, unsigned int, OpaqueEventRef*) const
PUBLIC 13eeec 0 TColumnView::ColumnListGetAttribute(TColumnView::AccessibilityID const&, __CFString const*, unsigned int, OpaqueEventRef*) const
PUBLIC 13f3d8 0 TColumnView::RowGetParent(TColumnView::AccessibilityID const&, __AXUIElement const**) const
PUBLIC 13f49a 0 TColumnView::RowGetAttribute(TColumnView::AccessibilityID const&, __CFString const*, unsigned int, OpaqueEventRef*) const
PUBLIC 13f850 0 TColumnView::ColumnListSetAttribute(TColumnView::AccessibilityID const&, __CFString const*, unsigned int, OpaqueEventRef*)
PUBLIC 13f9b2 0 TColumnView::GetItemInfoForAXUIElement(__AXUIElement const*, unsigned int, DataBrowserAccessibilityItemInfo&) const
PUBLIC 13fb60 0 TColumnView::CreateAXUIElementForItemInfo(DataBrowserAccessibilityItemInfo const&) const
PUBLIC 13fdcc 0 TColumnView::RowIsLegalID(TColumnView::AccessibilityID const&, TSingleColumnView**, unsigned int*) const
PUBLIC 13feb0 0 TColumnView::CopyAXUIElementRefForFocus()
PUBLIC 13feda 0 TColumnView::CopyAXUIElementRefForSingleColumn(TSingleColumnView&)
PUBLIC 13ff7c 0 TColumnView::ColumnListGetChildAtRow(TColumnView::AccessibilityID const&, unsigned int) const
PUBLIC 140018 0 TColumnView::RowGetSizeOrPositionAttributeInternal(TColumnView::AccessibilityID const&, TSingleColumnView&, unsigned int, OpaqueEventRef*) const
PUBLIC 1400d0 0 TTableCell::TTableCell(TTableView const*, Cell64 const&)
PUBLIC 140278 0 TTableCell::DataType() const
PUBLIC 1402a4 0 TTableCell::ItemID() const
PUBLIC 1402c2 0 TTableCell::TTableCell(TTableView const*, Cell64 const&)
PUBLIC 1402cc 0 TTableCell::TTableCell(TTableView const*, Rect const&, Cell64 const&)
PUBLIC 14045e 0 TTableCell::TTableCell(TTableView const*, Rect const&, Cell64 const&)
PUBLIC 140468 0 TTableCell::TTableCell(TTableView const*, Cell64 const&, Rect const&)
PUBLIC 1405e0 0 TTableCell::Property() const
PUBLIC 1405fe 0 TTableCell::Draw(unsigned int, TDeviceRenderer::Context const&) const
PUBLIC 141464 0 TTableView::GetIconAndTextGap() const
PUBLIC 14149c 0 TTableCell::Draw(unsigned int, TDeviceRenderer::Context const&) const::StackBasedRefCount_BrowserObj::operator=(BrowserObj*)
PUBLIC 1414e2 0 TTableCell::GetText() const
PUBLIC 141a98 0 TTableCell::GetText() const::StackBasedRefCount_BrowserObj::operator=(BrowserObj*)
PUBLIC 141ade 0 TTableCell::GetIndicatorBounds(Rect*) const
PUBLIC 141f3a 0 TTableCell::GetValueMinMax(int*, int*, int*) const
PUBLIC 14245a 0 TTableCell::GetValueMinMax(int*, int*, int*) const::StackBasedRefCount_BrowserObj::operator=(BrowserObj*)
PUBLIC 1424a0 0 TTableCell::AdjustValue(unsigned int)
PUBLIC 142aaa 0 TTableCell::AdjustValue(unsigned int)::StackBasedRefCount_BrowserObj::operator=(BrowserObj*)
PUBLIC 142af0 0 TTableView::RefreshCell(Cell64 const&) const
PUBLIC 142b84 0 TTableCell::SetValue(int)
PUBLIC 14302c 0 TTableCell::Press()
PUBLIC 143502 0 TTableCell::CopyTitle() const
PUBLIC 143c0c 0 TTableCell::CopyTitle() const::StackBasedRefCount_BrowserObj::operator=(BrowserObj*)
PUBLIC 143c52 0 TTableCell::Track(Point, int, unsigned short, TDeviceRenderer::Context const*) const
PUBLIC 144758 0 TTableCell::Track(Point, int, unsigned short, TDeviceRenderer::Context const*) const::StackBasedRefCount_BrowserObj::operator=(BrowserObj*)
PUBLIC 14479e 0 TTableCell::Track(Point, int, unsigned short, TDeviceRenderer::Context const*) const::SliderScroller::~SliderScroller()
PUBLIC 1447a4 0 TTableCell::HitTest(Rect&, Rect const&, HMHelpContent*) const
PUBLIC 145534 0 TTableCell::HitTest(Rect&, Rect const&, HMHelpContent*) const::StackBasedRefCount_BrowserObj::operator=(BrowserObj*)
PUBLIC 14557a 0 TTableCell::AcceptDrag(OpaqueDragRef*) const
PUBLIC 14563c 0 TTableCell::ReceiveDrag(OpaqueDragRef*, unsigned int) const
PUBLIC 1456de 0 TTableCell::GetDragRgn(OpaqueRgnHandle*) const
PUBLIC 14628a 0 TTableCell::GetDragRgn(OpaqueRgnHandle*) const::StackBasedRefCount_BrowserObj::operator=(BrowserObj*)
PUBLIC 1462d0 0 TTableCell::PrepEditText(bool, bool) const
PUBLIC 146b56 0 TTableCell::PrepEditText(bool, bool) const::StackBasedRefCount_BrowserObj::operator=(BrowserObj*)
PUBLIC 146b9c 0 BrowserTextData::_CFStringRef(__CFString const* const&)
PUBLIC 146bd0 0 BrowserIconAndTextData::_CFStringRef(__CFString const* const&)
PUBLIC 146c04 0 TTableCell::GetHelpContent(Point, HelpContentRequest&) const
PUBLIC 146df0 0 TTableView::TTableView(IBrowser&, ITableData&, bool, bool, bool, OpaqueControlRef*)
PUBLIC 146ec6 0 TTableLayout::TTableLayout(TCellGeometry*)
PUBLIC 146f5c 0 TTableView::DateTimeChangeHandler(void*)
PUBLIC 147002 0 TTableView::~TTableView()
PUBLIC 147098 0 TTableView::~TTableView()
PUBLIC 1470a2 0 non-virtual thunk to TTableView::~TTableView()
PUBLIC 1470b0 0 TTableView::~TTableView()
PUBLIC 1470de 0 non-virtual thunk to TTableView::~TTableView()
PUBLIC 1470ec 0 TableResizer::TableResizer(TTableView*)
PUBLIC 14713e 0 TableResizer::TableResizer(TTableView*)
PUBLIC 147190 0 TableResizer::~TableResizer()
PUBLIC 147242 0 TableResizer::~TableResizer()
PUBLIC 147250 0 AutoScroller::AutoScroller(TTableView*, bool, Cell64 const*)
PUBLIC 14726a 0 AutoScroller::~AutoScroller()
PUBLIC 147270 0 TTableView::SetData(unsigned int, unsigned int, long, char*)
PUBLIC 1475b0 0 TTableView::MoveColumn(unsigned long, unsigned long)
PUBLIC 147620 0 TTableView::GetData(unsigned int, unsigned int, long, char*, long*) const
PUBLIC 1479b4 0 TTableView::CalcBounds(unsigned short, Rect&) const
PUBLIC 147a24 0 TTableView::SendMessage(int, void*)
PUBLIC 147bac 0 TTableView::AddColumn(unsigned long, DataBrowserPropertyDesc const&)
PUBLIC 147c14 0 TTableView::DrawCol(unsigned long, DBDrawFlags) const
PUBLIC 147c1a 0 TTableView::DrawCell(Cell64 const&, DBDrawFlags) const
PUBLIC 147c20 0 TTableView::DrawRow(unsigned long, DBDrawFlags) const
PUBLIC 147c26 0 TTableView::DrawView(unsigned short, TDeviceRenderer::Context const&) const
PUBLIC 147caa 0 TTableView::DrawOrRefreshCellOnly(Cell64 const&) const
PUBLIC 147cdc 0 TTableView::DrawOrRefreshCellOrRow(Cell64 const&) const
PUBLIC 147d2e 0 TTableView::RefreshRows(unsigned long, unsigned long) const
PUBLIC 147e3c 0 TTableView::DrawOrRefreshColumn(unsigned long) const
PUBLIC 147e78 0 TTableView::RefreshColumns(unsigned long, unsigned long) const
PUBLIC 147f8c 0 TTableView::DrawCellSelf(Cell64 const&, Rect const&, TDeviceRenderer::Context const&, DBDrawFlags) const
PUBLIC 147ffe 0 non-virtual thunk to TTableView::DrawCellSelf(Cell64 const&, Rect const&, TDeviceRenderer::Context const&, DBDrawFlags) const
PUBLIC 14800c 0 TTableView::DrawBackgroundSelf(Rect const&, TDeviceRenderer::Context const&, DBDrawFlags) const
PUBLIC 14807a 0 non-virtual thunk to TTableView::DrawBackgroundSelf(Rect const&, TDeviceRenderer::Context const&, DBDrawFlags) const
PUBLIC 148088 0 TTableView::ApplyBackgroundColorForCell(Cell64 const&, CGContext*, bool) const
PUBLIC 1480a6 0 TTableView::HitTest(Point, unsigned short) const
PUBLIC 1481c0 0 TTableView::ClickItem(Point)
PUBLIC 148244 0 TTableView::DragItem(OpaqueDragRef*, EventRecord const&, int&)
PUBLIC 14837c 0 TTableView::KeyDown(short, short, unsigned short)
PUBLIC 14880c 0 TTableView::FirstSelectionColumn() const
PUBLIC 148860 0 TTableView::LeftUpArrow(Cell64*, unsigned long long*, unsigned long long, unsigned short, bool)
PUBLIC 148a6a 0 TTableView::RghtDnArrow(Cell64*, unsigned long long*, unsigned long long, unsigned short, bool)
PUBLIC 148c74 0 TTableView::SelectCellAndRedraw(Cell64 const&, BinaryState, bool)
PUBLIC 148cc4 0 TTableView::ClearSelection(Cell64 const*, Cell64 const*)
PUBLIC 148d14 0 TTableView::ExposeCellContent(Cell64 const&, unsigned int)
PUBLIC 148e54 0 TTableView::ScrollToCell(Cell64 const&, bool)
PUBLIC 148eb0 0 TTableView::ScrollToRow(unsigned long long, bool)
PUBLIC 148f7a 0 TTableView::GetTypeSelectColumnIndex() const
PUBLIC 148f82 0 TTableView::TypeSelect(__CFString const*)
PUBLIC 1493b4 0 TTableView::TrackItem(Point, int, unsigned short)
PUBLIC 1496ce 0 TTableView::SelectCellAndRedraw(Cell64 const&, bool, bool)
PUBLIC 1499ea 0 TTableView::HelpContent(Point, HelpContentRequest&) const
PUBLIC 149acc 0 TTableView::ActiveEnabledStateChanged()
PUBLIC 149c32 0 TTableView::ActiveEnabledStateChangedOnRow(unsigned long long, Rect&, bool*)
PUBLIC 149c66 0 TTableView::DragWithin(OpaqueDragRef*)
PUBLIC 149e14 0 TTableView::DragLeaveCell(OpaqueDragRef*, Cell64 const&)
PUBLIC 149e68 0 TTableView::DragLeave(OpaqueDragRef*)
PUBLIC 149e96 0 TTableView::DragReceive(OpaqueDragRef*)
PUBLIC 149f66 0 TTableView::DrawCell(TTableCell const&, unsigned int, TDeviceRenderer::Context const&) const
PUBLIC 149fd2 0 TTableView::AdjustLabelRectangleForCell(TTableCell const&, Rect&) const
PUBLIC 149fd8 0 TTableView::DrawLabelForUnselectedCell(TTableCell const&, int, TDeviceRenderer::Context const&) const
PUBLIC 149fde 0 TTableView::TrackCell(TTableCell const&, Point, int, unsigned short, TDeviceRenderer::Context const*)
PUBLIC 149ff6 0 TTableView::HitTestCell(TTableCell const&, Rect const&) const
PUBLIC 14a016 0 TTableView::CalcBounds(TTableCell const&, Rect&, unsigned int, bool) const
PUBLIC 14a0c0 0 TTableView::GetCellContentInset() const
PUBLIC 14a0e6 0 TTableView::GetMetricDefaultValue(unsigned int) const
PUBLIC 14a10e 0 TTableView::MetricValueChanged(unsigned int)
PUBLIC 14a15a 0 TTableView::GetCellHelp(TTableCell const&, Point, HelpContentRequest&) const
PUBLIC 14a16c 0 TTableView::AcceptDrag(TTableCell const&, OpaqueDragRef*) const
PUBLIC 14a17c 0 TTableView::ReceiveDrag(TTableCell const&, OpaqueDragRef*, unsigned int) const
PUBLIC 14a18e 0 TTableView::AddDragItem(TTableCell const&, OpaqueDragRef*) const
PUBLIC 14a1dc 0 TTableView::PrepEditText(TTableCell const&, bool) const
PUBLIC 14a242 0 TTableView::MoveRow(unsigned long, unsigned long)
PUBLIC 14a290 0 TTableView::ItemHeight(unsigned long, short)
PUBLIC 14a332 0 TTableView::RemoveColumn(unsigned long)
PUBLIC 14a37c 0 TTableView::SetVariableHeightRows(bool)
PUBLIC 14a3b6 0 non-virtual thunk to TTableView::SetVariableHeightRows(bool)
PUBLIC 14a3c8 0 TTableView::GetItemAndPropertyOfSelection(bool, unsigned long*, unsigned long*)
PUBLIC 14a576 0 TTableView::StartEditSession(unsigned long, unsigned long)
PUBLIC 14a61a 0 TTableView::StartEditSession(Cell64 const&)
PUBLIC 14a746 0 TTableView::StopEditSession(bool, bool)
PUBLIC 14a820 0 TTableView::CurrentEditSession(unsigned long&, unsigned long&) const
PUBLIC 14a86c 0 TTableView::RevealItem(unsigned long, unsigned long, unsigned char)
PUBLIC 14a9dc 0 TTableView::ScrollToColumn(unsigned long long, bool)
PUBLIC 14aaae 0 TTableView::ClearSelection(Cell64 const*, Cell64 const*)::ClearSelectionProxy::~ClearSelectionProxy()
PUBLIC 14aabe 0 TTableView::UpdateSelection(UPoint32 const&, UPoint32 const&, UPoint32 const&)
PUBLIC 14af6a 0 TTableView::HitTestCell(unsigned long long, unsigned long long, Point) const
PUBLIC 14b008 0 TTableView::GetCellPartBounds(unsigned long long, unsigned long long, unsigned int, Rect*) const
PUBLIC 14b080 0 TTableView::GetCellIndicatorBounds(unsigned long long, unsigned long long, Rect*) const
PUBLIC 14b0fe 0 TTableView::GetCellValueMinMax(unsigned long long, unsigned long long, int*, int*, int*) const
PUBLIC 14b18c 0 TTableView::AdjustCellValue(unsigned long long, unsigned long long, unsigned int)
PUBLIC 14b20a 0 TTableView::SetCellValue(unsigned long long, unsigned long long, int)
PUBLIC 14b288 0 TTableView::PressCell(unsigned long long, unsigned long long)
PUBLIC 14b2fc 0 TTableView::CopyCellText(unsigned long long, unsigned long long) const
PUBLIC 14b37c 0 TBrowserView::GetItemInfoForAXUIElement(__AXUIElement const*, unsigned int, DataBrowserAccessibilityItemInfo&) const
PUBLIC 14b388 0 TTableView::ViewHeight() const
PUBLIC 14b3a4 0 TTableView::HScrollIncrement() const
PUBLIC 14b3c0 0 TBrowserView::PostScrollUpdate()
PUBLIC 14b3d8 0 TTableView::ColumnWidth(unsigned long) const
PUBLIC 14b3ec 0 TTableView::GetActiveHiliteMode() const
PUBLIC 14b404 0 IconObj::IconObj()
PUBLIC 14b4a8 0 BrowserObj::AcceptDataIfNewerThanCache(ExtraUncachedLayoutInfo const&, unsigned int, unsigned int)
PUBLIC 14b4d8 0 CheckboxButton::~CheckboxButton()
PUBLIC 14b4de 0 ButtonObj::~ButtonObj()
PUBLIC 14b4ec 0 TrackObj::~TrackObj()
PUBLIC 14b4fa 0 ReferenceCountedObject::~ReferenceCountedObject()
PUBLIC 14b51c 0 CheckboxButton::~CheckboxButton()
PUBLIC 14b536 0 TTableCell::Track(Point, int, unsigned short, TDeviceRenderer::Context const*) const::SliderScroller::operator()(short, int&) const
PUBLIC 14b56c 0 TTableCell::Track(Point, int, unsigned short, TDeviceRenderer::Context const*) const::SliderScroller::~SliderScroller()
PUBLIC 14b578 0 HeaderButton::StackBasedRefCount_BrowserObj::operator=(BrowserObj*)
PUBLIC 14b586 0 TTableLayout::StackBasedRefCount_TCellGeometry::operator=(TCellGeometry*)
PUBLIC 14b5dc 0 DragRegionGenerator::operator()(Cell64 const&)
PUBLIC 14b6fa 0 TTableView::ClearSelection(Cell64 const*, Cell64 const*)::ClearSelectionProxy::~ClearSelectionProxy()
PUBLIC 14b704 0 TTableView::ClearSelection(Cell64 const*, Cell64 const*)::ClearSelectionProxy::operator()(Cell64 const&)
PUBLIC 14b7b0 0 HeaderButton::NewState(unsigned int)
PUBLIC 14b7ec 0 HeaderButton::Track(Point, ExtraUncachedLayoutInfo const&)
PUBLIC 14b962 0 HeaderButton::Track(Point, ExtraUncachedLayoutInfo const&)::HeaderButtonTracker::~HeaderButtonTracker()
PUBLIC 14b96c 0 HeaderButton::Content(unsigned int, bool, DataBrowserListViewHeaderDesc const&)
PUBLIC 14bb3c 0 HeaderButton::HeaderButton(TListView const*, unsigned long)
PUBLIC 14bc6e 0 HeaderButton::CustomizeThemeButtonDrawInfo(ThemeButtonDrawInfo&)
PUBLIC 14bcaa 0 HeaderButton::LabelProc(Rect const*, HIThemeButtonDrawInfo const*, HiliteMode, bool, ExtraUncachedLayoutInfo const&, TDeviceRenderer::Context const&)
PUBLIC 14bf04 0 ColumnDrag::Track(int, unsigned short)
PUBLIC 14c028 0 ColumnDrag::DragWithin(OpaqueDragRef*, TListView*)
PUBLIC 14c0ac 0 ColumnDrag::GetColumnDrag(OpaqueDragRef*, TListView*)
PUBLIC 14c112 0 ColumnDrag::TargetColumn(OpaqueDragRef*)
PUBLIC 14c1f6 0 ColumnDrag::MoveColumn(unsigned long)
PUBLIC 14c252 0 ColumnDrag::ColumnDrag(TListView*, unsigned long, Rect, Rect const&, Point)
PUBLIC 14c316 0 TListView::MoveColumn(unsigned long, unsigned long, bool)
PUBLIC 14c4ae 0 ColumnDrag::CalcBoundaries()
PUBLIC 14c5aa 0 ColumnDrag::~ColumnDrag()
PUBLIC 14c648 0 ColumnResizer::Track(Point)
PUBLIC 14c6b2 0 ColumnResizer::Continue(Point&, unsigned short)
PUBLIC 14c78e 0 ColumnResizer::CalcResize(int&, int&) const
PUBLIC 14c840 0 ColumnResizer::SetCursorForLocation(int, int) const
PUBLIC 14c896 0 ColumnResizer::SetCursorForLocation() const
PUBLIC 14c8fc 0 ListIndenter::ListIndenter(TListView*)
PUBLIC 14c918 0 ListIndenter::~ListIndenter()
PUBLIC 14c9e4 0 ListIndenter::~ListIndenter()
PUBLIC 14c9ee 0 TListView::TListView(IBrowser&)
PUBLIC 14cb42 0 TListView::TListView(IBrowser&)
PUBLIC 14cb4c 0 TListView::~TListView()
PUBLIC 14cc06 0 TListView::~TListView()
PUBLIC 14cc10 0 non-virtual thunk to TListView::~TListView()
PUBLIC 14cc1e 0 TListView::~TListView()
PUBLIC 14cc4c 0 non-virtual thunk to TListView::~TListView()
PUBLIC 14cc5a 0 TListView::SendMessage(int, void*)
PUBLIC 14cde8 0 TListView::ShuffleButtons()
PUBLIC 14cf80 0 TListView::SortColumn(unsigned long)
PUBLIC 14d09c 0 TListView::AddColumn(unsigned long, DataBrowserListViewColumnDesc&)
PUBLIC 14d2b6 0 TListView::SetData(unsigned int, unsigned int, long, char*)
PUBLIC 14d878 0 TListView::SetHeaderBtnData(unsigned long, DataBrowserListViewHeaderDesc const*)
PUBLIC 14d9de 0 TListView::DisclosureID(unsigned long)
PUBLIC 14da3a 0 TListView::SendColumnHeaderHandledEvent()
PUBLIC 14dac2 0 TListView::GetData(unsigned int, unsigned int, long, char*, long*) const
PUBLIC 14e1a8 0 TListView::SetBounds(Rect const&, Rect const&)
PUBLIC 14e24c 0 TListView::CalcBounds(unsigned short, Rect&) const
PUBLIC 14e39a 0 TListView::DisclosureColumn(unsigned long)
PUBLIC 14e468 0 TListView::ItemHeight(unsigned long, short)
PUBLIC 14e472 0 TListView::MoveColumn(unsigned long, unsigned long)
PUBLIC 14e484 0 TListView::ColumnWidth(unsigned long, unsigned short, bool)
PUBLIC 14e5f4 0 TListView::ColumnWidth(unsigned long) const
PUBLIC 14e6b8 0 TListView::ColumnWidth(unsigned long, unsigned short)
PUBLIC 14e6c4 0 TListView::RemoveColumn(unsigned long)
PUBLIC 14e76e 0 TListView::RefreshColumns(unsigned long, unsigned long) const
PUBLIC 14e7d4 0 TListView::HitTest(Point, unsigned short) const
PUBLIC 14e830 0 TListView::KeyDown(short, short, unsigned short)
PUBLIC 14ea36 0 TListView::KeyDown(short, short, unsigned short)::Discloser::~Discloser()
PUBLIC 14ea3c 0 TListView::CanTypeSelect() const
PUBLIC 14ea92 0 TListView::GetTypeSelectColumnIndex() const
PUBLIC 14eae8 0 TListView::SetCursorForLocation(Point, unsigned short, short&) const
PUBLIC 14ec40 0 TListView::TrackMouse(short&, Point, int, unsigned short)
PUBLIC 14efd4 0 TListView::ResizeColumn(Point)
PUBLIC 14f160 0 HeaderButton::~HeaderButton()
PUBLIC 14f1b2 0 TListView::TrackColumnDrag(Point, int, unsigned short)
PUBLIC 14f2ae 0 TListView::ActiveEnabledStateChanged()
PUBLIC 14f2f6 0 TListView::ActiveEnabledStateChangedOnRow(unsigned int, Rect&, bool*)
PUBLIC 14f40a 0 TListView::AttributesChanged(unsigned int, unsigned int)
PUBLIC 14f44e 0 TListView::DrawCol(unsigned long, DBDrawFlags) const
PUBLIC 14f6e4 0 TListView::DrawView(unsigned short, TDeviceRenderer::Context const&) const
PUBLIC 14fd26 0 TListView::ApplyBackgroundColorForCell(Cell64 const&, CGContext*, bool) const
PUBLIC 14fdfa 0 TListView::DrawBackgroundSelf(Rect const&, TDeviceRenderer::Context const&, DBDrawFlags) const
PUBLIC 150118 0 non-virtual thunk to TListView::DrawBackgroundSelf(Rect const&, TDeviceRenderer::Context const&, DBDrawFlags) const
PUBLIC 150126 0 TListView::ScrollView(Rect const&, int, int, OpaqueRgnHandle*) const
PUBLIC 15030a 0 TListView::GetActiveHiliteMode() const
PUBLIC 15031c 0 TListView::DragEnter(OpaqueDragRef*)
PUBLIC 15034e 0 TListView::DragLeave(OpaqueDragRef*)
PUBLIC 150380 0 TListView::DragWithin(OpaqueDragRef*)
PUBLIC 1503b0 0 TListView::DragReceive(OpaqueDragRef*)
PUBLIC 150512 0 TListView::NestedDragItem(OpaqueDragRef*) const
PUBLIC 150578 0 TListView::RedirectDrag(OpaqueDragRef*, unsigned int&)
PUBLIC 150638 0 TListView::HiliteContentDrop(OpaqueDragRef*) const
PUBLIC 150706 0 TListView::AcceptAsContentDrop(OpaqueDragRef*) const
PUBLIC 150742 0 TListView::DrawCell(TTableCell const&, unsigned int, TDeviceRenderer::Context const&) const
PUBLIC 15083a 0 TListView::DrawDisclosureTriangleForCell(TTableCell const&, unsigned int, TDeviceRenderer::Context const&) const
PUBLIC 1509b6 0 TListView::AdjustLabelRectangleForCell(TTableCell const&, Rect&) const
PUBLIC 150a62 0 TListView::DrawLabelForUnselectedCell(TTableCell const&, int, TDeviceRenderer::Context const&) const
PUBLIC 150bf6 0 TListView::AnimateDisclosureTriangleForCell(TTableCell const&, bool)
PUBLIC 150cae 0 TListView::TrackCell(TTableCell const&, Point, int, unsigned short, TDeviceRenderer::Context const*)
PUBLIC 150ec2 0 TListView::TrackDisclosureTriangleForCell(TTableCell const&, Point)
PUBLIC 151030 0 TListView::HitTestCell(TTableCell const&, Rect const&) const
PUBLIC 151126 0 TListView::CalcBounds(TTableCell const&, Rect&, unsigned int, bool) const
PUBLIC 151386 0 TListView::GetMetricDefaultValue(unsigned int) const
PUBLIC 1513ac 0 TListView::AddDragItem(TTableCell const&, OpaqueDragRef*) const
PUBLIC 151456 0 TListView::PrepEditText(TTableCell const&, bool) const
PUBLIC 151496 0 TListView::GetOutlineHeaderButtonTitle(unsigned int)
PUBLIC 1514e2 0 HeaderButton::~HeaderButton()
PUBLIC 15153a 0 TrackObj::Data() const
PUBLIC 15153c 0 ButtonObj::Data() const
PUBLIC 151550 0 HeaderButton::Track(Point, ExtraUncachedLayoutInfo const&)::HeaderButtonTracker::~HeaderButtonTracker()
PUBLIC 15157e 0 HeaderButton::Track(Point, ExtraUncachedLayoutInfo const&)::HeaderButtonTracker::Continue(Point&, unsigned short)
PUBLIC 1515e0 0 TListData::~TListData()
PUBLIC 1516d4 0 TContainer::~TContainer()
PUBLIC 151702 0 TListView::KeyDown(short, short, unsigned short)::Discloser::~Discloser()
PUBLIC 15170c 0 TListView::KeyDown(short, short, unsigned short)::Discloser::ApplyToItem(TContainer::ListItemRef&, unsigned int)
PUBLIC 1517e0 0 TListView::GetItemInfoForAXUIElement(__AXUIElement const*, unsigned int, DataBrowserAccessibilityItemInfo&) const
PUBLIC 1519ba 0 TListView::CreateAXUIElementForItemInfo(DataBrowserAccessibilityItemInfo const&) const
PUBLIC 151be0 0 TListView::CellIsLegalID(TListView::AccessibilityID const&, bool*, unsigned int*) const
PUBLIC 151e54 0 TListView::CopyAXUIElementRefForFocus()
PUBLIC 151e86 0 TListView::CopyAXUIElementRefForItemRow(unsigned long)
PUBLIC 151ed4 0 TListView::HandleAccessibilityEvent(OpaqueEventHandlerCallRef*, OpaqueEventRef*)
PUBLIC 152050 0 TListView::GetOutlineChildAtPoint(OpaqueEventRef*, TListView::AccessibilityID const&)
PUBLIC 152408 0 TListView::GetFocusedOutlineChild(OpaqueEventRef*, TListView::AccessibilityID const&)
PUBLIC 1524de 0 TListView::GetAllOutlineAttributeNames(OpaqueEventRef*, TListView::AccessibilityID const&)
PUBLIC 1527b0 0 TListView::GetNamedOutlineAttribute(OpaqueEventRef*, TListView::AccessibilityID const&)
PUBLIC 152964 0 TListView::SetNamedOutlineAttribute(OpaqueEventRef*, TListView::AccessibilityID const&)
PUBLIC 152a58 0 TListView::IsNamedOutlineAttributeSettable(OpaqueEventRef*, TListView::AccessibilityID const&)
PUBLIC 152b64 0 TListView::GetAllOutlineActionNames(OpaqueEventRef*, TListView::AccessibilityID const&)
PUBLIC 152c12 0 TListView::PerformNamedOutlineAction(OpaqueEventRef*, TListView::AccessibilityID const&)
PUBLIC 152d74 0 TListView::GetNamedOutlineActionDescription(OpaqueEventRef*, TListView::AccessibilityID const&)
PUBLIC 152e10 0 TListView::CopyAXUIElementRef()
PUBLIC 152e42 0 TListView::GetCustomSelectedSetChangedNotificationName()
PUBLIC 152e50 0 TListView::GetCustomRowCountChangedNotificationName()
PUBLIC 152e5e 0 TListView::RowGetChildAtPoint(TListView::AccessibilityID const&, Point, __AXUIElement const**)
PUBLIC 152f02 0 TListView::CellGetChildAtPoint(TListView::AccessibilityID const&, Point, __AXUIElement const**)
PUBLIC 153124 0 TListView::RowGetChildAtFocus(TListView::AccessibilityID const&, __AXUIElement const**)
PUBLIC 1531c0 0 TListView::RowGetAllAttributeNames(TListView::AccessibilityID const&, __CFArray*)
PUBLIC 1532fa 0 TListView::ColumnGetAllAttributeNames(TListView::AccessibilityID const&, __CFArray*)
PUBLIC 153416 0 TListView::CellGetAllAttributeNames(TListView::AccessibilityID const&, __CFArray*)
PUBLIC 15362a 0 TListView::GetCocoaCompatibilityScrollViewAttribute(OpaqueEventRef*, __CFString const*)
PUBLIC 153a4c 0 TListView::OutlineGetAttribute(TListView::AccessibilityID const&, __CFString const*, unsigned int, OpaqueEventRef*)
PUBLIC 1543b6 0 TListView::GetHeaderAttribute(OpaqueEventRef*, __CFString const*)
PUBLIC 15479e 0 TListView::RowGetAttribute(TListView::AccessibilityID const&, __CFString const*, unsigned int, OpaqueEventRef*)
PUBLIC 154e70 0 TListView::ColumnGetAttribute(TListView::AccessibilityID const&, __CFString const*, unsigned int, OpaqueEventRef*)
PUBLIC 1552d4 0 TListView::GetHeaderButtonAttribute(OpaqueEventRef*, unsigned int, __CFString const*)
PUBLIC 15566e 0 TListView::CellGetParent(TListView::AccessibilityID const&, __AXUIElement const**)
PUBLIC 1557ae 0 TListView::CellGetAttribute(TListView::AccessibilityID const&, __CFString const*, unsigned int, OpaqueEventRef*)
PUBLIC 1560e4 0 TListView::OutlineSetAttribute(TListView::AccessibilityID const&, __CFString const*, unsigned int, OpaqueEventRef*)
PUBLIC 156324 0 TListView::RowSetAttribute(TListView::AccessibilityID const&, __CFString const*, unsigned int, OpaqueEventRef*)
PUBLIC 156636 0 TListView::CellSetAttribute(TListView::AccessibilityID const&, __CFString const*, unsigned int, OpaqueEventRef*)
PUBLIC 15675e 0 TListView::RowIsAttributeSettable(TListView::AccessibilityID const&, __CFString const*, unsigned int, unsigned char*)
PUBLIC 156998 0 TListView::CellIsAttributeSettable(TListView::AccessibilityID const&, __CFString const*, unsigned int, unsigned char*)
PUBLIC 1569fb 0 HeaderIsShowing(OpaqueControlRef*)
PUBLIC 156a4e 0 TListView::OutlinePerformAction(TListView::AccessibilityID const&, __CFString const*, unsigned int, unsigned char)
PUBLIC 156adc 0 TListView::RowGetChildAtCell(unsigned int, unsigned int)
PUBLIC 156c3e 0 TListView::RowGetAttribute(TListView::AccessibilityID const&, __CFString const*, unsigned int, OpaqueEventRef*)::ContainedItemsCount::~ContainedItemsCount()
PUBLIC 156c78 0 TListView::CellGetSizeOrPositionAttributeInternal(TListView::AccessibilityID const&, unsigned int, OpaqueEventRef*)
PUBLIC 156d2c 0 TListView::CellGetAllActionNames(TListView::AccessibilityID const&, __CFArray*)
PUBLIC 156db2 0 TListView::CellPerformAction(TListView::AccessibilityID const&, __CFString const*, unsigned int, unsigned char)
PUBLIC 156fbe 0 TListView::DataProxy() const
PUBLIC 156fc0 0 TListView::DataProxy()
PUBLIC 156fdc 0 TListView::ViewStyle() const
PUBLIC 156ff0 0 TListView::RowGetAttribute(TListView::AccessibilityID const&, __CFString const*, unsigned int, OpaqueEventRef*)::ContainedItemsCount::~ContainedItemsCount()
PUBLIC 15702c 0 TListView::RowGetAttribute(TListView::AccessibilityID const&, __CFString const*, unsigned int, OpaqueEventRef*)::ContainedItemsCount::ApplyToItem(TContainer::ListItemRef&, unsigned int)
PUBLIC 157092 0 TTableLayout::LeftEdge(unsigned long long, Rect const&, UPoint32 const&) const
PUBLIC 1570d8 0 TTableLayout::RightEdge(unsigned long long, Rect const&, UPoint32 const&) const
PUBLIC 157156 0 TTableLayout::ColBounds(unsigned long long, Rect const&, UPoint32 const&) const
PUBLIC 1571ec 0 TTableLayout::RowBounds(unsigned long long, Rect const&, UPoint32 const&) const
PUBLIC 1572b6 0 TTableLayout::CellBounds(Cell64 const&, Rect const&, UPoint32 const&) const
PUBLIC 1573ce 0 TTableLayout::Draw(Rect const&, UPoint32 const&, TDeviceRenderer::Context const&, DBDrawFlags) const
PUBLIC 157538 0 TTableLayout::VisibleCells(URect32&, Rect const&, UPoint32 const&, bool) const
PUBLIC 1575f6 0 TTableLayout::PointInCell(Cell64&, UPoint32 const&) const
PUBLIC 157662 0 TTableLayout::PointInCell(Cell64&, Point const&, Rect const&, UPoint32 const&) const
PUBLIC 15775c 0 TTableLayout::VisibleWidth(unsigned long long, Rect const&, UPoint32 const&) const
PUBLIC 1577fc 0 TTableLayout::TopVisibleRow(Rect const&, UPoint32 const&, bool) const
PUBLIC 157888 0 TTableLayout::BottomVisibleRow(Rect const&, UPoint32 const&, bool) const
PUBLIC 157926 0 TTableLayout::LeftVisibleColumn(Rect const&, UPoint32 const&, bool) const
PUBLIC 1579c6 0 TTableLayout::RightVisibleColumn(Rect const&, UPoint32 const&, bool) const
PUBLIC 157a60 0 TTableLayout::RowCountChanged()
PUBLIC 157a66 0 TTableLayout::~TTableLayout()
PUBLIC 157a8c 0 TTableLayout::~TTableLayout()
PUBLIC 157ad4 0 TTableLayout::SetVariableHeightRows(bool)
PUBLIC 157af4 0 TTableLayout::ColumnWidth(unsigned long long, unsigned short)
PUBLIC 157b10 0 TTableLayout::MoveColumn(unsigned long long, unsigned long long)
PUBLIC 157b20 0 TCellGeometry::TCellGeometry()
PUBLIC 157bcc 0 TCellGeometry::TCellGeometry()
PUBLIC 157bd6 0 TCellGeometry::TopEdge(unsigned long long) const
PUBLIC 157c02 0 TCellGeometry::BottomEdge(unsigned short) const
PUBLIC 157c44 0 TCellGeometry::LeftEdge(unsigned long long, bool) const
PUBLIC 157c6e 0 TCellGeometry::RightEdge(unsigned long long, bool) const
PUBLIC 157cac 0 TCellGeometry::Width() const
PUBLIC 157cd8 0 TCellGeometry::GeometryInfo::MarkerEdge(unsigned long long, unsigned short) const
PUBLIC 157d30 0 TCellGeometry::CellBounds(URect32&, Cell64 const&) const
PUBLIC 157df4 0 TCellGeometry::RowAtOffset(unsigned long long) const
PUBLIC 157e82 0 TCellGeometry::ColumnAtOffset(unsigned long long) const
PUBLIC 157f1c 0 TCellGeometry::LeftMostColumn() const
PUBLIC 157f24 0 TCellGeometry::RightMostColumn() const
PUBLIC 157f32 0 TCellGeometry::Height() const
PUBLIC 157f6c 0 TCellGeometry::RowHeight(unsigned long long) const
PUBLIC 157fb4 0 TCellGeometry::ColumnWidth(unsigned long long) const
PUBLIC 158004 0 TCellGeometry::ColumnWidth(unsigned long long, unsigned short)
PUBLIC 15809c 0 TCellGeometry::NextCell(Cell64&, bool, bool, bool) const
PUBLIC 158118 0 TCellGeometry::PrevCell(Cell64&, bool, bool, bool) const
PUBLIC 1581c2 0 TCellGeometry::RowHeight(unsigned long long, unsigned short)
PUBLIC 15825a 0 TCellGeometry::GeometryInfo::MarkerSize(unsigned long long, unsigned short)
PUBLIC 1582ea 0 TCellGeometry::AddRows(unsigned long long, unsigned long long, unsigned short)
PUBLIC 15832c 0 TCellGeometry::AddColumns(unsigned long long, unsigned long long, unsigned short)
PUBLIC 15836e 0 TCellGeometry::RowTimeStamp(unsigned long long) const
PUBLIC 1583f0 0 TCellGeometry::ColumnTimeStamp(unsigned long long) const
PUBLIC 15846e 0 TCellGeometry::GeometryInfo::AddMarkers(unsigned long long, unsigned long long, unsigned short)
PUBLIC 15856e 0 TCellGeometry::MoveRow(unsigned long long, unsigned long long)
PUBLIC 158584 0 TCellGeometry::GeometryInfo::MoveMarker(unsigned long long, unsigned long long)
PUBLIC 1586d4 0 TCellGeometry::SetNumRows(unsigned long long)
PUBLIC 158704 0 TCellGeometry::DeleteRows(unsigned long long, unsigned long long)
PUBLIC 158740 0 TCellGeometry::GeometryInfo::DeleteMarkers(unsigned long long, unsigned long long)
PUBLIC 158824 0 TCellGeometry::MoveColumn(unsigned long long, unsigned long long)
PUBLIC 15883a 0 TCellGeometry::SetNumColumns(unsigned long long)
PUBLIC 15886a 0 TCellGeometry::DeleteColumns(unsigned long long, unsigned long long)
PUBLIC 1588a6 0 TCellGeometry::SetVariableHeightRows(bool)
PUBLIC 1588f6 0 TCellGeometry::SetVariableWidthColumns(bool)
PUBLIC 158946 0 TCellGeometry::GeometryInfo::UpdateMarkerTimeStamp(unsigned long long)
PUBLIC 158976 0 TCellGeometry::~TCellGeometry()
PUBLIC 1589e2 0 TCellGeometry::~TCellGeometry()
PUBLIC 158a50 0 TListData::TListData(TTableView&)
PUBLIC 158b74 0 TTableData::TTableData(TTableView&)
PUBLIC 158be6 0 TListData::TListData(TTableView&)
PUBLIC 158bf0 0 TListData::CellID(Cell64 const&) const
PUBLIC 158c04 0 TListData::RowID(unsigned long) const
PUBLIC 158c3c 0 TListData::ItemRow(unsigned long) const
PUBLIC 158cd2 0 TListData::ParentID(unsigned long) const
PUBLIC 158d08 0 TListData::ParentRow(unsigned long) const
PUBLIC 158d5c 0 TListData::MoveRow(unsigned long, unsigned long)
PUBLIC 158d70 0 TListData::CachedData(Cell64 const&) const
PUBLIC 158dba 0 TListData::CachedData(Cell64 const&, BrowserObj*)
PUBLIC 158e0e 0 TListData::SetSortOrder(unsigned short, bool)
PUBLIC 158e8c 0 TListData::ParseTree(bool)
PUBLIC 158f3a 0 TListData::RowDepth(unsigned long) const
PUBLIC 158f60 0 TListData::RowHeight(unsigned long) const
PUBLIC 158fec 0 TListData::RowHeight(unsigned long, unsigned short)
PUBLIC 159088 0 TListData::SelectCell(Cell64 const&, BinaryState)
PUBLIC 159096 0 TListData::SelectRow(unsigned long, BinaryState)
PUBLIC 1590fe 0 TListData::SetSelection(unsigned long long, unsigned long const*, unsigned int)
PUBLIC 159158 0 non-virtual thunk to TListData::SetSelection(unsigned long long, unsigned long const*, unsigned int)
PUBLIC 1591b4 0 TListData::SelectAll(BinaryState)
PUBLIC 1591f8 0 non-virtual thunk to TListData::SelectAll(BinaryState)
PUBLIC 159240 0 TListData::ForEachCell(TableCellState, ICellCallback&, bool) const
PUBLIC 1592b0 0 TListData::ForEachCell(TableCellState, ICellCallback&, bool) const::ForEachCellFunc::~ForEachCellFunc()
PUBLIC 1592b6 0 TListData::DiscloseRow(unsigned long, BinaryState, bool)
PUBLIC 159338 0 TListData::CloseContainer(TContainer::ListItemRef&, bool)
PUBLIC 15952a 0 TListData::OpenContainer(TContainer::ListItemRef&, bool)
PUBLIC 1596e0 0 TListData::CellIsSelected(Cell64 const&) const
PUBLIC 1596ee 0 TListData::RowIsSelected(unsigned long) const
PUBLIC 159732 0 TListData::RowIsDisclosed(unsigned long) const
PUBLIC 159766 0 TListData::Target(unsigned long)
PUBLIC 159976 0 non-virtual thunk to TListData::Target(unsigned long)
PUBLIC 159984 0 TListData::AddItems(unsigned long, unsigned long long, unsigned long const*, IDataSorter const&)
PUBLIC 159c3e 0 TListData::FlattenTree(NonOwningSharedPtr_TListContainer&, unsigned long&, unsigned int)
PUBLIC 159dbe 0 TListData::SynchRows(unsigned long, unsigned long, bool)
PUBLIC 159fc4 0 non-virtual thunk to TListData::AddItems(unsigned long, unsigned long long, unsigned long const*, IDataSorter const&)
PUBLIC 159fd2 0 TListData::NumItems(unsigned long, unsigned int, bool) const
PUBLIC 15a064 0 non-virtual thunk to TListData::NumItems(unsigned long, unsigned int, bool) const
PUBLIC 15a076 0 TListData::SortItems(unsigned long, IDataSorter const&, bool)
PUBLIC 15a152 0 TListData::RefreshItems(unsigned long) const
PUBLIC 15a1e0 0 non-virtual thunk to TListData::SortItems(unsigned long, IDataSorter const&, bool)
PUBLIC 15a1f2 0 TListData::UpdateItems(unsigned long, unsigned long long, unsigned long const*, IDataSorter const&, unsigned long, bool)
PUBLIC 15a3d2 0 non-virtual thunk to TListData::UpdateItems(unsigned long, unsigned long long, unsigned long const*, IDataSorter const&, unsigned long, bool)
PUBLIC 15a3e0 0 TListData::MeasureTree()
PUBLIC 15a42a 0 TListData::MeasureTree()::TreeCalculator::~TreeCalculator()
PUBLIC 15a430 0 TListData::RemoveItems(unsigned long, unsigned long long, unsigned long const*, IDataSorter const&)
PUBLIC 15a608 0 non-virtual thunk to TListData::RemoveItems(unsigned long, unsigned long long, unsigned long const*, IDataSorter const&)
PUBLIC 15a616 0 TListData::OpenContainer(unsigned long)
PUBLIC 15a66a 0 non-virtual thunk to TListData::OpenContainer(unsigned long)
PUBLIC 15a678 0 TListData::OpenContainer(TContainer::ListItemRef&, bool)::RecursiveOpener::~RecursiveOpener()
PUBLIC 15a67e 0 TListData::CloseContainer(unsigned long)
PUBLIC 15a798 0 non-virtual thunk to TListData::CloseContainer(unsigned long)
PUBLIC 15a7a6 0 TListData::AccessibilityContainerOpenedClosedHook(unsigned long, TContainerTree::OpenClosedState)
PUBLIC 15a858 0 non-virtual thunk to TListData::AccessibilityContainerOpenedClosedHook(unsigned long, TContainerTree::OpenClosedState)
PUBLIC 15a866 0 TListData::CreateContainer(TContainer::ListItemRef&)
PUBLIC 15a8de 0 non-virtual thunk to TListData::CreateContainer(TContainer::ListItemRef&)
PUBLIC 15a8ea 0 IDataProxy::Root() const
PUBLIC 15a8fe 0 TListData::~TListData()
PUBLIC 15a908 0 TListData::~TListData()
PUBLIC 15a93a 0 TListData::SynchronizeRows()
PUBLIC 15a96a 0 TTableData::AddColumn(unsigned long, DataBrowserPropertyDesc const&)
PUBLIC 15a9c6 0 TTableData::MoveColumn(unsigned long, unsigned long)
PUBLIC 15a9e6 0 TTableData::DeleteColumn(unsigned long)
PUBLIC 15a9fe 0 TListData::RowHasCustomHeight(unsigned long) const
PUBLIC 15aa32 0 TListData::SetSortOrder(unsigned short)
PUBLIC 15aa42 0 TListData::GetContainer(unsigned long, bool, bool) const
PUBLIC 15aa56 0 non-virtual thunk to TListData::~TListData()
PUBLIC 15aa64 0 non-virtual thunk to TListData::~TListData()
PUBLIC 15aa9a 0 non-virtual thunk to TListData::SetSortOrder(unsigned short)
PUBLIC 15aaae 0 non-virtual thunk to TListData::GetContainer(unsigned long, bool, bool) const
PUBLIC 15aacc 0 TListContainer::~TListContainer()
PUBLIC 15ab00 0 TListData::ForEachCell(TableCellState, ICellCallback&, bool) const::ForEachCellFunc::~ForEachCellFunc()
PUBLIC 15ab0a 0 TListData::ForEachCell(TableCellState, ICellCallback&, bool) const::ForEachCellFunc::ApplyToContainer(NonOwningSharedPtr_TContainer&, unsigned long)
PUBLIC 15ab26 0 TListData::ForEachCell(TableCellState, ICellCallback&, bool) const::ForEachCellFunc::ApplyToItem(TContainer::ListItemRef&, unsigned int)
PUBLIC 15ab9c 0 non-virtual thunk to TListData::ForEachCell(TableCellState, ICellCallback&, bool) const::ForEachCellFunc::~ForEachCellFunc()
PUBLIC 15aba2 0 non-virtual thunk to TListData::ForEachCell(TableCellState, ICellCallback&, bool) const::ForEachCellFunc::~ForEachCellFunc()
PUBLIC 15abb0 0 non-virtual thunk to TListData::ForEachCell(TableCellState, ICellCallback&, bool) const::ForEachCellFunc::ApplyToItem(TContainer::ListItemRef&, unsigned int)
PUBLIC 15abc8 0 CacheSelectionNotifications::~CacheSelectionNotifications()
PUBLIC 15ac00 0 TListData::MeasureTree()::TreeCalculator::~TreeCalculator()
PUBLIC 15ac0a 0 TListData::MeasureTree()::TreeCalculator::ApplyToContainer(NonOwningSharedPtr_TContainer&, unsigned long)
PUBLIC 15ac46 0 TListData::OpenContainer(TContainer::ListItemRef&, bool)::RecursiveOpener::~RecursiveOpener()
PUBLIC 15ac50 0 TListData::OpenContainer(TContainer::ListItemRef&, bool)::RecursiveOpener::ApplyToItem(TContainer::ListItemRef&, unsigned int)
PUBLIC 15ac70 0 ITableData::~ITableData()
PUBLIC 15acb6 0 ITableData::~ITableData()
PUBLIC 15acc0 0 ITableData::~ITableData()
PUBLIC 15acee 0 ITableData::ForEachCell(TableCellState, ICellCallback&) const
PUBLIC 15ad28 0 ITableData::ForEachCell(TableCellState, ICellCallback&, bool) const
PUBLIC 15ade6 0 ITableData::LastSelection(Cell64&) const
PUBLIC 15ae84 0 ITableData::FirstAndLastSelection(Cell64&, Cell64&) const
PUBLIC 15aeb6 0 ITableData::NextSelection(Cell64&, bool, bool) const
PUBLIC 15af8a 0 ITableData::PrevSelection(Cell64&, bool, bool) const
PUBLIC 15b0a4 0 ITableData::FirstSelection(Cell64&) const
PUBLIC 15b0fa 0 ITableData::ItemHeight(unsigned long) const
PUBLIC 15b162 0 ITableData::ItemHeight(unsigned long, unsigned short)
PUBLIC 15b1ea 0 ITableData::SendAccessibilitySelectedChildrenChangedNotification()
PUBLIC 15b22e 0 ITableData::SelectedChildrenChangedNotificationProc(__EventLoopTimer*, void*)
PUBLIC 15b2a2 0 ITableData::SendAccessibilityRowCountChangedNotification()
PUBLIC 15b2e6 0 ITableData::RowCountChangedNotificationProc(__EventLoopTimer*, void*)
PUBLIC 15b35a 0 TTableData::ColumnID(unsigned long) const
PUBLIC 15b3ac 0 TTableData::ColumnIndex(unsigned long) const
PUBLIC 15b400 0 TTableData::ColumnStyle(unsigned long) const
PUBLIC 15b416 0 TTableData::ColumnStyle(unsigned long, unsigned int)
PUBLIC 15b45c 0 TTableData::ColumnFlags(unsigned long) const
PUBLIC 15b472 0 TTableData::ColumnFlags(unsigned long, unsigned int)
PUBLIC 15b4c0 0 TTableData::ColumnData(unsigned long) const
PUBLIC 15b4d8 0 ITableData::View()
PUBLIC 15b4e8 0 ITableData::RowHeight(unsigned long, unsigned short)
PUBLIC 15b510 0 TTableData::~TTableData()
PUBLIC 15b554 0 TTableData::~TTableData()
PUBLIC 15b5b0 0 TContainer::Item(unsigned long) const
PUBLIC 15b5e6 0 TContainer::NumItems(unsigned int) const
PUBLIC 15b662 0 TContainer::FindItem(unsigned long, unsigned long long, unsigned long long, TContainer::TypeSafeArray_StackIndex const&) const
PUBLIC 15b6e4 0 TContainer::ListItemRef::Valid() const
PUBLIC 15b700 0 TContainer::ListItemRef::ItemID() const
PUBLIC 15b71c 0 TContainer::SelectedItem() const
PUBLIC 15b736 0 TContainer::FindItem(unsigned long) const
PUBLIC 15b7b4 0 TContainer::SelectAll(BinaryState, IClientProxy const&, bool)
PUBLIC 15b83e 0 TContainer::ForEachItem(unsigned int, TContainer::ItemFunction&, bool) const
PUBLIC 15b980 0 TContainer::SelectAll(BinaryState, IClientProxy const&, bool)::ItemSelecter::~ItemSelecter()
PUBLIC 15b986 0 TContainer::AddItems(unsigned long, unsigned long long, unsigned long const*, IDataSorter const&, IClientProxy const&, TContainerTree*)
PUBLIC 15bee6 0 CompareItem(void const*, void const*)
PUBLIC 15bf0e 0 ContainerSorter::ApplyToContainer(NonOwningSharedPtr_TContainer&, unsigned long)
PUBLIC 15c054 0 TContainer::NumItems(unsigned int) const::ItemCounter::~ItemCounter()
PUBLIC 15c066 0 TContainer::RemoveItems(IClientProxy const&, TContainerTree*, TContainer::ItemRefArray*)
PUBLIC 15c156 0 TContainer::ListItemRef::ItemSelected(BinaryState, IClientProxy const&, bool)
PUBLIC 15c384 0 TContainer::ListItemRef::PreflightRemoval(IClientProxy const&, TContainerTree*, TContainer::ItemRefArray*)
PUBLIC 15c458 0 TContainer::RemoveItems(bool, bool, unsigned long long, unsigned long const*, IClientProxy const&, TContainerTree*, TContainer::ItemRefArray*)
PUBLIC 15c844 0 TContainer::RemoveFlaggedItems(IClientProxy const&, TContainerTree*, TContainer::ItemRefArray*)
PUBLIC 15ccca 0 TContainer::AddToSelectionSet(TContainer::ListItemRef&, IClientProxy const&)
PUBLIC 15cd9c 0 TContainer::ListItemRef::ItemSelected() const
PUBLIC 15cdba 0 TContainer::AddToDisclosureSet(TContainer::ListItemRef&, IClientProxy const&)
PUBLIC 15ce8c 0 TContainer::ListItemRef::ItemDisclosed() const
PUBLIC 15ceae 0 TContainer::ListItemRef::ItemDisclosed(BinaryState, IClientProxy const&, bool)
PUBLIC 15cf84 0 TContainer::ListItemRef::ItemIndex() const
PUBLIC 15cfa2 0 TContainer::RemoveFromSelectionSet(unsigned long, IClientProxy const&)
PUBLIC 15d048 0 TContainer::RemoveFromDisclosureSet(unsigned long, IClientProxy const&)
PUBLIC 15d0ee 0 TContainerTree::FindItem(unsigned long, bool) const
PUBLIC 15d13e 0 TContainerTree::ApplyToTree(ContainerFunction&, unsigned long, bool) const
PUBLIC 15d2f6 0 TContainerTree::FindItem(unsigned long, bool) const::ItemFinder::~ItemFinder()
PUBLIC 15d2fc 0 TContainerTree::ItemState(unsigned long) const
PUBLIC 15d342 0 TContainerTree::NumItems(unsigned long, unsigned int, bool) const
PUBLIC 15d384 0 TContainerTree::NumItems(unsigned long, unsigned int, bool) const::ItemCounter::~ItemCounter()
PUBLIC 15d38a 0 TContainerTree::SortItems(unsigned long, IDataSorter const&, IClientProxy const&, bool)
PUBLIC 15d3de 0 TContainerTree::GetContainer(unsigned long, bool, bool) const
PUBLIC 15d438 0 TContainerTree::SelectAll(BinaryState, IClientProxy const&, bool)
PUBLIC 15d4b2 0 TContainerTree::SelectAll(BinaryState, IClientProxy const&, bool)::BranchSelecter::~BranchSelecter()
PUBLIC 15d4b8 0 TContainerTree::SetSelection(unsigned long long, unsigned long const*, unsigned int, IClientProxy const&)
PUBLIC 15d5c0 0 TContainerTree::AddContainer(unsigned long, TContainer*)
PUBLIC 15d636 0 TContainerTree::OpenChildContainer(TContainer::ListItemRef&, IClientProxy const&)
PUBLIC 15d74e 0 TContainerTree::CloseContainer(unsigned long, IClientProxy const&)
PUBLIC 15d7dc 0 TContainerTree::CloseChildContainer(TContainer::ListItemRef&, IClientProxy const&, TContainer::ItemRefArray*)
PUBLIC 15d836 0 TContainerTree::CloseContainerTree(unsigned long, IClientProxy const&, TContainer::ItemRefArray*)
PUBLIC 15d8ce 0 TContainerTree::CreateContainer(TContainer::ListItemRef&)
PUBLIC 15d906 0 TContainerTree::RemoveContainer(unsigned long)
PUBLIC 15d9c6 0 TContainerTree::AccessibilityContainerOpenedClosedHook(unsigned long, TContainerTree::OpenClosedState)
PUBLIC 15d9cc 0 TContainerTree::ForEachItem(unsigned long, unsigned int, IDataCallback&, bool) const
PUBLIC 15da2e 0 TContainerTree::ForEachItem(unsigned long, unsigned int, TContainer::ItemFunction&, bool) const
PUBLIC 15da7e 0 TContainerTree::ForEachItem(unsigned long, unsigned int, IDataCallback&, bool) const::ItemFunctor::~ItemFunctor()
PUBLIC 15da84 0 TContainerTree::ForEachItem(unsigned long, unsigned int, TContainer::ItemFunction&, bool) const::ItemFunctor::~ItemFunctor()
PUBLIC 15da92 0 TContainerTree::ForEachBranch(NonOwningSharedPtr_TContainer&, ContainerFunction&) const::ContainerFunctor::~ContainerFunctor()
PUBLIC 15da98 0 TContainer::ListItemRef::ItemIndex(unsigned long)
PUBLIC 15dab6 0 TContainer::ListItemRef::ItemHeight() const
PUBLIC 15dad4 0 TContainer::ListItemRef::ItemHeight(unsigned short)
PUBLIC 15db0e 0 TContainer::ListItemRef::operator==(TContainer::ListItemRef const&) const
PUBLIC 15db56 0 TContainer::ListItemRef::ItemProperty(unsigned long) const
PUBLIC 15dbb8 0 TContainer::ListItemRef::ItemProperty(unsigned long, BrowserObj*)
PUBLIC 15dc9a 0 RetainReferenceCountedObject(__CFAllocator const*, void const*)
PUBLIC 15dcb0 0 ReleaseReferenceCountedObject(__CFAllocator const*, void const*)
PUBLIC 15dcd2 0 TContainer::ListItemRef::ItemHasCustomHeight() const
PUBLIC 15dcfc 0 IDataProxy::Target(unsigned long)
PUBLIC 15dd08 0 IDataProxy::SetSortProperty(unsigned long)
PUBLIC 15dd12 0 TContainerTree::~TContainerTree()
PUBLIC 15dd2c 0 TContainerTree::OpenContainer(unsigned long)
PUBLIC 15dd40 0 TContainerTree::CloseContainer(unsigned long)
PUBLIC 15ddaa 0 TContainer::SelectAll(BinaryState, IClientProxy const&, bool)::ItemSelecter::~ItemSelecter()
PUBLIC 15ddb4 0 TContainer::SelectAll(BinaryState, IClientProxy const&, bool)::ItemSelecter::ApplyToItem(TContainer::ListItemRef&, unsigned int)
PUBLIC 15ddfc 0 ItemIDCompare::operator()(void const*, void const*) const
PUBLIC 15de2e 0 ClientCompare::operator()(void const*, void const*) const
PUBLIC 15de64 0 TContainer::NumItems(unsigned int) const::ItemCounter::~ItemCounter()
PUBLIC 15de6e 0 TContainer::NumItems(unsigned int) const::ItemCounter::ApplyToItem(TContainer::ListItemRef&, unsigned int)
PUBLIC 15de84 0 ValueCompare::operator()(void const*, void const*) const
PUBLIC 15de9e 0 ChildRemover::ApplyToContainer(NonOwningSharedPtr_TContainer&, unsigned long)
PUBLIC 15defe 0 TContainerTree::FindItem(unsigned long, bool) const::ItemFinder::~ItemFinder()
PUBLIC 15df08 0 TContainerTree::FindItem(unsigned long, bool) const::ItemFinder::ApplyToContainer(NonOwningSharedPtr_TContainer&, unsigned long)
PUBLIC 15df54 0 TContainerTree::NumItems(unsigned long, unsigned int, bool) const::ItemCounter::~ItemCounter()
PUBLIC 15df5e 0 TContainerTree::NumItems(unsigned long, unsigned int, bool) const::ItemCounter::ApplyToContainer(NonOwningSharedPtr_TContainer&, unsigned long)
PUBLIC 15df8a 0 TContainerTree::SelectAll(BinaryState, IClientProxy const&, bool)::BranchSelecter::~BranchSelecter()
PUBLIC 15df94 0 TContainerTree::SelectAll(BinaryState, IClientProxy const&, bool)::BranchSelecter::ApplyToContainer(NonOwningSharedPtr_TContainer&, unsigned long)
PUBLIC 15dfc8 0 TContainer::~TContainer()
PUBLIC 15dfe0 0 TContainer::~TContainer()
PUBLIC 15e07e 0 TContainerTree::ForEachItem(unsigned long, unsigned int, IDataCallback&, bool) const::ItemFunctor::~ItemFunctor()
PUBLIC 15e088 0 TContainerTree::ForEachItem(unsigned long, unsigned int, IDataCallback&, bool) const::ItemFunctor::ApplyToItem(TContainer::ListItemRef&, unsigned int)
PUBLIC 15e0b2 0 TContainerTree::ForEachItem(unsigned long, unsigned int, TContainer::ItemFunction&, bool) const::ItemFunctor::~ItemFunctor()
PUBLIC 15e0bc 0 TContainerTree::ForEachItem(unsigned long, unsigned int, TContainer::ItemFunction&, bool) const::ItemFunctor::ApplyToContainer(NonOwningSharedPtr_TContainer&, unsigned long)
PUBLIC 15e0d8 0 TContainerTree::ForEachItem(unsigned long, unsigned int, TContainer::ItemFunction&, bool) const::ItemFunctor::ApplyToItem(TContainer::ListItemRef&, unsigned int)
PUBLIC 15e0ea 0 non-virtual thunk to TContainerTree::ForEachItem(unsigned long, unsigned int, TContainer::ItemFunction&, bool) const::ItemFunctor::~ItemFunctor()
PUBLIC 15e0f0 0 non-virtual thunk to TContainerTree::ForEachItem(unsigned long, unsigned int, TContainer::ItemFunction&, bool) const::ItemFunctor::~ItemFunctor()
PUBLIC 15e0fe 0 non-virtual thunk to TContainerTree::ForEachItem(unsigned long, unsigned int, TContainer::ItemFunction&, bool) const::ItemFunctor::ApplyToItem(TContainer::ListItemRef&, unsigned int)
PUBLIC 15e110 0 TContainerTree::ForEachBranch(NonOwningSharedPtr_TContainer&, ContainerFunction&) const::ContainerFunctor::~ContainerFunctor()
PUBLIC 15e11a 0 TContainerTree::ForEachBranch(NonOwningSharedPtr_TContainer&, ContainerFunction&) const::ContainerFunctor::ApplyToItem(TContainer::ListItemRef&, unsigned int)
PUBLIC 15e1c6 0 TCFKey::TCFKey(char const*, unsigned int)
PUBLIC 15e1ee 0 TCFKey::~TCFKey()
PUBLIC 15e202 0 TCFDictionary::TCFDictionary(__CFDictionary const*)
PUBLIC 15e242 0 TCFDictionary::TCFDictionary(__CFDictionary const*)
PUBLIC 15e250 0 TCFDictionary::~TCFDictionary()
PUBLIC 15e264 0 TCFDictionary::SetProperty(__CFString const*, __CFData*)
PUBLIC 15e2a4 0 TCFDictionary::RemoveProperty(__CFString const*)
PUBLIC 15e2de 0 TCFDictionary::SetNumberProperty(__CFString const*, long, void*)
PUBLIC 15e32e 0 TCFDictionary::GetNumberProperty(__CFString const*, long, void*)
PUBLIC 15e392 0 TCFDictionary::SetArrayProperty(__CFString const*, __CFArray*)
PUBLIC 15e39c 0 TCFDictionary::GetArrayProperty(__CFString const*, __CFArray const**)
PUBLIC 15e3e2 0 TCFDictionary::SetRefConProperty(__CFString const*, void*)
PUBLIC 15e404 0 TCFDictionary::GetRefConProperty(__CFString const*, void**)
PUBLIC 15e41a 0 TCFArray::TCFArray(__CFArray const*)
PUBLIC 15e45e 0 TCFArray::~TCFArray()
PUBLIC 15e476 0 TCFArray::GetData(long, __CFData const**) const
PUBLIC 15e4b8 0 TCFArray::NumElements() const
PUBLIC 15e4d0 0 TCFNumberArray::GetValue(long, long, void*) const
PUBLIC 15e536 0 TCFNumberArray::AppendValue(long, void*)
PUBLIC 15e576 0 TCFSInt16Array::Append(short)
PUBLIC 15e596 0 TCFSInt16Array::GetEntry(long, short*) const
PUBLIC 15e5ac 0 TCFRefConArray::Append(void*)
PUBLIC 15e5cc 0 TCFRefConArray::GetEntry(long, void**) const
PUBLIC 15e5e6 0 URect32::operator Rect()
PUBLIC 15e65e 0 URect32::operator-=(UPoint32 const&)
PUBLIC 15e6a4 0 UPoint32::UPoint32(Point const&, bool)
PUBLIC 15e6d6 0 URect32::URect32(Rect const&, bool)
PUBLIC 15e730 0 URect32::URect32(Rect const&, bool)
PUBLIC 15e73d 0 Pt2Rect(UPoint32 const&, UPoint32 const&, URect32&)
PUBLIC 15e772 0 SectRect(URect32 const&, URect32 const&, URect32*)
PUBLIC 15e7f4 0 UnionRect(URect32 const&, URect32 const&, URect32&)
PUBLIC 15e82f 0 OffsetRect(URect32&, int, int)
PUBLIC 15e920 0 AlignRect(Rect const&, Rect*, Alignment)
PUBLIC 15e9fb 0 NormalizeAlignment(Alignment)
PUBLIC 15ea0b 0 HiliteRect(Rect const&, TDeviceRenderer::Context const&, HiliteMode)
PUBLIC 15eaa1 0 GetColumnResizerImage(double*, double*)
PUBLIC 15eb52 0 DrawLabelInRect(int, CGRect const&, bool, bool, bool, CGContext*)
PUBLIC 15eb76 0 GetSleekPopupArrowsImage(HiliteMode, double*, double*)
PUBLIC 15ec99 0 HCenteredRect(Rect*, unsigned short)
PUBLIC 15ecdb 0 VCenteredRect(Rect*, unsigned short)
PUBLIC 15ed1b 0 ThemeMetricValue(unsigned int)
PUBLIC 15ed3c 0 LeftToRightSys()
PUBLIC 15ed5e 0 CalcHorizontalLayout(Rect*, unsigned int, unsigned int, unsigned short, unsigned short)
PUBLIC 15f007 0 CalcIconRect(Rect*)
PUBLIC 15f0a0 0 TMouseDownLoop::Track(OpaqueGrafPtr*, bool, OpaqueControlRef*, Point, Rect const*)
PUBLIC 15f2fc 0 IconObj::Draw(HiliteMode, bool, ExtraUncachedLayoutInfo const&, TDeviceRenderer::Context const&)
PUBLIC 15f540 0 IconObj::CalcBasicBounds(ExtraUncachedLayoutInfo const&, Rect*) const
PUBLIC 15f5b4 0 IconObj::HitTest(Rect const&, ExtraUncachedLayoutInfo const&) const
PUBLIC 15f67e 0 IconObj::GetDragRgn(OpaqueRgnHandle*, ExtraUncachedLayoutInfo const&) const
PUBLIC 15f700 0 TrackObj::GetThemeTrackDrawInfo(ExtraUncachedLayoutInfo const&, ThemeTrackDrawInfo*) const
PUBLIC 15f7e4 0 TrackObj::Draw(ExtraUncachedLayoutInfo const&, OpaqueRgnHandle*, TDeviceRenderer::Context const&)
PUBLIC 15f906 0 TrackObj::Track(Point, unsigned short, TrackObj::Scroller const&, bool, OpaqueControlRef*, ExtraUncachedLayoutInfo const&, TDeviceRenderer::Context const*)
PUBLIC 15fb18 0 TrackObj::Tracker::RedrawTrack()
PUBLIC 15fba4 0 TrackObj::Tracker::ThumbValue()
PUBLIC 15fbf6 0 TrackObj::Tracker::~Tracker()
PUBLIC 15fc0e 0 TrackObj::CalcBasicBounds(ExtraUncachedLayoutInfo const&, Rect*) const
PUBLIC 15fcd2 0 TrackObj::HitTest(Rect const&, ExtraUncachedLayoutInfo const&) const
PUBLIC 15fd7c 0 TrackObj::TrackObj(unsigned int)
PUBLIC 15fdde 0 TrackObj::Tracker::Tracker(TrackObj*, Point&, unsigned short, ExtraUncachedLayoutInfo const&, TrackObj::Scroller const&, bool, OpaqueControlRef*, TDeviceRenderer::Context const*)
PUBLIC 15ff8e 0 TrackObj::Tracker::~Tracker()
PUBLIC 15ffca 0 TrackObj::Tracker::Continue(Point&, unsigned short)
PUBLIC 1602dc 0 ButtonObj::Draw(HiliteMode, bool, ExtraUncachedLayoutInfo const&, TDeviceRenderer::Context const&)
PUBLIC 1604fa 0 ButtonObj::GetHackPopupButtonLabelRect(ExtraUncachedLayoutInfo const&, Rect*)
PUBLIC 160552 0 ButtonObj::CustomizeThemeButtonDrawInfo(ThemeButtonDrawInfo&)
PUBLIC 160560 0 ButtonObj::NewState(unsigned int)
PUBLIC 16056a 0 ButtonObj::Track(Point, ExtraUncachedLayoutInfo const&, ButtonObj::Tracker&)
PUBLIC 160630 0 ButtonObj::CalcBasicBounds(ExtraUncachedLayoutInfo const&, Rect*) const
PUBLIC 160762 0 ButtonObj::ButtonObj(unsigned short)
PUBLIC 160796 0 ButtonObj::Tracker::Tracker(bool, OpaqueControlRef*, bool, ExtraUncachedLayoutInfo const&, TDeviceRenderer::Context const*)
PUBLIC 1607d0 0 ButtonObj::Tracker::Tracker(bool, OpaqueControlRef*, bool, ExtraUncachedLayoutInfo const&, TDeviceRenderer::Context const*)
PUBLIC 16080a 0 ButtonObj::Tracker::~Tracker()
PUBLIC 160810 0 ButtonObj::Tracker::~Tracker()
PUBLIC 160816 0 ButtonObj::Tracker::~Tracker()
PUBLIC 160820 0 ButtonObj::Tracker::Continue(Point&, unsigned short)
PUBLIC 160944 0 PopupMenuButton::PopupMenuButton(unsigned char)
PUBLIC 1609a8 0 PopupMenuButton::Track(Point, OpaqueControlRef*, ExtraUncachedLayoutInfo const&)
PUBLIC 160b2a 0 PopupMenuButton::LabelProc(Rect const*, HIThemeButtonDrawInfo const*, HiliteMode, bool, ExtraUncachedLayoutInfo const&, TDeviceRenderer::Context const&)
PUBLIC 160c84 0 PopupMenuButton::CopyCurrentString() const
PUBLIC 160cb2 0 TextObj::Draw(HiliteMode, bool, ExtraUncachedLayoutInfo const&, TDeviceRenderer::Context const&)
PUBLIC 160d8d 0 DrawHilitedString(__CFString const*, Rect const&, HiliteMode, bool, FontCache::FontStyle const&, TDeviceRenderer::Context const&)
PUBLIC 160ee4 0 TextObj::CalcBasicBounds(ExtraUncachedLayoutInfo const&, Rect*) const
PUBLIC 160f02 0 TextObj::AcceptDataIfNewerThanCacheSimple(ExtraUncachedLayoutInfo const&, unsigned int, unsigned int, bool*)
PUBLIC 161112 0 TextObj::AcceptDataIfNewerThanCache(ExtraUncachedLayoutInfo const&, unsigned int, unsigned int)
PUBLIC 16125c 0 TextObj::OriginalString(__CFString const*)
PUBLIC 161292 0 CalcStringRect(__CFString const*&, Rect, Rect*, FontCache::FontStyle const&, Alignment, Truncation)
PUBLIC 161500 0 TextObj::HitTest(Rect const&, ExtraUncachedLayoutInfo const&) const
PUBLIC 161564 0 TextObj::TextObj(unsigned char)
PUBLIC 161590 0 TextObj::GetDragRgn(OpaqueRgnHandle*, ExtraUncachedLayoutInfo const&) const
PUBLIC 1615e6 0 DateTimeObj::AcceptDataIfNewerThanCache(ExtraUncachedLayoutInfo const&, unsigned int, unsigned int)
PUBLIC 161710 0 TextObj::~TextObj()
PUBLIC 161788 0 DateTimeObj::DateTimeObj(unsigned int)
PUBLIC 1617c7 0 DrawContainerIndicator(bool, bool, bool, TDeviceRenderer::Context const&, Rect const*)
PUBLIC 1619fe 0 IconAndTextObj::IconAndTextObj(unsigned char)
PUBLIC 161abe 0 IconAndTextObj::IconAndTextObj(unsigned char)
PUBLIC 161ac8 0 IconAndTextObj::~IconAndTextObj()
PUBLIC 161b44 0 IconAndTextObj::~IconAndTextObj()
PUBLIC 161b4e 0 IconAndTextObj::~IconAndTextObj()
PUBLIC 161b7c 0 IconAndTextObj::CalcBasicBounds(ExtraUncachedLayoutInfo const&, Rect*) const
PUBLIC 161b8a 0 IconAndTextObj::CalcTextBounds(ExtraUncachedLayoutInfo const&, Rect*) const
PUBLIC 161ba8 0 IconAndTextObj::CalcIconBounds(ExtraUncachedLayoutInfo const&, Rect*) const
PUBLIC 161bc6 0 IconAndTextObj::AcceptDataIfNewerThanCache(ExtraUncachedLayoutInfo const&, unsigned int, unsigned int)
PUBLIC 161fb8 0 IconAndTextObj::Draw(HiliteMode, bool, bool, ExtraUncachedLayoutInfo const&, TDeviceRenderer::Context const&, bool)
PUBLIC 1622b0 0 IconAndTextObj::GetDragRgn(OpaqueRgnHandle*, ExtraUncachedLayoutInfo const&) const
PUBLIC 1623d2 0 FontCache::Update()
PUBLIC 1623d8 0 FontCache::ThemeFont(ControlFontStyleRec const*)
PUBLIC 162416 0 FontCache::ParseFontStyle(ControlFontStyleRec const*)
PUBLIC 1624b4 0 FontCache::FontStyle::GetInfo(FontInfo*) const
PUBLIC 162534 0 FontCache::FontStyle::FontStyle(ControlFontStyleRec const*)
PUBLIC 162572 0 FontCache::FontStyle::FontStyle()
PUBLIC 1625ae 0 FontCache::FontStyle::~FontStyle()
PUBLIC 1625c2 0 FontCache::FontStyle::operator=(FontCache::FontStyle const&)
PUBLIC 162620 0 FontCache::FontStyle::FullFontHeight() const
PUBLIC 162646 0 FontCache::FontStyle::CopyFont() const
PUBLIC 1626de 0 SaveFontStateAsNeeded::SetFontStyle(ControlFontStyleRec const*)
PUBLIC 16277e 0 IconObj::~IconObj()
PUBLIC 162788 0 IconObj::~IconObj()
PUBLIC 1627b8 0 IconObj::Data() const
PUBLIC 1627c2 0 TextObj::~TextObj()
PUBLIC 1627cc 0 TextObj::~TextObj()
PUBLIC 162802 0 PopupMenuButton::Data() const
PUBLIC 16280a 0 TextObj::Data() const
PUBLIC 162814 0 PopupMenuButton::~PopupMenuButton()
PUBLIC 162860 0 PopupMenuButton::~PopupMenuButton()
PUBLIC 1628ac 0 DateTimeObj::~DateTimeObj()
PUBLIC 1628c0 0 DateTimeObj::~DateTimeObj()
PUBLIC 1628f8 0 DateTimeObj::Data() const
PUBLIC 162902 0 IconAndTextObj::Data() const
PUBLIC 16290c 0 IconAndTextObj::OriginalString() const
PUBLIC 162924 0 BrowserIconAndTextData::Retain()
PUBLIC 162954 0 BrowserIconAndTextData::~BrowserIconAndTextData()
PUBLIC 162984 0 IconObj::~IconObj()
PUBLIC 162a10 0 OutlineOfRegion(OpaqueRgnHandle*, short, short)
PUBLIC 162adb 0 SectRegionAndRect(OpaqueRgnHandle*, Rect const*, Rect*)
PUBLIC 162b2a 0 SectRectEmptyIsValid(Rect const*, Rect const*, Rect*)
PUBLIC 162bb8 0 UnionRectEmptyIsValid(Rect const*, Rect const*, Rect*)
PUBLIC 162c48 0 HLTBControl::~HLTBControl()
PUBLIC 162c82 0 HLTBControl::~HLTBControl()
PUBLIC 162c8c 0 HLTBControl::~HLTBControl()
PUBLIC 162cba 0 HLTBControl::GetFrame(Rect&) const
PUBLIC 162cec 0 HLTBControl::SetFrame(Rect const&)
PUBLIC 162d4a 0 HLTBControl::GetBounds(Rect&) const
PUBLIC 162d7c 0 HLTBControl::GlobalToViewPoint(Point*) const
PUBLIC 162dd6 0 HLTBControl::ViewToGlobalPoint(Point*) const
PUBLIC 162e30 0 HLTBControl::ViewToGlobalRect(Rect*) const
PUBLIC 162e8c 0 HLTB_CDEF::HLTB_CDEF(OpaqueControlRef*, OpaqueCollection*, short)
PUBLIC 162eee 0 HLTB_CDEF::PrepPort::PrepPort(HLTB_CDEF*, bool)
PUBLIC 162f00 0 HLTB_CDEF::HMControlContent(OpaqueControlRef*, Point, short, short*, HMHelpContentRec*)
PUBLIC 162f5e 0 HLTB_CDEF::PrepPort::~PrepPort()
PUBLIC 162f7c 0 HLTB_CDEF::Contains(Point) const
PUBLIC 162f96 0 HLTB_CDEF::HitTest(Point) const
PUBLIC 162fb8 0 HLTB_CDEF::SynchronizeBounds()
PUBLIC 163026 0 HLTB_CDEF::~HLTB_CDEF()
PUBLIC 163054 0 HLTB_CDEF::AddRemoveSubControl(OpaqueControlRef*, bool)
PUBLIC 16306e 0 non-virtual thunk to HLTB_CDEF::~HLTB_CDEF()
PUBLIC 163080 0 BuildDateTimeString(long long const&, FontCache::FontStyle const&, unsigned short, unsigned int, __CFString*)
PUBLIC 163138 0 DateTimeStringFormat(FontCache::FontStyle const&, unsigned short)
PUBLIC 1631d0 0 DateTimeCache::BuildDateTimeString(long long const&, DateTimeFormat, unsigned int, __CFString*)
PUBLIC 16346e 0 DateTimeCache::GetDateTimeFormat(FontCache::FontStyle const&, unsigned short)
PUBLIC 163658 0 DateTimeCache::LoadRelString(DateTimeCache::RelativeDate, __CFString*)
PUBLIC 1636e4 0 DateTimeCache::GetRelativeDate(long long const&, __CFString*)
PUBLIC 163748 0 DateTimeCache::UpdateRelStrings()
PUBLIC 1637db 0 RegisterDateTimeChangeHandler(void*, void (*)(void*))
PUBLIC 16381a 0 UnregisterDateTimeChangeHandler(void*)
PUBLIC 163854 0 RegisterForDateTimePrefChangeNotificationsAsNecessary()
PUBLIC 1638ee 0 DateTimePrefChangedObserver(__CFNotificationCenter*, void*, __CFString const*, void const*, __CFDictionary const*)
PUBLIC 163952 0 CallAllDateTimeChangeHandlers(void const*, void const*, void*)
PUBLIC 163960 0 TDeviceRenderer::Context::Context(bool, CGContext*, OpaqueControlRef*, OpaqueRgnHandle*, OpaqueGrafPtr*, bool)
PUBLIC 163a1c 0 TDeviceRenderer::Context::InitClip(OpaqueGrafPtr*, OpaqueRgnHandle*)
PUBLIC 163a7c 0 TDeviceRenderer::Context::Context(bool, CGContext*, OpaqueControlRef*, OpaqueRgnHandle*, OpaqueGrafPtr*, bool)
PUBLIC 163a8a 0 TDeviceRenderer::Context::Context(bool, CGContext*, OpaqueControlRef*, Rect const&, OpaqueGrafPtr*, bool)
PUBLIC 163b34 0 TDeviceRenderer::Context::Context(bool, CGContext*, OpaqueControlRef*, Rect const&, OpaqueGrafPtr*, bool)
PUBLIC 163b42 0 TDeviceRenderer::Context::~Context()
PUBLIC 163bbe 0 TDeviceRenderer::Context::~Context()
PUBLIC 163bc8 0 TDeviceRenderer::Context::RectInUpdateRgn(Rect const&) const
PUBLIC 163c14 0 HIArrayDBAdapter::HIArrayDBAdapter(unsigned int)
PUBLIC 163c3c 0 HIArrayDBAdapter::AddElements(unsigned int, unsigned int, void const*)
PUBLIC 163c66 0 HIArrayDBAdapter::RemoveElements(unsigned int, unsigned int)
PUBLIC 163c92 0 HIArrayDBAdapter::MoveElements(unsigned int, unsigned int, unsigned int, MoveInstructions)
PUBLIC 163d38 0 TRegion::TRegion()
PUBLIC 163d54 0 TRegion::TRegion(Rect const&)
PUBLIC 163d78 0 TRegion::TRegion(OpaqueRgnHandle*)
PUBLIC 163da6 0 TRegion::TRegion(OpaqueRgnHandle*)
PUBLIC 163db8 0 TRegion::operator=(OpaqueRgnHandle*)
PUBLIC 163dde 0 TRegion::operator=(Rect const&)
PUBLIC 163e00 0 TClipRegionSaver::TClipRegionSaver(OpaqueGrafPtr*, CGContext*)
PUBLIC 163e56 0 TClipRegionSaver::~TClipRegionSaver()
PUBLIC 163e9a 0 TClipRegionIntersector::TClipRegionIntersector(OpaqueGrafPtr*, OpaqueRgnHandle*, CGContext*)
PUBLIC 163f36 0 TClipRegionIntersector::TClipRegionIntersector(OpaqueGrafPtr*, OpaqueRgnHandle*, CGContext*)
PUBLIC 163f40 0 TClipRegionIntersector::TClipRegionIntersector(OpaqueGrafPtr*, Rect const*, CGContext*)
PUBLIC 164000 0 TClipRegionIntersector::TClipRegionIntersector(OpaqueGrafPtr*, Rect const*, CGContext*)
PUBLIC 16400c 0 stable_sort
PUBLIC 164092 0 _insertion_sort(char*, char*, void*, unsigned long, bool (*)(void const*, void const*))
PUBLIC 16412f 0 _stable_sort(char*, char*, void*, unsigned long, bool (*)(void const*, void const*))
PUBLIC 164231 0 inplace_merge
PUBLIC 164271 0 _inplace_merge(char*, char*, char*, unsigned long, unsigned long, void*, unsigned long, bool (*)(void const*, void const*))
PUBLIC 1644a7 0 insert_position
PUBLIC 164536 0 StdFilterProc
PUBLIC 164850 0 SetDialogDefaultItem
PUBLIC 1648da 0 SetDialogDefaultOrCancelItem
PUBLIC 164add 0 SetDialogCancelItem
PUBLIC 164b67 0 IsUserCancelEvent
PUBLIC 164c2d 0 AdjustCursor(_DialogRec*)
PUBLIC 164c9c 0 DisposeDialog
PUBLIC 164d22 0 CloseDialog(OpaqueDialogPtr*)
PUBLIC 164d58 0 StandardSetup(_DialogRec*)
PUBLIC 164d66 0 ModalDialog
PUBLIC 1653b0 0 ShouldHaveModalState(OpaqueWindowPtr*)
PUBLIC 1653e2 0 HideModalHandler(OpaqueEventHandlerCallRef*, OpaqueEventRef*, void*)
PUBLIC 165437 0 GetModalDialogEventMask
PUBLIC 16547d 0 GetAdjustedCoordinatesAndControlForMouseDown(_DialogRec*, EventRecord const* const&, Point&, short&, DITLItem*&, OpaqueControlRef*&, OpaqueControlRef*&)
PUBLIC 16556f 0 IsDialogEvent
PUBLIC 16560a 0 DialogSelect
PUBLIC 1659ba 0 SetModalDialogEventMask
PUBLIC 1659d4 0 AutoSizeDialog
PUBLIC 165bfd 0 SetDialogTimeout
PUBLIC 165c7c 0 ParamText
PUBLIC 165cc7 0 ReplaceOneParamTextString(unsigned char const*, short)
PUBLIC 165d2c 0 GetParamTextString(short)
PUBLIC 165d40 0 ClaimEvent(EventRecord const*)
PUBLIC 165d6a 0 CurrentDialogWindow
PUBLIC 165d80 0 TestDialogAttribute(_DialogRec*, unsigned int)
PUBLIC 165d8e 0 IsDialogThemeSavvy(_DialogRec*)
PUBLIC 165d9a 0 IsDialog(OpaqueWindowPtr*)
PUBLIC 165daf 0 IsDialogKind(OpaqueWindowPtr*)
PUBLIC 165dc5 0 ItemsAreControls(_DialogRec*)
PUBLIC 165dd3 0 IsMovableModal(_DialogRec*)
PUBLIC 165e08 0 SyncDefaultButton(_DialogRec*, unsigned char)
PUBLIC 165eb7 0 InvalDialogRect(_DialogRec*, Rect const*)
PUBLIC 165ebd 0 ValidateDialogRect(_DialogRec*, Rect const*)
PUBLIC 165ec3 0 StopSpeech(_DialogRec*)
PUBLIC 165ed8 0 StartSpeech(_DialogRec*)
PUBLIC 165eed 0 LikeSpeakableDialog(unsigned int, unsigned int*)
PUBLIC 165f38 0 _DialogRec::Initialize(unsigned int)
PUBLIC 165f7e 0 _DialogRec::CreateDefaultItems()
PUBLIC 165fab 0 GetPrivateDialogRefFromWindowRef(OpaqueWindowPtr*)
PUBLIC 165feb 0 BindPrivateDialogRefToWindowRef(_DialogRec*, OpaqueWindowPtr*)
PUBLIC 166030 0 GetDialogWindow
PUBLIC 166042 0 GetDialogDefaultItem
PUBLIC 166056 0 GetDialogCancelItem
PUBLIC 16606c 0 GetDialogKeyboardFocusItem
PUBLIC 166084 0 GetDialogFromWindow
PUBLIC 1660a0 0 DebugPrintDialogInfo
PUBLIC 1662ab 0 GDBShowDialogInfo(OpaqueDialogPtr*)
PUBLIC 1662b7 0 NewDialogCommon(_DialogRec*, char**)
PUBLIC 166367 0 ShowNewDialog(_DialogRec*, OpaqueWindowPtr*, unsigned char)
PUBLIC 166374 0 _CreateStandardAlertFromNib(bool, bool, _DialogRec**)
PUBLIC 16651a 0 _CreatePrivateDialogRefAndBindToWindowRef
PUBLIC 1665a1 0 PlotIconRefForAlertIcon(OpaqueControlRef*, short, Rect const*, short, short, CGContext*)
PUBLIC 16661b 0 _HIViewPlotAlertIcon
PUBLIC 166783 0 _HIViewGetAlertIconBounds
PUBLIC 1667ea 0 AddAlertIconControl(_DialogRec*, OpaqueIconRef*, short)
PUBLIC 1668f3 0 InitializeItem(_DialogRec*, short, DITLItem*, void*)
PUBLIC 166d38 0 ApplyFontTable(_DialogRec*, char**, short)
PUBLIC 166eb9 0 DialogCarbonEventHandler(OpaqueEventHandlerCallRef*, OpaqueEventRef*, void*)
PUBLIC 166f91 0 SetUpControlItem(_DialogRec*, short, NewDITLItem*, unsigned char)
PUBLIC 167024 0 FindDialogItem
PUBLIC 167088 0 FindItem(_DialogRec*, Point, short*, DITLItem**, OpaqueControlRef**)
PUBLIC 167214 0 GetItemPtrByHandle(_DialogRec*, char**, short*)
PUBLIC 167263 0 HideDialogItem
PUBLIC 16734e 0 GetItemPtr(_DialogRec*, short)
PUBLIC 167394 0 GetAdjustedRect(_DialogRec*, short, DITLItem*, Rect*)
PUBLIC 167415 0 ChangeField(_DialogRec*, unsigned int, short, DITLItem*)
PUBLIC 1674d7 0 SetUpTextField(_DialogRec*, unsigned char)
PUBLIC 1675be 0 GetDialogItemAsControl
PUBLIC 167671 0 MoveDialogItem
PUBLIC 16771a 0 SelectDialogItemText
PUBLIC 167790 0 GetDialogItem
PUBLIC 1678f5 0 SetDialogItemRectangle
PUBLIC 167948 0 SetDialogItem
PUBLIC 167a6a 0 UpgradeItemListTo64Bit(char**)
PUBLIC 167b5f 0 AppendDITLCommon(_DialogRec*, char**, char**, short)
PUBLIC 167e2c 0 AppendDITL
PUBLIC 167e3c 0 CountDITL
PUBLIC 167e64 0 DisposeItem(_DialogRec*, short, DITLItem*, void*)
PUBLIC 167fb8 0 InsertDialogItem
PUBLIC 168119 0 ForEachDialogItem(_DialogRec*, unsigned char (*)(_DialogRec*, short, DITLItem*, void*), void*)
PUBLIC 1681a1 0 IsItemVisible(_DialogRec*, DITLItem*, unsigned char)
PUBLIC 1681f4 0 IsItemNoEnabled(_DialogRec*, short)
PUBLIC 168213 0 HIAboutBox
PUBLIC 168cb0 0 AboutBoxDestructHandler(OpaqueEventHandlerCallRef*, OpaqueEventRef*, void*)
PUBLIC 168cc6 0 CreateStandardAlert
PUBLIC 168d57 0 RunStandardAlert
PUBLIC 168fdb 0 GetStandardAlertDefaultParams
PUBLIC 16907d 0 CreateStdAlert(short, __CFString const*, __CFString const*, AlertStdCFStringAlertParamRec const*, bool, bool, unsigned int, OpaqueDialogPtr**, bool*)
PUBLIC 169b84 0 StandardAlertWindowHandler(OpaqueEventHandlerCallRef*, OpaqueEventRef*, void*)
PUBLIC 169bf7 0 RunStandardAlertWindowHandler(OpaqueEventHandlerCallRef*, OpaqueEventRef*, void*)
PUBLIC 169c43 0 CreateStandardSheet
PUBLIC 169dbf 0 StdSheetHandler(OpaqueEventHandlerCallRef*, OpaqueEventRef*, void*)
PUBLIC 169f37 0 SetDragSendProc
PUBLIC 169f97 0 AddDragItemFlavor
PUBLIC 16a0cf 0 GetUTIFromOSType
PUBLIC 16a190 0 DragPasteboardPromiseKeeper
PUBLIC 16a1ff 0 SetDragItemFlavorData
PUBLIC 16a42c 0 CountDragItems
PUBLIC 16a473 0 GetDragItemReferenceNumber
PUBLIC 16a4d4 0 CountDragItemFlavors
PUBLIC 16a5e6 0 GetFlavorType
PUBLIC 16a74e 0 GetFlavorFlags
PUBLIC 16a7d6 0 GetFlavorDataSize
PUBLIC 16a86d 0 GetFlavorData
PUBLIC 16a966 0 GetDragItemBounds
PUBLIC 16aa20 0 SetDragItemBounds
PUBLIC 16aab2 0 NewDrag
PUBLIC 16ab00 0 InitializeCoreDrag
PUBLIC 16ab4d 0 CreateDragWrapper
PUBLIC 16abd7 0 DisposeDrag
PUBLIC 16ac14 0 GetDragInfo
PUBLIC 16ac66 0 DisposeDragWrapper
PUBLIC 16accf 0 GetDragPasteboard
PUBLIC 16acf1 0 TrackDrag
PUBLIC 16af29 0 BlockingEventProc
PUBLIC 16b076 0 _InstallTrackingHandlerUsingRefCon
PUBLIC 16b0ab 0 InitializeDragMapping
PUBLIC 16b0ff 0 InstallHandlerMapper
PUBLIC 16b261 0 _RemoveTrackingHandlerUsingRefCon
PUBLIC 16b282 0 DisposeHandlerMapper
PUBLIC 16b38c 0 _InstallReceiveHandlerUsingRefCon
PUBLIC 16b3c4 0 _RemoveReceiveHandlerUsingRefCon
PUBLIC 16b3e8 0 InstallTrackingHandler
PUBLIC 16b422 0 RemoveTrackingHandler
PUBLIC 16b444 0 InstallReceiveHandler
PUBLIC 16b481 0 RemoveReceiveHandler
PUBLIC 16b4a6 0 SetDragInputProc
PUBLIC 16b506 0 DragInputMapper
PUBLIC 16b5bd 0 TemporaryDragInterceptor
PUBLIC 16b615 0 CarbonTrackingMapper
PUBLIC 16b697 0 CarbonReceiveMapper
PUBLIC 16b6e5 0 GetDropLocation
PUBLIC 16b6f1 0 GetDragAttributes
PUBLIC 16b6fd 0 ChangeDragBehaviors
PUBLIC 16b709 0 GetDragMouse
PUBLIC 16b787 0 SetDragMouse
PUBLIC 16b83a 0 GetDragModifiers
PUBLIC 16b973 0 CoreDragModifiersToMacModifiers
PUBLIC 16b9be 0 WaitMouseMoved
PUBLIC 16bb13 0 SetDragImageWithCGImage
PUBLIC 16bcdb 0 SetDragAllowableActions
PUBLIC 16bce5 0 MacModifiersToCoreDragModifiers
PUBLIC 16bd31 0 ZoomRects
PUBLIC 16bd47 0 ZoomEngine
PUBLIC 16c086 0 Blend
PUBLIC 16c0c8 0 ShowZoomRegion
PUBLIC 16c1b1 0 ReshapeZoomWindow
PUBLIC 16c2e0 0 CopyDescription
PUBLIC 16c35c 0 ConvertControlEventToEventRecord
PUBLIC 16c4aa 0 HandlerStatusChanged
PUBLIC 16c56b 0 sVolumeObserverBlock_block_invoke
PUBLIC 16c67d 0 PostVolumeEvent
PUBLIC 16c704 0 IsEventInMask
PUBLIC 16c867 0 RunApplicationEventLoop
PUBLIC 16c977 0 QuitApplicationHandler(OpaqueEventHandlerCallRef*, OpaqueEventRef*, void*)
PUBLIC 16c982 0 HLTBEventDispatcher
PUBLIC 16c996 0 QuitApplicationEventLoop
PUBLIC 16c9f0 0 ToolboxEventDispatcher
PUBLIC 16ca64 0 GetCurrentEvent
PUBLIC 16ca79 0 GetLastMouseDownWindow
PUBLIC 16ca93 0 SendWindowFocusContent
PUBLIC 16caec 0 FPShowHideFontPanel
PUBLIC 16cb20 0 FPIsFontPanelVisible
PUBLIC 16cb54 0 SetFontInfoForSelection
PUBLIC 16cbb6 0 HIEventDispatcher::~HIEventDispatcher()
PUBLIC 16cbe4 0 BringModalAndTargetWindowToFront(OpaqueWindowPtr*, OpaqueWindowPtr*)
PUBLIC 16cc1d 0 ProcessHICommand
PUBLIC 16cc50 0 ProcessHICommandWithModifiers
PUBLIC 16cc88 0 HIUserFocus::~HIUserFocus()
PUBLIC 16ccb6 0 SetButtonState(OpaqueControlRef*, unsigned int, unsigned char)
PUBLIC 16cd39 0 ReleaseUniqueCGSEventHotKeyID
PUBLIC 16cd4c 0 IsCGSEventHotKeyIDHotMod
PUBLIC 16cd55 0 CreateHotKeyEvent
PUBLIC 16ce0d 0 IsValidHotKey
PUBLIC 16ce52 0 BeginAppModalStateForWindow
PUBLIC 16cf01 0 _BeginAppModalState
PUBLIC 16cf16 0 EndAppModalStateForWindow
PUBLIC 16cf41 0 GetWindowAppModalState(OpaqueWindowPtr*, unsigned char, Opaque_AppModalStateRef**)
PUBLIC 16cfad 0 _EndAppModalState
PUBLIC 16d038 0 RunAppModalLoopForWindow
PUBLIC 16d0e3 0 _RunAppModalLoop
PUBLIC 16d1a5 0 QuitAppModalLoopForWindow
PUBLIC 16d1da 0 _QuitAppModalLoop
PUBLIC 16d1fa 0 WindowModalHandler(OpaqueEventHandlerCallRef*, OpaqueEventRef*, void*)
PUBLIC 16d20a 0 AppModalHandler(OpaqueEventHandlerCallRef*, OpaqueEventRef*, void*)
PUBLIC 16d2c3 0 AllowModalLevelZeroEquivalence
PUBLIC 16d2ec 0 HIEventMonitor::~HIEventMonitor()
PUBLIC 16d321 0 HIObjectFromEventTarget
PUBLIC 16d337 0 PushEventHandler(EventTargetRec*, int (*)(OpaqueEventHandlerCallRef*, OpaqueEventRef*, void*), unsigned char, unsigned long, EventTypeSpec const*, void*, OpaqueEventHandlerRef**)
PUBLIC 16d51f 0 RemoveStandardEventHandler
PUBLIC 16d559 0 _PostEventToTarget
PUBLIC 16d600 0 HIObjectGetEventHandlerObject
PUBLIC 16d620 0 FPListRemoveEntryFromList(FastPointerList*, long, unsigned long, FPListGrowShrinkType, unsigned short)
PUBLIC 16d6af 0 __copy_helper_block_
PUBLIC 16d6c6 0 __destroy_helper_block_
PUBLIC 16d6d9 0 GetTargetName(EventTargetRec const*, char*)
PUBLIC 16d7a1 0 FPListTearDownList(FastPointerList*)
PUBLIC 16d7cc 0 HandlerKindIndexGetKeyPosition(FastPointerList const*, unsigned long long, long*)
PUBLIC 16d870 0 HandlerKindIndexEntryRemoveHandler(HandlerKindIndexEntry*, unsigned long long, HandlerRec const*, unsigned char, FastPointerList*)
PUBLIC 16d944 0 CalculateDecayedScrollDelay
PUBLIC 16d9a6 0 TrackMouseLocation
PUBLIC 16d9c6 0 _TrackMouseLocationWithOptions
PUBLIC 16da15 0 TrackMouseLocationWithOptions
PUBLIC 16da6b 0 _TrackMouseLocationReturningEvent
PUBLIC 16da9c 0 HIViewTrackMouseLocation
PUBLIC 16dad7 0 _TrackMouseLocationOrAreaReturningEvent
PUBLIC 16e128 0 TrackMouseRegion
PUBLIC 16e1cd 0 HIViewGetMouseAndModifiers
PUBLIC 16e1ff 0 GetMouseAndModifiers
PUBLIC 16e268 0 CopyGestureEventDescription
PUBLIC 16e456 0 SetKeyboardEventKeyModifiers
PUBLIC 16e47f 0 GetKeyboardEventKeyChar
PUBLIC 16e52f 0 SetKeyboardEventUnicodes
PUBLIC 16e5a0 0 SetKeyboardEventMacCharCodes
PUBLIC 16e60f 0 SetKeyboardEventKeyCode
PUBLIC 16e649 0 SetTextInputEventTextCommon
PUBLIC 16e70d 0 SetTextInputEventText
PUBLIC 16e74c 0 SetTextInputEventTextUpdateRange
PUBLIC 16e801 0 SetTextInputEventTextHiliteRange
PUBLIC 16e8c0 0 AEGetData
PUBLIC 16e93e 0 HIMenuBar::HandleKeyboardEvent(OpaqueEventRef*)
PUBLIC 16e974 0 HIMenuBar::HandleMouseEvent(OpaqueEventRef*)
PUBLIC 16e9ec 0 HIMenuBar::~HIMenuBar()
PUBLIC 16ea1b 0 MenuHandlerStatusChanged
PUBLIC 16eaa7 0 ToolboxListenerProc
PUBLIC 16ead9 0 CopyDescription
PUBLIC 16ec01 0 HandlePossibleKeyFocusKey
PUBLIC 16eece 0 CreateAndSendAppFocusEvent(unsigned int, OpaqueEventRef*)
PUBLIC 16ef87 0 _HandleHelpSymbolicHotKey
PUBLIC 16efef 0 _HIMenuBarShowAsPopupFromKeyboard
PUBLIC 16f1f4 0 _GetSymbolicHotKeyValue
PUBLIC 16f214 0 CopySymbolicHotKeys
PUBLIC 16f43b 0 _SetFullTabbingEnabled
PUBLIC 16f4e1 0 HandleKeyFocusHotKey
PUBLIC 16f582 0 PushSymbolicHotKeyMode
PUBLIC 16f624 0 SyncHotKeyMode()
PUBLIC 16f659 0 PopSymbolicHotKeyMode
PUBLIC 16f6f0 0 GetSymbolicHotKeyMode
PUBLIC 16f700 0 GetCGSHotKeyMode()
PUBLIC 16f73b 0 AccessKeysChanged(unsigned int, void*, void*)
PUBLIC 16f836 0 AccessModeChanged(unsigned int, void*, void*)
PUBLIC 16f845 0 HandlerStatusChanged
PUBLIC 16f8f0 0 IsUserSessionActive
PUBLIC 16f95a 0 RegisterForUserSessionNotificationsIfNecessary
PUBLIC 16f99d 0 DisplayConfigChangedNotifyProc
PUBLIC 16fa4b 0 CreatePowerOffEvent
PUBLIC 16faa4 0 SystemEventListenerProc
PUBLIC 16fba2 0 EventRateTimer(__EventLoopTimer*, void*)
PUBLIC 16fc22 0 EnableHandwritingHotKeyCallback(__CFNotificationCenter*, void*, __CFString const*, void const*, __CFDictionary const*)
PUBLIC 16fc30 0 WindowMovedForExpose(unsigned int, void*, void*)
PUBLIC 16fc68 0 AXPrefChanged(unsigned int, void*, void*)
PUBLIC 16fc94 0 AdjustIfIronwoodHotKeyChange(unsigned int, void*, void*)
PUBLIC 16fcf5 0 HLTBWakeUpHook()
PUBLIC 16fd11 0 MODES_LOCK()
PUBLIC 16fd44 0 __copy_helper_block_
PUBLIC 16fd5b 0 __destroy_helper_block_
PUBLIC 16fd6f 0 ___BeginEventReceiptOnThread_block_invoke.12
PUBLIC 16fd81 0 _EndEventReceiptOnThread
PUBLIC 16fda8 0 _SetAppleEventsAreDispatchedAsCarbonEvents
PUBLIC 16fdb6 0 _PushMouseCoalescingState
PUBLIC 16fdc2 0 _PushMouseCoalescingStateWithPenButtons
PUBLIC 16fe34 0 ReleaseCoalescingStack()
PUBLIC 16fe64 0 _RemoveMouseCoalescingState
PUBLIC 16feee 0 _GetDeferredActivateEnabled
PUBLIC 16fefb 0 _SetDeferredActivateEnabled
PUBLIC 16ff08 0 ForceActivate
PUBLIC 17003e 0 _PostCGEventToQueue
PUBLIC 17006a 0 __copy_helper_block_.14
PUBLIC 170081 0 __destroy_helper_block_.15
PUBLIC 17009f 0 __copy_helper_block_.18
PUBLIC 1700e9 0 __destroy_helper_block_.19
PUBLIC 170130 0 __copy_helper_block_.22
PUBLIC 170147 0 __destroy_helper_block_.23
PUBLIC 17015a 0 _SetCGEventAssociatedData
PUBLIC 17019b 0 FindCGEventInQueue(__CGEvent*)
PUBLIC 1701f0 0 CGQEntry::SetData(void const*)
PUBLIC 170221 0 _CopyCGEventAssociatedData
PUBLIC 170273 0 __copy_helper_block_.25
PUBLIC 1702ab 0 __destroy_helper_block_.26
PUBLIC 1702d6 0 HandleCGEventsBeforeConversion(__CGEvent*)
PUBLIC 170519 0 CreateMouseButtonEventFromCGEvent(__CGEvent*, OpaqueEventRef**, OpaqueWindowPtr**)
PUBLIC 1707ed 0 AddTabletDataToMouseEvent(__CGEvent*, OpaqueEventRef*)
PUBLIC 1708c8 0 MakePointerRecFromEvent(__CGEvent*)
PUBLIC 1709b6 0 MakeProximityRecFromEvent(__CGEvent*)
PUBLIC 170a85 0 __SyncHandwritingHotKey_block_invoke_3
PUBLIC 170a94 0 __copy_helper_block_.41
PUBLIC 170aab 0 __destroy_helper_block_.42
PUBLIC 170abe 0 __SyncHandwritingHotKey_block_invoke.48
PUBLIC 170c01 0 _GetActivationSeed
PUBLIC 170c12 0 ___ZL10MODES_LOCKv_block_invoke
PUBLIC 170c3c 0 HandleServerDied(__CFMachPort*, void*)
PUBLIC 170c7a 0 ___ZL18CGEVENTS_LOCK_INITv_block_invoke
PUBLIC 170c9c 0 ___ZL14CoalescingLockv_block_invoke
PUBLIC 170cb7 0 __copy_helper_block_.68
PUBLIC 170cce 0 __destroy_helper_block_.69
PUBLIC 170ce2 0 __copy_helper_block_.71
PUBLIC 170cf9 0 __destroy_helper_block_.72
PUBLIC 170d0c 0 ___ZL79TrySyncHandwritingHotKey_TISHardwareSupportsHandwriting_WithContinuationHandlerU13block_pointerFhvEU13block_pointerFvU13block_pointerFvhEEU13block_pointerFvhhE_block_invoke
PUBLIC 170d24 0 __copy_helper_block_.78
PUBLIC 170d3b 0 __destroy_helper_block_.79
PUBLIC 170d55 0 RemoveStandardHandlerHook
PUBLIC 170da8 0 HandleTitleBarAction
PUBLIC 170ef0 0 SendWindowEvent(OpaqueWindowPtr*, unsigned int, double, Point*, unsigned int, short, unsigned int)
PUBLIC 170fc1 0 IsFocusOnToolbar
PUBLIC 171017 0 HandleClickInProxy
PUBLIC 171122 0 BuildWindowEvent(OpaqueWindowPtr*, unsigned int, double, Point*, unsigned int)
PUBLIC 17116c 0 HandleClickInPathSelect
PUBLIC 171255 0 HandleStandardWindowKeyEvent
PUBLIC 1713c0 0 AdvanceFocusToNextControl
PUBLIC 171435 0 HandleFocusOnDrawer(OpaqueWindowPtr*, OpaqueEventRef*)
PUBLIC 171610 0 CompareDrawers(void*, void const*, void const*)
PUBLIC 171776 0 GetWindowZoomPart(OpaqueWindowPtr*, Point*)
PUBLIC 17186f 0 FrontCollapsableWindow(unsigned char)
PUBLIC 1718bc 0 SetWindowModality
PUBLIC 171945 0 HIWindowIsDocumentModalTarget
PUBLIC 171951 0 KeyTranslate
PUBLIC 17198d 0 KeyTranslateInternal
PUBLIC 171bef 0 GetCaretTime
PUBLIC 171c8c 0 LMSetKeyThresh
PUBLIC 171ca2 0 LMGetKeyRepThresh
PUBLIC 171ccb 0 LMSetKeyRepThresh
PUBLIC 171ceb 0 GetKeys
PUBLIC 171d04 0 EnableSecureEventInput
PUBLIC 171d30 0 DisableSecureEventInput
PUBLIC 171d6c 0 IsSecureEventInputEnabled
PUBLIC 171d89 0 SetKeyRepeatThreshold
PUBLIC 171db4 0 GetKeyRepeatInterval
PUBLIC 171e06 0 SetKeyRepeatInterval
PUBLIC 171e31 0 HIGetMousePosition
PUBLIC 171eab 0 Button
PUBLIC 171ede 0 GetEventTypeSpecByName
PUBLIC 171f9b 0 GetEventNameByTypeSpec
PUBLIC 17210b 0 DebugOSTypeFromChars
PUBLIC 17211f 0 __EventMutexInitialize_block_invoke
PUBLIC 17214c 0 DebugTraceEvent
PUBLIC 172160 0 TraceEvent
PUBLIC 172242 0 UntraceEvent
PUBLIC 1722e6 0 _GetTracedEventFunctions
PUBLIC 1722f2 0 DebugSetEventTraceEnabled
PUBLIC 172319 0 PrintEventTrace
PUBLIC 17240a 0 PrintEventTraceIndent
PUBLIC 17244b 0 PrintEventFunctionTrace
PUBLIC 172451 0 PrintEventTraceEvent
PUBLIC 17257d 0 PrintEventTraceQueue
PUBLIC 1726b4 0 IncrementEventTraceIndent
PUBLIC 1726c0 0 DecrementEventTraceIndent
PUBLIC 1726cc 0 DebugTraceEventByName
PUBLIC 17270a 0 CompareProc
PUBLIC 172728 0 DebugPrintTracedEvents
PUBLIC 1727f9 0 DumpEventCounts
PUBLIC 172a00 0 CompareCounts
PUBLIC 172a0c 0 _SetJavaThreadHook
PUBLIC 172a19 0 _GetJavaThreadHook
PUBLIC 172a2c 0 destroy_event_loop_key
PUBLIC 172a65 0 RunCurrentEventLoop
PUBLIC 172a90 0 IsEventLoopQuit
PUBLIC 172abd 0 InstallEventLoopIdleTimer
PUBLIC 172b23 0 IdleTimerVector
PUBLIC 172b6d 0 __EventLoopTimerEqual
PUBLIC 172b80 0 __EventLoopTimerCopyDebugDesc
PUBLIC 172ba3 0 GetEventFromPool
PUBLIC 172bf9 0 AllocateAndInitializeEvent
PUBLIC 172c70 0 _CreateEventWithAppleEvents
PUBLIC 172cc9 0 CopyEventInternal
PUBLIC 172ee8 0 GetEventRetainCount
PUBLIC 172f02 0 SetEventBusy
PUBLIC 172f2b 0 GetEventQueue
PUBLIC 172f4f 0 IsCFDataType
PUBLIC 172ff8 0 StoreEventParam
PUBLIC 1731fb 0 PerformHIConversion
PUBLIC 173205 0 EnsureOSALoaded
PUBLIC 173247 0 ReleaseEventParam
PUBLIC 1732ba 0 DebugPrintEvent
PUBLIC 1737cf 0 CopyEventDescription
PUBLIC 173938 0 PerformHIConversionWithOptions
PUBLIC 1749f5 0 __MachTimeConversionRate_block_invoke
PUBLIC 174a32 0 RetainEventParamData
PUBLIC 174af5 0 AddToList
PUBLIC 174b5c 0 __EventQueueCreateCopy
PUBLIC 174b64 0 __EventQueueIsEqual
PUBLIC 174b6c 0 __EventQueueCopyDescription
PUBLIC 174b81 0 __EventQueueDestructor
PUBLIC 174be1 0 GetThreadEventQueue
PUBLIC 174c1f 0 GetNumEventsInQueue
PUBLIC 174c38 0 _EventQueueFinalizeEventsReservedForInk
PUBLIC 174cf0 0 EventIteratorFirst
PUBLIC 174e05 0 ResetEventQueueIterators
PUBLIC 174ed6 0 DebugPrintEventQueue
PUBLIC 1750be 0 DebugPrintMainEventQueue
PUBLIC 1750d7 0 destroy_event_queue_key
PUBLIC 1750e1 0 MinimalNotificationReceiver
PUBLIC 1750f4 0 WaitNextEvent
PUBLIC 175130 0 WNEInternal
PUBLIC 17520c 0 _AEWNE
PUBLIC 175270 0 GetNextEventMatchingMask
PUBLIC 175493 0 EventAvail
PUBLIC 17550e 0 FlushEvents
PUBLIC 1755c5 0 StillDown
PUBLIC 175652 0 SDComparator
PUBLIC 175691 0 PostEvent
PUBLIC 175863 0 GetOrPeekEvent
PUBLIC 175b7c 0 MakeNullEvent
PUBLIC 175bc2 0 ReceiveNextEventInMode
PUBLIC 175c02 0 ReceiveNextEvent
PUBLIC 175c3d 0 _AcquireNextEvent
PUBLIC 175c87 0 BlockUntilNextEventMatchingListInMode
PUBLIC 175c96 0 traceSlugEvent
PUBLIC 175cf6 0 shouldTraceEvent
PUBLIC 175d36 0 __slugLatencyThreshold_block_invoke
PUBLIC 175d71 0 __saveSlug_block_invoke
PUBLIC 175da3 0 CopyDescription
PUBLIC 175ed9 0 PrepareForLazyWindowActivation
PUBLIC 175ee6 0 GetHighLevelEventData
PUBLIC 175f4f 0 AEProcessEvent
PUBLIC 175fef 0 HMGetHelpMenu
PUBLIC 17630d 0 HelpMenuHandler
PUBLIC 17647d 0 HLTBGotoApplicationHelp
PUBLIC 1764d7 0 HMSetControlHelpContent
PUBLIC 17662e 0 NormalizeControlHotRect
PUBLIC 17668f 0 HMGetControlHelpContent
PUBLIC 1766c2 0 HMSetWindowHelpContent
PUBLIC 1767a0 0 HMGetWindowHelpContent
PUBLIC 1767d3 0 HMGetMenuItemHelpContent
PUBLIC 176813 0 HMInstallControlContentCallback
PUBLIC 176876 0 HMInstallWindowContentCallback
PUBLIC 1768d9 0 HMAreHelpTagsDisplayed
PUBLIC 1768e6 0 HMSetHelpTagsDisplayed
PUBLIC 17691f 0 HMSetTagDelay
PUBLIC 176941 0 HMGetTagDelay
PUBLIC 17695d 0 _HMRequestControlHelpContent
PUBLIC 176ad3 0 ReleaseHelpContent
PUBLIC 176b83 0 _HMRequestWindowHelpContent
PUBLIC 176d1d 0 _HMRequestMenuTitleHelpContent
PUBLIC 176f00 0 _HMRequestMenuItemHelpContent
PUBLIC 1770cb 0 _HMReleaseHelpContent
PUBLIC 177107 0 _HMRetainProvider
PUBLIC 177113 0 AppHelpHandler
PUBLIC 177181 0 HelpControlDisposeHandler
PUBLIC 1771d2 0 HelpWindowDisposeHandler
PUBLIC 177224 0 ShowHelpTag
PUBLIC 177a0f 0 ResizeAndShowHelpTag(Point, HelpTag*)
PUBLIC 177fa9 0 DisposeHelpTag(HelpTag*, unsigned int)
PUBLIC 1780a1 0 InitHelpTagInfo
PUBLIC 1780b4 0 CreateHelpText
PUBLIC 17819a 0 GetHelpTagMouse
PUBLIC 1781a8 0 UpdateHelpTagText(HelpTag*, unsigned int)
PUBLIC 178210 0 _menuClosedHandler(OpaqueEventHandlerCallRef*, OpaqueEventRef*, void*)
PUBLIC 178326 0 ___ZL13CreateHelpTagP26OpaqueHMContentProviderRefPK16HMHelpContentReciPP7HelpTag_block_invoke
PUBLIC 17838d 0 HelpTagWindowDef(OpaqueEventHandlerCallRef*, OpaqueEventRef*, void*)
PUBLIC 178502 0 UserPaneHandler(OpaqueEventHandlerCallRef*, OpaqueEventRef*, void*)
PUBLIC 17866c 0 TagFaded(unsigned int, void*)
PUBLIC 17869f 0 WindowClosedHandler(OpaqueEventHandlerCallRef*, OpaqueEventRef*, void*)
PUBLIC 1786d7 0 HelpTagExitTimer(__EventLoopTimer*, void*)
PUBLIC 17870a 0 CloseTimer(__EventLoopTimer*, void*)
PUBLIC 17872d 0 CalculateWindowPosition(Point, HMHelpContentRec const*, Rect*)
PUBLIC 178b24 0 __QLPreviewBubbleHide
PUBLIC 178b89 0 __QLPreviewBubbleInvalidate
PUBLIC 178bea 0 __QLPreviewBubbleCreate
PUBLIC 178c65 0 __QLPreviewBubbleSetDoubleClickHandler
PUBLIC 178cc9 0 __QLPreviewBubbleShow
PUBLIC 178d6c 0 __QLPreviewBubbleOptionPreferredEdge
PUBLIC 178dc0 0 __clang_call_terminate
PUBLIC 178dda 0 IBArray::~IBArray()
PUBLIC 178df0 0 IBCarbonBevelButton::makeIBCarbonBevelButton()
PUBLIC 178e96 0 IBCarbonBevelButton::~IBCarbonBevelButton()
PUBLIC 178efc 0 IBCarbonBevelButton::~IBCarbonBevelButton()
PUBLIC 178f06 0 IBCarbonBevelButton::~IBCarbonBevelButton()
PUBLIC 178f34 0 IBCarbonBevelButton::initWithDecoder(void const*)
PUBLIC 1790e6 0 IBCarbonBevelButton::newControlRef(OpaqueWindowPtr*)
PUBLIC 179280 0 IBCarbonControl::getObjectType()
PUBLIC 17928c 0 IBCarbonButton::makeIBCarbonButton()
PUBLIC 1792e2 0 IBCarbonButton::~IBCarbonButton()
PUBLIC 1792ec 0 IBCarbonButton::~IBCarbonButton()
PUBLIC 17931a 0 IBCarbonButton::initWithDecoder(void const*)
PUBLIC 17939e 0 IBCarbonButton::newControlRef(OpaqueWindowPtr*)
PUBLIC 17944a 0 IBCarbonChasingArrows::makeIBCarbonChasingArrows()
PUBLIC 17949e 0 IBCarbonChasingArrows::defaultControlSize() const
PUBLIC 1794aa 0 IBCarbonChasingArrows::newControlRef(OpaqueWindowPtr*)
PUBLIC 17954a 0 IBCarbonSeparator::~IBCarbonSeparator()
PUBLIC 179552 0 IBCarbonStaticText::~IBCarbonStaticText()
PUBLIC 179554 0 IBCarbonTextView::~IBCarbonTextView()
PUBLIC 179556 0 IBCarbonChasingArrows::~IBCarbonChasingArrows()
PUBLIC 179560 0 IBCarbonChasingArrows::~IBCarbonChasingArrows()
PUBLIC 17958e 0 IBCarbonCheckBox::makeIBCarbonCheckBox()
PUBLIC 1795ea 0 IBCarbonCheckBox::~IBCarbonCheckBox()
PUBLIC 1795f4 0 IBCarbonCheckBox::~IBCarbonCheckBox()
PUBLIC 179622 0 IBCarbonCheckBox::initWithDecoder(void const*)
PUBLIC 179672 0 IBCarbonCheckBox::newControlRef(OpaqueWindowPtr*)
PUBLIC 1796ba 0 IBCarbonClock::makeIBCarbonClock()
PUBLIC 17971c 0 IBCarbonClock::~IBCarbonClock()
PUBLIC 179726 0 IBCarbonClock::~IBCarbonClock()
PUBLIC 179754 0 IBCarbonClock::newControlRef(OpaqueWindowPtr*)
PUBLIC 1797a8 0 IBCarbonClock::initWithDecoder(void const*)
PUBLIC 179820 0 IBCarbonContainer::IBCarbonContainer()
PUBLIC 179854 0 IBCarbonContainer::~IBCarbonContainer()
PUBLIC 1798bc 0 IBCarbonContainer::~IBCarbonContainer()
PUBLIC 1798c6 0 IBCarbonContainer::~IBCarbonContainer()
PUBLIC 1798f4 0 IBCarbonContainer::initWithDecoder(void const*)
PUBLIC 179922 0 IBCarbonContainer::newControlRef(OpaqueWindowPtr*)
PUBLIC 17992a 0 IBCarbonContainer::blowAwayControlRef()
PUBLIC 17998a 0 IBCarbonContainer::createControlHierarchy(OpaqueWindowPtr*, OpaqueControlRef*)
PUBLIC 179a0e 0 IBCarbonContainer::isContainer() const
PUBLIC 179a1a 0 IBCarbonControlApplyAuxiliaryValuesToControl
PUBLIC 179c80 0 _convertOSTypeType(__CFString const*, void**, unsigned int*, unsigned char)
PUBLIC 179d28 0 _IBTypeIndexFromTypeCode(__CFString const*)
PUBLIC 179d88 0 IBSetEventParametersFromDictionary
PUBLIC 179fba 0 _convertUStringType(__CFString const*, void**, unsigned int*, unsigned char)
PUBLIC 17a00d 0 _convertCStringType(__CFString const*, void**, unsigned int*, unsigned char)
PUBLIC 17a0cf 0 _convertBooleanType(__CFString const*, void**, unsigned int*, unsigned char)
PUBLIC 17a14b 0 _convertCFRangeType(__CFString const*, void**, unsigned int*, unsigned char)
PUBLIC 17a247 0 _convertFloatType(__CFString const*, void**, unsigned int*, unsigned char)
PUBLIC 17a2b0 0 _convertSInt32Type(__CFString const*, void**, unsigned int*, unsigned char)
PUBLIC 17a312 0 _convertUInt32Type(__CFString const*, void**, unsigned int*, unsigned char)
PUBLIC 17a38e 0 _convertHIPointType(__CFString const*, void**, unsigned int*, unsigned char)
PUBLIC 17a47a 0 _convertHISizeType(__CFString const*, void**, unsigned int*, unsigned char)
PUBLIC 17a566 0 _convertHIRectType(__CFString const*, void**, unsigned int*, unsigned char)
PUBLIC 17a68d 0 _convertStringToDouble(__CFString const*, double*, unsigned char)
